
2-neopix.elf:     file format elf32-littlearm


Disassembly of section .text:

00008000 <__code_start__>:
    8000:	e3a00013 	mov	r0, #19, 0
    8004:	e3800080 	orr	r0, r0, #128, 0	; 0x80
    8008:	e129f000 	msr	CPSR_fc, r0
    800c:	e3a01000 	mov	r1, #0, 0
    8010:	ee071f95 	mcr	15, 0, r1, cr7, cr5, {4}
    8014:	e3a0d302 	mov	sp, #134217728	; 0x8000000
    8018:	e3a0b000 	mov	fp, #0, 0
    801c:	eb000551 	bl	9568 <_cstart>
    8020:	eb00056b 	bl	95d4 <rpi_reboot>

00008024 <PUT32>:
    8024:	e5801000 	str	r1, [r0]
    8028:	e12fff1e 	bx	lr

0000802c <GET32>:
    802c:	e5900000 	ldr	r0, [r0]
    8030:	e12fff1e 	bx	lr

00008034 <BRANCHTO>:
    8034:	e12fff10 	bx	r0

00008038 <place_cursor>:
    8038:	e92d43f0 	push	{r4, r5, r6, r7, r8, r9, lr}
    803c:	e24dd00c 	sub	sp, sp, #12, 0
    8040:	e1a05000 	mov	r5, r0
    8044:	e1a06001 	mov	r6, r1
    8048:	e35200ff 	cmp	r2, #255, 0	; 0xff
    804c:	9a000067 	bls	81f0 <place_cursor+0x1b8>
    8050:	e2423c01 	sub	r3, r2, #256	; 0x100
    8054:	e35300ff 	cmp	r3, #255, 0	; 0xff
    8058:	9a0000cc 	bls	8390 <place_cursor+0x358>
    805c:	e2423c02 	sub	r3, r2, #512	; 0x200
    8060:	e35300ff 	cmp	r3, #255, 0	; 0xff
    8064:	8a0000c5 	bhi	8380 <place_cursor+0x348>
    8068:	e6ef4072 	uxtb	r4, r2
    806c:	e1e07004 	mvn	r7, r4
    8070:	e6ef7077 	uxtb	r7, r7
    8074:	e58d4000 	str	r4, [sp]
    8078:	e3a03000 	mov	r3, #0, 0
    807c:	e1a02007 	mov	r2, r7
    8080:	eb0002e3 	bl	8c14 <neopix_write>
    8084:	e58d4000 	str	r4, [sp]
    8088:	e3a03000 	mov	r3, #0, 0
    808c:	e1a02007 	mov	r2, r7
    8090:	e1a01006 	mov	r1, r6
    8094:	e1a00005 	mov	r0, r5
    8098:	eb0002dd 	bl	8c14 <neopix_write>
    809c:	e58d4000 	str	r4, [sp]
    80a0:	e3a03000 	mov	r3, #0, 0
    80a4:	e1a02007 	mov	r2, r7
    80a8:	e1a01006 	mov	r1, r6
    80ac:	e1a00005 	mov	r0, r5
    80b0:	eb0002d7 	bl	8c14 <neopix_write>
    80b4:	e58d4000 	str	r4, [sp]
    80b8:	e3a03000 	mov	r3, #0, 0
    80bc:	e1a02007 	mov	r2, r7
    80c0:	e1a01006 	mov	r1, r6
    80c4:	e1a00005 	mov	r0, r5
    80c8:	eb0002d1 	bl	8c14 <neopix_write>
    80cc:	e58d4000 	str	r4, [sp]
    80d0:	e3a03000 	mov	r3, #0, 0
    80d4:	e1a02007 	mov	r2, r7
    80d8:	e1a01006 	mov	r1, r6
    80dc:	e1a00005 	mov	r0, r5
    80e0:	eb0002cb 	bl	8c14 <neopix_write>
    80e4:	e58d4000 	str	r4, [sp]
    80e8:	e3a03000 	mov	r3, #0, 0
    80ec:	e1a02007 	mov	r2, r7
    80f0:	e1a01006 	mov	r1, r6
    80f4:	e1a00005 	mov	r0, r5
    80f8:	eb0002c5 	bl	8c14 <neopix_write>
    80fc:	e58d4000 	str	r4, [sp]
    8100:	e3a03000 	mov	r3, #0, 0
    8104:	e1a02007 	mov	r2, r7
    8108:	e1a01006 	mov	r1, r6
    810c:	e1a00005 	mov	r0, r5
    8110:	eb0002bf 	bl	8c14 <neopix_write>
    8114:	e58d4000 	str	r4, [sp]
    8118:	e3a03000 	mov	r3, #0, 0
    811c:	e1a02007 	mov	r2, r7
    8120:	e1a01006 	mov	r1, r6
    8124:	e1a00005 	mov	r0, r5
    8128:	eb0002b9 	bl	8c14 <neopix_write>
    812c:	e58d4000 	str	r4, [sp]
    8130:	e3a03000 	mov	r3, #0, 0
    8134:	e1a02007 	mov	r2, r7
    8138:	e1a01006 	mov	r1, r6
    813c:	e1a00005 	mov	r0, r5
    8140:	eb0002b3 	bl	8c14 <neopix_write>
    8144:	e58d4000 	str	r4, [sp]
    8148:	e3a03000 	mov	r3, #0, 0
    814c:	e1a02007 	mov	r2, r7
    8150:	e1a01006 	mov	r1, r6
    8154:	e1a00005 	mov	r0, r5
    8158:	eb0002ad 	bl	8c14 <neopix_write>
    815c:	e58d4000 	str	r4, [sp]
    8160:	e3a03000 	mov	r3, #0, 0
    8164:	e1a02007 	mov	r2, r7
    8168:	e1a01006 	mov	r1, r6
    816c:	e1a00005 	mov	r0, r5
    8170:	eb0002a7 	bl	8c14 <neopix_write>
    8174:	e58d4000 	str	r4, [sp]
    8178:	e3a03000 	mov	r3, #0, 0
    817c:	e1a02007 	mov	r2, r7
    8180:	e1a01006 	mov	r1, r6
    8184:	e1a00005 	mov	r0, r5
    8188:	eb0002a1 	bl	8c14 <neopix_write>
    818c:	e58d4000 	str	r4, [sp]
    8190:	e3a03000 	mov	r3, #0, 0
    8194:	e1a02007 	mov	r2, r7
    8198:	e1a01006 	mov	r1, r6
    819c:	e1a00005 	mov	r0, r5
    81a0:	eb00029b 	bl	8c14 <neopix_write>
    81a4:	e58d4000 	str	r4, [sp]
    81a8:	e3a03000 	mov	r3, #0, 0
    81ac:	e1a02007 	mov	r2, r7
    81b0:	e1a01006 	mov	r1, r6
    81b4:	e1a00005 	mov	r0, r5
    81b8:	eb000295 	bl	8c14 <neopix_write>
    81bc:	e58d4000 	str	r4, [sp]
    81c0:	e3a03000 	mov	r3, #0, 0
    81c4:	e1a02007 	mov	r2, r7
    81c8:	e1a01006 	mov	r1, r6
    81cc:	e1a00005 	mov	r0, r5
    81d0:	eb00028f 	bl	8c14 <neopix_write>
    81d4:	e58d4000 	str	r4, [sp]
    81d8:	e3a03000 	mov	r3, #0, 0
    81dc:	e1a02007 	mov	r2, r7
    81e0:	e1a01006 	mov	r1, r6
    81e4:	e1a00005 	mov	r0, r5
    81e8:	eb000289 	bl	8c14 <neopix_write>
    81ec:	ea000063 	b	8380 <place_cursor+0x348>
    81f0:	e2419002 	sub	r9, r1, #2, 0
    81f4:	e6ef4072 	uxtb	r4, r2
    81f8:	e1e07004 	mvn	r7, r4
    81fc:	e6ef7077 	uxtb	r7, r7
    8200:	e58d7000 	str	r7, [sp]
    8204:	e1a03004 	mov	r3, r4
    8208:	e3a02000 	mov	r2, #0, 0
    820c:	e1a01009 	mov	r1, r9
    8210:	eb00027f 	bl	8c14 <neopix_write>
    8214:	e2468001 	sub	r8, r6, #1, 0
    8218:	e58d7000 	str	r7, [sp]
    821c:	e1a03004 	mov	r3, r4
    8220:	e3a02000 	mov	r2, #0, 0
    8224:	e1a01008 	mov	r1, r8
    8228:	e1a00005 	mov	r0, r5
    822c:	eb000278 	bl	8c14 <neopix_write>
    8230:	e58d7000 	str	r7, [sp]
    8234:	e1a03004 	mov	r3, r4
    8238:	e3a02000 	mov	r2, #0, 0
    823c:	e1a01006 	mov	r1, r6
    8240:	e1a00005 	mov	r0, r5
    8244:	eb000272 	bl	8c14 <neopix_write>
    8248:	e58d7000 	str	r7, [sp]
    824c:	e1a03004 	mov	r3, r4
    8250:	e3a02000 	mov	r2, #0, 0
    8254:	e1a01009 	mov	r1, r9
    8258:	e1a00005 	mov	r0, r5
    825c:	eb00026c 	bl	8c14 <neopix_write>
    8260:	e58d7000 	str	r7, [sp]
    8264:	e1a03004 	mov	r3, r4
    8268:	e3a02000 	mov	r2, #0, 0
    826c:	e1a01008 	mov	r1, r8
    8270:	e1a00005 	mov	r0, r5
    8274:	eb000266 	bl	8c14 <neopix_write>
    8278:	e58d7000 	str	r7, [sp]
    827c:	e1a03004 	mov	r3, r4
    8280:	e3a02000 	mov	r2, #0, 0
    8284:	e1a01006 	mov	r1, r6
    8288:	e1a00005 	mov	r0, r5
    828c:	eb000260 	bl	8c14 <neopix_write>
    8290:	e58d7000 	str	r7, [sp]
    8294:	e1a03004 	mov	r3, r4
    8298:	e3a02000 	mov	r2, #0, 0
    829c:	e1a01009 	mov	r1, r9
    82a0:	e1a00005 	mov	r0, r5
    82a4:	eb00025a 	bl	8c14 <neopix_write>
    82a8:	e58d7000 	str	r7, [sp]
    82ac:	e1a03004 	mov	r3, r4
    82b0:	e3a02000 	mov	r2, #0, 0
    82b4:	e1a01008 	mov	r1, r8
    82b8:	e1a00005 	mov	r0, r5
    82bc:	eb000254 	bl	8c14 <neopix_write>
    82c0:	e58d7000 	str	r7, [sp]
    82c4:	e1a03004 	mov	r3, r4
    82c8:	e3a02000 	mov	r2, #0, 0
    82cc:	e1a01006 	mov	r1, r6
    82d0:	e1a00005 	mov	r0, r5
    82d4:	eb00024e 	bl	8c14 <neopix_write>
    82d8:	e58d7000 	str	r7, [sp]
    82dc:	e1a03004 	mov	r3, r4
    82e0:	e3a02000 	mov	r2, #0, 0
    82e4:	e1a01009 	mov	r1, r9
    82e8:	e1a00005 	mov	r0, r5
    82ec:	eb000248 	bl	8c14 <neopix_write>
    82f0:	e58d7000 	str	r7, [sp]
    82f4:	e1a03004 	mov	r3, r4
    82f8:	e3a02000 	mov	r2, #0, 0
    82fc:	e1a01008 	mov	r1, r8
    8300:	e1a00005 	mov	r0, r5
    8304:	eb000242 	bl	8c14 <neopix_write>
    8308:	e58d7000 	str	r7, [sp]
    830c:	e1a03004 	mov	r3, r4
    8310:	e3a02000 	mov	r2, #0, 0
    8314:	e1a01006 	mov	r1, r6
    8318:	e1a00005 	mov	r0, r5
    831c:	eb00023c 	bl	8c14 <neopix_write>
    8320:	e58d7000 	str	r7, [sp]
    8324:	e1a03004 	mov	r3, r4
    8328:	e3a02000 	mov	r2, #0, 0
    832c:	e1a01009 	mov	r1, r9
    8330:	e1a00005 	mov	r0, r5
    8334:	eb000236 	bl	8c14 <neopix_write>
    8338:	e58d7000 	str	r7, [sp]
    833c:	e1a03004 	mov	r3, r4
    8340:	e3a02000 	mov	r2, #0, 0
    8344:	e1a01008 	mov	r1, r8
    8348:	e1a00005 	mov	r0, r5
    834c:	eb000230 	bl	8c14 <neopix_write>
    8350:	e58d7000 	str	r7, [sp]
    8354:	e1a03004 	mov	r3, r4
    8358:	e3a02000 	mov	r2, #0, 0
    835c:	e1a01006 	mov	r1, r6
    8360:	e1a00005 	mov	r0, r5
    8364:	eb00022a 	bl	8c14 <neopix_write>
    8368:	e58d7000 	str	r7, [sp]
    836c:	e1a03004 	mov	r3, r4
    8370:	e3a02000 	mov	r2, #0, 0
    8374:	e1a01006 	mov	r1, r6
    8378:	e1a00005 	mov	r0, r5
    837c:	eb000224 	bl	8c14 <neopix_write>
    8380:	e1a00005 	mov	r0, r5
    8384:	eb000241 	bl	8c90 <neopix_flush>
    8388:	e28dd00c 	add	sp, sp, #12, 0
    838c:	e8bd83f0 	pop	{r4, r5, r6, r7, r8, r9, pc}
    8390:	e2416002 	sub	r6, r1, #2, 0
    8394:	e6ef4072 	uxtb	r4, r2
    8398:	e1e07004 	mvn	r7, r4
    839c:	e6ef7077 	uxtb	r7, r7
    83a0:	e3a08000 	mov	r8, #0, 0
    83a4:	e58d8000 	str	r8, [sp]
    83a8:	e1a03007 	mov	r3, r7
    83ac:	e1a02004 	mov	r2, r4
    83b0:	e1a01006 	mov	r1, r6
    83b4:	eb000216 	bl	8c14 <neopix_write>
    83b8:	e58d8000 	str	r8, [sp]
    83bc:	e1a03007 	mov	r3, r7
    83c0:	e1a02004 	mov	r2, r4
    83c4:	e1a01006 	mov	r1, r6
    83c8:	e1a00005 	mov	r0, r5
    83cc:	eb000210 	bl	8c14 <neopix_write>
    83d0:	e58d8000 	str	r8, [sp]
    83d4:	e1a03007 	mov	r3, r7
    83d8:	e1a02004 	mov	r2, r4
    83dc:	e1a01006 	mov	r1, r6
    83e0:	e1a00005 	mov	r0, r5
    83e4:	eb00020a 	bl	8c14 <neopix_write>
    83e8:	e58d8000 	str	r8, [sp]
    83ec:	e1a03007 	mov	r3, r7
    83f0:	e1a02004 	mov	r2, r4
    83f4:	e1a01006 	mov	r1, r6
    83f8:	e1a00005 	mov	r0, r5
    83fc:	eb000204 	bl	8c14 <neopix_write>
    8400:	e58d8000 	str	r8, [sp]
    8404:	e1a03007 	mov	r3, r7
    8408:	e1a02004 	mov	r2, r4
    840c:	e1a01006 	mov	r1, r6
    8410:	e1a00005 	mov	r0, r5
    8414:	eb0001fe 	bl	8c14 <neopix_write>
    8418:	e58d8000 	str	r8, [sp]
    841c:	e1a03007 	mov	r3, r7
    8420:	e1a02004 	mov	r2, r4
    8424:	e1a01006 	mov	r1, r6
    8428:	e1a00005 	mov	r0, r5
    842c:	eb0001f8 	bl	8c14 <neopix_write>
    8430:	e58d8000 	str	r8, [sp]
    8434:	e1a03007 	mov	r3, r7
    8438:	e1a02004 	mov	r2, r4
    843c:	e1a01006 	mov	r1, r6
    8440:	e1a00005 	mov	r0, r5
    8444:	eb0001f2 	bl	8c14 <neopix_write>
    8448:	e58d8000 	str	r8, [sp]
    844c:	e1a03007 	mov	r3, r7
    8450:	e1a02004 	mov	r2, r4
    8454:	e1a01006 	mov	r1, r6
    8458:	e1a00005 	mov	r0, r5
    845c:	eb0001ec 	bl	8c14 <neopix_write>
    8460:	e58d8000 	str	r8, [sp]
    8464:	e1a03007 	mov	r3, r7
    8468:	e1a02004 	mov	r2, r4
    846c:	e1a01006 	mov	r1, r6
    8470:	e1a00005 	mov	r0, r5
    8474:	eb0001e6 	bl	8c14 <neopix_write>
    8478:	e58d8000 	str	r8, [sp]
    847c:	e1a03007 	mov	r3, r7
    8480:	e1a02004 	mov	r2, r4
    8484:	e1a01006 	mov	r1, r6
    8488:	e1a00005 	mov	r0, r5
    848c:	eb0001e0 	bl	8c14 <neopix_write>
    8490:	e58d8000 	str	r8, [sp]
    8494:	e1a03007 	mov	r3, r7
    8498:	e1a02004 	mov	r2, r4
    849c:	e1a01006 	mov	r1, r6
    84a0:	e1a00005 	mov	r0, r5
    84a4:	eb0001da 	bl	8c14 <neopix_write>
    84a8:	e58d8000 	str	r8, [sp]
    84ac:	e1a03007 	mov	r3, r7
    84b0:	e1a02004 	mov	r2, r4
    84b4:	e1a01006 	mov	r1, r6
    84b8:	e1a00005 	mov	r0, r5
    84bc:	eb0001d4 	bl	8c14 <neopix_write>
    84c0:	e58d8000 	str	r8, [sp]
    84c4:	e1a03007 	mov	r3, r7
    84c8:	e1a02004 	mov	r2, r4
    84cc:	e1a01006 	mov	r1, r6
    84d0:	e1a00005 	mov	r0, r5
    84d4:	eb0001ce 	bl	8c14 <neopix_write>
    84d8:	e58d8000 	str	r8, [sp]
    84dc:	e1a03007 	mov	r3, r7
    84e0:	e1a02004 	mov	r2, r4
    84e4:	e1a01006 	mov	r1, r6
    84e8:	e1a00005 	mov	r0, r5
    84ec:	eb0001c8 	bl	8c14 <neopix_write>
    84f0:	e58d8000 	str	r8, [sp]
    84f4:	e1a03007 	mov	r3, r7
    84f8:	e1a02004 	mov	r2, r4
    84fc:	e1a01006 	mov	r1, r6
    8500:	e1a00005 	mov	r0, r5
    8504:	eb0001c2 	bl	8c14 <neopix_write>
    8508:	e58d8000 	str	r8, [sp]
    850c:	e1a03007 	mov	r3, r7
    8510:	e1a02004 	mov	r2, r4
    8514:	e1a01006 	mov	r1, r6
    8518:	e1a00005 	mov	r0, r5
    851c:	eb0001bc 	bl	8c14 <neopix_write>
    8520:	eaffff96 	b	8380 <place_cursor+0x348>

00008524 <notmain>:
    8524:	e92d4070 	push	{r4, r5, r6, lr}
    8528:	eb0003fb 	bl	951c <enable_cache>
    852c:	e3a00015 	mov	r0, #21, 0
    8530:	eb000476 	bl	9710 <gpio_set_output>
    8534:	e3a01012 	mov	r1, #18, 0
    8538:	e3a00015 	mov	r0, #21, 0
    853c:	eb000195 	bl	8b98 <neopix_init>
    8540:	e1a06000 	mov	r6, r0
    8544:	e3a05000 	mov	r5, #0, 0
    8548:	ea000000 	b	8550 <notmain+0x2c>
    854c:	e2855001 	add	r5, r5, #1, 0
    8550:	e3550c03 	cmp	r5, #768	; 0x300
    8554:	aa000008 	bge	857c <notmain+0x58>
    8558:	e3a04000 	mov	r4, #0, 0
    855c:	e3540011 	cmp	r4, #17, 0
    8560:	8afffff9 	bhi	854c <notmain+0x28>
    8564:	e1a02005 	mov	r2, r5
    8568:	e1a01004 	mov	r1, r4
    856c:	e1a00006 	mov	r0, r6
    8570:	ebfffeb0 	bl	8038 <place_cursor>
    8574:	e2844001 	add	r4, r4, #1, 0
    8578:	eafffff7 	b	855c <notmain+0x38>
    857c:	e59f0004 	ldr	r0, [pc, #4]	; 8588 <notmain+0x64>
    8580:	eb0001f2 	bl	8d50 <printk>
    8584:	e8bd8070 	pop	{r4, r5, r6, pc}
    8588:	00009e70 	andeq	r9, r0, r0, ror lr
    858c:	00000000 	andeq	r0, r0, r0

00008590 <pix_sendbyte>:
    8590:	e3110080 	tst	r1, #128, 0	; 0x80
    8594:	0a0000be 	beq	8894 <pix_sendbyte+0x304>
    8598:	ee1f2f3c 	mrc	15, 0, r2, cr15, cr12, {1}
    859c:	e350001f 	cmp	r0, #31, 0
    85a0:	93a03001 	movls	r3, #1, 0
    85a4:	91a03013 	lslls	r3, r3, r0
    85a8:	959fc5e4 	ldrls	ip, [pc, #1508]	; 8b94 <pix_sendbyte+0x604>
    85ac:	958c301c 	strls	r3, [ip, #28]
    85b0:	ee1f3f3c 	mrc	15, 0, r3, cr15, cr12, {1}
    85b4:	e0433002 	sub	r3, r3, r2
    85b8:	e3530f8a 	cmp	r3, #552	; 0x228
    85bc:	3afffffb 	bcc	85b0 <pix_sendbyte+0x20>
    85c0:	ee1f2f3c 	mrc	15, 0, r2, cr15, cr12, {1}
    85c4:	e350001f 	cmp	r0, #31, 0
    85c8:	93a03001 	movls	r3, #1, 0
    85cc:	91a03013 	lslls	r3, r3, r0
    85d0:	959fc5bc 	ldrls	ip, [pc, #1468]	; 8b94 <pix_sendbyte+0x604>
    85d4:	958c3028 	strls	r3, [ip, #40]	; 0x28
    85d8:	e320f000 	nop	{0}
    85dc:	e320f000 	nop	{0}
    85e0:	ee1f3f3c 	mrc	15, 0, r3, cr15, cr12, {1}
    85e4:	e0433002 	sub	r3, r3, r2
    85e8:	e3530f8a 	cmp	r3, #552	; 0x228
    85ec:	3afffffb 	bcc	85e0 <pix_sendbyte+0x50>
    85f0:	e3110040 	tst	r1, #64, 0	; 0x40
    85f4:	0a0000be 	beq	88f4 <pix_sendbyte+0x364>
    85f8:	ee1f2f3c 	mrc	15, 0, r2, cr15, cr12, {1}
    85fc:	e350001f 	cmp	r0, #31, 0
    8600:	93a03001 	movls	r3, #1, 0
    8604:	91a03013 	lslls	r3, r3, r0
    8608:	959fc584 	ldrls	ip, [pc, #1412]	; 8b94 <pix_sendbyte+0x604>
    860c:	958c301c 	strls	r3, [ip, #28]
    8610:	ee1f3f3c 	mrc	15, 0, r3, cr15, cr12, {1}
    8614:	e0433002 	sub	r3, r3, r2
    8618:	e3530f8a 	cmp	r3, #552	; 0x228
    861c:	3afffffb 	bcc	8610 <pix_sendbyte+0x80>
    8620:	ee1f2f3c 	mrc	15, 0, r2, cr15, cr12, {1}
    8624:	e350001f 	cmp	r0, #31, 0
    8628:	93a03001 	movls	r3, #1, 0
    862c:	91a03013 	lslls	r3, r3, r0
    8630:	959fc55c 	ldrls	ip, [pc, #1372]	; 8b94 <pix_sendbyte+0x604>
    8634:	958c3028 	strls	r3, [ip, #40]	; 0x28
    8638:	e320f000 	nop	{0}
    863c:	e320f000 	nop	{0}
    8640:	ee1f3f3c 	mrc	15, 0, r3, cr15, cr12, {1}
    8644:	e0433002 	sub	r3, r3, r2
    8648:	e3530f8a 	cmp	r3, #552	; 0x228
    864c:	3afffffb 	bcc	8640 <pix_sendbyte+0xb0>
    8650:	e3110020 	tst	r1, #32, 0
    8654:	0a0000be 	beq	8954 <pix_sendbyte+0x3c4>
    8658:	ee1f2f3c 	mrc	15, 0, r2, cr15, cr12, {1}
    865c:	e350001f 	cmp	r0, #31, 0
    8660:	93a03001 	movls	r3, #1, 0
    8664:	91a03013 	lslls	r3, r3, r0
    8668:	959fc524 	ldrls	ip, [pc, #1316]	; 8b94 <pix_sendbyte+0x604>
    866c:	958c301c 	strls	r3, [ip, #28]
    8670:	ee1f3f3c 	mrc	15, 0, r3, cr15, cr12, {1}
    8674:	e0433002 	sub	r3, r3, r2
    8678:	e3530f8a 	cmp	r3, #552	; 0x228
    867c:	3afffffb 	bcc	8670 <pix_sendbyte+0xe0>
    8680:	ee1f2f3c 	mrc	15, 0, r2, cr15, cr12, {1}
    8684:	e350001f 	cmp	r0, #31, 0
    8688:	93a03001 	movls	r3, #1, 0
    868c:	91a03013 	lslls	r3, r3, r0
    8690:	959fc4fc 	ldrls	ip, [pc, #1276]	; 8b94 <pix_sendbyte+0x604>
    8694:	958c3028 	strls	r3, [ip, #40]	; 0x28
    8698:	e320f000 	nop	{0}
    869c:	e320f000 	nop	{0}
    86a0:	ee1f3f3c 	mrc	15, 0, r3, cr15, cr12, {1}
    86a4:	e0433002 	sub	r3, r3, r2
    86a8:	e3530f8a 	cmp	r3, #552	; 0x228
    86ac:	3afffffb 	bcc	86a0 <pix_sendbyte+0x110>
    86b0:	e3110010 	tst	r1, #16, 0
    86b4:	0a0000be 	beq	89b4 <pix_sendbyte+0x424>
    86b8:	ee1f2f3c 	mrc	15, 0, r2, cr15, cr12, {1}
    86bc:	e350001f 	cmp	r0, #31, 0
    86c0:	93a03001 	movls	r3, #1, 0
    86c4:	91a03013 	lslls	r3, r3, r0
    86c8:	959fc4c4 	ldrls	ip, [pc, #1220]	; 8b94 <pix_sendbyte+0x604>
    86cc:	958c301c 	strls	r3, [ip, #28]
    86d0:	ee1f3f3c 	mrc	15, 0, r3, cr15, cr12, {1}
    86d4:	e0433002 	sub	r3, r3, r2
    86d8:	e3530f8a 	cmp	r3, #552	; 0x228
    86dc:	3afffffb 	bcc	86d0 <pix_sendbyte+0x140>
    86e0:	ee1f2f3c 	mrc	15, 0, r2, cr15, cr12, {1}
    86e4:	e350001f 	cmp	r0, #31, 0
    86e8:	93a03001 	movls	r3, #1, 0
    86ec:	91a03013 	lslls	r3, r3, r0
    86f0:	959fc49c 	ldrls	ip, [pc, #1180]	; 8b94 <pix_sendbyte+0x604>
    86f4:	958c3028 	strls	r3, [ip, #40]	; 0x28
    86f8:	e320f000 	nop	{0}
    86fc:	e320f000 	nop	{0}
    8700:	ee1f3f3c 	mrc	15, 0, r3, cr15, cr12, {1}
    8704:	e0433002 	sub	r3, r3, r2
    8708:	e3530f8a 	cmp	r3, #552	; 0x228
    870c:	3afffffb 	bcc	8700 <pix_sendbyte+0x170>
    8710:	e3110008 	tst	r1, #8, 0
    8714:	0a0000be 	beq	8a14 <pix_sendbyte+0x484>
    8718:	ee1f2f3c 	mrc	15, 0, r2, cr15, cr12, {1}
    871c:	e350001f 	cmp	r0, #31, 0
    8720:	93a03001 	movls	r3, #1, 0
    8724:	91a03013 	lslls	r3, r3, r0
    8728:	959fc464 	ldrls	ip, [pc, #1124]	; 8b94 <pix_sendbyte+0x604>
    872c:	958c301c 	strls	r3, [ip, #28]
    8730:	ee1f3f3c 	mrc	15, 0, r3, cr15, cr12, {1}
    8734:	e0433002 	sub	r3, r3, r2
    8738:	e3530f8a 	cmp	r3, #552	; 0x228
    873c:	3afffffb 	bcc	8730 <pix_sendbyte+0x1a0>
    8740:	ee1f2f3c 	mrc	15, 0, r2, cr15, cr12, {1}
    8744:	e350001f 	cmp	r0, #31, 0
    8748:	93a03001 	movls	r3, #1, 0
    874c:	91a03013 	lslls	r3, r3, r0
    8750:	959fc43c 	ldrls	ip, [pc, #1084]	; 8b94 <pix_sendbyte+0x604>
    8754:	958c3028 	strls	r3, [ip, #40]	; 0x28
    8758:	e320f000 	nop	{0}
    875c:	e320f000 	nop	{0}
    8760:	ee1f3f3c 	mrc	15, 0, r3, cr15, cr12, {1}
    8764:	e0433002 	sub	r3, r3, r2
    8768:	e3530f8a 	cmp	r3, #552	; 0x228
    876c:	3afffffb 	bcc	8760 <pix_sendbyte+0x1d0>
    8770:	e3110004 	tst	r1, #4, 0
    8774:	0a0000be 	beq	8a74 <pix_sendbyte+0x4e4>
    8778:	ee1f2f3c 	mrc	15, 0, r2, cr15, cr12, {1}
    877c:	e350001f 	cmp	r0, #31, 0
    8780:	93a03001 	movls	r3, #1, 0
    8784:	91a03013 	lslls	r3, r3, r0
    8788:	959fc404 	ldrls	ip, [pc, #1028]	; 8b94 <pix_sendbyte+0x604>
    878c:	958c301c 	strls	r3, [ip, #28]
    8790:	ee1f3f3c 	mrc	15, 0, r3, cr15, cr12, {1}
    8794:	e0433002 	sub	r3, r3, r2
    8798:	e3530f8a 	cmp	r3, #552	; 0x228
    879c:	3afffffb 	bcc	8790 <pix_sendbyte+0x200>
    87a0:	ee1f2f3c 	mrc	15, 0, r2, cr15, cr12, {1}
    87a4:	e350001f 	cmp	r0, #31, 0
    87a8:	93a03001 	movls	r3, #1, 0
    87ac:	91a03013 	lslls	r3, r3, r0
    87b0:	959fc3dc 	ldrls	ip, [pc, #988]	; 8b94 <pix_sendbyte+0x604>
    87b4:	958c3028 	strls	r3, [ip, #40]	; 0x28
    87b8:	e320f000 	nop	{0}
    87bc:	e320f000 	nop	{0}
    87c0:	ee1f3f3c 	mrc	15, 0, r3, cr15, cr12, {1}
    87c4:	e0433002 	sub	r3, r3, r2
    87c8:	e3530f8a 	cmp	r3, #552	; 0x228
    87cc:	3afffffb 	bcc	87c0 <pix_sendbyte+0x230>
    87d0:	e3110002 	tst	r1, #2, 0
    87d4:	0a0000be 	beq	8ad4 <pix_sendbyte+0x544>
    87d8:	ee1f2f3c 	mrc	15, 0, r2, cr15, cr12, {1}
    87dc:	e350001f 	cmp	r0, #31, 0
    87e0:	93a03001 	movls	r3, #1, 0
    87e4:	91a03013 	lslls	r3, r3, r0
    87e8:	959fc3a4 	ldrls	ip, [pc, #932]	; 8b94 <pix_sendbyte+0x604>
    87ec:	958c301c 	strls	r3, [ip, #28]
    87f0:	ee1f3f3c 	mrc	15, 0, r3, cr15, cr12, {1}
    87f4:	e0433002 	sub	r3, r3, r2
    87f8:	e3530f8a 	cmp	r3, #552	; 0x228
    87fc:	3afffffb 	bcc	87f0 <pix_sendbyte+0x260>
    8800:	ee1f2f3c 	mrc	15, 0, r2, cr15, cr12, {1}
    8804:	e350001f 	cmp	r0, #31, 0
    8808:	93a03001 	movls	r3, #1, 0
    880c:	91a03013 	lslls	r3, r3, r0
    8810:	959fc37c 	ldrls	ip, [pc, #892]	; 8b94 <pix_sendbyte+0x604>
    8814:	958c3028 	strls	r3, [ip, #40]	; 0x28
    8818:	e320f000 	nop	{0}
    881c:	e320f000 	nop	{0}
    8820:	ee1f3f3c 	mrc	15, 0, r3, cr15, cr12, {1}
    8824:	e0433002 	sub	r3, r3, r2
    8828:	e3530f8a 	cmp	r3, #552	; 0x228
    882c:	3afffffb 	bcc	8820 <pix_sendbyte+0x290>
    8830:	e3110001 	tst	r1, #1, 0
    8834:	0a0000be 	beq	8b34 <pix_sendbyte+0x5a4>
    8838:	ee1f2f3c 	mrc	15, 0, r2, cr15, cr12, {1}
    883c:	e350001f 	cmp	r0, #31, 0
    8840:	93a03001 	movls	r3, #1, 0
    8844:	91a03013 	lslls	r3, r3, r0
    8848:	959f1344 	ldrls	r1, [pc, #836]	; 8b94 <pix_sendbyte+0x604>
    884c:	9581301c 	strls	r3, [r1, #28]
    8850:	ee1f3f3c 	mrc	15, 0, r3, cr15, cr12, {1}
    8854:	e0433002 	sub	r3, r3, r2
    8858:	e3530f8a 	cmp	r3, #552	; 0x228
    885c:	3afffffb 	bcc	8850 <pix_sendbyte+0x2c0>
    8860:	ee1f2f3c 	mrc	15, 0, r2, cr15, cr12, {1}
    8864:	e350001f 	cmp	r0, #31, 0
    8868:	93a03001 	movls	r3, #1, 0
    886c:	91a00013 	lslls	r0, r3, r0
    8870:	959f331c 	ldrls	r3, [pc, #796]	; 8b94 <pix_sendbyte+0x604>
    8874:	95830028 	strls	r0, [r3, #40]	; 0x28
    8878:	e320f000 	nop	{0}
    887c:	e320f000 	nop	{0}
    8880:	ee1f3f3c 	mrc	15, 0, r3, cr15, cr12, {1}
    8884:	e0433002 	sub	r3, r3, r2
    8888:	e3530f8a 	cmp	r3, #552	; 0x228
    888c:	3afffffb 	bcc	8880 <pix_sendbyte+0x2f0>
    8890:	e12fff1e 	bx	lr
    8894:	ee1f2f3c 	mrc	15, 0, r2, cr15, cr12, {1}
    8898:	e350001f 	cmp	r0, #31, 0
    889c:	93a03001 	movls	r3, #1, 0
    88a0:	91a03013 	lslls	r3, r3, r0
    88a4:	959fc2e8 	ldrls	ip, [pc, #744]	; 8b94 <pix_sendbyte+0x604>
    88a8:	958c301c 	strls	r3, [ip, #28]
    88ac:	e320f000 	nop	{0}
    88b0:	ee1f3f3c 	mrc	15, 0, r3, cr15, cr12, {1}
    88b4:	e0433002 	sub	r3, r3, r2
    88b8:	e35300a6 	cmp	r3, #166, 0	; 0xa6
    88bc:	9afffffb 	bls	88b0 <pix_sendbyte+0x320>
    88c0:	ee1f2f3c 	mrc	15, 0, r2, cr15, cr12, {1}
    88c4:	e350001f 	cmp	r0, #31, 0
    88c8:	93a03001 	movls	r3, #1, 0
    88cc:	91a03013 	lslls	r3, r3, r0
    88d0:	959fc2bc 	ldrls	ip, [pc, #700]	; 8b94 <pix_sendbyte+0x604>
    88d4:	958c3028 	strls	r3, [ip, #40]	; 0x28
    88d8:	e320f000 	nop	{0}
    88dc:	e320f000 	nop	{0}
    88e0:	ee1f3f3c 	mrc	15, 0, r3, cr15, cr12, {1}
    88e4:	e0433002 	sub	r3, r3, r2
    88e8:	e3530f8a 	cmp	r3, #552	; 0x228
    88ec:	3afffffb 	bcc	88e0 <pix_sendbyte+0x350>
    88f0:	eaffff3e 	b	85f0 <pix_sendbyte+0x60>
    88f4:	ee1f2f3c 	mrc	15, 0, r2, cr15, cr12, {1}
    88f8:	e350001f 	cmp	r0, #31, 0
    88fc:	93a03001 	movls	r3, #1, 0
    8900:	91a03013 	lslls	r3, r3, r0
    8904:	959fc288 	ldrls	ip, [pc, #648]	; 8b94 <pix_sendbyte+0x604>
    8908:	958c301c 	strls	r3, [ip, #28]
    890c:	e320f000 	nop	{0}
    8910:	ee1f3f3c 	mrc	15, 0, r3, cr15, cr12, {1}
    8914:	e0433002 	sub	r3, r3, r2
    8918:	e35300a6 	cmp	r3, #166, 0	; 0xa6
    891c:	9afffffb 	bls	8910 <pix_sendbyte+0x380>
    8920:	ee1f2f3c 	mrc	15, 0, r2, cr15, cr12, {1}
    8924:	e350001f 	cmp	r0, #31, 0
    8928:	93a03001 	movls	r3, #1, 0
    892c:	91a03013 	lslls	r3, r3, r0
    8930:	959fc25c 	ldrls	ip, [pc, #604]	; 8b94 <pix_sendbyte+0x604>
    8934:	958c3028 	strls	r3, [ip, #40]	; 0x28
    8938:	e320f000 	nop	{0}
    893c:	e320f000 	nop	{0}
    8940:	ee1f3f3c 	mrc	15, 0, r3, cr15, cr12, {1}
    8944:	e0433002 	sub	r3, r3, r2
    8948:	e3530f8a 	cmp	r3, #552	; 0x228
    894c:	3afffffb 	bcc	8940 <pix_sendbyte+0x3b0>
    8950:	eaffff3e 	b	8650 <pix_sendbyte+0xc0>
    8954:	ee1f2f3c 	mrc	15, 0, r2, cr15, cr12, {1}
    8958:	e350001f 	cmp	r0, #31, 0
    895c:	93a03001 	movls	r3, #1, 0
    8960:	91a03013 	lslls	r3, r3, r0
    8964:	959fc228 	ldrls	ip, [pc, #552]	; 8b94 <pix_sendbyte+0x604>
    8968:	958c301c 	strls	r3, [ip, #28]
    896c:	e320f000 	nop	{0}
    8970:	ee1f3f3c 	mrc	15, 0, r3, cr15, cr12, {1}
    8974:	e0433002 	sub	r3, r3, r2
    8978:	e35300a6 	cmp	r3, #166, 0	; 0xa6
    897c:	9afffffb 	bls	8970 <pix_sendbyte+0x3e0>
    8980:	ee1f2f3c 	mrc	15, 0, r2, cr15, cr12, {1}
    8984:	e350001f 	cmp	r0, #31, 0
    8988:	93a03001 	movls	r3, #1, 0
    898c:	91a03013 	lslls	r3, r3, r0
    8990:	959fc1fc 	ldrls	ip, [pc, #508]	; 8b94 <pix_sendbyte+0x604>
    8994:	958c3028 	strls	r3, [ip, #40]	; 0x28
    8998:	e320f000 	nop	{0}
    899c:	e320f000 	nop	{0}
    89a0:	ee1f3f3c 	mrc	15, 0, r3, cr15, cr12, {1}
    89a4:	e0433002 	sub	r3, r3, r2
    89a8:	e3530f8a 	cmp	r3, #552	; 0x228
    89ac:	3afffffb 	bcc	89a0 <pix_sendbyte+0x410>
    89b0:	eaffff3e 	b	86b0 <pix_sendbyte+0x120>
    89b4:	ee1f2f3c 	mrc	15, 0, r2, cr15, cr12, {1}
    89b8:	e350001f 	cmp	r0, #31, 0
    89bc:	93a03001 	movls	r3, #1, 0
    89c0:	91a03013 	lslls	r3, r3, r0
    89c4:	959fc1c8 	ldrls	ip, [pc, #456]	; 8b94 <pix_sendbyte+0x604>
    89c8:	958c301c 	strls	r3, [ip, #28]
    89cc:	e320f000 	nop	{0}
    89d0:	ee1f3f3c 	mrc	15, 0, r3, cr15, cr12, {1}
    89d4:	e0433002 	sub	r3, r3, r2
    89d8:	e35300a6 	cmp	r3, #166, 0	; 0xa6
    89dc:	9afffffb 	bls	89d0 <pix_sendbyte+0x440>
    89e0:	ee1f2f3c 	mrc	15, 0, r2, cr15, cr12, {1}
    89e4:	e350001f 	cmp	r0, #31, 0
    89e8:	93a03001 	movls	r3, #1, 0
    89ec:	91a03013 	lslls	r3, r3, r0
    89f0:	959fc19c 	ldrls	ip, [pc, #412]	; 8b94 <pix_sendbyte+0x604>
    89f4:	958c3028 	strls	r3, [ip, #40]	; 0x28
    89f8:	e320f000 	nop	{0}
    89fc:	e320f000 	nop	{0}
    8a00:	ee1f3f3c 	mrc	15, 0, r3, cr15, cr12, {1}
    8a04:	e0433002 	sub	r3, r3, r2
    8a08:	e3530f8a 	cmp	r3, #552	; 0x228
    8a0c:	3afffffb 	bcc	8a00 <pix_sendbyte+0x470>
    8a10:	eaffff3e 	b	8710 <pix_sendbyte+0x180>
    8a14:	ee1f2f3c 	mrc	15, 0, r2, cr15, cr12, {1}
    8a18:	e350001f 	cmp	r0, #31, 0
    8a1c:	93a03001 	movls	r3, #1, 0
    8a20:	91a03013 	lslls	r3, r3, r0
    8a24:	959fc168 	ldrls	ip, [pc, #360]	; 8b94 <pix_sendbyte+0x604>
    8a28:	958c301c 	strls	r3, [ip, #28]
    8a2c:	e320f000 	nop	{0}
    8a30:	ee1f3f3c 	mrc	15, 0, r3, cr15, cr12, {1}
    8a34:	e0433002 	sub	r3, r3, r2
    8a38:	e35300a6 	cmp	r3, #166, 0	; 0xa6
    8a3c:	9afffffb 	bls	8a30 <pix_sendbyte+0x4a0>
    8a40:	ee1f2f3c 	mrc	15, 0, r2, cr15, cr12, {1}
    8a44:	e350001f 	cmp	r0, #31, 0
    8a48:	93a03001 	movls	r3, #1, 0
    8a4c:	91a03013 	lslls	r3, r3, r0
    8a50:	959fc13c 	ldrls	ip, [pc, #316]	; 8b94 <pix_sendbyte+0x604>
    8a54:	958c3028 	strls	r3, [ip, #40]	; 0x28
    8a58:	e320f000 	nop	{0}
    8a5c:	e320f000 	nop	{0}
    8a60:	ee1f3f3c 	mrc	15, 0, r3, cr15, cr12, {1}
    8a64:	e0433002 	sub	r3, r3, r2
    8a68:	e3530f8a 	cmp	r3, #552	; 0x228
    8a6c:	3afffffb 	bcc	8a60 <pix_sendbyte+0x4d0>
    8a70:	eaffff3e 	b	8770 <pix_sendbyte+0x1e0>
    8a74:	ee1f2f3c 	mrc	15, 0, r2, cr15, cr12, {1}
    8a78:	e350001f 	cmp	r0, #31, 0
    8a7c:	93a03001 	movls	r3, #1, 0
    8a80:	91a03013 	lslls	r3, r3, r0
    8a84:	959fc108 	ldrls	ip, [pc, #264]	; 8b94 <pix_sendbyte+0x604>
    8a88:	958c301c 	strls	r3, [ip, #28]
    8a8c:	e320f000 	nop	{0}
    8a90:	ee1f3f3c 	mrc	15, 0, r3, cr15, cr12, {1}
    8a94:	e0433002 	sub	r3, r3, r2
    8a98:	e35300a6 	cmp	r3, #166, 0	; 0xa6
    8a9c:	9afffffb 	bls	8a90 <pix_sendbyte+0x500>
    8aa0:	ee1f2f3c 	mrc	15, 0, r2, cr15, cr12, {1}
    8aa4:	e350001f 	cmp	r0, #31, 0
    8aa8:	93a03001 	movls	r3, #1, 0
    8aac:	91a03013 	lslls	r3, r3, r0
    8ab0:	959fc0dc 	ldrls	ip, [pc, #220]	; 8b94 <pix_sendbyte+0x604>
    8ab4:	958c3028 	strls	r3, [ip, #40]	; 0x28
    8ab8:	e320f000 	nop	{0}
    8abc:	e320f000 	nop	{0}
    8ac0:	ee1f3f3c 	mrc	15, 0, r3, cr15, cr12, {1}
    8ac4:	e0433002 	sub	r3, r3, r2
    8ac8:	e3530f8a 	cmp	r3, #552	; 0x228
    8acc:	3afffffb 	bcc	8ac0 <pix_sendbyte+0x530>
    8ad0:	eaffff3e 	b	87d0 <pix_sendbyte+0x240>
    8ad4:	ee1f2f3c 	mrc	15, 0, r2, cr15, cr12, {1}
    8ad8:	e350001f 	cmp	r0, #31, 0
    8adc:	93a03001 	movls	r3, #1, 0
    8ae0:	91a03013 	lslls	r3, r3, r0
    8ae4:	959fc0a8 	ldrls	ip, [pc, #168]	; 8b94 <pix_sendbyte+0x604>
    8ae8:	958c301c 	strls	r3, [ip, #28]
    8aec:	e320f000 	nop	{0}
    8af0:	ee1f3f3c 	mrc	15, 0, r3, cr15, cr12, {1}
    8af4:	e0433002 	sub	r3, r3, r2
    8af8:	e35300a6 	cmp	r3, #166, 0	; 0xa6
    8afc:	9afffffb 	bls	8af0 <pix_sendbyte+0x560>
    8b00:	ee1f2f3c 	mrc	15, 0, r2, cr15, cr12, {1}
    8b04:	e350001f 	cmp	r0, #31, 0
    8b08:	93a03001 	movls	r3, #1, 0
    8b0c:	91a03013 	lslls	r3, r3, r0
    8b10:	959fc07c 	ldrls	ip, [pc, #124]	; 8b94 <pix_sendbyte+0x604>
    8b14:	958c3028 	strls	r3, [ip, #40]	; 0x28
    8b18:	e320f000 	nop	{0}
    8b1c:	e320f000 	nop	{0}
    8b20:	ee1f3f3c 	mrc	15, 0, r3, cr15, cr12, {1}
    8b24:	e0433002 	sub	r3, r3, r2
    8b28:	e3530f8a 	cmp	r3, #552	; 0x228
    8b2c:	3afffffb 	bcc	8b20 <pix_sendbyte+0x590>
    8b30:	eaffff3e 	b	8830 <pix_sendbyte+0x2a0>
    8b34:	ee1f2f3c 	mrc	15, 0, r2, cr15, cr12, {1}
    8b38:	e350001f 	cmp	r0, #31, 0
    8b3c:	93a03001 	movls	r3, #1, 0
    8b40:	91a03013 	lslls	r3, r3, r0
    8b44:	959f1048 	ldrls	r1, [pc, #72]	; 8b94 <pix_sendbyte+0x604>
    8b48:	9581301c 	strls	r3, [r1, #28]
    8b4c:	e320f000 	nop	{0}
    8b50:	ee1f3f3c 	mrc	15, 0, r3, cr15, cr12, {1}
    8b54:	e0433002 	sub	r3, r3, r2
    8b58:	e35300a6 	cmp	r3, #166, 0	; 0xa6
    8b5c:	9afffffb 	bls	8b50 <pix_sendbyte+0x5c0>
    8b60:	ee1f2f3c 	mrc	15, 0, r2, cr15, cr12, {1}
    8b64:	e350001f 	cmp	r0, #31, 0
    8b68:	93a03001 	movls	r3, #1, 0
    8b6c:	91a00013 	lslls	r0, r3, r0
    8b70:	959f301c 	ldrls	r3, [pc, #28]	; 8b94 <pix_sendbyte+0x604>
    8b74:	95830028 	strls	r0, [r3, #40]	; 0x28
    8b78:	e320f000 	nop	{0}
    8b7c:	e320f000 	nop	{0}
    8b80:	ee1f3f3c 	mrc	15, 0, r3, cr15, cr12, {1}
    8b84:	e0433002 	sub	r3, r3, r2
    8b88:	e3530f8a 	cmp	r3, #552	; 0x228
    8b8c:	3afffffb 	bcc	8b80 <pix_sendbyte+0x5f0>
    8b90:	e12fff1e 	bx	lr
    8b94:	20200000 	eorcs	r0, r0, r0

00008b98 <neopix_init>:
    8b98:	e92d41f0 	push	{r4, r5, r6, r7, r8, lr}
    8b9c:	e1a06000 	mov	r6, r0
    8ba0:	e1a05001 	mov	r5, r1
    8ba4:	e0817081 	add	r7, r1, r1, lsl #1
    8ba8:	e2877008 	add	r7, r7, #8, 0
    8bac:	e1a00007 	mov	r0, r7
    8bb0:	eb0003ef 	bl	9b74 <kmalloc>
    8bb4:	e1a04000 	mov	r4, r0
    8bb8:	e1a02007 	mov	r2, r7
    8bbc:	e3a01000 	mov	r1, #0, 0
    8bc0:	eb00005c 	bl	8d38 <memset>
    8bc4:	e5845004 	str	r5, [r4, #4]
    8bc8:	e5c46000 	strb	r6, [r4]
    8bcc:	e1a00006 	mov	r0, r6
    8bd0:	eb0002ce 	bl	9710 <gpio_set_output>
    8bd4:	e1a00004 	mov	r0, r4
    8bd8:	e8bd81f0 	pop	{r4, r5, r6, r7, r8, pc}

00008bdc <neopix_sendpixel>:
    8bdc:	e92d4070 	push	{r4, r5, r6, lr}
    8be0:	e1a06001 	mov	r6, r1
    8be4:	e1a05003 	mov	r5, r3
    8be8:	e5d04000 	ldrb	r4, [r0]
    8bec:	e1a01002 	mov	r1, r2
    8bf0:	e1a00004 	mov	r0, r4
    8bf4:	ebfffe65 	bl	8590 <pix_sendbyte>
    8bf8:	e1a01006 	mov	r1, r6
    8bfc:	e1a00004 	mov	r0, r4
    8c00:	ebfffe62 	bl	8590 <pix_sendbyte>
    8c04:	e1a01005 	mov	r1, r5
    8c08:	e1a00004 	mov	r0, r4
    8c0c:	ebfffe5f 	bl	8590 <pix_sendbyte>
    8c10:	e8bd8070 	pop	{r4, r5, r6, pc}

00008c14 <neopix_write>:
    8c14:	e590c004 	ldr	ip, [r0, #4]
    8c18:	e15c0001 	cmp	ip, r1
    8c1c:	312fff1e 	bxcc	lr
    8c20:	e0811081 	add	r1, r1, r1, lsl #1
    8c24:	e0800001 	add	r0, r0, r1
    8c28:	e5c02008 	strb	r2, [r0, #8]
    8c2c:	e5c03009 	strb	r3, [r0, #9]
    8c30:	e5dd3000 	ldrb	r3, [sp]
    8c34:	e5c0300a 	strb	r3, [r0, #10]
    8c38:	e12fff1e 	bx	lr

00008c3c <neopix_fast_clear>:
    8c3c:	e92d4070 	push	{r4, r5, r6, lr}
    8c40:	e24dd008 	sub	sp, sp, #8, 0
    8c44:	e1a06000 	mov	r6, r0
    8c48:	e1a05001 	mov	r5, r1
    8c4c:	e3a04000 	mov	r4, #0, 0
    8c50:	e1540005 	cmp	r4, r5
    8c54:	2a000007 	bcs	8c78 <neopix_fast_clear+0x3c>
    8c58:	e3a02000 	mov	r2, #0, 0
    8c5c:	e58d2000 	str	r2, [sp]
    8c60:	e1a03002 	mov	r3, r2
    8c64:	e1a01004 	mov	r1, r4
    8c68:	e1a00006 	mov	r0, r6
    8c6c:	ebffffe8 	bl	8c14 <neopix_write>
    8c70:	e2844001 	add	r4, r4, #1, 0
    8c74:	eafffff5 	b	8c50 <neopix_fast_clear+0x14>
    8c78:	e28dd008 	add	sp, sp, #8, 0
    8c7c:	e8bd8070 	pop	{r4, r5, r6, pc}

00008c80 <neopix_clear>:
    8c80:	e92d4010 	push	{r4, lr}
    8c84:	e5901004 	ldr	r1, [r0, #4]
    8c88:	ebffffeb 	bl	8c3c <neopix_fast_clear>
    8c8c:	e8bd8010 	pop	{r4, pc}

00008c90 <neopix_flush>:
    8c90:	e92d41f0 	push	{r4, r5, r6, r7, r8, lr}
    8c94:	e1a06000 	mov	r6, r0
    8c98:	e3a04000 	mov	r4, #0, 0
    8c9c:	e5963004 	ldr	r3, [r6, #4]
    8ca0:	e1530004 	cmp	r3, r4
    8ca4:	9a00000f 	bls	8ce8 <neopix_flush+0x58>
    8ca8:	e5d65000 	ldrb	r5, [r6]
    8cac:	e0843084 	add	r3, r4, r4, lsl #1
    8cb0:	e0863003 	add	r3, r6, r3
    8cb4:	e5d38008 	ldrb	r8, [r3, #8]
    8cb8:	e5d3700a 	ldrb	r7, [r3, #10]
    8cbc:	e5d31009 	ldrb	r1, [r3, #9]
    8cc0:	e1a00005 	mov	r0, r5
    8cc4:	ebfffe31 	bl	8590 <pix_sendbyte>
    8cc8:	e1a01008 	mov	r1, r8
    8ccc:	e1a00005 	mov	r0, r5
    8cd0:	ebfffe2e 	bl	8590 <pix_sendbyte>
    8cd4:	e1a01007 	mov	r1, r7
    8cd8:	e1a00005 	mov	r0, r5
    8cdc:	ebfffe2b 	bl	8590 <pix_sendbyte>
    8ce0:	e2844001 	add	r4, r4, #1, 0
    8ce4:	eaffffec 	b	8c9c <neopix_flush+0xc>
    8ce8:	e5d63000 	ldrb	r3, [r6]
    8cec:	ee1f1f3c 	mrc	15, 0, r1, cr15, cr12, {1}
    8cf0:	e353001f 	cmp	r3, #31, 0
    8cf4:	93a02001 	movls	r2, #1, 0
    8cf8:	91a03312 	lslls	r3, r2, r3
    8cfc:	959f202c 	ldrls	r2, [pc, #44]	; 8d30 <neopix_flush+0xa0>
    8d00:	95823028 	strls	r3, [r2, #40]	; 0x28
    8d04:	e320f000 	nop	{0}
    8d08:	e320f000 	nop	{0}
    8d0c:	e320f000 	nop	{0}
    8d10:	ee1f3f3c 	mrc	15, 0, r3, cr15, cr12, {1}
    8d14:	e0433001 	sub	r3, r3, r1
    8d18:	e59f2014 	ldr	r2, [pc, #20]	; 8d34 <neopix_flush+0xa4>
    8d1c:	e1530002 	cmp	r3, r2
    8d20:	9afffffa 	bls	8d10 <neopix_flush+0x80>
    8d24:	e1a00006 	mov	r0, r6
    8d28:	ebffffd4 	bl	8c80 <neopix_clear>
    8d2c:	e8bd81f0 	pop	{r4, r5, r6, r7, r8, pc}
    8d30:	20200000 	eorcs	r0, r0, r0
    8d34:	000088af 	andeq	r8, r0, pc, lsr #17

00008d38 <memset>:
    8d38:	e0802002 	add	r2, r0, r2
    8d3c:	e1a03000 	mov	r3, r0
    8d40:	e1530002 	cmp	r3, r2
    8d44:	212fff1e 	bxcs	lr
    8d48:	e4c31001 	strb	r1, [r3], #1
    8d4c:	eafffffb 	b	8d40 <memset+0x8>

00008d50 <printk>:
    8d50:	e92d000f 	push	{r0, r1, r2, r3}
    8d54:	e92d4030 	push	{r4, r5, lr}
    8d58:	e24dd00c 	sub	sp, sp, #12, 0
    8d5c:	e28d301c 	add	r3, sp, #28, 0
    8d60:	e58d3004 	str	r3, [sp, #4]
    8d64:	e59f5034 	ldr	r5, [pc, #52]	; 8da0 <printk+0x50>
    8d68:	e59d2018 	ldr	r2, [sp, #24]
    8d6c:	e3a01b01 	mov	r1, #1024	; 0x400
    8d70:	e1a00005 	mov	r0, r5
    8d74:	eb0000ba 	bl	9064 <va_printk>
    8d78:	e1a04000 	mov	r4, r0
    8d7c:	e59f3020 	ldr	r3, [pc, #32]	; 8da4 <printk+0x54>
    8d80:	e5933000 	ldr	r3, [r3]
    8d84:	e1a00005 	mov	r0, r5
    8d88:	e12fff33 	blx	r3
    8d8c:	e1a00004 	mov	r0, r4
    8d90:	e28dd00c 	add	sp, sp, #12, 0
    8d94:	e8bd4030 	pop	{r4, r5, lr}
    8d98:	e28dd010 	add	sp, sp, #16, 0
    8d9c:	e12fff1e 	bx	lr
    8da0:	0000a210 	andeq	sl, r0, r0, lsl r2
    8da4:	0000a1fc 	strdeq	sl, [r0], -ip

00008da8 <internal_putk>:
    8da8:	e92d4010 	push	{r4, lr}
    8dac:	e1a04000 	mov	r4, r0
    8db0:	e5d40000 	ldrb	r0, [r4]
    8db4:	e3500000 	cmp	r0, #0, 0
    8db8:	0a000004 	beq	8dd0 <internal_putk+0x28>
    8dbc:	e59f3014 	ldr	r3, [pc, #20]	; 8dd8 <internal_putk+0x30>
    8dc0:	e5933000 	ldr	r3, [r3]
    8dc4:	e12fff33 	blx	r3
    8dc8:	e2844001 	add	r4, r4, #1, 0
    8dcc:	eafffff7 	b	8db0 <internal_putk+0x8>
    8dd0:	e3a00001 	mov	r0, #1, 0
    8dd4:	e8bd8010 	pop	{r4, pc}
    8dd8:	0000a20c 	andeq	sl, r0, ip, lsl #4

00008ddc <isdigit>:
    8ddc:	e2400030 	sub	r0, r0, #48, 0	; 0x30
    8de0:	e3500009 	cmp	r0, #9, 0
    8de4:	83a00000 	movhi	r0, #0, 0
    8de8:	93a00001 	movls	r0, #1, 0
    8dec:	e12fff1e 	bx	lr

00008df0 <pad>:
    8df0:	e0401001 	sub	r1, r0, r1
    8df4:	e1510002 	cmp	r1, r2
    8df8:	b3a03020 	movlt	r3, #32, 0
    8dfc:	b4c03001 	strblt	r3, [r0], #1
    8e00:	b2811001 	addlt	r1, r1, #1, 0
    8e04:	bafffffa 	blt	8df4 <pad+0x4>
    8e08:	e3a03000 	mov	r3, #0, 0
    8e0c:	e5c03000 	strb	r3, [r0]
    8e10:	e12fff1e 	bx	lr

00008e14 <reverse>:
    8e14:	e042c003 	sub	ip, r2, r3
    8e18:	e28cc001 	add	ip, ip, #1, 0
    8e1c:	e15c0001 	cmp	ip, r1
    8e20:	c04cc001 	subgt	ip, ip, r1
    8e24:	c083300c 	addgt	r3, r3, ip
    8e28:	e2421001 	sub	r1, r2, #1, 0
    8e2c:	e1a02000 	mov	r2, r0
    8e30:	e1510003 	cmp	r1, r3
    8e34:	2451c001 	ldrbcs	ip, [r1], #-1
    8e38:	24c2c001 	strbcs	ip, [r2], #1
    8e3c:	2afffffb 	bcs	8e30 <reverse+0x1c>
    8e40:	e3a03000 	mov	r3, #0, 0
    8e44:	e5c23000 	strb	r3, [r2]
    8e48:	e12fff1e 	bx	lr

00008e4c <emit>:
    8e4c:	e92d40f0 	push	{r4, r5, r6, r7, lr}
    8e50:	e24dd04c 	sub	sp, sp, #76, 0	; 0x4c
    8e54:	e1a05001 	mov	r5, r1
    8e58:	e1a04002 	mov	r4, r2
    8e5c:	e59d2060 	ldr	r2, [sp, #96]	; 0x60
    8e60:	e1520004 	cmp	r2, r4
    8e64:	c2442001 	subgt	r2, r4, #1, 0
    8e68:	e1a0c003 	mov	ip, r3
    8e6c:	e2400002 	sub	r0, r0, #2, 0
    8e70:	e350000e 	cmp	r0, #14, 0
    8e74:	979ff100 	ldrls	pc, [pc, r0, lsl #2]
    8e78:	ea000050 	b	8fc0 <emit+0x174>
    8e7c:	00008f98 	muleq	r0, r8, pc	; <UNPREDICTABLE>
    8e80:	00008fc0 	andeq	r8, r0, r0, asr #31
    8e84:	00008fc0 	andeq	r8, r0, r0, asr #31
    8e88:	00008fc0 	andeq	r8, r0, r0, asr #31
    8e8c:	00008fc0 	andeq	r8, r0, r0, asr #31
    8e90:	00008fc0 	andeq	r8, r0, r0, asr #31
    8e94:	00008f8c 	andeq	r8, r0, ip, lsl #31
    8e98:	00008fc0 	andeq	r8, r0, r0, asr #31
    8e9c:	00008eb8 			; <UNDEFINED> instruction: 0x00008eb8
    8ea0:	00008fc0 	andeq	r8, r0, r0, asr #31
    8ea4:	00008fc0 	andeq	r8, r0, r0, asr #31
    8ea8:	00008fc0 	andeq	r8, r0, r0, asr #31
    8eac:	00008fc0 	andeq	r8, r0, r0, asr #31
    8eb0:	00008fc0 	andeq	r8, r0, r0, asr #31
    8eb4:	00008f30 	andeq	r8, r0, r0, lsr pc
    8eb8:	e59d1064 	ldr	r1, [sp, #100]	; 0x64
    8ebc:	e2511000 	subs	r1, r1, #0, 0
    8ec0:	13a01001 	movne	r1, #1, 0
    8ec4:	e0111fa3 	ands	r1, r1, r3, lsr #31
    8ec8:	0a000016 	beq	8f28 <emit+0xdc>
    8ecc:	e263c000 	rsb	ip, r3, #0, 0
    8ed0:	e3a06001 	mov	r6, #1, 0
    8ed4:	e28d0008 	add	r0, sp, #8, 0
    8ed8:	e59f3100 	ldr	r3, [pc, #256]	; 8fe0 <emit+0x194>
    8edc:	e0831c93 	umull	r1, r3, r3, ip
    8ee0:	e1a031a3 	lsr	r3, r3, #3
    8ee4:	e1a0e003 	mov	lr, r3
    8ee8:	e0833103 	add	r3, r3, r3, lsl #2
    8eec:	e04c3083 	sub	r3, ip, r3, lsl #1
    8ef0:	e1a01000 	mov	r1, r0
    8ef4:	e2800001 	add	r0, r0, #1, 0
    8ef8:	e59f70e4 	ldr	r7, [pc, #228]	; 8fe4 <emit+0x198>
    8efc:	e7d73003 	ldrb	r3, [r7, r3]
    8f00:	e5c13000 	strb	r3, [r1]
    8f04:	e1a0300c 	mov	r3, ip
    8f08:	e1a0c00e 	mov	ip, lr
    8f0c:	e3530009 	cmp	r3, #9, 0
    8f10:	8afffff0 	bhi	8ed8 <emit+0x8c>
    8f14:	e3560000 	cmp	r6, #0, 0
    8f18:	13a0302d 	movne	r3, #45, 0	; 0x2d
    8f1c:	15c03000 	strbne	r3, [r0]
    8f20:	12810002 	addne	r0, r1, #2, 0
    8f24:	ea00000f 	b	8f68 <emit+0x11c>
    8f28:	e3a06000 	mov	r6, #0, 0
    8f2c:	eaffffe8 	b	8ed4 <emit+0x88>
    8f30:	e28d1008 	add	r1, sp, #8, 0
    8f34:	e20c000f 	and	r0, ip, #15, 0
    8f38:	e59fe0a8 	ldr	lr, [pc, #168]	; 8fe8 <emit+0x19c>
    8f3c:	e7de0000 	ldrb	r0, [lr, r0]
    8f40:	e5c10000 	strb	r0, [r1]
    8f44:	e2811001 	add	r1, r1, #1, 0
    8f48:	e35c000f 	cmp	ip, #15, 0
    8f4c:	e1a0c22c 	lsr	ip, ip, #4
    8f50:	8afffff7 	bhi	8f34 <emit+0xe8>
    8f54:	e1a00001 	mov	r0, r1
    8f58:	e3a03078 	mov	r3, #120, 0	; 0x78
    8f5c:	e4c03002 	strb	r3, [r0], #2
    8f60:	e3a03030 	mov	r3, #48, 0	; 0x30
    8f64:	e5c13001 	strb	r3, [r1, #1]
    8f68:	e28d1008 	add	r1, sp, #8, 0
    8f6c:	ebffff9f 	bl	8df0 <pad>
    8f70:	e1a02000 	mov	r2, r0
    8f74:	e28d3008 	add	r3, sp, #8, 0
    8f78:	e1a01004 	mov	r1, r4
    8f7c:	e1a00005 	mov	r0, r5
    8f80:	ebffffa3 	bl	8e14 <reverse>
    8f84:	e28dd04c 	add	sp, sp, #76, 0	; 0x4c
    8f88:	e8bd80f0 	pop	{r4, r5, r6, r7, pc}
    8f8c:	e5cd3008 	strb	r3, [sp, #8]
    8f90:	e28d0009 	add	r0, sp, #9, 0
    8f94:	eafffff3 	b	8f68 <emit+0x11c>
    8f98:	e28d0008 	add	r0, sp, #8, 0
    8f9c:	e20c1001 	and	r1, ip, #1, 0
    8fa0:	e59fe044 	ldr	lr, [pc, #68]	; 8fec <emit+0x1a0>
    8fa4:	e7de1001 	ldrb	r1, [lr, r1]
    8fa8:	e5c01000 	strb	r1, [r0]
    8fac:	e2800001 	add	r0, r0, #1, 0
    8fb0:	e35c0001 	cmp	ip, #1, 0
    8fb4:	e1a0c0ac 	lsr	ip, ip, #1
    8fb8:	8afffff7 	bhi	8f9c <emit+0x150>
    8fbc:	eaffffe9 	b	8f68 <emit+0x11c>
    8fc0:	e59f3028 	ldr	r3, [pc, #40]	; 8ff0 <emit+0x1a4>
    8fc4:	e58d3000 	str	r3, [sp]
    8fc8:	e3a03079 	mov	r3, #121, 0	; 0x79
    8fcc:	e59f2020 	ldr	r2, [pc, #32]	; 8ff4 <emit+0x1a8>
    8fd0:	e59f1020 	ldr	r1, [pc, #32]	; 8ff8 <emit+0x1ac>
    8fd4:	e59f0020 	ldr	r0, [pc, #32]	; 8ffc <emit+0x1b0>
    8fd8:	ebffff5c 	bl	8d50 <printk>
    8fdc:	eb000156 	bl	953c <clean_reboot>
    8fe0:	cccccccd 	stclgt	12, cr12, [ip], {205}	; 0xcd
    8fe4:	00009ea4 	andeq	r9, r0, r4, lsr #29
    8fe8:	00009eb0 			; <UNDEFINED> instruction: 0x00009eb0
    8fec:	00009ec4 	andeq	r9, r0, r4, asr #29
    8ff0:	00009ea0 	andeq	r9, r0, r0, lsr #29
    8ff4:	00009fd0 	ldrdeq	r9, [r0], -r0
    8ff8:	00009e78 	andeq	r9, r0, r8, ror lr
    8ffc:	00009e8c 	andeq	r9, r0, ip, lsl #29

00009000 <rpi_set_output>:
    9000:	e3500000 	cmp	r0, #0, 0
    9004:	0a000006 	beq	9024 <rpi_set_output+0x24>
    9008:	e59f303c 	ldr	r3, [pc, #60]	; 904c <rpi_set_output+0x4c>
    900c:	e5830000 	str	r0, [r3]
    9010:	e3510000 	cmp	r1, #0, 0
    9014:	012fff1e 	bxeq	lr
    9018:	e59f3030 	ldr	r3, [pc, #48]	; 9050 <rpi_set_output+0x50>
    901c:	e5831000 	str	r1, [r3]
    9020:	e12fff1e 	bx	lr
    9024:	e52de004 	push	{lr}		; (str lr, [sp, #-4]!)
    9028:	e24dd00c 	sub	sp, sp, #12, 0
    902c:	e59f3020 	ldr	r3, [pc, #32]	; 9054 <rpi_set_output+0x54>
    9030:	e58d3000 	str	r3, [sp]
    9034:	e3a03020 	mov	r3, #32, 0
    9038:	e59f2018 	ldr	r2, [pc, #24]	; 9058 <rpi_set_output+0x58>
    903c:	e59f1018 	ldr	r1, [pc, #24]	; 905c <rpi_set_output+0x5c>
    9040:	e59f0018 	ldr	r0, [pc, #24]	; 9060 <rpi_set_output+0x60>
    9044:	ebffff41 	bl	8d50 <printk>
    9048:	eb00013b 	bl	953c <clean_reboot>
    904c:	0000a20c 	andeq	sl, r0, ip, lsl #4
    9050:	0000a1fc 	strdeq	sl, [r0], -ip
    9054:	00009ec8 	andeq	r9, r0, r8, asr #29
    9058:	00009fd8 	ldrdeq	r9, [r0], -r8
    905c:	00009e78 	andeq	r9, r0, r8, ror lr
    9060:	00009e8c 	andeq	r9, r0, ip, lsl #29

00009064 <va_printk>:
    9064:	e92d4ff0 	push	{r4, r5, r6, r7, r8, r9, sl, fp, lr}
    9068:	e24ddf45 	sub	sp, sp, #276	; 0x114
    906c:	e1a09000 	mov	r9, r0
    9070:	e58d2008 	str	r2, [sp, #8]
    9074:	e58d300c 	str	r3, [sp, #12]
    9078:	e2411001 	sub	r1, r1, #1, 0
    907c:	e0808001 	add	r8, r0, r1
    9080:	e3a03000 	mov	r3, #0, 0
    9084:	e5c03000 	strb	r3, [r0]
    9088:	e1a04000 	mov	r4, r0
    908c:	e1a06002 	mov	r6, r2
    9090:	ea000001 	b	909c <va_printk+0x38>
    9094:	e2866001 	add	r6, r6, #1, 0
    9098:	e4c43001 	strb	r3, [r4], #1
    909c:	e5d63000 	ldrb	r3, [r6]
    90a0:	e3530000 	cmp	r3, #0, 0
    90a4:	0a000108 	beq	94cc <va_printk+0x468>
    90a8:	e1540008 	cmp	r4, r8
    90ac:	2a000106 	bcs	94cc <va_printk+0x468>
    90b0:	e3530025 	cmp	r3, #37, 0	; 0x25
    90b4:	1afffff6 	bne	9094 <va_printk+0x30>
    90b8:	e5d62001 	ldrb	r2, [r6, #1]
    90bc:	e3520025 	cmp	r2, #37, 0	; 0x25
    90c0:	04c43001 	strbeq	r3, [r4], #1
    90c4:	02866002 	addeq	r6, r6, #2, 0
    90c8:	0afffff3 	beq	909c <va_printk+0x38>
    90cc:	e2866001 	add	r6, r6, #1, 0
    90d0:	e3a05000 	mov	r5, #0, 0
    90d4:	e5d67000 	ldrb	r7, [r6]
    90d8:	e1a0a007 	mov	sl, r7
    90dc:	e1a00007 	mov	r0, r7
    90e0:	ebffff3d 	bl	8ddc <isdigit>
    90e4:	e3500000 	cmp	r0, #0, 0
    90e8:	0a000004 	beq	9100 <va_printk+0x9c>
    90ec:	e0855105 	add	r5, r5, r5, lsl #2
    90f0:	e0875085 	add	r5, r7, r5, lsl #1
    90f4:	e2455030 	sub	r5, r5, #48, 0	; 0x30
    90f8:	e2866001 	add	r6, r6, #1, 0
    90fc:	eafffff4 	b	90d4 <va_printk+0x70>
    9100:	e355001f 	cmp	r5, #31, 0
    9104:	8a00001a 	bhi	9174 <va_printk+0x110>
    9108:	e2477062 	sub	r7, r7, #98, 0	; 0x62
    910c:	e3570016 	cmp	r7, #22, 0
    9110:	979ff107 	ldrls	pc, [pc, r7, lsl #2]
    9114:	ea0000d4 	b	946c <va_printk+0x408>
    9118:	000093f0 	strdeq	r9, [r0], -r0
    911c:	00009438 	andeq	r9, r0, r8, lsr r4
    9120:	00009350 	andeq	r9, r0, r0, asr r3
    9124:	0000946c 	andeq	r9, r0, ip, ror #8
    9128:	00009338 	andeq	r9, r0, r8, lsr r3
    912c:	0000946c 	andeq	r9, r0, ip, ror #8
    9130:	0000946c 	andeq	r9, r0, ip, ror #8
    9134:	0000946c 	andeq	r9, r0, ip, ror #8
    9138:	0000946c 	andeq	r9, r0, ip, ror #8
    913c:	0000946c 	andeq	r9, r0, ip, ror #8
    9140:	00009194 	muleq	r0, r4, r1
    9144:	0000946c 	andeq	r9, r0, ip, ror #8
    9148:	0000946c 	andeq	r9, r0, ip, ror #8
    914c:	0000946c 	andeq	r9, r0, ip, ror #8
    9150:	000093bc 			; <UNDEFINED> instruction: 0x000093bc
    9154:	0000946c 	andeq	r9, r0, ip, ror #8
    9158:	0000946c 	andeq	r9, r0, ip, ror #8
    915c:	00009424 	andeq	r9, r0, r4, lsr #8
    9160:	0000946c 	andeq	r9, r0, ip, ror #8
    9164:	00009388 	andeq	r9, r0, r8, lsl #7
    9168:	0000946c 	andeq	r9, r0, ip, ror #8
    916c:	0000946c 	andeq	r9, r0, ip, ror #8
    9170:	000093bc 			; <UNDEFINED> instruction: 0x000093bc
    9174:	e59f3364 	ldr	r3, [pc, #868]	; 94e0 <va_printk+0x47c>
    9178:	e58d3000 	str	r3, [sp]
    917c:	e3a03098 	mov	r3, #152, 0	; 0x98
    9180:	e59f235c 	ldr	r2, [pc, #860]	; 94e4 <va_printk+0x480>
    9184:	e59f135c 	ldr	r1, [pc, #860]	; 94e8 <va_printk+0x484>
    9188:	e59f035c 	ldr	r0, [pc, #860]	; 94ec <va_printk+0x488>
    918c:	ebfffeef 	bl	8d50 <printk>
    9190:	eb0000e9 	bl	953c <clean_reboot>
    9194:	e3a02003 	mov	r2, #3, 0
    9198:	e59f1350 	ldr	r1, [pc, #848]	; 94f0 <va_printk+0x48c>
    919c:	e1a00006 	mov	r0, r6
    91a0:	eb00031f 	bl	9e24 <strncmp>
    91a4:	e3500000 	cmp	r0, #0, 0
    91a8:	0a000005 	beq	91c4 <va_printk+0x160>
    91ac:	e3a02003 	mov	r2, #3, 0
    91b0:	e59f133c 	ldr	r1, [pc, #828]	; 94f4 <va_printk+0x490>
    91b4:	e1a00006 	mov	r0, r6
    91b8:	eb000319 	bl	9e24 <strncmp>
    91bc:	e3500000 	cmp	r0, #0, 0
    91c0:	1a000033 	bne	9294 <va_printk+0x230>
    91c4:	e286b002 	add	fp, r6, #2, 0
    91c8:	e59d300c 	ldr	r3, [sp, #12]
    91cc:	e2833007 	add	r3, r3, #7, 0
    91d0:	e3c33007 	bic	r3, r3, #7, 0
    91d4:	e2832008 	add	r2, r3, #8, 0
    91d8:	e58d200c 	str	r2, [sp, #12]
    91dc:	e593a000 	ldr	sl, [r3]
    91e0:	e5937004 	ldr	r7, [r3, #4]
    91e4:	e1a01007 	mov	r1, r7
    91e8:	e59f0308 	ldr	r0, [pc, #776]	; 94f8 <va_printk+0x494>
    91ec:	ebfffed7 	bl	8d50 <printk>
    91f0:	e1a0100a 	mov	r1, sl
    91f4:	e59f0300 	ldr	r0, [pc, #768]	; 94fc <va_printk+0x498>
    91f8:	ebfffed4 	bl	8d50 <printk>
    91fc:	e3a02003 	mov	r2, #3, 0
    9200:	e59f12e8 	ldr	r1, [pc, #744]	; 94f0 <va_printk+0x48c>
    9204:	e1a00006 	mov	r0, r6
    9208:	eb000305 	bl	9e24 <strncmp>
    920c:	e3500000 	cmp	r0, #0, 0
    9210:	0a000027 	beq	92b4 <va_printk+0x250>
    9214:	e3a02003 	mov	r2, #3, 0
    9218:	e59f12d4 	ldr	r1, [pc, #724]	; 94f4 <va_printk+0x490>
    921c:	e1a00006 	mov	r0, r6
    9220:	eb0002ff 	bl	9e24 <strncmp>
    9224:	e3500000 	cmp	r0, #0, 0
    9228:	1a00003b 	bne	931c <va_printk+0x2b8>
    922c:	e3a06000 	mov	r6, #0, 0
    9230:	e58d6004 	str	r6, [sp, #4]
    9234:	e58d5000 	str	r5, [sp]
    9238:	e1a03007 	mov	r3, r7
    923c:	e3a02080 	mov	r2, #128, 0	; 0x80
    9240:	e28d1010 	add	r1, sp, #16, 0
    9244:	e3a0000a 	mov	r0, #10, 0
    9248:	ebfffeff 	bl	8e4c <emit>
    924c:	e1a07000 	mov	r7, r0
    9250:	e58d6004 	str	r6, [sp, #4]
    9254:	e58d5000 	str	r5, [sp]
    9258:	e1a0300a 	mov	r3, sl
    925c:	e3a02080 	mov	r2, #128, 0	; 0x80
    9260:	e28d1090 	add	r1, sp, #144, 0	; 0x90
    9264:	e3a0000a 	mov	r0, #10, 0
    9268:	ebfffef7 	bl	8e4c <emit>
    926c:	e59f128c 	ldr	r1, [pc, #652]	; 9500 <va_printk+0x49c>
    9270:	e28d0010 	add	r0, sp, #16, 0
    9274:	eb0002d7 	bl	9dd8 <strcmp>
    9278:	e1500006 	cmp	r0, r6
    927c:	1a000021 	bne	9308 <va_printk+0x2a4>
    9280:	e28d1090 	add	r1, sp, #144, 0	; 0x90
    9284:	e28d0010 	add	r0, sp, #16, 0
    9288:	eb0002dd 	bl	9e04 <strcpy>
    928c:	e1a0600b 	mov	r6, fp
    9290:	ea00003a 	b	9380 <va_printk+0x31c>
    9294:	e59f3268 	ldr	r3, [pc, #616]	; 9504 <va_printk+0x4a0>
    9298:	e58d3000 	str	r3, [sp]
    929c:	e3a0309f 	mov	r3, #159, 0	; 0x9f
    92a0:	e59f223c 	ldr	r2, [pc, #572]	; 94e4 <va_printk+0x480>
    92a4:	e59f123c 	ldr	r1, [pc, #572]	; 94e8 <va_printk+0x484>
    92a8:	e59f023c 	ldr	r0, [pc, #572]	; 94ec <va_printk+0x488>
    92ac:	ebfffea7 	bl	8d50 <printk>
    92b0:	eb0000a1 	bl	953c <clean_reboot>
    92b4:	e3a06000 	mov	r6, #0, 0
    92b8:	e58d6004 	str	r6, [sp, #4]
    92bc:	e58d5000 	str	r5, [sp]
    92c0:	e1a03007 	mov	r3, r7
    92c4:	e3a02080 	mov	r2, #128, 0	; 0x80
    92c8:	e28d1010 	add	r1, sp, #16, 0
    92cc:	e3a00010 	mov	r0, #16, 0
    92d0:	ebfffedd 	bl	8e4c <emit>
    92d4:	e1a07000 	mov	r7, r0
    92d8:	e58d6004 	str	r6, [sp, #4]
    92dc:	e58d5000 	str	r5, [sp]
    92e0:	e1a0300a 	mov	r3, sl
    92e4:	e3a02080 	mov	r2, #128, 0	; 0x80
    92e8:	e28d1090 	add	r1, sp, #144, 0	; 0x90
    92ec:	e3a00010 	mov	r0, #16, 0
    92f0:	ebfffed5 	bl	8e4c <emit>
    92f4:	e28d1092 	add	r1, sp, #146, 0	; 0x92
    92f8:	e28d0010 	add	r0, sp, #16, 0
    92fc:	eb0002a8 	bl	9da4 <strcat>
    9300:	e1a0600b 	mov	r6, fp
    9304:	ea00001d 	b	9380 <va_printk+0x31c>
    9308:	e28d1090 	add	r1, sp, #144, 0	; 0x90
    930c:	e28d0010 	add	r0, sp, #16, 0
    9310:	eb0002a3 	bl	9da4 <strcat>
    9314:	e1a0600b 	mov	r6, fp
    9318:	ea000018 	b	9380 <va_printk+0x31c>
    931c:	e58d6000 	str	r6, [sp]
    9320:	e3a030b6 	mov	r3, #182, 0	; 0xb6
    9324:	e59f21b8 	ldr	r2, [pc, #440]	; 94e4 <va_printk+0x480>
    9328:	e59f11b8 	ldr	r1, [pc, #440]	; 94e8 <va_printk+0x484>
    932c:	e59f01d4 	ldr	r0, [pc, #468]	; 9508 <va_printk+0x4a4>
    9330:	ebfffe86 	bl	8d50 <printk>
    9334:	eb000080 	bl	953c <clean_reboot>
    9338:	e3a030be 	mov	r3, #190, 0	; 0xbe
    933c:	e59f21a0 	ldr	r2, [pc, #416]	; 94e4 <va_printk+0x480>
    9340:	e59f11a0 	ldr	r1, [pc, #416]	; 94e8 <va_printk+0x484>
    9344:	e59f01c0 	ldr	r0, [pc, #448]	; 950c <va_printk+0x4a8>
    9348:	ebfffe80 	bl	8d50 <printk>
    934c:	eb00007a 	bl	953c <clean_reboot>
    9350:	e59d300c 	ldr	r3, [sp, #12]
    9354:	e2832004 	add	r2, r3, #4, 0
    9358:	e58d200c 	str	r2, [sp, #12]
    935c:	e5933000 	ldr	r3, [r3]
    9360:	e3a02001 	mov	r2, #1, 0
    9364:	e58d2004 	str	r2, [sp, #4]
    9368:	e58d5000 	str	r5, [sp]
    936c:	e3a02080 	mov	r2, #128, 0	; 0x80
    9370:	e28d1010 	add	r1, sp, #16, 0
    9374:	e3a0000a 	mov	r0, #10, 0
    9378:	ebfffeb3 	bl	8e4c <emit>
    937c:	e1a07000 	mov	r7, r0
    9380:	e2866001 	add	r6, r6, #1, 0
    9384:	ea00004a 	b	94b4 <va_printk+0x450>
    9388:	e59d300c 	ldr	r3, [sp, #12]
    938c:	e2832004 	add	r2, r3, #4, 0
    9390:	e58d200c 	str	r2, [sp, #12]
    9394:	e5933000 	ldr	r3, [r3]
    9398:	e3a02000 	mov	r2, #0, 0
    939c:	e58d2004 	str	r2, [sp, #4]
    93a0:	e58d5000 	str	r5, [sp]
    93a4:	e3a02080 	mov	r2, #128, 0	; 0x80
    93a8:	e28d1010 	add	r1, sp, #16, 0
    93ac:	e3a0000a 	mov	r0, #10, 0
    93b0:	ebfffea5 	bl	8e4c <emit>
    93b4:	e1a07000 	mov	r7, r0
    93b8:	eafffff0 	b	9380 <va_printk+0x31c>
    93bc:	e59d300c 	ldr	r3, [sp, #12]
    93c0:	e2832004 	add	r2, r3, #4, 0
    93c4:	e58d200c 	str	r2, [sp, #12]
    93c8:	e5933000 	ldr	r3, [r3]
    93cc:	e3a02000 	mov	r2, #0, 0
    93d0:	e58d2004 	str	r2, [sp, #4]
    93d4:	e58d5000 	str	r5, [sp]
    93d8:	e3a02080 	mov	r2, #128, 0	; 0x80
    93dc:	e28d1010 	add	r1, sp, #16, 0
    93e0:	e3a00010 	mov	r0, #16, 0
    93e4:	ebfffe98 	bl	8e4c <emit>
    93e8:	e1a07000 	mov	r7, r0
    93ec:	eaffffe3 	b	9380 <va_printk+0x31c>
    93f0:	e59d300c 	ldr	r3, [sp, #12]
    93f4:	e2832004 	add	r2, r3, #4, 0
    93f8:	e58d200c 	str	r2, [sp, #12]
    93fc:	e5933000 	ldr	r3, [r3]
    9400:	e3a02000 	mov	r2, #0, 0
    9404:	e58d2004 	str	r2, [sp, #4]
    9408:	e58d5000 	str	r5, [sp]
    940c:	e3a02080 	mov	r2, #128, 0	; 0x80
    9410:	e28d1010 	add	r1, sp, #16, 0
    9414:	e3a00002 	mov	r0, #2, 0
    9418:	ebfffe8b 	bl	8e4c <emit>
    941c:	e1a07000 	mov	r7, r0
    9420:	eaffffd6 	b	9380 <va_printk+0x31c>
    9424:	e59d300c 	ldr	r3, [sp, #12]
    9428:	e2832004 	add	r2, r3, #4, 0
    942c:	e58d200c 	str	r2, [sp, #12]
    9430:	e5937000 	ldr	r7, [r3]
    9434:	eaffffd1 	b	9380 <va_printk+0x31c>
    9438:	e59d300c 	ldr	r3, [sp, #12]
    943c:	e2832004 	add	r2, r3, #4, 0
    9440:	e58d200c 	str	r2, [sp, #12]
    9444:	e5933000 	ldr	r3, [r3]
    9448:	e3a02000 	mov	r2, #0, 0
    944c:	e58d2004 	str	r2, [sp, #4]
    9450:	e58d5000 	str	r5, [sp]
    9454:	e3a02080 	mov	r2, #128, 0	; 0x80
    9458:	e28d1010 	add	r1, sp, #16, 0
    945c:	e3a00008 	mov	r0, #8, 0
    9460:	ebfffe79 	bl	8e4c <emit>
    9464:	e1a07000 	mov	r7, r0
    9468:	eaffffc4 	b	9380 <va_printk+0x31c>
    946c:	e3a03000 	mov	r3, #0, 0
    9470:	e5c63001 	strb	r3, [r6, #1]
    9474:	e1a0200a 	mov	r2, sl
    9478:	e1a0100a 	mov	r1, sl
    947c:	e59f008c 	ldr	r0, [pc, #140]	; 9510 <va_printk+0x4ac>
    9480:	ebfffe32 	bl	8d50 <printk>
    9484:	e59f3088 	ldr	r3, [pc, #136]	; 9514 <va_printk+0x4b0>
    9488:	e5933000 	ldr	r3, [r3]
    948c:	e59d0008 	ldr	r0, [sp, #8]
    9490:	e12fff33 	blx	r3
    9494:	e3a030e2 	mov	r3, #226, 0	; 0xe2
    9498:	e59f2044 	ldr	r2, [pc, #68]	; 94e4 <va_printk+0x480>
    949c:	e59f1044 	ldr	r1, [pc, #68]	; 94e8 <va_printk+0x484>
    94a0:	e59f0070 	ldr	r0, [pc, #112]	; 9518 <va_printk+0x4b4>
    94a4:	ebfffe29 	bl	8d50 <printk>
    94a8:	eb000023 	bl	953c <clean_reboot>
    94ac:	e2877001 	add	r7, r7, #1, 0
    94b0:	e4c43001 	strb	r3, [r4], #1
    94b4:	e1540008 	cmp	r4, r8
    94b8:	2afffef7 	bcs	909c <va_printk+0x38>
    94bc:	e5d73000 	ldrb	r3, [r7]
    94c0:	e3530000 	cmp	r3, #0, 0
    94c4:	1afffff8 	bne	94ac <va_printk+0x448>
    94c8:	eafffef3 	b	909c <va_printk+0x38>
    94cc:	e3a03000 	mov	r3, #0, 0
    94d0:	e4c43001 	strb	r3, [r4], #1
    94d4:	e0440009 	sub	r0, r4, r9
    94d8:	e28ddf45 	add	sp, sp, #276	; 0x114
    94dc:	e8bd8ff0 	pop	{r4, r5, r6, r7, r8, r9, sl, fp, pc}
    94e0:	00009ed0 	ldrdeq	r9, [r0], -r0
    94e4:	00009fe8 	andeq	r9, r0, r8, ror #31
    94e8:	00009e78 	andeq	r9, r0, r8, ror lr
    94ec:	00009e8c 	andeq	r9, r0, ip, lsl #29
    94f0:	00009edc 	ldrdeq	r9, [r0], -ip
    94f4:	00009ee0 	andeq	r9, r0, r0, ror #29
    94f8:	00009ee4 	andeq	r9, r0, r4, ror #29
    94fc:	00009eec 	andeq	r9, r0, ip, ror #29
    9500:	00009ea0 	andeq	r9, r0, r0, lsr #29
    9504:	00009ef4 	strdeq	r9, [r0], -r4
    9508:	00009f30 	andeq	r9, r0, r0, lsr pc
    950c:	00009f58 	andeq	r9, r0, r8, asr pc
    9510:	00009f80 	andeq	r9, r0, r0, lsl #31
    9514:	0000a1fc 	strdeq	sl, [r0], -ip
    9518:	00009fb0 			; <UNDEFINED> instruction: 0x00009fb0

0000951c <enable_cache>:
    951c:	ee113f10 	mrc	15, 0, r3, cr1, cr0, {0}
    9520:	e3833b06 	orr	r3, r3, #6144	; 0x1800
    9524:	ee013f10 	mcr	15, 0, r3, cr1, cr0, {0}
    9528:	e12fff1e 	bx	lr

0000952c <disable_cache>:
    952c:	ee113f10 	mrc	15, 0, r3, cr1, cr0, {0}
    9530:	e3c33b06 	bic	r3, r3, #6144	; 0x1800
    9534:	ee013f10 	mcr	15, 0, r3, cr1, cr0, {0}
    9538:	e12fff1e 	bx	lr

0000953c <clean_reboot>:
    953c:	e92d4010 	push	{r4, lr}
    9540:	e59f3018 	ldr	r3, [pc, #24]	; 9560 <clean_reboot+0x24>
    9544:	e5933000 	ldr	r3, [r3]
    9548:	e59f0014 	ldr	r0, [pc, #20]	; 9564 <clean_reboot+0x28>
    954c:	e12fff33 	blx	r3
    9550:	eb00010a 	bl	9980 <uart_flush_tx>
    9554:	e3a0000a 	mov	r0, #10, 0
    9558:	eb000047 	bl	967c <delay_ms>
    955c:	eb00001c 	bl	95d4 <rpi_reboot>
    9560:	0000a1fc 	strdeq	sl, [r0], -ip
    9564:	00009ff4 	strdeq	r9, [r0], -r4

00009568 <_cstart>:
    9568:	e92d4010 	push	{r4, lr}
    956c:	eb00000c 	bl	95a4 <custom_loader>
    9570:	e59f3024 	ldr	r3, [pc, #36]	; 959c <_cstart+0x34>
    9574:	e59f2024 	ldr	r2, [pc, #36]	; 95a0 <_cstart+0x38>
    9578:	e1530002 	cmp	r3, r2
    957c:	33a02000 	movcc	r2, #0, 0
    9580:	34832004 	strcc	r2, [r3], #4
    9584:	3afffffa 	bcc	9574 <_cstart+0xc>
    9588:	eb00009e 	bl	9808 <uart_init>
    958c:	e3a03001 	mov	r3, #1, 0
    9590:	ee0f3f1c 	mcr	15, 0, r3, cr15, cr12, {0}
    9594:	ebfffbe2 	bl	8524 <notmain>
    9598:	ebffffe7 	bl	953c <clean_reboot>
    959c:	0000a210 	andeq	sl, r0, r0, lsl r2
    95a0:	0000a618 	andeq	sl, r0, r8, lsl r6

000095a4 <custom_loader>:
    95a4:	e12fff1e 	bx	lr

000095a8 <at_user_level>:
    95a8:	e10f0000 	mrs	r0, CPSR
    95ac:	e200001f 	and	r0, r0, #31, 0
    95b0:	e3500010 	cmp	r0, #16, 0
    95b4:	13a00000 	movne	r0, #0, 0
    95b8:	03a00001 	moveq	r0, #1, 0
    95bc:	e12fff1e 	bx	lr

000095c0 <set_user_level>:
    95c0:	e10f3000 	mrs	r3, CPSR
    95c4:	e3c3301f 	bic	r3, r3, #31, 0
    95c8:	e3833010 	orr	r3, r3, #16, 0
    95cc:	e129f003 	msr	CPSR_fc, r3
    95d0:	e12fff1e 	bx	lr

000095d4 <rpi_reboot>:
    95d4:	e92d4010 	push	{r4, lr}
    95d8:	ebfffff2 	bl	95a8 <at_user_level>
    95dc:	e3500000 	cmp	r0, #0, 0
    95e0:	1a00000a 	bne	9610 <rpi_reboot+0x3c>
    95e4:	eb000219 	bl	9e50 <reboot_callout>
    95e8:	eb0000e4 	bl	9980 <uart_flush_tx>
    95ec:	e3a0000a 	mov	r0, #10, 0
    95f0:	eb000021 	bl	967c <delay_ms>
    95f4:	e59f101c 	ldr	r1, [pc, #28]	; 9618 <rpi_reboot+0x44>
    95f8:	e59f001c 	ldr	r0, [pc, #28]	; 961c <rpi_reboot+0x48>
    95fc:	ebfffa88 	bl	8024 <PUT32>
    9600:	e59f1018 	ldr	r1, [pc, #24]	; 9620 <rpi_reboot+0x4c>
    9604:	e59f0018 	ldr	r0, [pc, #24]	; 9624 <rpi_reboot+0x50>
    9608:	ebfffa85 	bl	8024 <PUT32>
    960c:	eafffffe 	b	960c <rpi_reboot+0x38>
    9610:	ebffffea 	bl	95c0 <set_user_level>
    9614:	eafffff2 	b	95e4 <rpi_reboot+0x10>
    9618:	5a000001 	bpl	9624 <rpi_reboot+0x50>
    961c:	20100024 	andscs	r0, r0, r4, lsr #32
    9620:	5a000020 	bpl	96a8 <delay_sec+0x14>
    9624:	2010001c 	andscs	r0, r0, ip, lsl r0

00009628 <timer_get_usec_raw>:
    9628:	e92d4010 	push	{r4, lr}
    962c:	e59f0004 	ldr	r0, [pc, #4]	; 9638 <timer_get_usec_raw+0x10>
    9630:	ebfffa7d 	bl	802c <GET32>
    9634:	e8bd8010 	pop	{r4, pc}
    9638:	20003004 	andcs	r3, r0, r4

0000963c <timer_get_usec>:
    963c:	e92d4010 	push	{r4, lr}
    9640:	eb000203 	bl	9e54 <dev_barrier>
    9644:	ebfffff7 	bl	9628 <timer_get_usec_raw>
    9648:	e1a04000 	mov	r4, r0
    964c:	eb000200 	bl	9e54 <dev_barrier>
    9650:	e1a00004 	mov	r0, r4
    9654:	e8bd8010 	pop	{r4, pc}

00009658 <delay_us>:
    9658:	e92d4070 	push	{r4, r5, r6, lr}
    965c:	e1a05000 	mov	r5, r0
    9660:	ebfffff5 	bl	963c <timer_get_usec>
    9664:	e1a04000 	mov	r4, r0
    9668:	ebfffff3 	bl	963c <timer_get_usec>
    966c:	e0400004 	sub	r0, r0, r4
    9670:	e1500005 	cmp	r0, r5
    9674:	3afffffb 	bcc	9668 <delay_us+0x10>
    9678:	e8bd8070 	pop	{r4, r5, r6, pc}

0000967c <delay_ms>:
    967c:	e92d4010 	push	{r4, lr}
    9680:	e0603280 	rsb	r3, r0, r0, lsl #5
    9684:	e0800103 	add	r0, r0, r3, lsl #2
    9688:	e1a00180 	lsl	r0, r0, #3
    968c:	ebfffff1 	bl	9658 <delay_us>
    9690:	e8bd8010 	pop	{r4, pc}

00009694 <delay_sec>:
    9694:	e92d4010 	push	{r4, lr}
    9698:	e0603280 	rsb	r3, r0, r0, lsl #5
    969c:	e0800103 	add	r0, r0, r3, lsl #2
    96a0:	e1a00180 	lsl	r0, r0, #3
    96a4:	ebfffff4 	bl	967c <delay_ms>
    96a8:	e8bd8010 	pop	{r4, pc}

000096ac <gpio_set_function>:
    96ac:	e350001f 	cmp	r0, #31, 0
    96b0:	812fff1e 	bxhi	lr
    96b4:	e92d4070 	push	{r4, r5, r6, lr}
    96b8:	e1a05001 	mov	r5, r1
    96bc:	e3d13007 	bics	r3, r1, #7, 0
    96c0:	18bd8070 	popne	{r4, r5, r6, pc}
    96c4:	e59f3040 	ldr	r3, [pc, #64]	; 970c <gpio_set_function+0x60>
    96c8:	e0832093 	umull	r2, r3, r3, r0
    96cc:	e1a031a3 	lsr	r3, r3, #3
    96d0:	e1a02003 	mov	r2, r3
    96d4:	e0833103 	add	r3, r3, r3, lsl #2
    96d8:	e0403083 	sub	r3, r0, r3, lsl #1
    96dc:	e0834083 	add	r4, r3, r3, lsl #1
    96e0:	e2820302 	add	r0, r2, #134217728	; 0x8000000
    96e4:	e2800702 	add	r0, r0, #524288	; 0x80000
    96e8:	e1a06100 	lsl	r6, r0, #2
    96ec:	e1a00006 	mov	r0, r6
    96f0:	ebfffa4d 	bl	802c <GET32>
    96f4:	e3a01007 	mov	r1, #7, 0
    96f8:	e1c01411 	bic	r1, r0, r1, lsl r4
    96fc:	e1811415 	orr	r1, r1, r5, lsl r4
    9700:	e1a00006 	mov	r0, r6
    9704:	ebfffa46 	bl	8024 <PUT32>
    9708:	e8bd8070 	pop	{r4, r5, r6, pc}
    970c:	cccccccd 	stclgt	12, cr12, [ip], {205}	; 0xcd

00009710 <gpio_set_output>:
    9710:	e92d4010 	push	{r4, lr}
    9714:	e3a01001 	mov	r1, #1, 0
    9718:	ebffffe3 	bl	96ac <gpio_set_function>
    971c:	e8bd8010 	pop	{r4, pc}

00009720 <gpio_set_on>:
    9720:	e350001f 	cmp	r0, #31, 0
    9724:	812fff1e 	bxhi	lr
    9728:	e92d4010 	push	{r4, lr}
    972c:	e3a01001 	mov	r1, #1, 0
    9730:	e1a01011 	lsl	r1, r1, r0
    9734:	e59f0004 	ldr	r0, [pc, #4]	; 9740 <gpio_set_on+0x20>
    9738:	ebfffa39 	bl	8024 <PUT32>
    973c:	e8bd8010 	pop	{r4, pc}
    9740:	2020001c 	eorcs	r0, r0, ip, lsl r0

00009744 <gpio_set_off>:
    9744:	e350001f 	cmp	r0, #31, 0
    9748:	812fff1e 	bxhi	lr
    974c:	e92d4010 	push	{r4, lr}
    9750:	e3a01001 	mov	r1, #1, 0
    9754:	e1a01011 	lsl	r1, r1, r0
    9758:	e59f0004 	ldr	r0, [pc, #4]	; 9764 <gpio_set_off+0x20>
    975c:	ebfffa30 	bl	8024 <PUT32>
    9760:	e8bd8010 	pop	{r4, pc}
    9764:	20200028 	eorcs	r0, r0, r8, lsr #32

00009768 <gpio_set_input>:
    9768:	e92d4010 	push	{r4, lr}
    976c:	e3a01000 	mov	r1, #0, 0
    9770:	ebffffcd 	bl	96ac <gpio_set_function>
    9774:	e8bd8010 	pop	{r4, pc}

00009778 <gpio_write>:
    9778:	e92d4010 	push	{r4, lr}
    977c:	e3510000 	cmp	r1, #0, 0
    9780:	0a000001 	beq	978c <gpio_write+0x14>
    9784:	ebffffe5 	bl	9720 <gpio_set_on>
    9788:	e8bd8010 	pop	{r4, pc}
    978c:	ebffffec 	bl	9744 <gpio_set_off>
    9790:	e8bd8010 	pop	{r4, pc}

00009794 <gpio_read>:
    9794:	e350001f 	cmp	r0, #31, 0
    9798:	8a000007 	bhi	97bc <gpio_read+0x28>
    979c:	e92d4010 	push	{r4, lr}
    97a0:	e200401f 	and	r4, r0, #31, 0
    97a4:	e59f3018 	ldr	r3, [pc, #24]	; 97c4 <gpio_read+0x30>
    97a8:	e08302a0 	add	r0, r3, r0, lsr #5
    97ac:	ebfffa1e 	bl	802c <GET32>
    97b0:	e1a00430 	lsr	r0, r0, r4
    97b4:	e2000001 	and	r0, r0, #1, 0
    97b8:	e8bd8010 	pop	{r4, pc}
    97bc:	e3e00000 	mvn	r0, #0, 0
    97c0:	e12fff1e 	bx	lr
    97c4:	20200034 	eorcs	r0, r0, r4, lsr r0

000097c8 <and_in32>:
    97c8:	e92d4070 	push	{r4, r5, r6, lr}
    97cc:	e1a04000 	mov	r4, r0
    97d0:	e1a05001 	mov	r5, r1
    97d4:	ebfffa14 	bl	802c <GET32>
    97d8:	e0001005 	and	r1, r0, r5
    97dc:	e1a00004 	mov	r0, r4
    97e0:	ebfffa0f 	bl	8024 <PUT32>
    97e4:	e8bd8070 	pop	{r4, r5, r6, pc}

000097e8 <or_in32>:
    97e8:	e92d4070 	push	{r4, r5, r6, lr}
    97ec:	e1a04000 	mov	r4, r0
    97f0:	e1a05001 	mov	r5, r1
    97f4:	ebfffa0c 	bl	802c <GET32>
    97f8:	e1801005 	orr	r1, r0, r5
    97fc:	e1a00004 	mov	r0, r4
    9800:	ebfffa07 	bl	8024 <PUT32>
    9804:	e8bd8070 	pop	{r4, r5, r6, pc}

00009808 <uart_init>:
    9808:	e92d4010 	push	{r4, lr}
    980c:	e3a01002 	mov	r1, #2, 0
    9810:	e3a0000e 	mov	r0, #14, 0
    9814:	ebffffa4 	bl	96ac <gpio_set_function>
    9818:	e3a01002 	mov	r1, #2, 0
    981c:	e3a0000f 	mov	r0, #15, 0
    9820:	ebffffa1 	bl	96ac <gpio_set_function>
    9824:	eb00018a 	bl	9e54 <dev_barrier>
    9828:	e3a01001 	mov	r1, #1, 0
    982c:	e59f0064 	ldr	r0, [pc, #100]	; 9898 <uart_init+0x90>
    9830:	ebffffec 	bl	97e8 <or_in32>
    9834:	eb000186 	bl	9e54 <dev_barrier>
    9838:	e59f405c 	ldr	r4, [pc, #92]	; 989c <uart_init+0x94>
    983c:	e3a01000 	mov	r1, #0, 0
    9840:	e1a00004 	mov	r0, r4
    9844:	ebfff9f6 	bl	8024 <PUT32>
    9848:	e3a01000 	mov	r1, #0, 0
    984c:	e59f004c 	ldr	r0, [pc, #76]	; 98a0 <uart_init+0x98>
    9850:	ebfff9f3 	bl	8024 <PUT32>
    9854:	e3a01003 	mov	r1, #3, 0
    9858:	e59f0044 	ldr	r0, [pc, #68]	; 98a4 <uart_init+0x9c>
    985c:	ebfff9f0 	bl	8024 <PUT32>
    9860:	e3a01000 	mov	r1, #0, 0
    9864:	e59f003c 	ldr	r0, [pc, #60]	; 98a8 <uart_init+0xa0>
    9868:	ebfff9ed 	bl	8024 <PUT32>
    986c:	e3a010c7 	mov	r1, #199, 0	; 0xc7
    9870:	e59f0034 	ldr	r0, [pc, #52]	; 98ac <uart_init+0xa4>
    9874:	ebfff9ea 	bl	8024 <PUT32>
    9878:	e59f1030 	ldr	r1, [pc, #48]	; 98b0 <uart_init+0xa8>
    987c:	e59f0030 	ldr	r0, [pc, #48]	; 98b4 <uart_init+0xac>
    9880:	ebfff9e7 	bl	8024 <PUT32>
    9884:	e3a01003 	mov	r1, #3, 0
    9888:	e1a00004 	mov	r0, r4
    988c:	ebfff9e4 	bl	8024 <PUT32>
    9890:	eb00016f 	bl	9e54 <dev_barrier>
    9894:	e8bd8010 	pop	{r4, pc}
    9898:	20215004 	eorcs	r5, r1, r4
    989c:	20215060 	eorcs	r5, r1, r0, rrx
    98a0:	20215044 	eorcs	r5, r1, r4, asr #32
    98a4:	2021504c 	eorcs	r5, r1, ip, asr #32
    98a8:	20215050 	eorcs	r5, r1, r0, asr r0
    98ac:	20215048 	eorcs	r5, r1, r8, asr #32
    98b0:	0000010e 	andeq	r0, r0, lr, lsl #2
    98b4:	20215068 	eorcs	r5, r1, r8, rrx

000098b8 <uart_can_getc>:
    98b8:	e92d4010 	push	{r4, lr}
    98bc:	e59f0008 	ldr	r0, [pc, #8]	; 98cc <uart_can_getc+0x14>
    98c0:	ebfff9d9 	bl	802c <GET32>
    98c4:	e2000001 	and	r0, r0, #1, 0
    98c8:	e8bd8010 	pop	{r4, pc}
    98cc:	20215064 	eorcs	r5, r1, r4, rrx

000098d0 <uart_can_putc>:
    98d0:	e92d4010 	push	{r4, lr}
    98d4:	e59f0010 	ldr	r0, [pc, #16]	; 98ec <uart_can_putc+0x1c>
    98d8:	ebfff9d3 	bl	802c <GET32>
    98dc:	e3100002 	tst	r0, #2, 0
    98e0:	13a00001 	movne	r0, #1, 0
    98e4:	03a00000 	moveq	r0, #0, 0
    98e8:	e8bd8010 	pop	{r4, pc}
    98ec:	20215064 	eorcs	r5, r1, r4, rrx

000098f0 <uart_getc>:
    98f0:	e92d4010 	push	{r4, lr}
    98f4:	eb000156 	bl	9e54 <dev_barrier>
    98f8:	ebffffee 	bl	98b8 <uart_can_getc>
    98fc:	e3500000 	cmp	r0, #0, 0
    9900:	0afffffc 	beq	98f8 <uart_getc+0x8>
    9904:	e59f0010 	ldr	r0, [pc, #16]	; 991c <uart_getc+0x2c>
    9908:	ebfff9c7 	bl	802c <GET32>
    990c:	e6ef4070 	uxtb	r4, r0
    9910:	eb00014f 	bl	9e54 <dev_barrier>
    9914:	e1a00004 	mov	r0, r4
    9918:	e8bd8010 	pop	{r4, pc}
    991c:	20215040 	eorcs	r5, r1, r0, asr #32

00009920 <uart_putc>:
    9920:	e92d4010 	push	{r4, lr}
    9924:	e1a04000 	mov	r4, r0
    9928:	eb000149 	bl	9e54 <dev_barrier>
    992c:	ebffffe7 	bl	98d0 <uart_can_putc>
    9930:	e3500000 	cmp	r0, #0, 0
    9934:	0afffffc 	beq	992c <uart_putc+0xc>
    9938:	e6ef1074 	uxtb	r1, r4
    993c:	e59f0008 	ldr	r0, [pc, #8]	; 994c <uart_putc+0x2c>
    9940:	ebfff9b7 	bl	8024 <PUT32>
    9944:	eb000142 	bl	9e54 <dev_barrier>
    9948:	e8bd8010 	pop	{r4, pc}
    994c:	20215040 	eorcs	r5, r1, r0, asr #32

00009950 <uart_has_data>:
    9950:	e92d4010 	push	{r4, lr}
    9954:	eb00013e 	bl	9e54 <dev_barrier>
    9958:	ebffffd6 	bl	98b8 <uart_can_getc>
    995c:	e8bd8010 	pop	{r4, pc}

00009960 <uart_tx_is_empty>:
    9960:	e92d4010 	push	{r4, lr}
    9964:	eb00013a 	bl	9e54 <dev_barrier>
    9968:	e59f000c 	ldr	r0, [pc, #12]	; 997c <uart_tx_is_empty+0x1c>
    996c:	ebfff9ae 	bl	802c <GET32>
    9970:	e1a004a0 	lsr	r0, r0, #9
    9974:	e2000001 	and	r0, r0, #1, 0
    9978:	e8bd8010 	pop	{r4, pc}
    997c:	20215064 	eorcs	r5, r1, r4, rrx

00009980 <uart_flush_tx>:
    9980:	e92d4010 	push	{r4, lr}
    9984:	ebfffff5 	bl	9960 <uart_tx_is_empty>
    9988:	e3500000 	cmp	r0, #0, 0
    998c:	0afffffc 	beq	9984 <uart_flush_tx+0x4>
    9990:	e8bd8010 	pop	{r4, pc}

00009994 <uart_disable>:
    9994:	e92d4010 	push	{r4, lr}
    9998:	ebfffff8 	bl	9980 <uart_flush_tx>
    999c:	eb00012c 	bl	9e54 <dev_barrier>
    99a0:	e3e01001 	mvn	r1, #1, 0
    99a4:	e59f0008 	ldr	r0, [pc, #8]	; 99b4 <uart_disable+0x20>
    99a8:	ebffff86 	bl	97c8 <and_in32>
    99ac:	eb000128 	bl	9e54 <dev_barrier>
    99b0:	e8bd8010 	pop	{r4, pc}
    99b4:	20215004 	eorcs	r5, r1, r4

000099b8 <kmalloc_heap_end>:
    99b8:	e59f3004 	ldr	r3, [pc, #4]	; 99c4 <kmalloc_heap_end+0xc>
    99bc:	e5930000 	ldr	r0, [r3]
    99c0:	e12fff1e 	bx	lr
    99c4:	0000a200 	andeq	sl, r0, r0, lsl #4

000099c8 <kmalloc_heap_start>:
    99c8:	e59f3004 	ldr	r3, [pc, #4]	; 99d4 <kmalloc_heap_start+0xc>
    99cc:	e5930004 	ldr	r0, [r3, #4]
    99d0:	e12fff1e 	bx	lr
    99d4:	0000a200 	andeq	sl, r0, r0, lsl #4

000099d8 <kmalloc_heap_ptr>:
    99d8:	e59f3004 	ldr	r3, [pc, #4]	; 99e4 <kmalloc_heap_ptr+0xc>
    99dc:	e5930008 	ldr	r0, [r3, #8]
    99e0:	e12fff1e 	bx	lr
    99e4:	0000a200 	andeq	sl, r0, r0, lsl #4

000099e8 <kmalloc_init_set_start>:
    99e8:	e52de004 	push	{lr}		; (str lr, [sp, #-4]!)
    99ec:	e24dd00c 	sub	sp, sp, #12, 0
    99f0:	e3510000 	cmp	r1, #0, 0
    99f4:	0a00000a 	beq	9a24 <kmalloc_init_set_start+0x3c>
    99f8:	e59f306c 	ldr	r3, [pc, #108]	; 9a6c <kmalloc_init_set_start+0x84>
    99fc:	e5933008 	ldr	r3, [r3, #8]
    9a00:	e1530000 	cmp	r3, r0
    9a04:	8a00000e 	bhi	9a44 <kmalloc_init_set_start+0x5c>
    9a08:	e59f305c 	ldr	r3, [pc, #92]	; 9a6c <kmalloc_init_set_start+0x84>
    9a0c:	e5830008 	str	r0, [r3, #8]
    9a10:	e5830004 	str	r0, [r3, #4]
    9a14:	e0800001 	add	r0, r0, r1
    9a18:	e5830000 	str	r0, [r3]
    9a1c:	e28dd00c 	add	sp, sp, #12, 0
    9a20:	e49df004 	pop	{pc}		; (ldr pc, [sp], #4)
    9a24:	e59f3044 	ldr	r3, [pc, #68]	; 9a70 <kmalloc_init_set_start+0x88>
    9a28:	e58d3000 	str	r3, [sp]
    9a2c:	e3a03030 	mov	r3, #48, 0	; 0x30
    9a30:	e59f203c 	ldr	r2, [pc, #60]	; 9a74 <kmalloc_init_set_start+0x8c>
    9a34:	e59f103c 	ldr	r1, [pc, #60]	; 9a78 <kmalloc_init_set_start+0x90>
    9a38:	e59f003c 	ldr	r0, [pc, #60]	; 9a7c <kmalloc_init_set_start+0x94>
    9a3c:	ebfffcc3 	bl	8d50 <printk>
    9a40:	ebfffebd 	bl	953c <clean_reboot>
    9a44:	e59f3020 	ldr	r3, [pc, #32]	; 9a6c <kmalloc_init_set_start+0x84>
    9a48:	e5933000 	ldr	r3, [r3]
    9a4c:	e58d3004 	str	r3, [sp, #4]
    9a50:	e58d0000 	str	r0, [sp]
    9a54:	e3a03034 	mov	r3, #52, 0	; 0x34
    9a58:	e59f2014 	ldr	r2, [pc, #20]	; 9a74 <kmalloc_init_set_start+0x8c>
    9a5c:	e59f1014 	ldr	r1, [pc, #20]	; 9a78 <kmalloc_init_set_start+0x90>
    9a60:	e59f0018 	ldr	r0, [pc, #24]	; 9a80 <kmalloc_init_set_start+0x98>
    9a64:	ebfffcb9 	bl	8d50 <printk>
    9a68:	ebfffeb3 	bl	953c <clean_reboot>
    9a6c:	0000a200 	andeq	sl, r0, r0, lsl #4
    9a70:	0000a00c 	andeq	sl, r0, ip
    9a74:	0000a198 	muleq	r0, r8, r1
    9a78:	0000a000 	andeq	sl, r0, r0
    9a7c:	00009e8c 	andeq	r9, r0, ip, lsl #29
    9a80:	0000a018 	andeq	sl, r0, r8, lsl r0

00009a84 <kmalloc_init>:
    9a84:	e92d4010 	push	{r4, lr}
    9a88:	e59f303c 	ldr	r3, [pc, #60]	; 9acc <kmalloc_init+0x48>
    9a8c:	e5933000 	ldr	r3, [r3]
    9a90:	e3530000 	cmp	r3, #0, 0
    9a94:	1a000006 	bne	9ab4 <kmalloc_init+0x30>
    9a98:	e59f302c 	ldr	r3, [pc, #44]	; 9acc <kmalloc_init+0x48>
    9a9c:	e3a02001 	mov	r2, #1, 0
    9aa0:	e5832000 	str	r2, [r3]
    9aa4:	e3a01201 	mov	r1, #268435456	; 0x10000000
    9aa8:	e3a00601 	mov	r0, #1048576	; 0x100000
    9aac:	ebffffcd 	bl	99e8 <kmalloc_init_set_start>
    9ab0:	e8bd8010 	pop	{r4, pc}
    9ab4:	e3a03040 	mov	r3, #64, 0	; 0x40
    9ab8:	e59f2010 	ldr	r2, [pc, #16]	; 9ad0 <kmalloc_init+0x4c>
    9abc:	e59f1010 	ldr	r1, [pc, #16]	; 9ad4 <kmalloc_init+0x50>
    9ac0:	e59f0010 	ldr	r0, [pc, #16]	; 9ad8 <kmalloc_init+0x54>
    9ac4:	ebfffca1 	bl	8d50 <printk>
    9ac8:	ebfffe9b 	bl	953c <clean_reboot>
    9acc:	0000a610 	andeq	sl, r0, r0, lsl r6
    9ad0:	0000a1b0 			; <UNDEFINED> instruction: 0x0000a1b0
    9ad4:	0000a000 	andeq	sl, r0, r0
    9ad8:	0000a05c 	andeq	sl, r0, ip, asr r0

00009adc <kmalloc_notzero>:
    9adc:	e52de004 	push	{lr}		; (str lr, [sp, #-4]!)
    9ae0:	e24dd00c 	sub	sp, sp, #12, 0
    9ae4:	e3500000 	cmp	r0, #0, 0
    9ae8:	0a00000a 	beq	9b18 <kmalloc_notzero+0x3c>
    9aec:	e2800007 	add	r0, r0, #7, 0
    9af0:	e3c03007 	bic	r3, r0, #7, 0
    9af4:	e59f2060 	ldr	r2, [pc, #96]	; 9b5c <kmalloc_notzero+0x80>
    9af8:	e5920008 	ldr	r0, [r2, #8]
    9afc:	e0801003 	add	r1, r0, r3
    9b00:	e5821008 	str	r1, [r2, #8]
    9b04:	e5922000 	ldr	r2, [r2]
    9b08:	e1510002 	cmp	r1, r2
    9b0c:	8a000009 	bhi	9b38 <kmalloc_notzero+0x5c>
    9b10:	e28dd00c 	add	sp, sp, #12, 0
    9b14:	e49df004 	pop	{pc}		; (ldr pc, [sp], #4)
    9b18:	e59f3040 	ldr	r3, [pc, #64]	; 9b60 <kmalloc_notzero+0x84>
    9b1c:	e58d3000 	str	r3, [sp]
    9b20:	e3a03048 	mov	r3, #72, 0	; 0x48
    9b24:	e59f2038 	ldr	r2, [pc, #56]	; 9b64 <kmalloc_notzero+0x88>
    9b28:	e59f1038 	ldr	r1, [pc, #56]	; 9b68 <kmalloc_notzero+0x8c>
    9b2c:	e59f0038 	ldr	r0, [pc, #56]	; 9b6c <kmalloc_notzero+0x90>
    9b30:	ebfffc86 	bl	8d50 <printk>
    9b34:	ebfffe80 	bl	953c <clean_reboot>
    9b38:	e0422000 	sub	r2, r2, r0
    9b3c:	e58d2004 	str	r2, [sp, #4]
    9b40:	e58d3000 	str	r3, [sp]
    9b44:	e3a0304e 	mov	r3, #78, 0	; 0x4e
    9b48:	e59f2014 	ldr	r2, [pc, #20]	; 9b64 <kmalloc_notzero+0x88>
    9b4c:	e59f1014 	ldr	r1, [pc, #20]	; 9b68 <kmalloc_notzero+0x8c>
    9b50:	e59f0018 	ldr	r0, [pc, #24]	; 9b70 <kmalloc_notzero+0x94>
    9b54:	ebfffc7d 	bl	8d50 <printk>
    9b58:	ebfffe77 	bl	953c <clean_reboot>
    9b5c:	0000a200 	andeq	sl, r0, r0, lsl #4
    9b60:	0000a010 	andeq	sl, r0, r0, lsl r0
    9b64:	0000a1c0 	andeq	sl, r0, r0, asr #3
    9b68:	0000a000 	andeq	sl, r0, r0
    9b6c:	00009e8c 	andeq	r9, r0, ip, lsl #29
    9b70:	0000a08c 	andeq	sl, r0, ip, lsl #1

00009b74 <kmalloc>:
    9b74:	e92d4030 	push	{r4, r5, lr}
    9b78:	e24dd00c 	sub	sp, sp, #12, 0
    9b7c:	e2504000 	subs	r4, r0, #0, 0
    9b80:	0a000008 	beq	9ba8 <kmalloc+0x34>
    9b84:	e1a00004 	mov	r0, r4
    9b88:	ebffffd3 	bl	9adc <kmalloc_notzero>
    9b8c:	e1a05000 	mov	r5, r0
    9b90:	e1a02004 	mov	r2, r4
    9b94:	e3a01000 	mov	r1, #0, 0
    9b98:	ebfffc66 	bl	8d38 <memset>
    9b9c:	e1a00005 	mov	r0, r5
    9ba0:	e28dd00c 	add	sp, sp, #12, 0
    9ba4:	e8bd8030 	pop	{r4, r5, pc}
    9ba8:	e59f3018 	ldr	r3, [pc, #24]	; 9bc8 <kmalloc+0x54>
    9bac:	e58d3000 	str	r3, [sp]
    9bb0:	e3a03054 	mov	r3, #84, 0	; 0x54
    9bb4:	e59f2010 	ldr	r2, [pc, #16]	; 9bcc <kmalloc+0x58>
    9bb8:	e59f1010 	ldr	r1, [pc, #16]	; 9bd0 <kmalloc+0x5c>
    9bbc:	e59f0010 	ldr	r0, [pc, #16]	; 9bd4 <kmalloc+0x60>
    9bc0:	ebfffc62 	bl	8d50 <printk>
    9bc4:	ebfffe5c 	bl	953c <clean_reboot>
    9bc8:	0000a010 	andeq	sl, r0, r0, lsl r0
    9bcc:	0000a1d0 	ldrdeq	sl, [r0], -r0
    9bd0:	0000a000 	andeq	sl, r0, r0
    9bd4:	00009e8c 	andeq	r9, r0, ip, lsl #29

00009bd8 <kmalloc_aligned>:
    9bd8:	e52de004 	push	{lr}		; (str lr, [sp, #-4]!)
    9bdc:	e24dd00c 	sub	sp, sp, #12, 0
    9be0:	e3500000 	cmp	r0, #0, 0
    9be4:	0a000014 	beq	9c3c <kmalloc_aligned+0x64>
    9be8:	e2613000 	rsb	r3, r1, #0, 0
    9bec:	e1d13003 	bics	r3, r1, r3
    9bf0:	1a000019 	bne	9c5c <kmalloc_aligned+0x84>
    9bf4:	e3510008 	cmp	r1, #8, 0
    9bf8:	33a01008 	movcc	r1, #8, 0
    9bfc:	e59f30c0 	ldr	r3, [pc, #192]	; 9cc4 <kmalloc_aligned+0xec>
    9c00:	e5932008 	ldr	r2, [r3, #8]
    9c04:	e2613000 	rsb	r3, r1, #0, 0
    9c08:	e1d1c003 	bics	ip, r1, r3
    9c0c:	1a00001b 	bne	9c80 <kmalloc_aligned+0xa8>
    9c10:	e0822001 	add	r2, r2, r1
    9c14:	e2422001 	sub	r2, r2, #1, 0
    9c18:	e0033002 	and	r3, r3, r2
    9c1c:	e2411001 	sub	r1, r1, #1, 0
    9c20:	e1110003 	tst	r1, r3
    9c24:	1a00001d 	bne	9ca0 <kmalloc_aligned+0xc8>
    9c28:	e59f2094 	ldr	r2, [pc, #148]	; 9cc4 <kmalloc_aligned+0xec>
    9c2c:	e5823008 	str	r3, [r2, #8]
    9c30:	ebffffcf 	bl	9b74 <kmalloc>
    9c34:	e28dd00c 	add	sp, sp, #12, 0
    9c38:	e49df004 	pop	{pc}		; (ldr pc, [sp], #4)
    9c3c:	e59f3084 	ldr	r3, [pc, #132]	; 9cc8 <kmalloc_aligned+0xf0>
    9c40:	e58d3000 	str	r3, [sp]
    9c44:	e3a0305f 	mov	r3, #95, 0	; 0x5f
    9c48:	e59f207c 	ldr	r2, [pc, #124]	; 9ccc <kmalloc_aligned+0xf4>
    9c4c:	e59f107c 	ldr	r1, [pc, #124]	; 9cd0 <kmalloc_aligned+0xf8>
    9c50:	e59f007c 	ldr	r0, [pc, #124]	; 9cd4 <kmalloc_aligned+0xfc>
    9c54:	ebfffc3d 	bl	8d50 <printk>
    9c58:	ebfffe37 	bl	953c <clean_reboot>
    9c5c:	eb000046 	bl	9d7c <rpi_reset_putc>
    9c60:	e59f3070 	ldr	r3, [pc, #112]	; 9cd8 <kmalloc_aligned+0x100>
    9c64:	e58d3000 	str	r3, [sp]
    9c68:	e3a03060 	mov	r3, #96, 0	; 0x60
    9c6c:	e59f2058 	ldr	r2, [pc, #88]	; 9ccc <kmalloc_aligned+0xf4>
    9c70:	e59f1058 	ldr	r1, [pc, #88]	; 9cd0 <kmalloc_aligned+0xf8>
    9c74:	e59f0060 	ldr	r0, [pc, #96]	; 9cdc <kmalloc_aligned+0x104>
    9c78:	ebfffc34 	bl	8d50 <printk>
    9c7c:	ebfffe2e 	bl	953c <clean_reboot>
    9c80:	e59f3058 	ldr	r3, [pc, #88]	; 9ce0 <kmalloc_aligned+0x108>
    9c84:	e58d3000 	str	r3, [sp]
    9c88:	e3a03011 	mov	r3, #17, 0
    9c8c:	e59f2050 	ldr	r2, [pc, #80]	; 9ce4 <kmalloc_aligned+0x10c>
    9c90:	e59f1038 	ldr	r1, [pc, #56]	; 9cd0 <kmalloc_aligned+0xf8>
    9c94:	e59f0038 	ldr	r0, [pc, #56]	; 9cd4 <kmalloc_aligned+0xfc>
    9c98:	ebfffc2c 	bl	8d50 <printk>
    9c9c:	ebfffe26 	bl	953c <clean_reboot>
    9ca0:	eb000035 	bl	9d7c <rpi_reset_putc>
    9ca4:	e59f303c 	ldr	r3, [pc, #60]	; 9ce8 <kmalloc_aligned+0x110>
    9ca8:	e58d3000 	str	r3, [sp]
    9cac:	e3a03068 	mov	r3, #104, 0	; 0x68
    9cb0:	e59f2014 	ldr	r2, [pc, #20]	; 9ccc <kmalloc_aligned+0xf4>
    9cb4:	e59f1014 	ldr	r1, [pc, #20]	; 9cd0 <kmalloc_aligned+0xf8>
    9cb8:	e59f002c 	ldr	r0, [pc, #44]	; 9cec <kmalloc_aligned+0x114>
    9cbc:	ebfffc23 	bl	8d50 <printk>
    9cc0:	ebfffe1d 	bl	953c <clean_reboot>
    9cc4:	0000a200 	andeq	sl, r0, r0, lsl #4
    9cc8:	0000a010 	andeq	sl, r0, r0, lsl r0
    9ccc:	0000a1d8 	ldrdeq	sl, [r0], -r8
    9cd0:	0000a000 	andeq	sl, r0, r0
    9cd4:	00009e8c 	andeq	r9, r0, ip, lsl #29
    9cd8:	0000a100 	andeq	sl, r0, r0, lsl #2
    9cdc:	0000a0cc 	andeq	sl, r0, ip, asr #1
    9ce0:	0000a114 	andeq	sl, r0, r4, lsl r1
    9ce4:	0000a1e8 	andeq	sl, r0, r8, ror #3
    9ce8:	0000a14c 	andeq	sl, r0, ip, asr #2
    9cec:	0000a120 	andeq	sl, r0, r0, lsr #2

00009cf0 <kfree>:
    9cf0:	e12fff1e 	bx	lr

00009cf4 <kfree_all>:
    9cf4:	e59f3008 	ldr	r3, [pc, #8]	; 9d04 <kfree_all+0x10>
    9cf8:	e5932004 	ldr	r2, [r3, #4]
    9cfc:	e5832008 	str	r2, [r3, #8]
    9d00:	e12fff1e 	bx	lr
    9d04:	0000a200 	andeq	sl, r0, r0, lsl #4

00009d08 <kfree_pop>:
    9d08:	e59f3048 	ldr	r3, [pc, #72]	; 9d58 <kfree_pop+0x50>
    9d0c:	e5933004 	ldr	r3, [r3, #4]
    9d10:	e1530000 	cmp	r3, r0
    9d14:	8a000006 	bhi	9d34 <kfree_pop+0x2c>
    9d18:	e59f3038 	ldr	r3, [pc, #56]	; 9d58 <kfree_pop+0x50>
    9d1c:	e5933000 	ldr	r3, [r3]
    9d20:	e1530000 	cmp	r3, r0
    9d24:	3a000002 	bcc	9d34 <kfree_pop+0x2c>
    9d28:	e59f3028 	ldr	r3, [pc, #40]	; 9d58 <kfree_pop+0x50>
    9d2c:	e5830008 	str	r0, [r3, #8]
    9d30:	e12fff1e 	bx	lr
    9d34:	e52de004 	push	{lr}		; (str lr, [sp, #-4]!)
    9d38:	e24dd00c 	sub	sp, sp, #12, 0
    9d3c:	e58d0000 	str	r0, [sp]
    9d40:	e3a03077 	mov	r3, #119, 0	; 0x77
    9d44:	e59f2010 	ldr	r2, [pc, #16]	; 9d5c <kfree_pop+0x54>
    9d48:	e59f1010 	ldr	r1, [pc, #16]	; 9d60 <kfree_pop+0x58>
    9d4c:	e59f0010 	ldr	r0, [pc, #16]	; 9d64 <kfree_pop+0x5c>
    9d50:	ebfffbfe 	bl	8d50 <printk>
    9d54:	ebfffdf8 	bl	953c <clean_reboot>
    9d58:	0000a200 	andeq	sl, r0, r0, lsl #4
    9d5c:	0000a1f0 	strdeq	sl, [r0], -r0
    9d60:	0000a000 	andeq	sl, r0, r0
    9d64:	0000a168 	andeq	sl, r0, r8, ror #2

00009d68 <internal_putchar>:
    9d68:	e92d4010 	push	{r4, lr}
    9d6c:	e1a04000 	mov	r4, r0
    9d70:	ebfffeea 	bl	9920 <uart_putc>
    9d74:	e1a00004 	mov	r0, r4
    9d78:	e8bd8010 	pop	{r4, pc}

00009d7c <rpi_reset_putc>:
    9d7c:	e59f3008 	ldr	r3, [pc, #8]	; 9d8c <rpi_reset_putc+0x10>
    9d80:	e59f2008 	ldr	r2, [pc, #8]	; 9d90 <rpi_reset_putc+0x14>
    9d84:	e5832000 	str	r2, [r3]
    9d88:	e12fff1e 	bx	lr
    9d8c:	0000a20c 	andeq	sl, r0, ip, lsl #4
    9d90:	00009d68 	andeq	r9, r0, r8, ror #26

00009d94 <rpi_set_putc>:
    9d94:	e59f3004 	ldr	r3, [pc, #4]	; 9da0 <rpi_set_putc+0xc>
    9d98:	e5830000 	str	r0, [r3]
    9d9c:	e12fff1e 	bx	lr
    9da0:	0000a20c 	andeq	sl, r0, ip, lsl #4

00009da4 <strcat>:
    9da4:	e1a02000 	mov	r2, r0
    9da8:	e1a03002 	mov	r3, r2
    9dac:	e2822001 	add	r2, r2, #1, 0
    9db0:	e5d3c000 	ldrb	ip, [r3]
    9db4:	e35c0000 	cmp	ip, #0, 0
    9db8:	1afffffa 	bne	9da8 <strcat+0x4>
    9dbc:	e2433001 	sub	r3, r3, #1, 0
    9dc0:	e5d12000 	ldrb	r2, [r1]
    9dc4:	e2811001 	add	r1, r1, #1, 0
    9dc8:	e5e32001 	strb	r2, [r3, #1]!
    9dcc:	e3520000 	cmp	r2, #0, 0
    9dd0:	1afffffa 	bne	9dc0 <strcat+0x1c>
    9dd4:	e12fff1e 	bx	lr

00009dd8 <strcmp>:
    9dd8:	e5d03000 	ldrb	r3, [r0]
    9ddc:	e3530000 	cmp	r3, #0, 0
    9de0:	0a000004 	beq	9df8 <strcmp+0x20>
    9de4:	e5d12000 	ldrb	r2, [r1]
    9de8:	e1530002 	cmp	r3, r2
    9dec:	02800001 	addeq	r0, r0, #1, 0
    9df0:	02811001 	addeq	r1, r1, #1, 0
    9df4:	0afffff7 	beq	9dd8 <strcmp>
    9df8:	e5d10000 	ldrb	r0, [r1]
    9dfc:	e0430000 	sub	r0, r3, r0
    9e00:	e12fff1e 	bx	lr

00009e04 <strcpy>:
    9e04:	e1a0c000 	mov	ip, r0
    9e08:	e5d12000 	ldrb	r2, [r1]
    9e0c:	e2811001 	add	r1, r1, #1, 0
    9e10:	e5cc2000 	strb	r2, [ip]
    9e14:	e28cc001 	add	ip, ip, #1, 0
    9e18:	e3520000 	cmp	r2, #0, 0
    9e1c:	1afffff9 	bne	9e08 <strcpy+0x4>
    9e20:	e12fff1e 	bx	lr

00009e24 <strncmp>:
    9e24:	e3520000 	cmp	r2, #0, 0
    9e28:	e2422001 	sub	r2, r2, #1, 0
    9e2c:	0a000005 	beq	9e48 <strncmp+0x24>
    9e30:	e4d03001 	ldrb	r3, [r0], #1
    9e34:	e4d1c001 	ldrb	ip, [r1], #1
    9e38:	e153000c 	cmp	r3, ip
    9e3c:	0afffff8 	beq	9e24 <strncmp>
    9e40:	e043000c 	sub	r0, r3, ip
    9e44:	e12fff1e 	bx	lr
    9e48:	e3a00000 	mov	r0, #0, 0
    9e4c:	e12fff1e 	bx	lr

00009e50 <reboot_callout>:
    9e50:	e12fff1e 	bx	lr

00009e54 <dev_barrier>:
    9e54:	ea000002 	b	9e64 <dsb>

00009e58 <dmb>:
    9e58:	e3a00000 	mov	r0, #0, 0
    9e5c:	ee070fba 	mcr	15, 0, r0, cr7, cr10, {5}
    9e60:	e12fff1e 	bx	lr

00009e64 <dsb>:
    9e64:	ee070f9a 	mcr	15, 0, r0, cr7, cr10, {4}
    9e68:	e12fff1e 	bx	lr

00009e6c <__code_end__>:
    9e6c:	00000000 	andeq	r0, r0, r0

Disassembly of section .rodata:

00009e70 <__FUNCTION__.4008-0x160>:
    9e70:	656e6f64 	strbvs	r6, [lr, #-3940]!	; 0xfffff09c
    9e74:	00000a21 	andeq	r0, r0, r1, lsr #20
    9e78:	696c2f2e 	stmdbvs	ip!, {r1, r2, r3, r5, r8, r9, sl, fp, sp}^
    9e7c:	762f6362 	strtvc	r6, [pc], -r2, ror #6
    9e80:	72702d61 	rsbsvc	r2, r0, #6208	; 0x1840
    9e84:	6b746e69 	blvs	1d25830 <__bss_end__+0x1d1b218>
    9e88:	0000632e 	andeq	r6, r0, lr, lsr #6
    9e8c:	494e4150 	stmdbmi	lr, {r4, r6, r8, lr}^
    9e90:	73253a43 			; <UNDEFINED> instruction: 0x73253a43
    9e94:	3a73253a 	bcc	1cd3384 <__bss_end__+0x1cc8d6c>
    9e98:	253a6425 	ldrcs	r6, [sl, #-1061]!	; 0xfffffbdb
    9e9c:	00000a73 	andeq	r0, r0, r3, ror sl
    9ea0:	00000030 	andeq	r0, r0, r0, lsr r0
    9ea4:	33323130 	teqcc	r2, #12
    9ea8:	37363534 			; <UNDEFINED> instruction: 0x37363534
    9eac:	00003938 	andeq	r3, r0, r8, lsr r9
    9eb0:	33323130 	teqcc	r2, #12
    9eb4:	37363534 			; <UNDEFINED> instruction: 0x37363534
    9eb8:	62613938 	rsbvs	r3, r1, #56, 18	; 0xe0000
    9ebc:	66656463 	strbtvs	r6, [r5], -r3, ror #8
    9ec0:	00000000 	andeq	r0, r0, r0
    9ec4:	00003130 	andeq	r3, r0, r0, lsr r1
    9ec8:	63747570 	cmnvs	r4, #112, 10	; 0x1c000000
    9ecc:	0070665f 	rsbseq	r6, r0, pc, asr r6
    9ed0:	74646977 	strbtvc	r6, [r4], #-2423	; 0xfffff689
    9ed4:	203c2068 	eorscs	r2, ip, r8, rrx
    9ed8:	00003233 	andeq	r3, r0, r3, lsr r2
    9edc:	00786c6c 	rsbseq	r6, r8, ip, ror #24
    9ee0:	00646c6c 	rsbeq	r6, r4, ip, ror #24
    9ee4:	253d3078 	ldrcs	r3, [sp, #-120]!	; 0xffffff88
    9ee8:	00000a78 	andeq	r0, r0, r8, ror sl
    9eec:	253d3178 	ldrcs	r3, [sp, #-376]!	; 0xfffffe88
    9ef0:	00000a78 	andeq	r0, r0, r8, ror sl
    9ef4:	6e727473 	mrcvs	4, 3, r7, cr2, cr3, {3}
    9ef8:	28706d63 	ldmdacs	r0!, {r0, r1, r5, r6, r8, sl, fp, sp, lr}^
    9efc:	202c7974 	eorcs	r7, ip, r4, ror r9
    9f00:	786c6c22 	stmdavc	ip!, {r1, r5, sl, fp, sp, lr}^
    9f04:	33202c22 			; <UNDEFINED> instruction: 0x33202c22
    9f08:	3d3d2029 	ldccc	0, cr2, [sp, #-164]!	; 0xffffff5c
    9f0c:	7c203020 	stcvc	0, cr3, [r0], #-128	; 0xffffff80
    9f10:	7473207c 	ldrbtvc	r2, [r3], #-124	; 0xffffff84
    9f14:	6d636e72 	stclvs	14, cr6, [r3, #-456]!	; 0xfffffe38
    9f18:	79742870 	ldmdbvc	r4!, {r4, r5, r6, fp, sp}^
    9f1c:	6c22202c 	stcvs	0, cr2, [r2], #-176	; 0xffffff50
    9f20:	2c22646c 	cfstrscs	mvf6, [r2], #-432	; 0xfffffe50
    9f24:	20293320 	eorcs	r3, r9, r0, lsr #6
    9f28:	30203d3d 	eorcc	r3, r0, sp, lsr sp
    9f2c:	00000000 	andeq	r0, r0, r0
    9f30:	494e4150 	stmdbmi	lr, {r4, r6, r8, lr}^
    9f34:	73253a43 			; <UNDEFINED> instruction: 0x73253a43
    9f38:	3a73253a 	bcc	1cd3428 <__bss_end__+0x1cc8e10>
    9f3c:	693a6425 	ldmdbvs	sl!, {r0, r2, r5, sl, sp, lr}
    9f40:	736f706d 	cmnvc	pc, #109, 0	; 0x6d
    9f44:	6c626973 			; <UNDEFINED> instruction: 0x6c626973
    9f48:	66203a65 	strtvs	r3, [r0], -r5, ror #20
    9f4c:	3c3d746d 	cfldrscc	mvf7, [sp], #-436	; 0xfffffe4c
    9f50:	0a3e7325 	beq	fa6bec <__bss_end__+0xf9c5d4>
    9f54:	0000000a 	andeq	r0, r0, sl
    9f58:	494e4150 	stmdbmi	lr, {r4, r6, r8, lr}^
    9f5c:	73253a43 			; <UNDEFINED> instruction: 0x73253a43
    9f60:	3a73253a 	bcc	1cd3450 <__bss_end__+0x1cc8e38>
    9f64:	663a6425 	ldrtvs	r6, [sl], -r5, lsr #8
    9f68:	74616f6c 	strbtvc	r6, [r1], #-3948	; 0xfffff094
    9f6c:	746f6e20 	strbtvc	r6, [pc], #-3616	; 9f74 <__code_end__+0x108>
    9f70:	616e6520 	cmnvs	lr, r0, lsr #10
    9f74:	64656c62 	strbtvs	r6, [r5], #-3170	; 0xfffff39e
    9f78:	0a212121 	beq	852404 <__bss_end__+0x847dec>
    9f7c:	00000000 	andeq	r0, r0, r0
    9f80:	6e697270 	mcrvs	2, 3, r7, cr9, cr0, {3}
    9f84:	203a6b74 	eorscs	r6, sl, r4, ror fp
    9f88:	20746f6e 	rsbscs	r6, r4, lr, ror #30
    9f8c:	646e6168 	strbtvs	r6, [lr], #-360	; 0xfffffe98
    9f90:	676e696c 	strbvs	r6, [lr, -ip, ror #18]!
    9f94:	65707320 	ldrbvs	r7, [r0, #-800]!	; 0xfffffce0
    9f98:	69666963 	stmdbvs	r6!, {r0, r1, r5, r6, r8, fp, sp, lr}^
    9f9c:	27207265 	strcs	r7, [r0, -r5, ror #4]!
    9fa0:	20276325 	eorcs	r6, r7, r5, lsr #6
    9fa4:	63736128 	cmnvs	r3, #10
    9fa8:	253d6969 	ldrcs	r6, [sp, #-2409]!	; 0xfffff697
    9fac:	000a2964 	andeq	r2, sl, r4, ror #18
    9fb0:	494e4150 	stmdbmi	lr, {r4, r6, r8, lr}^
    9fb4:	73253a43 			; <UNDEFINED> instruction: 0x73253a43
    9fb8:	3a73253a 	bcc	1cd34a8 <__bss_end__+0x1cc8e90>
    9fbc:	703a6425 	eorsvc	r6, sl, r5, lsr #8
    9fc0:	746e6972 	strbtvc	r6, [lr], #-2418	; 0xfffff68e
    9fc4:	7265206b 	rsbvc	r2, r5, #107, 0	; 0x6b
    9fc8:	0a726f72 	beq	1ca5d98 <__bss_end__+0x1c9b780>
    9fcc:	0000000a 	andeq	r0, r0, sl

00009fd0 <__FUNCTION__.4008>:
    9fd0:	74696d65 	strbtvc	r6, [r9], #-3429	; 0xfffff29b
    9fd4:	00000000 	andeq	r0, r0, r0

00009fd8 <__FUNCTION__.3956>:
    9fd8:	5f697072 	svcpl	0x00697072
    9fdc:	5f746573 	svcpl	0x00746573
    9fe0:	7074756f 	rsbsvc	r7, r4, pc, ror #10
    9fe4:	00007475 	andeq	r7, r0, r5, ror r4

00009fe8 <__FUNCTION__.4034>:
    9fe8:	705f6176 	subsvc	r6, pc, r6, ror r1	; <UNPREDICTABLE>
    9fec:	746e6972 	strbtvc	r6, [lr], #-2418	; 0xfffff68e
    9ff0:	0000006b 	andeq	r0, r0, fp, rrx
    9ff4:	454e4f44 	strbmi	r4, [lr, #-3908]	; 0xfffff0bc
    9ff8:	0a212121 	beq	852484 <__bss_end__+0x847e6c>
    9ffc:	00000000 	andeq	r0, r0, r0
    a000:	6c616d6b 	stclvs	13, cr6, [r1], #-428	; 0xfffffe54
    a004:	2e636f6c 	cdpcs	15, 6, cr6, cr3, cr12, {3}
    a008:	00000063 	andeq	r0, r0, r3, rrx
    a00c:	5f78616d 	svcpl	0x0078616d
    a010:	7479626e 	ldrbtvc	r6, [r9], #-622	; 0xfffffd92
    a014:	00007365 	andeq	r7, r0, r5, ror #6
    a018:	494e4150 	stmdbmi	lr, {r4, r6, r8, lr}^
    a01c:	73253a43 			; <UNDEFINED> instruction: 0x73253a43
    a020:	3a73253a 	bcc	1cd3510 <__bss_end__+0x1cc8ef8>
    a024:	733a6425 	teqvc	sl, #620756992	; 0x25000000
    a028:	69747465 	ldmdbvs	r4!, {r0, r2, r5, r6, sl, ip, sp, lr}^
    a02c:	6820676e 	stmdavs	r0!, {r1, r2, r3, r5, r6, r8, r9, sl, sp, lr}
    a030:	20706165 	rsbscs	r6, r0, r5, ror #2
    a034:	25206f74 	strcs	r6, [r0, #-3956]!	; 0xfffff08c
    a038:	77203a70 			; <UNDEFINED> instruction: 0x77203a70
    a03c:	206c6c69 	rsbcs	r6, ip, r9, ror #24
    a040:	20746968 	rsbscs	r6, r4, r8, ror #18
    a044:	20656874 	rsbcs	r6, r5, r4, ror r8
    a048:	20646c6f 	rsbcs	r6, r4, pc, ror #24
    a04c:	70616568 	rsbvc	r6, r1, r8, ror #10
    a050:	20746120 	rsbscs	r6, r4, r0, lsr #2
    a054:	0a0a7025 	beq	2a60f0 <__bss_end__+0x29bad8>
    a058:	00000000 	andeq	r0, r0, r0
    a05c:	494e4150 	stmdbmi	lr, {r4, r6, r8, lr}^
    a060:	73253a43 			; <UNDEFINED> instruction: 0x73253a43
    a064:	3a73253a 	bcc	1cd3554 <__bss_end__+0x1cc8f3c>
    a068:	613a6425 	teqvs	sl, r5, lsr #8
    a06c:	6165726c 	cmnvs	r5, ip, ror #4
    a070:	63207964 			; <UNDEFINED> instruction: 0x63207964
    a074:	656c6c61 	strbvs	r6, [ip, #-3169]!	; 0xfffff39f
    a078:	6d6b2064 	stclvs	0, cr2, [fp, #-400]!	; 0xfffffe70
    a07c:	6f6c6c61 	svcvs	0x006c6c61
    a080:	6e695f63 	cdpvs	15, 6, cr5, cr9, cr3, {3}
    a084:	0a0a7469 	beq	2a7230 <__bss_end__+0x29cc18>
    a088:	00000000 	andeq	r0, r0, r0
    a08c:	494e4150 	stmdbmi	lr, {r4, r6, r8, lr}^
    a090:	73253a43 			; <UNDEFINED> instruction: 0x73253a43
    a094:	3a73253a 	bcc	1cd3584 <__bss_end__+0x1cc8f6c>
    a098:	253a6425 	ldrcs	r6, [sl, #-1061]!	; 0xfffffbdb
    a09c:	626e2064 	rsbvs	r2, lr, #100, 0	; 0x64
    a0a0:	73657479 	cmnvc	r5, #2030043136	; 0x79000000
    a0a4:	63786520 	cmnvs	r8, #32, 10	; 0x8000000
    a0a8:	65646565 	strbvs	r6, [r4, #-1381]!	; 0xfffffa9b
    a0ac:	69732064 	ldmdbvs	r3!, {r2, r5, r6, sp}^
    a0b0:	6f20657a 	svcvs	0x0020657a
    a0b4:	65682066 	strbvs	r2, [r8, #-102]!	; 0xffffff9a
    a0b8:	62207061 	eorvs	r7, r0, #97, 0	; 0x61
    a0bc:	75252079 	strvc	r2, [r5, #-121]!	; 0xffffff87
    a0c0:	79626e20 	stmdbvc	r2!, {r5, r9, sl, fp, sp, lr}^
    a0c4:	0a736574 	beq	1ce369c <__bss_end__+0x1cd9084>
    a0c8:	0000000a 	andeq	r0, r0, sl
    a0cc:	4f525245 	svcmi	0x00525245
    a0d0:	73253a52 			; <UNDEFINED> instruction: 0x73253a52
    a0d4:	3a73253a 	bcc	1cd35c4 <__bss_end__+0x1cc8fac>
    a0d8:	203a6425 	eorscs	r6, sl, r5, lsr #8
    a0dc:	534c4146 	movtpl	r4, #49478	; 0xc146
    a0e0:	253c2845 	ldrcs	r2, [ip, #-2117]!	; 0xfffff7bb
    a0e4:	3a293e73 	bcc	a59ab8 <__bss_end__+0xa4f4a0>
    a0e8:	73736120 	cmnvc	r3, #8
    a0ec:	6e696d75 	mcrvs	13, 3, r6, cr9, cr5, {3}
    a0f0:	6f702067 	svcvs	0x00702067
    a0f4:	20726577 	rsbscs	r6, r2, r7, ror r5
    a0f8:	7420666f 	strtvc	r6, [r0], #-1647	; 0xfffff991
    a0fc:	000a6f77 	andeq	r6, sl, r7, ror pc
    a100:	705f7369 	subsvc	r7, pc, r9, ror #6
    a104:	2832776f 	ldmdacs	r2!, {r0, r1, r2, r3, r5, r6, r8, r9, sl, ip, sp, lr}
    a108:	67696c61 	strbvs	r6, [r9, -r1, ror #24]!
    a10c:	6e656d6e 	cdpvs	13, 6, cr6, cr5, cr14, {3}
    a110:	00002974 	andeq	r2, r0, r4, ror r9
    a114:	705f7369 	subsvc	r7, pc, r9, ror #6
    a118:	2832776f 	ldmdacs	r2!, {r0, r1, r2, r3, r5, r6, r8, r9, sl, ip, sp, lr}
    a11c:	0000296e 	andeq	r2, r0, lr, ror #18
    a120:	4f525245 	svcmi	0x00525245
    a124:	73253a52 			; <UNDEFINED> instruction: 0x73253a52
    a128:	3a73253a 	bcc	1cd3618 <__bss_end__+0x1cc9000>
    a12c:	203a6425 	eorscs	r6, sl, r5, lsr #8
    a130:	534c4146 	movtpl	r4, #49478	; 0xc146
    a134:	253c2845 	ldrcs	r2, [ip, #-2117]!	; 0xfffff7bb
    a138:	3a293e73 	bcc	a59b0c <__bss_end__+0xa4f4f4>
    a13c:	706d6920 	rsbvc	r6, sp, r0, lsr #18
    a140:	6973736f 	ldmdbvs	r3!, {r0, r1, r2, r3, r5, r6, r8, r9, ip, sp, lr}^
    a144:	0a656c62 	beq	19652d4 <__bss_end__+0x195acbc>
    a148:	00000000 	andeq	r0, r0, r0
    a14c:	615f7369 	cmpvs	pc, r9, ror #6
    a150:	6e67696c 	vnmulvs.f16	s13, s14, s25	; <UNPREDICTABLE>
    a154:	68286465 	stmdavs	r8!, {r0, r2, r5, r6, sl, sp, lr}
    a158:	6c61202c 	stclvs	0, cr2, [r1], #-176	; 0xffffff50
    a15c:	6d6e6769 	stclvs	7, cr6, [lr, #-420]!	; 0xfffffe5c
    a160:	29746e65 	ldmdbcs	r4!, {r0, r2, r5, r6, r9, sl, fp, sp, lr}^
    a164:	00000000 	andeq	r0, r0, r0
    a168:	494e4150 	stmdbmi	lr, {r4, r6, r8, lr}^
    a16c:	73253a43 			; <UNDEFINED> instruction: 0x73253a43
    a170:	3a73253a 	bcc	1cd3660 <__bss_end__+0x1cc9048>
    a174:	703a6425 	eorsvc	r6, sl, r5, lsr #8
    a178:	746e696f 	strbtvc	r6, [lr], #-2415	; 0xfffff691
    a17c:	25207265 	strcs	r7, [r0, #-613]!	; 0xfffffd9b
    a180:	61772070 	cmnvs	r7, r0, ror r0
    a184:	656e2073 	strbvs	r2, [lr, #-115]!	; 0xffffff8d
    a188:	20726576 	rsbscs	r6, r2, r6, ror r5
    a18c:	6f6c6c61 	svcvs	0x006c6c61
    a190:	65746163 	ldrbvs	r6, [r4, #-355]!	; 0xfffffe9d
    a194:	000a0a64 	andeq	r0, sl, r4, ror #20

0000a198 <__FUNCTION__.7>:
    a198:	6c616d6b 	stclvs	13, cr6, [r1], #-428	; 0xfffffe54
    a19c:	5f636f6c 	svcpl	0x00636f6c
    a1a0:	74696e69 	strbtvc	r6, [r9], #-3689	; 0xfffff197
    a1a4:	7465735f 	strbtvc	r7, [r5], #-863	; 0xfffffca1
    a1a8:	6174735f 	cmnvs	r4, pc, asr r3
    a1ac:	00007472 	andeq	r7, r0, r2, ror r4

0000a1b0 <__FUNCTION__.5>:
    a1b0:	6c616d6b 	stclvs	13, cr6, [r1], #-428	; 0xfffffe54
    a1b4:	5f636f6c 	svcpl	0x00636f6c
    a1b8:	74696e69 	strbtvc	r6, [r9], #-3689	; 0xfffff197
    a1bc:	00000000 	andeq	r0, r0, r0

0000a1c0 <__FUNCTION__.4>:
    a1c0:	6c616d6b 	stclvs	13, cr6, [r1], #-428	; 0xfffffe54
    a1c4:	5f636f6c 	svcpl	0x00636f6c
    a1c8:	7a746f6e 	bvc	1d25f88 <__bss_end__+0x1d1b970>
    a1cc:	006f7265 	rsbeq	r7, pc, r5, ror #4

0000a1d0 <__FUNCTION__.2>:
    a1d0:	6c616d6b 	stclvs	13, cr6, [r1], #-428	; 0xfffffe54
    a1d4:	00636f6c 	rsbeq	r6, r3, ip, ror #30

0000a1d8 <__FUNCTION__.1>:
    a1d8:	6c616d6b 	stclvs	13, cr6, [r1], #-428	; 0xfffffe54
    a1dc:	5f636f6c 	svcpl	0x00636f6c
    a1e0:	67696c61 	strbvs	r6, [r9, -r1, ror #24]!
    a1e4:	0064656e 	rsbeq	r6, r4, lr, ror #10

0000a1e8 <__FUNCTION__.3>:
    a1e8:	6e756f72 	mrcvs	15, 3, r6, cr5, cr2, {3}
    a1ec:	00707564 	rsbseq	r7, r0, r4, ror #10

0000a1f0 <__FUNCTION__.0>:
    a1f0:	6572666b 	ldrbvs	r6, [r2, #-1643]!	; 0xfffff995
    a1f4:	6f705f65 	svcvs	0x00705f65
    a1f8:	Address 0x000000000000a1f8 is out of bounds.


Disassembly of section .data:

0000a1fc <putk>:
    a1fc:	00008da8 	andeq	r8, r0, r8, lsr #27

0000a200 <heap_end>:
    a200:	0020a618 	eoreq	sl, r0, r8, lsl r6

0000a204 <heap_start>:
    a204:	0000a618 	andeq	sl, r0, r8, lsl r6

0000a208 <heap>:
    a208:	0000a618 	andeq	sl, r0, r8, lsl r6

0000a20c <rpi_putchar>:
    a20c:	00009d68 	andeq	r9, r0, r8, ror #26

Disassembly of section .bss:

0000a210 <__bss_start__>:
	...

0000a610 <init_p.6>:
	...

Disassembly of section .ARM.attributes:

00000000 <.ARM.attributes>:
   0:	00002a41 	andeq	r2, r0, r1, asr #20
   4:	61656100 	cmnvs	r5, r0, lsl #2
   8:	01006962 	tsteq	r0, r2, ror #18
   c:	00000020 	andeq	r0, r0, r0, lsr #32
  10:	4b5a3605 	blmi	168d82c <__bss_end__+0x1683214>
  14:	08070600 	stmdaeq	r7, {r9, sl}
  18:	12010901 	andne	r0, r1, #16384	; 0x4000
  1c:	15011404 	strne	r1, [r1, #-1028]	; 0xfffffbfc
  20:	18031701 	stmdane	r3, {r0, r8, r9, sl, ip}
  24:	22011a01 	andcs	r1, r1, #4096	; 0x1000
  28:	Address 0x0000000000000028 is out of bounds.


Disassembly of section .comment:

00000000 <.comment>:
   0:	3a434347 	bcc	10d0d24 <__bss_end__+0x10c670c>
   4:	4e472820 	cdpmi	8, 4, cr2, cr7, cr0, {1}
   8:	6f542055 	svcvs	0x00542055
   c:	20736c6f 	rsbscs	r6, r3, pc, ror #24
  10:	20726f66 	rsbscs	r6, r2, r6, ror #30
  14:	206d7241 	rsbcs	r7, sp, r1, asr #4
  18:	65626d45 	strbvs	r6, [r2, #-3397]!	; 0xfffff2bb
  1c:	64656464 	strbtvs	r6, [r5], #-1124	; 0xfffffb9c
  20:	6f725020 	svcvs	0x00725020
  24:	73736563 	cmnvc	r3, #415236096	; 0x18c00000
  28:	2073726f 	rsbscs	r7, r3, pc, ror #4
  2c:	30322d39 	eorscc	r2, r2, r9, lsr sp
  30:	712d3931 			; <UNDEFINED> instruction: 0x712d3931
  34:	616d2d34 	cmnvs	sp, r4, lsr sp
  38:	29726f6a 	ldmdbcs	r2!, {r1, r3, r5, r6, r8, r9, sl, fp, sp, lr}^
  3c:	322e3920 	eorcc	r3, lr, #32, 18	; 0x80000
  40:	3220312e 	eorcc	r3, r0, #-2147483637	; 0x8000000b
  44:	31393130 	teqcc	r9, r0, lsr r1
  48:	20353230 	eorscs	r3, r5, r0, lsr r2
  4c:	6c657228 	sfmvs	f7, 2, [r5], #-160	; 0xffffff60
  50:	65736165 	ldrbvs	r6, [r3, #-357]!	; 0xfffffe9b
  54:	415b2029 	cmpmi	fp, r9, lsr #32
  58:	612f4d52 			; <UNDEFINED> instruction: 0x612f4d52
  5c:	392d6d72 	pushcc	{r1, r4, r5, r6, r8, sl, fp, sp, lr}
  60:	6172622d 	cmnvs	r2, sp, lsr #4
  64:	2068636e 	rsbcs	r6, r8, lr, ror #6
  68:	69766572 	ldmdbvs	r6!, {r1, r4, r5, r6, r8, sl, sp, lr}^
  6c:	6e6f6973 			; <UNDEFINED> instruction: 0x6e6f6973
  70:	37373220 	ldrcc	r3, [r7, -r0, lsr #4]!
  74:	5d393935 			; <UNDEFINED> instruction: 0x5d393935
  78:	43434700 	movtmi	r4, #14080	; 0x3700
  7c:	4728203a 			; <UNDEFINED> instruction: 0x4728203a
  80:	4120554e 			; <UNDEFINED> instruction: 0x4120554e
  84:	45206d72 	strmi	r6, [r0, #-3442]!	; 0xfffff28e
  88:	6465626d 	strbtvs	r6, [r5], #-621	; 0xfffffd93
  8c:	20646564 	rsbcs	r6, r4, r4, ror #10
  90:	6c6f6f54 	stclvs	15, cr6, [pc], #-336	; ffffff48 <__bss_end__+0xffff5930>
  94:	69616863 	stmdbvs	r1!, {r0, r1, r5, r6, fp, sp, lr}^
  98:	3031206e 	eorscc	r2, r1, lr, rrx
  9c:	322d332e 	eorcc	r3, sp, #-1207959552	; 0xb8000000
  a0:	2e313230 	mrccs	2, 1, r3, cr1, cr0, {1}
  a4:	20293031 	eorcs	r3, r9, r1, lsr r0
  a8:	332e3031 			; <UNDEFINED> instruction: 0x332e3031
  ac:	3220312e 	eorcc	r3, r0, #-2147483637	; 0x8000000b
  b0:	30313230 	eorscc	r3, r1, r0, lsr r2
  b4:	20343238 	eorscs	r3, r4, r8, lsr r2
  b8:	6c657228 	sfmvs	f7, 2, [r5], #-160	; 0xffffff60
  bc:	65736165 	ldrbvs	r6, [r3, #-357]!	; 0xfffffe9b
  c0:	Address 0x00000000000000c0 is out of bounds.


Disassembly of section .debug_info:

00000000 <.debug_info>:
       0:	00000aba 			; <UNDEFINED> instruction: 0x00000aba
       4:	00000004 	andeq	r0, r0, r4
       8:	01040000 	mrseq	r0, (UNDEF: 4)
       c:	00000143 	andeq	r0, r0, r3, asr #2
      10:	0000940c 	andeq	r9, r0, ip, lsl #8
      14:	0000ed00 	andeq	lr, r0, r0, lsl #26
      18:	00803800 	addeq	r3, r0, r0, lsl #16
      1c:	00055400 	andeq	r5, r5, r0, lsl #8
      20:	00000000 	andeq	r0, r0, r0
      24:	05040200 	streq	r0, [r4, #-512]	; 0xfffffe00
      28:	00746e69 	rsbseq	r6, r4, r9, ror #28
      2c:	a9070403 	stmdbge	r7, {r0, r1, sl}
      30:	04000000 	streq	r0, [r0], #-0
      34:	0000002c 	andeq	r0, r0, ip, lsr #32
      38:	58060103 	stmdapl	r6, {r0, r1, r8}
      3c:	03000000 	movweq	r0, #0
      40:	00d60502 	sbcseq	r0, r6, r2, lsl #10
      44:	04030000 	streq	r0, [r3], #-0
      48:	0000c105 	andeq	ip, r0, r5, lsl #2
      4c:	05080300 	streq	r0, [r8, #-768]	; 0xfffffd00
      50:	000000bc 	strheq	r0, [r0], -ip
      54:	56080103 	strpl	r0, [r8], -r3, lsl #2
      58:	03000000 	movweq	r0, #0
      5c:	00640702 	rsbeq	r0, r4, r2, lsl #14
      60:	04030000 	streq	r0, [r3], #-0
      64:	0000a407 	andeq	sl, r0, r7, lsl #8
      68:	07080300 	streq	r0, [r8, -r0, lsl #6]
      6c:	0000009f 	muleq	r0, pc, r0	; <UNPREDICTABLE>
      70:	00002505 	andeq	r2, r0, r5, lsl #10
      74:	00007f00 	andeq	r7, r0, r0, lsl #30
      78:	00250600 	eoreq	r0, r5, r0, lsl #12
      7c:	07000000 	streq	r0, [r0, -r0]
      80:	000000ca 	andeq	r0, r0, sl, asr #1
      84:	8b0e1c02 	blhi	387094 <__bss_end__+0x37ca7c>
      88:	08000000 	stmdaeq	r0, {}	; <UNPREDICTABLE>
      8c:	00007004 	andeq	r7, r0, r4
      90:	00250500 	eoreq	r0, r5, r0, lsl #10
      94:	00a00000 	adceq	r0, r0, r0
      98:	a0060000 	andge	r0, r6, r0
      9c:	00000000 	andeq	r0, r0, r0
      a0:	00ad0408 	adceq	r0, sp, r8, lsl #8
      a4:	01030000 	mrseq	r0, (UNDEF: 3)
      a8:	00005f08 	andeq	r5, r0, r8, lsl #30
      ac:	00a60400 	adceq	r0, r6, r0, lsl #8
      b0:	4d070000 	stcmi	0, cr0, [r7, #-0]
      b4:	02000004 	andeq	r0, r0, #4, 0
      b8:	00be0e21 	adcseq	r0, lr, r1, lsr #28
      bc:	04080000 	streq	r0, [r8], #-0
      c0:	00000091 	muleq	r0, r1, r0
      c4:	00002009 	andeq	r2, r0, r9
      c8:	179f0300 	ldrne	r0, [pc, r0, lsl #6]
      cc:	00000033 	andeq	r0, r0, r3, lsr r0
      d0:	00b60a10 	adcseq	r0, r6, r0, lsl sl
      d4:	03050000 	movweq	r0, #20480	; 0x5000
      d8:	0000dd1c 	andeq	sp, r0, ip, lsl sp
      dc:	e3040800 	movw	r0, #18432	; 0x4800
      e0:	0b000000 	bleq	e8 <__code_start__-0x7f18>
      e4:	00000000 	andeq	r0, r0, r0
      e8:	5401070c 	strpl	r0, [r1], #-1804	; 0xfffff8f4
      ec:	01000000 	mrseq	r0, (UNDEF: 0)
      f0:	00fd060a 	rscseq	r0, sp, sl, lsl #12
      f4:	180d0000 	stmdane	sp, {}	; <UNPREDICTABLE>
      f8:	15000000 	strne	r0, [r0, #-0]
      fc:	003a0e00 	eorseq	r0, sl, r0, lsl #28
     100:	4e010000 	cdpmi	0, 0, cr0, cr1, cr0, {0}
     104:	00852406 	addeq	r2, r5, r6, lsl #8
     108:	00006800 	andeq	r6, r0, r0, lsl #16
     10c:	d29c0100 	addsle	r0, ip, #0
     110:	09000001 	stmdbeq	r0, {r0}
     114:	00000042 	andeq	r0, r0, r2, asr #32
     118:	2c0e5501 	cfstr32cs	mvfx5, [lr], {1}
     11c:	12000000 	andne	r0, r0, #0, 0
     120:	0100680f 	tsteq	r0, pc, lsl #16
     124:	00d10b56 	sbcseq	r0, r1, r6, asr fp
     128:	00040000 	andeq	r0, r4, r0
     12c:	00000000 	andeq	r0, r0, r0
     130:	44100000 	ldrmi	r0, [r0], #-0
     134:	38000085 	stmdacc	r0, {r0, r2, r7}
     138:	8a000000 	bhi	140 <__code_start__-0x7ec0>
     13c:	0f000001 	svceq	0x00000001
     140:	5901006a 	stmdbpl	r1, {r1, r3, r5, r6}
     144:	0000250d 	andeq	r2, r0, sp, lsl #10
     148:	00002600 	andeq	r2, r0, r0, lsl #12
     14c:	00002200 	andeq	r2, r0, r0, lsl #4
     150:	85581100 	ldrbhi	r1, [r8, #-256]	; 0xffffff00
     154:	00240000 	eoreq	r0, r4, r0
     158:	690f0000 	stmdbvs	pc, {}	; <UNPREDICTABLE>
     15c:	115b0100 	cmpne	fp, r0, lsl #2
     160:	00000025 	andeq	r0, r0, r5, lsr #32
     164:	00000049 	andeq	r0, r0, r9, asr #32
     168:	00000045 	andeq	r0, r0, r5, asr #32
     16c:	00857412 	addeq	r7, r5, r2, lsl r4
     170:	0001d200 	andeq	sp, r1, r0, lsl #4
     174:	50011300 	andpl	r1, r1, r0, lsl #6
     178:	13007602 	movwne	r7, #1538	; 0x602
     17c:	74025101 	strvc	r5, [r2], #-257	; 0xfffffeff
     180:	52011300 	andpl	r1, r1, #0, 6
     184:	00007502 	andeq	r7, r0, r2, lsl #10
     188:	2c140000 	ldccs	0, cr0, [r4], {-0}
     18c:	75000085 	strvc	r0, [r0, #-133]	; 0xffffff7b
     190:	1500000a 	strne	r0, [r0, #-10]
     194:	00008534 	andeq	r8, r0, r4, lsr r5
     198:	00000a81 	andeq	r0, r0, r1, lsl #21
     19c:	000001a6 	andeq	r0, r0, r6, lsr #3
     1a0:	01500113 	cmpeq	r0, r3, lsl r1
     1a4:	40150045 	andsmi	r0, r5, r5, asr #32
     1a8:	8d000085 	stchi	0, cr0, [r0, #-532]	; 0xfffffdec
     1ac:	be00000a 	cdplt	0, 0, cr0, cr0, cr10, {0}
     1b0:	13000001 	movwne	r0, #1
     1b4:	45015001 	strmi	r5, [r1, #-1]
     1b8:	01510113 	cmpeq	r1, r3, lsl r1
     1bc:	84120042 	ldrhi	r0, [r2], #-66	; 0xffffffbe
     1c0:	99000085 	stmdbls	r0, {r0, r2, r7}
     1c4:	1300000a 	movwne	r0, #10
     1c8:	03055001 	movweq	r5, #20481	; 0x5001
     1cc:	00009e70 	andeq	r9, r0, r0, ror lr
     1d0:	0b0e0000 	bleq	3801d8 <__bss_end__+0x375bc0>
     1d4:	01000000 	mrseq	r0, (UNDEF: 0)
     1d8:	8038060d 	eorshi	r0, r8, sp, lsl #12
     1dc:	04ec0000 	strbteq	r0, [ip], #0
     1e0:	9c010000 	stcls	0, cr0, [r1], {-0}
     1e4:	00000a75 	andeq	r0, r0, r5, ror sl
     1e8:	01006816 	tsteq	r0, r6, lsl r8
     1ec:	00d1190d 	sbcseq	r1, r1, sp, lsl #18
     1f0:	00730000 	rsbseq	r0, r3, r0
     1f4:	00670000 	rsbeq	r0, r7, r0
     1f8:	69160000 	ldmdbvs	r6, {}	; <UNPREDICTABLE>
     1fc:	200d0100 	andcs	r0, sp, r0, lsl #2
     200:	00000025 	andeq	r0, r0, r5, lsr #32
     204:	000000cd 	andeq	r0, r0, sp, asr #1
     208:	000000bd 	strheq	r0, [r0], -sp
     20c:	00068b17 	andeq	r8, r6, r7, lsl fp
     210:	2c0d0100 	stfcss	f0, [sp], {-0}
     214:	0000002c 	andeq	r0, r0, ip, lsr #32
     218:	00000140 	andeq	r0, r0, r0, asr #2
     21c:	00000134 	andeq	r0, r0, r4, lsr r1
     220:	00808415 	addeq	r8, r0, r5, lsl r4
     224:	000aa500 	andeq	sl, sl, r0, lsl #10
     228:	00024c00 	andeq	r4, r2, r0, lsl #24
     22c:	50011300 	andpl	r1, r1, r0, lsl #6
     230:	13007502 	movwne	r7, #1282	; 0x502
     234:	76025101 	strvc	r5, [r2], -r1, lsl #2
     238:	52011300 	andpl	r1, r1, #0, 6
     23c:	13007702 	movwne	r7, #1794	; 0x702
     240:	30015301 	andcc	r5, r1, r1, lsl #6
     244:	007d0213 	rsbseq	r0, sp, r3, lsl r2
     248:	00007402 	andeq	r7, r0, r2, lsl #8
     24c:	00809c15 	addeq	r9, r0, r5, lsl ip
     250:	000aa500 	andeq	sl, sl, r0, lsl #10
     254:	00027800 	andeq	r7, r2, r0, lsl #16
     258:	50011300 	andpl	r1, r1, r0, lsl #6
     25c:	13007502 	movwne	r7, #1282	; 0x502
     260:	76025101 	strvc	r5, [r2], -r1, lsl #2
     264:	52011300 	andpl	r1, r1, #0, 6
     268:	13007702 	movwne	r7, #1794	; 0x702
     26c:	30015301 	andcc	r5, r1, r1, lsl #6
     270:	007d0213 	rsbseq	r0, sp, r3, lsl r2
     274:	00007402 	andeq	r7, r0, r2, lsl #8
     278:	0080b415 	addeq	fp, r0, r5, lsl r4
     27c:	000aa500 	andeq	sl, sl, r0, lsl #10
     280:	0002a400 	andeq	sl, r2, r0, lsl #8
     284:	50011300 	andpl	r1, r1, r0, lsl #6
     288:	13007502 	movwne	r7, #1282	; 0x502
     28c:	76025101 	strvc	r5, [r2], -r1, lsl #2
     290:	52011300 	andpl	r1, r1, #0, 6
     294:	13007702 	movwne	r7, #1794	; 0x702
     298:	30015301 	andcc	r5, r1, r1, lsl #6
     29c:	007d0213 	rsbseq	r0, sp, r3, lsl r2
     2a0:	00007402 	andeq	r7, r0, r2, lsl #8
     2a4:	0080cc15 	addeq	ip, r0, r5, lsl ip
     2a8:	000aa500 	andeq	sl, sl, r0, lsl #10
     2ac:	0002d000 	andeq	sp, r2, r0
     2b0:	50011300 	andpl	r1, r1, r0, lsl #6
     2b4:	13007502 	movwne	r7, #1282	; 0x502
     2b8:	76025101 	strvc	r5, [r2], -r1, lsl #2
     2bc:	52011300 	andpl	r1, r1, #0, 6
     2c0:	13007702 	movwne	r7, #1794	; 0x702
     2c4:	30015301 	andcc	r5, r1, r1, lsl #6
     2c8:	007d0213 	rsbseq	r0, sp, r3, lsl r2
     2cc:	00007402 	andeq	r7, r0, r2, lsl #8
     2d0:	0080e415 	addeq	lr, r0, r5, lsl r4
     2d4:	000aa500 	andeq	sl, sl, r0, lsl #10
     2d8:	0002fc00 	andeq	pc, r2, r0, lsl #24
     2dc:	50011300 	andpl	r1, r1, r0, lsl #6
     2e0:	13007502 	movwne	r7, #1282	; 0x502
     2e4:	76025101 	strvc	r5, [r2], -r1, lsl #2
     2e8:	52011300 	andpl	r1, r1, #0, 6
     2ec:	13007702 	movwne	r7, #1794	; 0x702
     2f0:	30015301 	andcc	r5, r1, r1, lsl #6
     2f4:	007d0213 	rsbseq	r0, sp, r3, lsl r2
     2f8:	00007402 	andeq	r7, r0, r2, lsl #8
     2fc:	0080fc15 	addeq	pc, r0, r5, lsl ip	; <UNPREDICTABLE>
     300:	000aa500 	andeq	sl, sl, r0, lsl #10
     304:	00032800 	andeq	r2, r3, r0, lsl #16
     308:	50011300 	andpl	r1, r1, r0, lsl #6
     30c:	13007502 	movwne	r7, #1282	; 0x502
     310:	76025101 	strvc	r5, [r2], -r1, lsl #2
     314:	52011300 	andpl	r1, r1, #0, 6
     318:	13007702 	movwne	r7, #1794	; 0x702
     31c:	30015301 	andcc	r5, r1, r1, lsl #6
     320:	007d0213 	rsbseq	r0, sp, r3, lsl r2
     324:	00007402 	andeq	r7, r0, r2, lsl #8
     328:	00811415 	addeq	r1, r1, r5, lsl r4
     32c:	000aa500 	andeq	sl, sl, r0, lsl #10
     330:	00035400 	andeq	r5, r3, r0, lsl #8
     334:	50011300 	andpl	r1, r1, r0, lsl #6
     338:	13007502 	movwne	r7, #1282	; 0x502
     33c:	76025101 	strvc	r5, [r2], -r1, lsl #2
     340:	52011300 	andpl	r1, r1, #0, 6
     344:	13007702 	movwne	r7, #1794	; 0x702
     348:	30015301 	andcc	r5, r1, r1, lsl #6
     34c:	007d0213 	rsbseq	r0, sp, r3, lsl r2
     350:	00007402 	andeq	r7, r0, r2, lsl #8
     354:	00812c15 	addeq	r2, r1, r5, lsl ip
     358:	000aa500 	andeq	sl, sl, r0, lsl #10
     35c:	00038000 	andeq	r8, r3, r0
     360:	50011300 	andpl	r1, r1, r0, lsl #6
     364:	13007502 	movwne	r7, #1282	; 0x502
     368:	76025101 	strvc	r5, [r2], -r1, lsl #2
     36c:	52011300 	andpl	r1, r1, #0, 6
     370:	13007702 	movwne	r7, #1794	; 0x702
     374:	30015301 	andcc	r5, r1, r1, lsl #6
     378:	007d0213 	rsbseq	r0, sp, r3, lsl r2
     37c:	00007402 	andeq	r7, r0, r2, lsl #8
     380:	00814415 	addeq	r4, r1, r5, lsl r4
     384:	000aa500 	andeq	sl, sl, r0, lsl #10
     388:	0003ac00 	andeq	sl, r3, r0, lsl #24
     38c:	50011300 	andpl	r1, r1, r0, lsl #6
     390:	13007502 	movwne	r7, #1282	; 0x502
     394:	76025101 	strvc	r5, [r2], -r1, lsl #2
     398:	52011300 	andpl	r1, r1, #0, 6
     39c:	13007702 	movwne	r7, #1794	; 0x702
     3a0:	30015301 	andcc	r5, r1, r1, lsl #6
     3a4:	007d0213 	rsbseq	r0, sp, r3, lsl r2
     3a8:	00007402 	andeq	r7, r0, r2, lsl #8
     3ac:	00815c15 	addeq	r5, r1, r5, lsl ip
     3b0:	000aa500 	andeq	sl, sl, r0, lsl #10
     3b4:	0003d800 	andeq	sp, r3, r0, lsl #16
     3b8:	50011300 	andpl	r1, r1, r0, lsl #6
     3bc:	13007502 	movwne	r7, #1282	; 0x502
     3c0:	76025101 	strvc	r5, [r2], -r1, lsl #2
     3c4:	52011300 	andpl	r1, r1, #0, 6
     3c8:	13007702 	movwne	r7, #1794	; 0x702
     3cc:	30015301 	andcc	r5, r1, r1, lsl #6
     3d0:	007d0213 	rsbseq	r0, sp, r3, lsl r2
     3d4:	00007402 	andeq	r7, r0, r2, lsl #8
     3d8:	00817415 	addeq	r7, r1, r5, lsl r4
     3dc:	000aa500 	andeq	sl, sl, r0, lsl #10
     3e0:	00040400 	andeq	r0, r4, r0, lsl #8
     3e4:	50011300 	andpl	r1, r1, r0, lsl #6
     3e8:	13007502 	movwne	r7, #1282	; 0x502
     3ec:	76025101 	strvc	r5, [r2], -r1, lsl #2
     3f0:	52011300 	andpl	r1, r1, #0, 6
     3f4:	13007702 	movwne	r7, #1794	; 0x702
     3f8:	30015301 	andcc	r5, r1, r1, lsl #6
     3fc:	007d0213 	rsbseq	r0, sp, r3, lsl r2
     400:	00007402 	andeq	r7, r0, r2, lsl #8
     404:	00818c15 	addeq	r8, r1, r5, lsl ip
     408:	000aa500 	andeq	sl, sl, r0, lsl #10
     40c:	00043000 	andeq	r3, r4, r0
     410:	50011300 	andpl	r1, r1, r0, lsl #6
     414:	13007502 	movwne	r7, #1282	; 0x502
     418:	76025101 	strvc	r5, [r2], -r1, lsl #2
     41c:	52011300 	andpl	r1, r1, #0, 6
     420:	13007702 	movwne	r7, #1794	; 0x702
     424:	30015301 	andcc	r5, r1, r1, lsl #6
     428:	007d0213 	rsbseq	r0, sp, r3, lsl r2
     42c:	00007402 	andeq	r7, r0, r2, lsl #8
     430:	0081a415 	addeq	sl, r1, r5, lsl r4
     434:	000aa500 	andeq	sl, sl, r0, lsl #10
     438:	00045c00 	andeq	r5, r4, r0, lsl #24
     43c:	50011300 	andpl	r1, r1, r0, lsl #6
     440:	13007502 	movwne	r7, #1282	; 0x502
     444:	76025101 	strvc	r5, [r2], -r1, lsl #2
     448:	52011300 	andpl	r1, r1, #0, 6
     44c:	13007702 	movwne	r7, #1794	; 0x702
     450:	30015301 	andcc	r5, r1, r1, lsl #6
     454:	007d0213 	rsbseq	r0, sp, r3, lsl r2
     458:	00007402 	andeq	r7, r0, r2, lsl #8
     45c:	0081bc15 	addeq	fp, r1, r5, lsl ip
     460:	000aa500 	andeq	sl, sl, r0, lsl #10
     464:	00048800 	andeq	r8, r4, r0, lsl #16
     468:	50011300 	andpl	r1, r1, r0, lsl #6
     46c:	13007502 	movwne	r7, #1282	; 0x502
     470:	76025101 	strvc	r5, [r2], -r1, lsl #2
     474:	52011300 	andpl	r1, r1, #0, 6
     478:	13007702 	movwne	r7, #1794	; 0x702
     47c:	30015301 	andcc	r5, r1, r1, lsl #6
     480:	007d0213 	rsbseq	r0, sp, r3, lsl r2
     484:	00007402 	andeq	r7, r0, r2, lsl #8
     488:	0081d415 	addeq	sp, r1, r5, lsl r4
     48c:	000aa500 	andeq	sl, sl, r0, lsl #10
     490:	0004b400 	andeq	fp, r4, r0, lsl #8
     494:	50011300 	andpl	r1, r1, r0, lsl #6
     498:	13007502 	movwne	r7, #1282	; 0x502
     49c:	76025101 	strvc	r5, [r2], -r1, lsl #2
     4a0:	52011300 	andpl	r1, r1, #0, 6
     4a4:	13007702 	movwne	r7, #1794	; 0x702
     4a8:	30015301 	andcc	r5, r1, r1, lsl #6
     4ac:	007d0213 	rsbseq	r0, sp, r3, lsl r2
     4b0:	00007402 	andeq	r7, r0, r2, lsl #8
     4b4:	0081ec15 	addeq	lr, r1, r5, lsl ip
     4b8:	000aa500 	andeq	sl, sl, r0, lsl #10
     4bc:	0004e000 	andeq	lr, r4, r0
     4c0:	50011300 	andpl	r1, r1, r0, lsl #6
     4c4:	13007502 	movwne	r7, #1282	; 0x502
     4c8:	76025101 	strvc	r5, [r2], -r1, lsl #2
     4cc:	52011300 	andpl	r1, r1, #0, 6
     4d0:	13007702 	movwne	r7, #1794	; 0x702
     4d4:	30015301 	andcc	r5, r1, r1, lsl #6
     4d8:	007d0213 	rsbseq	r0, sp, r3, lsl r2
     4dc:	00007402 	andeq	r7, r0, r2, lsl #8
     4e0:	00821415 	addeq	r1, r2, r5, lsl r4
     4e4:	000aa500 	andeq	sl, sl, r0, lsl #10
     4e8:	00050600 	andeq	r0, r5, r0, lsl #12
     4ec:	51011300 	mrspl	r1, SP_irq
     4f0:	13007902 	movwne	r7, #2306	; 0x902
     4f4:	30015201 	andcc	r5, r1, r1, lsl #4
     4f8:	02530113 	subseq	r0, r3, #-1073741820	; 0xc0000004
     4fc:	02130074 	andseq	r0, r3, #116, 0	; 0x74
     500:	7702007d 	smlsdxvc	r2, sp, r0, r0
     504:	30150000 	andscc	r0, r5, r0
     508:	a5000082 	strge	r0, [r0, #-130]	; 0xffffff7e
     50c:	3200000a 	andcc	r0, r0, #10, 0
     510:	13000005 	movwne	r0, #5
     514:	75025001 	strvc	r5, [r2, #-1]
     518:	51011300 	mrspl	r1, SP_irq
     51c:	13007802 	movwne	r7, #2050	; 0x802
     520:	30015201 	andcc	r5, r1, r1, lsl #4
     524:	02530113 	subseq	r0, r3, #-1073741820	; 0xc0000004
     528:	02130074 	andseq	r0, r3, #116, 0	; 0x74
     52c:	7702007d 	smlsdxvc	r2, sp, r0, r0
     530:	48150000 	ldmdami	r5, {}	; <UNPREDICTABLE>
     534:	a5000082 	strge	r0, [r0, #-130]	; 0xffffff7e
     538:	5e00000a 	cdppl	0, 0, cr0, cr0, cr10, {0}
     53c:	13000005 	movwne	r0, #5
     540:	75025001 	strvc	r5, [r2, #-1]
     544:	51011300 	mrspl	r1, SP_irq
     548:	13007602 	movwne	r7, #1538	; 0x602
     54c:	30015201 	andcc	r5, r1, r1, lsl #4
     550:	02530113 	subseq	r0, r3, #-1073741820	; 0xc0000004
     554:	02130074 	andseq	r0, r3, #116, 0	; 0x74
     558:	7702007d 	smlsdxvc	r2, sp, r0, r0
     55c:	60150000 	andsvs	r0, r5, r0
     560:	a5000082 	strge	r0, [r0, #-130]	; 0xffffff7e
     564:	8a00000a 	bhi	594 <__code_start__-0x7a6c>
     568:	13000005 	movwne	r0, #5
     56c:	75025001 	strvc	r5, [r2, #-1]
     570:	51011300 	mrspl	r1, SP_irq
     574:	13007902 	movwne	r7, #2306	; 0x902
     578:	30015201 	andcc	r5, r1, r1, lsl #4
     57c:	02530113 	subseq	r0, r3, #-1073741820	; 0xc0000004
     580:	02130074 	andseq	r0, r3, #116, 0	; 0x74
     584:	7702007d 	smlsdxvc	r2, sp, r0, r0
     588:	78150000 	ldmdavc	r5, {}	; <UNPREDICTABLE>
     58c:	a5000082 	strge	r0, [r0, #-130]	; 0xffffff7e
     590:	b600000a 	strlt	r0, [r0], -sl
     594:	13000005 	movwne	r0, #5
     598:	75025001 	strvc	r5, [r2, #-1]
     59c:	51011300 	mrspl	r1, SP_irq
     5a0:	13007802 	movwne	r7, #2050	; 0x802
     5a4:	30015201 	andcc	r5, r1, r1, lsl #4
     5a8:	02530113 	subseq	r0, r3, #-1073741820	; 0xc0000004
     5ac:	02130074 	andseq	r0, r3, #116, 0	; 0x74
     5b0:	7702007d 	smlsdxvc	r2, sp, r0, r0
     5b4:	90150000 	andsls	r0, r5, r0
     5b8:	a5000082 	strge	r0, [r0, #-130]	; 0xffffff7e
     5bc:	e200000a 	and	r0, r0, #10, 0
     5c0:	13000005 	movwne	r0, #5
     5c4:	75025001 	strvc	r5, [r2, #-1]
     5c8:	51011300 	mrspl	r1, SP_irq
     5cc:	13007602 	movwne	r7, #1538	; 0x602
     5d0:	30015201 	andcc	r5, r1, r1, lsl #4
     5d4:	02530113 	subseq	r0, r3, #-1073741820	; 0xc0000004
     5d8:	02130074 	andseq	r0, r3, #116, 0	; 0x74
     5dc:	7702007d 	smlsdxvc	r2, sp, r0, r0
     5e0:	a8150000 	ldmdage	r5, {}	; <UNPREDICTABLE>
     5e4:	a5000082 	strge	r0, [r0, #-130]	; 0xffffff7e
     5e8:	0e00000a 	cdpeq	0, 0, cr0, cr0, cr10, {0}
     5ec:	13000006 	movwne	r0, #6
     5f0:	75025001 	strvc	r5, [r2, #-1]
     5f4:	51011300 	mrspl	r1, SP_irq
     5f8:	13007902 	movwne	r7, #2306	; 0x902
     5fc:	30015201 	andcc	r5, r1, r1, lsl #4
     600:	02530113 	subseq	r0, r3, #-1073741820	; 0xc0000004
     604:	02130074 	andseq	r0, r3, #116, 0	; 0x74
     608:	7702007d 	smlsdxvc	r2, sp, r0, r0
     60c:	c0150000 	andsgt	r0, r5, r0
     610:	a5000082 	strge	r0, [r0, #-130]	; 0xffffff7e
     614:	3a00000a 	bcc	644 <__code_start__-0x79bc>
     618:	13000006 	movwne	r0, #6
     61c:	75025001 	strvc	r5, [r2, #-1]
     620:	51011300 	mrspl	r1, SP_irq
     624:	13007802 	movwne	r7, #2050	; 0x802
     628:	30015201 	andcc	r5, r1, r1, lsl #4
     62c:	02530113 	subseq	r0, r3, #-1073741820	; 0xc0000004
     630:	02130074 	andseq	r0, r3, #116, 0	; 0x74
     634:	7702007d 	smlsdxvc	r2, sp, r0, r0
     638:	d8150000 	ldmdale	r5, {}	; <UNPREDICTABLE>
     63c:	a5000082 	strge	r0, [r0, #-130]	; 0xffffff7e
     640:	6600000a 	strvs	r0, [r0], -sl
     644:	13000006 	movwne	r0, #6
     648:	75025001 	strvc	r5, [r2, #-1]
     64c:	51011300 	mrspl	r1, SP_irq
     650:	13007602 	movwne	r7, #1538	; 0x602
     654:	30015201 	andcc	r5, r1, r1, lsl #4
     658:	02530113 	subseq	r0, r3, #-1073741820	; 0xc0000004
     65c:	02130074 	andseq	r0, r3, #116, 0	; 0x74
     660:	7702007d 	smlsdxvc	r2, sp, r0, r0
     664:	f0150000 			; <UNDEFINED> instruction: 0xf0150000
     668:	a5000082 	strge	r0, [r0, #-130]	; 0xffffff7e
     66c:	9200000a 	andls	r0, r0, #10, 0
     670:	13000006 	movwne	r0, #6
     674:	75025001 	strvc	r5, [r2, #-1]
     678:	51011300 	mrspl	r1, SP_irq
     67c:	13007902 	movwne	r7, #2306	; 0x902
     680:	30015201 	andcc	r5, r1, r1, lsl #4
     684:	02530113 	subseq	r0, r3, #-1073741820	; 0xc0000004
     688:	02130074 	andseq	r0, r3, #116, 0	; 0x74
     68c:	7702007d 	smlsdxvc	r2, sp, r0, r0
     690:	08150000 	ldmdaeq	r5, {}	; <UNPREDICTABLE>
     694:	a5000083 	strge	r0, [r0, #-131]	; 0xffffff7d
     698:	be00000a 	cdplt	0, 0, cr0, cr0, cr10, {0}
     69c:	13000006 	movwne	r0, #6
     6a0:	75025001 	strvc	r5, [r2, #-1]
     6a4:	51011300 	mrspl	r1, SP_irq
     6a8:	13007802 	movwne	r7, #2050	; 0x802
     6ac:	30015201 	andcc	r5, r1, r1, lsl #4
     6b0:	02530113 	subseq	r0, r3, #-1073741820	; 0xc0000004
     6b4:	02130074 	andseq	r0, r3, #116, 0	; 0x74
     6b8:	7702007d 	smlsdxvc	r2, sp, r0, r0
     6bc:	20150000 	andscs	r0, r5, r0
     6c0:	a5000083 	strge	r0, [r0, #-131]	; 0xffffff7d
     6c4:	ea00000a 	b	6f4 <__code_start__-0x790c>
     6c8:	13000006 	movwne	r0, #6
     6cc:	75025001 	strvc	r5, [r2, #-1]
     6d0:	51011300 	mrspl	r1, SP_irq
     6d4:	13007602 	movwne	r7, #1538	; 0x602
     6d8:	30015201 	andcc	r5, r1, r1, lsl #4
     6dc:	02530113 	subseq	r0, r3, #-1073741820	; 0xc0000004
     6e0:	02130074 	andseq	r0, r3, #116, 0	; 0x74
     6e4:	7702007d 	smlsdxvc	r2, sp, r0, r0
     6e8:	38150000 	ldmdacc	r5, {}	; <UNPREDICTABLE>
     6ec:	a5000083 	strge	r0, [r0, #-131]	; 0xffffff7d
     6f0:	1600000a 	strne	r0, [r0], -sl
     6f4:	13000007 	movwne	r0, #7
     6f8:	75025001 	strvc	r5, [r2, #-1]
     6fc:	51011300 	mrspl	r1, SP_irq
     700:	13007902 	movwne	r7, #2306	; 0x902
     704:	30015201 	andcc	r5, r1, r1, lsl #4
     708:	02530113 	subseq	r0, r3, #-1073741820	; 0xc0000004
     70c:	02130074 	andseq	r0, r3, #116, 0	; 0x74
     710:	7702007d 	smlsdxvc	r2, sp, r0, r0
     714:	50150000 	andspl	r0, r5, r0
     718:	a5000083 	strge	r0, [r0, #-131]	; 0xffffff7d
     71c:	4200000a 	andmi	r0, r0, #10, 0
     720:	13000007 	movwne	r0, #7
     724:	75025001 	strvc	r5, [r2, #-1]
     728:	51011300 	mrspl	r1, SP_irq
     72c:	13007802 	movwne	r7, #2050	; 0x802
     730:	30015201 	andcc	r5, r1, r1, lsl #4
     734:	02530113 	subseq	r0, r3, #-1073741820	; 0xc0000004
     738:	02130074 	andseq	r0, r3, #116, 0	; 0x74
     73c:	7702007d 	smlsdxvc	r2, sp, r0, r0
     740:	68150000 	ldmdavs	r5, {}	; <UNPREDICTABLE>
     744:	a5000083 	strge	r0, [r0, #-131]	; 0xffffff7d
     748:	6e00000a 	cdpvs	0, 0, cr0, cr0, cr10, {0}
     74c:	13000007 	movwne	r0, #7
     750:	75025001 	strvc	r5, [r2, #-1]
     754:	51011300 	mrspl	r1, SP_irq
     758:	13007602 	movwne	r7, #1538	; 0x602
     75c:	30015201 	andcc	r5, r1, r1, lsl #4
     760:	02530113 	subseq	r0, r3, #-1073741820	; 0xc0000004
     764:	02130074 	andseq	r0, r3, #116, 0	; 0x74
     768:	7702007d 	smlsdxvc	r2, sp, r0, r0
     76c:	80150000 	andshi	r0, r5, r0
     770:	a5000083 	strge	r0, [r0, #-131]	; 0xffffff7d
     774:	9a00000a 	bls	7a4 <__code_start__-0x785c>
     778:	13000007 	movwne	r0, #7
     77c:	75025001 	strvc	r5, [r2, #-1]
     780:	51011300 	mrspl	r1, SP_irq
     784:	13007602 	movwne	r7, #1538	; 0x602
     788:	30015201 	andcc	r5, r1, r1, lsl #4
     78c:	02530113 	subseq	r0, r3, #-1073741820	; 0xc0000004
     790:	02130074 	andseq	r0, r3, #116, 0	; 0x74
     794:	7702007d 	smlsdxvc	r2, sp, r0, r0
     798:	88150000 	ldmdahi	r5, {}	; <UNPREDICTABLE>
     79c:	b1000083 	smlabblt	r0, r3, r0, r0
     7a0:	ae00000a 	cdpge	0, 0, cr0, cr0, cr10, {0}
     7a4:	13000007 	movwne	r0, #7
     7a8:	75025001 	strvc	r5, [r2, #-1]
     7ac:	b8150000 	ldmdalt	r5, {}	; <UNPREDICTABLE>
     7b0:	a5000083 	strge	r0, [r0, #-131]	; 0xffffff7d
     7b4:	d500000a 	strle	r0, [r0, #-10]
     7b8:	13000007 	movwne	r0, #7
     7bc:	76025101 	strvc	r5, [r2], -r1, lsl #2
     7c0:	52011300 	andpl	r1, r1, #0, 6
     7c4:	13007402 	movwne	r7, #1026	; 0x402
     7c8:	77025301 	strvc	r5, [r2, -r1, lsl #6]
     7cc:	7d021300 	stcvc	3, cr1, [r2, #-0]
     7d0:	00780200 	rsbseq	r0, r8, r0, lsl #4
     7d4:	83d01500 	bicshi	r1, r0, #0, 10
     7d8:	0aa50000 	beq	fe9407e0 <__bss_end__+0xfe9361c8>
     7dc:	08020000 	stmdaeq	r2, {}	; <UNPREDICTABLE>
     7e0:	01130000 	tsteq	r3, r0
     7e4:	00750250 	rsbseq	r0, r5, r0, asr r2
     7e8:	02510113 	subseq	r0, r1, #-1073741820	; 0xc0000004
     7ec:	01130076 	tsteq	r3, r6, ror r0
     7f0:	00740252 	rsbseq	r0, r4, r2, asr r2
     7f4:	02530113 	subseq	r0, r3, #-1073741820	; 0xc0000004
     7f8:	02130077 	andseq	r0, r3, #119, 0	; 0x77
     7fc:	7802007d 	stmdavc	r2, {r0, r2, r3, r4, r5, r6}
     800:	e8150000 	ldmda	r5, {}	; <UNPREDICTABLE>
     804:	a5000083 	strge	r0, [r0, #-131]	; 0xffffff7d
     808:	2f00000a 	svccs	0x0000000a
     80c:	13000008 	movwne	r0, #8
     810:	75025001 	strvc	r5, [r2, #-1]
     814:	51011300 	mrspl	r1, SP_irq
     818:	13007602 	movwne	r7, #1538	; 0x602
     81c:	74025201 	strvc	r5, [r2], #-513	; 0xfffffdff
     820:	53011300 	movwpl	r1, #4864	; 0x1300
     824:	13007702 	movwne	r7, #1794	; 0x702
     828:	02007d02 	andeq	r7, r0, #128	; 0x80
     82c:	15000078 	strne	r0, [r0, #-120]	; 0xffffff88
     830:	00008400 	andeq	r8, r0, r0, lsl #8
     834:	00000aa5 	andeq	r0, r0, r5, lsr #21
     838:	0000085c 	andeq	r0, r0, ip, asr r8
     83c:	02500113 	subseq	r0, r0, #-1073741820	; 0xc0000004
     840:	01130075 	tsteq	r3, r5, ror r0
     844:	00760251 	rsbseq	r0, r6, r1, asr r2
     848:	02520113 	subseq	r0, r2, #-1073741820	; 0xc0000004
     84c:	01130074 	tsteq	r3, r4, ror r0
     850:	00770253 	rsbseq	r0, r7, r3, asr r2
     854:	007d0213 	rsbseq	r0, sp, r3, lsl r2
     858:	00007802 	andeq	r7, r0, r2, lsl #16
     85c:	00841815 	addeq	r1, r4, r5, lsl r8
     860:	000aa500 	andeq	sl, sl, r0, lsl #10
     864:	00088900 	andeq	r8, r8, r0, lsl #18
     868:	50011300 	andpl	r1, r1, r0, lsl #6
     86c:	13007502 	movwne	r7, #1282	; 0x502
     870:	76025101 	strvc	r5, [r2], -r1, lsl #2
     874:	52011300 	andpl	r1, r1, #0, 6
     878:	13007402 	movwne	r7, #1026	; 0x402
     87c:	77025301 	strvc	r5, [r2, -r1, lsl #6]
     880:	7d021300 	stcvc	3, cr1, [r2, #-0]
     884:	00780200 	rsbseq	r0, r8, r0, lsl #4
     888:	84301500 	ldrthi	r1, [r0], #-1280	; 0xfffffb00
     88c:	0aa50000 	beq	fe940894 <__bss_end__+0xfe93627c>
     890:	08b60000 	ldmeq	r6!, {}	; <UNPREDICTABLE>
     894:	01130000 	tsteq	r3, r0
     898:	00750250 	rsbseq	r0, r5, r0, asr r2
     89c:	02510113 	subseq	r0, r1, #-1073741820	; 0xc0000004
     8a0:	01130076 	tsteq	r3, r6, ror r0
     8a4:	00740252 	rsbseq	r0, r4, r2, asr r2
     8a8:	02530113 	subseq	r0, r3, #-1073741820	; 0xc0000004
     8ac:	02130077 	andseq	r0, r3, #119, 0	; 0x77
     8b0:	7802007d 	stmdavc	r2, {r0, r2, r3, r4, r5, r6}
     8b4:	48150000 	ldmdami	r5, {}	; <UNPREDICTABLE>
     8b8:	a5000084 	strge	r0, [r0, #-132]	; 0xffffff7c
     8bc:	e300000a 	movw	r0, #10
     8c0:	13000008 	movwne	r0, #8
     8c4:	75025001 	strvc	r5, [r2, #-1]
     8c8:	51011300 	mrspl	r1, SP_irq
     8cc:	13007602 	movwne	r7, #1538	; 0x602
     8d0:	74025201 	strvc	r5, [r2], #-513	; 0xfffffdff
     8d4:	53011300 	movwpl	r1, #4864	; 0x1300
     8d8:	13007702 	movwne	r7, #1794	; 0x702
     8dc:	02007d02 	andeq	r7, r0, #128	; 0x80
     8e0:	15000078 	strne	r0, [r0, #-120]	; 0xffffff88
     8e4:	00008460 	andeq	r8, r0, r0, ror #8
     8e8:	00000aa5 	andeq	r0, r0, r5, lsr #21
     8ec:	00000910 	andeq	r0, r0, r0, lsl r9
     8f0:	02500113 	subseq	r0, r0, #-1073741820	; 0xc0000004
     8f4:	01130075 	tsteq	r3, r5, ror r0
     8f8:	00760251 	rsbseq	r0, r6, r1, asr r2
     8fc:	02520113 	subseq	r0, r2, #-1073741820	; 0xc0000004
     900:	01130074 	tsteq	r3, r4, ror r0
     904:	00770253 	rsbseq	r0, r7, r3, asr r2
     908:	007d0213 	rsbseq	r0, sp, r3, lsl r2
     90c:	00007802 	andeq	r7, r0, r2, lsl #16
     910:	00847815 	addeq	r7, r4, r5, lsl r8
     914:	000aa500 	andeq	sl, sl, r0, lsl #10
     918:	00093d00 	andeq	r3, r9, r0, lsl #26
     91c:	50011300 	andpl	r1, r1, r0, lsl #6
     920:	13007502 	movwne	r7, #1282	; 0x502
     924:	76025101 	strvc	r5, [r2], -r1, lsl #2
     928:	52011300 	andpl	r1, r1, #0, 6
     92c:	13007402 	movwne	r7, #1026	; 0x402
     930:	77025301 	strvc	r5, [r2, -r1, lsl #6]
     934:	7d021300 	stcvc	3, cr1, [r2, #-0]
     938:	00780200 	rsbseq	r0, r8, r0, lsl #4
     93c:	84901500 	ldrhi	r1, [r0], #1280	; 0x500
     940:	0aa50000 	beq	fe940948 <__bss_end__+0xfe936330>
     944:	096a0000 	stmdbeq	sl!, {}^	; <UNPREDICTABLE>
     948:	01130000 	tsteq	r3, r0
     94c:	00750250 	rsbseq	r0, r5, r0, asr r2
     950:	02510113 	subseq	r0, r1, #-1073741820	; 0xc0000004
     954:	01130076 	tsteq	r3, r6, ror r0
     958:	00740252 	rsbseq	r0, r4, r2, asr r2
     95c:	02530113 	subseq	r0, r3, #-1073741820	; 0xc0000004
     960:	02130077 	andseq	r0, r3, #119, 0	; 0x77
     964:	7802007d 	stmdavc	r2, {r0, r2, r3, r4, r5, r6}
     968:	a8150000 	ldmdage	r5, {}	; <UNPREDICTABLE>
     96c:	a5000084 	strge	r0, [r0, #-132]	; 0xffffff7c
     970:	9700000a 	strls	r0, [r0, -sl]
     974:	13000009 	movwne	r0, #9
     978:	75025001 	strvc	r5, [r2, #-1]
     97c:	51011300 	mrspl	r1, SP_irq
     980:	13007602 	movwne	r7, #1538	; 0x602
     984:	74025201 	strvc	r5, [r2], #-513	; 0xfffffdff
     988:	53011300 	movwpl	r1, #4864	; 0x1300
     98c:	13007702 	movwne	r7, #1794	; 0x702
     990:	02007d02 	andeq	r7, r0, #128	; 0x80
     994:	15000078 	strne	r0, [r0, #-120]	; 0xffffff88
     998:	000084c0 	andeq	r8, r0, r0, asr #9
     99c:	00000aa5 	andeq	r0, r0, r5, lsr #21
     9a0:	000009c4 	andeq	r0, r0, r4, asr #19
     9a4:	02500113 	subseq	r0, r0, #-1073741820	; 0xc0000004
     9a8:	01130075 	tsteq	r3, r5, ror r0
     9ac:	00760251 	rsbseq	r0, r6, r1, asr r2
     9b0:	02520113 	subseq	r0, r2, #-1073741820	; 0xc0000004
     9b4:	01130074 	tsteq	r3, r4, ror r0
     9b8:	00770253 	rsbseq	r0, r7, r3, asr r2
     9bc:	007d0213 	rsbseq	r0, sp, r3, lsl r2
     9c0:	00007802 	andeq	r7, r0, r2, lsl #16
     9c4:	0084d815 	addeq	sp, r4, r5, lsl r8
     9c8:	000aa500 	andeq	sl, sl, r0, lsl #10
     9cc:	0009f100 	andeq	pc, r9, r0, lsl #2
     9d0:	50011300 	andpl	r1, r1, r0, lsl #6
     9d4:	13007502 	movwne	r7, #1282	; 0x502
     9d8:	76025101 	strvc	r5, [r2], -r1, lsl #2
     9dc:	52011300 	andpl	r1, r1, #0, 6
     9e0:	13007402 	movwne	r7, #1026	; 0x402
     9e4:	77025301 	strvc	r5, [r2, -r1, lsl #6]
     9e8:	7d021300 	stcvc	3, cr1, [r2, #-0]
     9ec:	00780200 	rsbseq	r0, r8, r0, lsl #4
     9f0:	84f01500 	ldrbthi	r1, [r0], #1280	; 0x500
     9f4:	0aa50000 	beq	fe9409fc <__bss_end__+0xfe9363e4>
     9f8:	0a1e0000 	beq	780a00 <__bss_end__+0x7763e8>
     9fc:	01130000 	tsteq	r3, r0
     a00:	00750250 	rsbseq	r0, r5, r0, asr r2
     a04:	02510113 	subseq	r0, r1, #-1073741820	; 0xc0000004
     a08:	01130076 	tsteq	r3, r6, ror r0
     a0c:	00740252 	rsbseq	r0, r4, r2, asr r2
     a10:	02530113 	subseq	r0, r3, #-1073741820	; 0xc0000004
     a14:	02130077 	andseq	r0, r3, #119, 0	; 0x77
     a18:	7802007d 	stmdavc	r2, {r0, r2, r3, r4, r5, r6}
     a1c:	08150000 	ldmdaeq	r5, {}	; <UNPREDICTABLE>
     a20:	a5000085 	strge	r0, [r0, #-133]	; 0xffffff7b
     a24:	4b00000a 	blmi	a54 <__code_start__-0x75ac>
     a28:	1300000a 	movwne	r0, #10
     a2c:	75025001 	strvc	r5, [r2, #-1]
     a30:	51011300 	mrspl	r1, SP_irq
     a34:	13007602 	movwne	r7, #1538	; 0x602
     a38:	74025201 	strvc	r5, [r2], #-513	; 0xfffffdff
     a3c:	53011300 	movwpl	r1, #4864	; 0x1300
     a40:	13007702 	movwne	r7, #1794	; 0x702
     a44:	02007d02 	andeq	r7, r0, #128	; 0x80
     a48:	12000078 	andne	r0, r0, #120, 0	; 0x78
     a4c:	00008520 	andeq	r8, r0, r0, lsr #10
     a50:	00000aa5 	andeq	r0, r0, r5, lsr #21
     a54:	02500113 	subseq	r0, r0, #-1073741820	; 0xc0000004
     a58:	01130075 	tsteq	r3, r5, ror r0
     a5c:	00760251 	rsbseq	r0, r6, r1, asr r2
     a60:	02520113 	subseq	r0, r2, #-1073741820	; 0xc0000004
     a64:	01130074 	tsteq	r3, r4, ror r0
     a68:	00770253 	rsbseq	r0, r7, r3, asr r2
     a6c:	007d0213 	rsbseq	r0, sp, r3, lsl r2
     a70:	00007802 	andeq	r7, r0, r2, lsl #16
     a74:	00e01800 	rsceq	r1, r0, r0, lsl #16
     a78:	00e00000 	rsceq	r0, r0, r0
     a7c:	a5020000 	strge	r0, [r2, #-0]
     a80:	00841806 	addeq	r1, r4, r6, lsl #16
     a84:	00840000 	addeq	r0, r4, r0
     a88:	1d040000 	stcne	0, cr0, [r4, #-0]
     a8c:	004a1806 	subeq	r1, sl, r6, lsl #16
     a90:	004a0000 	subeq	r0, sl, r0
     a94:	06050000 	streq	r0, [r5], -r0
     a98:	040f1807 	streq	r1, [pc], #-2055	; aa0 <__code_start__-0x7560>
     a9c:	040f0000 	streq	r0, [pc], #-0	; aa4 <__code_start__-0x755c>
     aa0:	28020000 	stmdacs	r2, {}	; <UNPREDICTABLE>
     aa4:	002d1806 	eoreq	r1, sp, r6, lsl #16
     aa8:	002d0000 	eoreq	r0, sp, r0
     aac:	0c050000 	stceq	0, cr0, [r5], {-0}
     ab0:	00771806 	rsbseq	r1, r7, r6, lsl #16
     ab4:	00770000 	rsbseq	r0, r7, r0
     ab8:	0d050000 	stceq	0, cr0, [r5, #-0]
     abc:	28700006 	ldmdacs	r0!, {r1, r2}^
     ac0:	00040000 	andeq	r0, r4, r0
     ac4:	00000152 	andeq	r0, r0, r2, asr r1
     ac8:	01430104 	cmpeq	r3, r4, lsl #2
     acc:	930c0000 	movwls	r0, #49152	; 0xc000
     ad0:	ed000002 	stc	0, cr0, [r0, #-8]
     ad4:	90000000 	andls	r0, r0, r0
     ad8:	a8000085 	stmdage	r0, {r0, r2, r7}
     adc:	b9000007 	stmdblt	r0, {r0, r1, r2}
     ae0:	02000001 	andeq	r0, r0, #1, 0
     ae4:	6e690504 	cdpvs	5, 6, cr0, cr9, cr4, {0}
     ae8:	04030074 	streq	r0, [r3], #-116	; 0xffffff8c
     aec:	0000a907 	andeq	sl, r0, r7, lsl #18
     af0:	002c0400 	eoreq	r0, ip, r0, lsl #8
     af4:	01030000 	mrseq	r0, (UNDEF: 3)
     af8:	00005806 	andeq	r5, r0, r6, lsl #16
     afc:	05020300 	streq	r0, [r2, #-768]	; 0xfffffd00
     b00:	000000d6 	ldrdeq	r0, [r0], -r6
     b04:	c1050403 	tstgt	r5, r3, lsl #8
     b08:	03000000 	movweq	r0, #0
     b0c:	00bc0508 	adcseq	r0, ip, r8, lsl #10
     b10:	17050000 	strne	r0, [r5, -r0]
     b14:	03000002 	movweq	r0, #2
     b18:	0060182e 	rsbeq	r1, r0, lr, lsr #16
     b1c:	01030000 	mrseq	r0, (UNDEF: 3)
     b20:	00005608 	andeq	r5, r0, r8, lsl #12
     b24:	07020300 	streq	r0, [r2, -r0, lsl #6]
     b28:	00000064 	andeq	r0, r0, r4, rrx
     b2c:	00027105 	andeq	r7, r2, r5, lsl #2
     b30:	19340300 	ldmdbne	r4!, {r8, r9}
     b34:	0000007a 	andeq	r0, r0, sl, ror r0
     b38:	a4070403 	strge	r0, [r7], #-1027	; 0xfffffbfd
     b3c:	03000000 	movweq	r0, #0
     b40:	009f0708 	addseq	r0, pc, r8, lsl #14
     b44:	25060000 	strcs	r0, [r6, #-0]
     b48:	97000000 	strls	r0, [r0, -r0]
     b4c:	07000000 	streq	r0, [r0, -r0]
     b50:	00000025 	andeq	r0, r0, r5, lsr #32
     b54:	00ca0800 	sbceq	r0, sl, r0, lsl #16
     b58:	1c040000 	stcne	0, cr0, [r4], {-0}
     b5c:	0000a30e 	andeq	sl, r0, lr, lsl #6
     b60:	88040900 	stmdahi	r4, {r8, fp}
     b64:	06000000 	streq	r0, [r0], -r0
     b68:	00000025 	andeq	r0, r0, r5, lsr #32
     b6c:	000000b8 	strheq	r0, [r0], -r8
     b70:	0000b807 	andeq	fp, r0, r7, lsl #16
     b74:	04090000 	streq	r0, [r9], #-0
     b78:	000000c5 	andeq	r0, r0, r5, asr #1
     b7c:	5f080103 	svcpl	0x00080103
     b80:	04000000 	streq	r0, [r0], #-0
     b84:	000000be 	strheq	r0, [r0], -lr
     b88:	00044d08 	andeq	r4, r4, r8, lsl #26
     b8c:	0e210400 	cdpeq	4, 2, cr0, cr1, cr0, {0}
     b90:	000000d6 	ldrdeq	r0, [r0], -r6
     b94:	00a90409 	adceq	r0, r9, r9, lsl #8
     b98:	b6050000 	strlt	r0, [r5], -r0
     b9c:	05000000 	streq	r0, [r0, #-0]
     ba0:	00e81c03 	rsceq	r1, r8, r3, lsl #24
     ba4:	04090000 	streq	r0, [r9], #-0
     ba8:	000000ee 	andeq	r0, r0, lr, ror #1
     bac:	0000000a 	andeq	r0, r0, sl
     bb0:	16020800 	strne	r0, [r2], -r0, lsl #16
     bb4:	00012308 	andeq	r2, r1, r8, lsl #6
     bb8:	69700b00 	ldmdbvs	r0!, {r8, r9, fp}^
     bbc:	1702006e 	strne	r0, [r2, -lr, rrx]
     bc0:	0000540d 	andeq	r5, r0, sp, lsl #8
     bc4:	7a0c0000 	bvc	300bcc <__bss_end__+0x2f65b4>
     bc8:	02000002 	andeq	r0, r0, #2, 0
     bcc:	006e0e18 	rsbeq	r0, lr, r8, lsl lr
     bd0:	0c040000 	stceq	0, cr0, [r4], {-0}
     bd4:	00000043 	andeq	r0, r0, r3, asr #32
     bd8:	8f161b02 	svchi	0x00161b02
     bdc:	08000001 	stmdaeq	r0, {r0}
     be0:	02070d00 	andeq	r0, r7, #0, 26
     be4:	00000067 	andeq	r0, r0, r7, rrx
     be8:	530a5501 	movwpl	r5, #42241	; 0xa501
     bec:	0e000001 	cdpeq	0, 0, cr0, cr0, cr1, {0}
     bf0:	00483154 	subeq	r3, r8, r4, asr r1
     bf4:	540f0230 	strpl	r0, [pc], #-560	; bfc <__code_start__-0x7404>
     bf8:	af004830 	svcge	0x00004830
     bfc:	4c31540f 	cfldrsmi	mvf5, [r1], #-60	; 0xffffffc4
     c00:	540eaf00 	strpl	sl, [lr], #-3840	; 0xfffff100
     c04:	30004c30 	andcc	r4, r0, r0, lsr ip
     c08:	02c71002 	sbceq	r1, r7, #2, 0
     c0c:	88b80000 	ldmhi	r8!, {}	; <UNPREDICTABLE>
     c10:	00201100 	eoreq	r1, r0, r0, lsl #2
     c14:	9f010000 	svcls	0x00010000
     c18:	00003317 	andeq	r3, r0, r7, lsl r3
     c1c:	080a1000 	stmdaeq	sl, {ip}
     c20:	03000002 	movweq	r0, #2
     c24:	8f081002 	svchi	0x00081002
     c28:	0b000001 	bleq	c34 <__code_start__-0x73cc>
     c2c:	11020072 	tstne	r2, r2, ror r0
     c30:	0000540d 	andeq	r5, r0, sp, lsl #8
     c34:	670b0000 	strvs	r0, [fp, -r0]
     c38:	0f110200 	svceq	0x00110200
     c3c:	00000054 	andeq	r0, r0, r4, asr r0
     c40:	00620b01 	rsbeq	r0, r2, r1, lsl #22
     c44:	54111102 	ldrpl	r1, [r1], #-258	; 0xfffffefe
     c48:	02000000 	andeq	r0, r0, #0, 0
     c4c:	01601200 	cmneq	r0, r0, lsl #4
     c50:	019e0000 	orrseq	r0, lr, r0
     c54:	2c130000 	ldccs	0, cr0, [r3], {-0}
     c58:	00000000 	andeq	r0, r0, r0
     c5c:	00002d14 	andeq	r2, r0, r4, lsl sp
     c60:	06450200 	strbeq	r0, [r5], -r0, lsl #4
     c64:	00008c14 	andeq	r8, r0, r4, lsl ip
     c68:	00000028 	andeq	r0, r0, r8, lsr #32
     c6c:	02069c01 	andeq	r9, r6, #256	; 0x100
     c70:	68150000 	ldmdavs	r5, {}	; <UNPREDICTABLE>
     c74:	19450200 	stmdbne	r5, {r9}^
     c78:	000000dc 	ldrdeq	r0, [r0], -ip
     c7c:	00000197 	muleq	r0, r7, r1
     c80:	00000193 	muleq	r0, r3, r1
     c84:	736f7015 	cmnvc	pc, #21, 0
     c88:	25450200 	strbcs	r0, [r5, #-512]	; 0xfffffe00
     c8c:	0000006e 	andeq	r0, r0, lr, rrx
     c90:	000001bc 			; <UNDEFINED> instruction: 0x000001bc
     c94:	000001b8 			; <UNDEFINED> instruction: 0x000001b8
     c98:	02007216 	andeq	r7, r0, #1610612737	; 0x60000001
     c9c:	00543245 	subseq	r3, r4, r5, asr #4
     ca0:	52010000 	andpl	r0, r1, #0, 0
     ca4:	02006715 	andeq	r6, r0, #5505024	; 0x540000
     ca8:	00543d45 	subseq	r3, r4, r5, asr #26
     cac:	01e10000 	mvneq	r0, r0
     cb0:	01dd0000 	bicseq	r0, sp, r0
     cb4:	62160000 	andsvs	r0, r6, #0, 0
     cb8:	48450200 	stmdami	r5, {r9}^
     cbc:	00000054 	andeq	r0, r0, r4, asr r0
     cc0:	00009102 	andeq	r9, r0, r2, lsl #2
     cc4:	00022614 	andeq	r2, r2, r4, lsl r6
     cc8:	06400200 	strbeq	r0, [r0], -r0, lsl #4
     ccc:	00008c80 	andeq	r8, r0, r0, lsl #25
     cd0:	00000010 	andeq	r0, r0, r0, lsl r0
     cd4:	02409c01 	subeq	r9, r0, #256	; 0x100
     cd8:	68150000 	ldmdavs	r5, {}	; <UNPREDICTABLE>
     cdc:	19400200 	stmdbne	r0, {r9}^
     ce0:	000000dc 	ldrdeq	r0, [r0], -ip
     ce4:	00000204 	andeq	r0, r0, r4, lsl #4
     ce8:	00000200 	andeq	r0, r0, r0, lsl #4
     cec:	008c8c17 	addeq	r8, ip, r7, lsl ip
     cf0:	00024000 	andeq	r4, r2, r0
     cf4:	50011800 	andpl	r1, r1, r0, lsl #16
     cf8:	5001f303 	andpl	pc, r1, r3, lsl #6
     cfc:	81140000 	tsthi	r4, r0
     d00:	02000002 	andeq	r0, r0, #2, 0
     d04:	8c3c063b 	ldchi	6, cr0, [ip], #-236	; 0xffffff14
     d08:	00440000 	subeq	r0, r4, r0
     d0c:	9c010000 	stcls	0, cr0, [r1], {-0}
     d10:	000002bd 			; <UNDEFINED> instruction: 0x000002bd
     d14:	02006815 	andeq	r6, r0, #1376256	; 0x150000
     d18:	00dc1e3b 	sbcseq	r1, ip, fp, lsr lr
     d1c:	02290000 	eoreq	r0, r9, #0, 0
     d20:	02250000 	eoreq	r0, r5, #0, 0
     d24:	6e150000 	cdpvs	0, 1, cr0, cr5, cr0, {0}
     d28:	2a3b0200 	bcs	ec1530 <__bss_end__+0xeb6f18>
     d2c:	0000002c 	andeq	r0, r0, ip, lsr #32
     d30:	0000024b 	andeq	r0, r0, fp, asr #4
     d34:	00000247 	andeq	r0, r0, r7, asr #4
     d38:	008c4c19 	addeq	r4, ip, r9, lsl ip
     d3c:	00002c00 	andeq	r2, r0, r0, lsl #24
     d40:	00691a00 	rsbeq	r1, r9, r0, lsl #20
     d44:	250d3c02 	strcs	r3, [sp, #-3074]	; 0xfffff3fe
     d48:	6d000000 	stcvs	0, cr0, [r0, #-0]
     d4c:	69000002 	stmdbvs	r0, {r1}
     d50:	17000002 	strne	r0, [r0, -r2]
     d54:	00008c70 	andeq	r8, r0, r0, ror ip
     d58:	0000019e 	muleq	r0, lr, r1
     d5c:	02500118 	subseq	r0, r0, #6
     d60:	01180076 	tsteq	r8, r6, ror r0
     d64:	00740251 	rsbseq	r0, r4, r1, asr r2
     d68:	01520118 	cmpeq	r2, r8, lsl r1
     d6c:	53011830 	movwpl	r1, #6192	; 0x1830
     d70:	02183001 	andseq	r3, r8, #1, 0
     d74:	3001007d 	andcc	r0, r1, sp, ror r0
     d78:	14000000 	strne	r0, [r0], #-0
     d7c:	000002cd 	andeq	r0, r0, sp, asr #5
     d80:	dc063502 	cfstr32le	mvfx3, [r6], {2}
     d84:	3800008b 	stmdacc	r0, {r0, r1, r3, r7}
     d88:	01000000 	mrseq	r0, (UNDEF: 0)
     d8c:	0003ab9c 	muleq	r3, ip, fp
     d90:	00681500 	rsbeq	r1, r8, r0, lsl #10
     d94:	dc1d3502 	cfldr32le	mvfx3, [sp], {2}
     d98:	90000000 	andls	r0, r0, r0
     d9c:	8c000002 	stchi	0, cr0, [r0], {2}
     da0:	15000002 	strne	r0, [r0, #-2]
     da4:	35020072 	strcc	r0, [r2, #-114]	; 0xffffff8e
     da8:	00005428 	andeq	r5, r0, r8, lsr #8
     dac:	0002b500 	andeq	fp, r2, r0, lsl #10
     db0:	0002b100 	andeq	fp, r2, r0, lsl #2
     db4:	00671500 	rsbeq	r1, r7, r0, lsl #10
     db8:	54333502 	ldrtpl	r3, [r3], #-1282	; 0xfffffafe
     dbc:	da000000 	ble	dc4 <__code_start__-0x723c>
     dc0:	d6000002 	strle	r0, [r0], -r2
     dc4:	15000002 	strne	r0, [r0, #-2]
     dc8:	35020062 	strcc	r0, [r2, #-98]	; 0xffffff9e
     dcc:	0000543e 	andeq	r5, r0, lr, lsr r4
     dd0:	0002ff00 	andeq	pc, r2, r0, lsl #30
     dd4:	0002fb00 	andeq	pc, r2, r0, lsl #22
     dd8:	06541b00 	ldrbeq	r1, [r4], -r0, lsl #22
     ddc:	8bec0000 	blhi	ffb00de4 <__bss_end__+0xffaf67cc>
     de0:	00000000 	andeq	r0, r0, r0
     de4:	00008bec 	andeq	r8, r0, ip, ror #23
     de8:	00000024 	andeq	r0, r0, r4, lsr #32
     dec:	1c053602 	stcne	6, cr3, [r5], {2}
     df0:	00000681 	andeq	r0, r0, r1, lsl #13
     df4:	00000322 	andeq	r0, r0, r2, lsr #6
     df8:	00000320 	andeq	r0, r0, r0, lsr #6
     dfc:	0006771c 	andeq	r7, r6, ip, lsl r7
     e00:	00033900 	andeq	r3, r3, r0, lsl #18
     e04:	00033500 	andeq	r3, r3, r0, lsl #10
     e08:	066d1c00 	strbteq	r1, [sp], -r0, lsl #24
     e0c:	035c0000 	cmpeq	ip, #0, 0
     e10:	035a0000 	cmpeq	sl, #0, 0
     e14:	611c0000 	tstvs	ip, r0
     e18:	71000006 	tstvc	r0, r6
     e1c:	6f000003 	svcvs	0x00000003
     e20:	1d000003 	stcne	0, cr0, [r0, #-12]
     e24:	00008bf8 	strdeq	r8, [r0], -r8	; <UNPREDICTABLE>
     e28:	0000068c 	andeq	r0, r0, ip, lsl #13
     e2c:	00000379 	andeq	r0, r0, r9, ror r3
     e30:	02500118 	subseq	r0, r0, #6
     e34:	1d000074 	stcne	0, cr0, [r0, #-464]	; 0xfffffe30
     e38:	00008c04 	andeq	r8, r0, r4, lsl #24
     e3c:	0000068c 	andeq	r0, r0, ip, lsl #13
     e40:	00000393 	muleq	r0, r3, r3
     e44:	02500118 	subseq	r0, r0, #6
     e48:	01180074 	tsteq	r8, r4, ror r0
     e4c:	00760251 	rsbseq	r0, r6, r1, asr r2
     e50:	8c101700 	ldchi	7, cr1, [r0], {-0}
     e54:	068c0000 	streq	r0, [ip], r0
     e58:	01180000 	tsteq	r8, r0
     e5c:	00740250 	rsbseq	r0, r4, r0, asr r2
     e60:	02510118 	subseq	r0, r1, #6
     e64:	00000075 	andeq	r0, r0, r5, ror r0
     e68:	004a1e00 	subeq	r1, sl, r0, lsl #28
     e6c:	28020000 	stmdacs	r2, {}	; <UNPREDICTABLE>
     e70:	0000dc07 	andeq	sp, r0, r7, lsl #24
     e74:	008b9800 	addeq	r9, fp, r0, lsl #16
     e78:	00004400 	andeq	r4, r0, r0, lsl #8
     e7c:	579c0100 	ldrpl	r0, [ip, r0, lsl #2]
     e80:	15000004 	strne	r0, [r0, #-4]
     e84:	006e6970 	rsbeq	r6, lr, r0, ror r9
     e88:	541b2802 	ldrpl	r2, [fp], #-2050	; 0xfffff7fe
     e8c:	88000000 	stmdahi	r0, {}	; <UNPREDICTABLE>
     e90:	84000003 	strhi	r0, [r0], #-3
     e94:	1f000003 	svcne	0x00000003
     e98:	0000027a 	andeq	r0, r0, sl, ror r2
     e9c:	2c292802 	stccs	8, cr2, [r9], #-8
     ea0:	ad000000 	stcge	0, cr0, [r0, #-0]
     ea4:	a9000003 	stmdbge	r0, {r0, r1}
     ea8:	1a000003 	bne	ebc <__code_start__-0x7144>
     eac:	29020068 	stmdbcs	r2, {r3, r5, r6}
     eb0:	0000dc0b 	andeq	sp, r0, fp, lsl #24
     eb4:	0003cf00 	andeq	ip, r3, r0, lsl #30
     eb8:	0003cb00 	andeq	ip, r3, r0, lsl #22
     ebc:	09bd2000 	ldmibeq	sp!, {sp}
     ec0:	2a020000 	bcs	80ec8 <__bss_end__+0x768b0>
     ec4:	00002c0e 	andeq	r2, r0, lr, lsl #24
     ec8:	0003ef00 	andeq	lr, r3, r0, lsl #30
     ecc:	0003ed00 	andeq	lr, r3, r0, lsl #26
     ed0:	8bb41d00 	blhi	fed082d8 <__bss_end__+0xfecfdcc0>
     ed4:	284f0000 	stmdacs	pc, {}^	; <UNPREDICTABLE>
     ed8:	04270000 	strteq	r0, [r7], #-0
     edc:	01180000 	tsteq	r8, r0
     ee0:	00770250 	rsbseq	r0, r7, r0, asr r2
     ee4:	8bc41d00 	blhi	ff1082ec <__bss_end__+0xff0fdcd4>
     ee8:	285b0000 	ldmdacs	fp, {}^	; <UNPREDICTABLE>
     eec:	04460000 	strbeq	r0, [r6], #-0
     ef0:	01180000 	tsteq	r8, r0
     ef4:	00740250 	rsbseq	r0, r4, r0, asr r2
     ef8:	01510118 	cmpeq	r1, r8, lsl r1
     efc:	52011830 	andpl	r1, r1, #48, 16	; 0x300000
     f00:	00007702 	andeq	r7, r0, r2, lsl #14
     f04:	008bd417 	addeq	sp, fp, r7, lsl r4
     f08:	00286700 	eoreq	r6, r8, r0, lsl #14
     f0c:	50011800 	andpl	r1, r1, r0, lsl #16
     f10:	00007602 	andeq	r7, r0, r2, lsl #12
     f14:	00771400 	rsbseq	r1, r7, r0, lsl #8
     f18:	1e020000 	cdpne	0, 0, cr0, cr2, cr0, {0}
     f1c:	008c9006 	addeq	r9, ip, r6
     f20:	0000a800 	andeq	sl, r0, r0, lsl #16
     f24:	549c0100 	ldrpl	r0, [ip], #256	; 0x100
     f28:	15000006 	strne	r0, [r0, #-6]
     f2c:	1e020068 	cdpne	0, 0, cr0, cr2, cr8, {3}
     f30:	0000dc19 	andeq	sp, r0, r9, lsl ip
     f34:	00040600 	andeq	r0, r4, r0, lsl #12
     f38:	00040200 	andeq	r0, r4, r0, lsl #4
     f3c:	8c982100 	ldfhis	f2, [r8], {0}
     f40:	00500000 	subseq	r0, r0, r0
     f44:	052e0000 	streq	r0, [lr, #-0]!
     f48:	691a0000 	ldmdbvs	sl, {}	; <UNPREDICTABLE>
     f4c:	10200200 	eorne	r0, r0, r0, lsl #4
     f50:	0000002c 	andeq	r0, r0, ip, lsr #32
     f54:	00000428 	andeq	r0, r0, r8, lsr #8
     f58:	00000424 	andeq	r0, r0, r4, lsr #8
     f5c:	0006541b 	andeq	r5, r6, fp, lsl r4
     f60:	008cbc00 	addeq	fp, ip, r0, lsl #24
     f64:	bc000000 	stclt	0, cr0, [r0], {-0}
     f68:	2400008c 	strcs	r0, [r0], #-140	; 0xffffff74
     f6c:	02000000 	andeq	r0, r0, #0, 0
     f70:	811c0321 	tsthi	ip, r1, lsr #6
     f74:	49000006 	stmdbmi	r0, {r1, r2}
     f78:	47000004 	strmi	r0, [r0, -r4]
     f7c:	1c000004 	stcne	0, cr0, [r0], {4}
     f80:	00000677 	andeq	r0, r0, r7, ror r6
     f84:	0000045e 	andeq	r0, r0, lr, asr r4
     f88:	0000045c 	andeq	r0, r0, ip, asr r4
     f8c:	00066d1c 	andeq	r6, r6, ip, lsl sp
     f90:	00047400 	andeq	r7, r4, r0, lsl #8
     f94:	00047200 	andeq	r7, r4, r0, lsl #4
     f98:	06611c00 	strbteq	r1, [r1], -r0, lsl #24
     f9c:	04890000 	streq	r0, [r9], #0
     fa0:	04870000 	streq	r0, [r7], #0
     fa4:	c81d0000 	ldmdagt	sp, {}	; <UNPREDICTABLE>
     fa8:	8c00008c 	stchi	0, cr0, [r0], {140}	; 0x8c
     fac:	fc000006 	stc2	0, cr0, [r0], {6}
     fb0:	18000004 	stmdane	r0, {r2}
     fb4:	75025001 	strvc	r5, [r2, #-1]
     fb8:	d41d0000 	ldrle	r0, [sp], #-0
     fbc:	8c00008c 	stchi	0, cr0, [r0], {140}	; 0x8c
     fc0:	16000006 	strne	r0, [r0], -r6
     fc4:	18000005 	stmdane	r0, {r0, r2}
     fc8:	75025001 	strvc	r5, [r2, #-1]
     fcc:	51011800 	tstpl	r1, r0, lsl #16
     fd0:	00007802 	andeq	r7, r0, r2, lsl #16
     fd4:	008ce017 	addeq	lr, ip, r7, lsl r0
     fd8:	00068c00 	andeq	r8, r6, r0, lsl #24
     fdc:	50011800 	andpl	r1, r1, r0, lsl #16
     fe0:	18007502 	stmdane	r0, {r1, r8, sl, ip, sp, lr}
     fe4:	77025101 	strvc	r5, [r2, -r1, lsl #2]
     fe8:	00000000 	andeq	r0, r0, r0
     fec:	0026e522 	eoreq	lr, r6, r2, lsr #10
     ff0:	008cec00 	addeq	lr, ip, r0, lsl #24
     ff4:	c0000000 	andgt	r0, r0, r0
     ff8:	02000004 	andeq	r0, r0, #4, 0
     ffc:	06430524 	strbeq	r0, [r3], -r4, lsr #10
    1000:	f21c0000 	vhadd.s16	d0, d12, d0
    1004:	a0000026 	andge	r0, r0, r6, lsr #32
    1008:	9c000004 	stcls	0, cr0, [r0], {4}
    100c:	23000004 	movwcs	r0, #4
    1010:	000026ff 	strdeq	r2, [r0], -pc	; <UNPREDICTABLE>
    1014:	00008cec 	andeq	r8, r0, ip, ror #25
    1018:	04c80002 	strbeq	r0, [r8], #2
    101c:	d3010000 	movwle	r0, #4096	; 0x1000
    1020:	270c1c05 	strcs	r1, [ip, -r5, lsl #24]
    1024:	04c90000 	strbeq	r0, [r9], #0
    1028:	04c50000 	strbeq	r0, [r5], #0
    102c:	671b0000 	ldrvs	r0, [fp, -r0]
    1030:	ec000027 	stc	0, cr0, [r0], {39}	; 0x27
    1034:	0400008c 	streq	r0, [r0], #-140	; 0xffffff74
    1038:	008cec00 	addeq	lr, ip, r0, lsl #24
    103c:	00003800 	andeq	r3, r0, r0, lsl #16
    1040:	02ca0100 	sbceq	r0, sl, #0
    1044:	0027801c 	eoreq	r8, r7, ip, lsl r0
    1048:	0004f000 	andeq	pc, r4, r0
    104c:	0004ee00 	andeq	lr, r4, r0, lsl #28
    1050:	27741c00 	ldrbcs	r1, [r4, -r0, lsl #24]!
    1054:	050a0000 	streq	r0, [sl, #-0]
    1058:	05060000 	streq	r0, [r6, #-0]
    105c:	8c240000 	stchi	0, cr0, [r4], #-0
    1060:	31000027 	tstcc	r0, r7, lsr #32
    1064:	2f000005 	svccs	0x00000005
    1068:	25000005 	strcs	r0, [r0, #-5]
    106c:	00002798 	muleq	r0, r8, r7
    1070:	00008cec 	andeq	r8, r0, ip, ror #25
    1074:	00000004 	andeq	r0, r0, r4
    1078:	000005cc 	andeq	r0, r0, ip, asr #11
    107c:	00279924 	eoreq	r9, r7, r4, lsr #18
    1080:	00054600 	andeq	r4, r5, r0, lsl #12
    1084:	00054400 	andeq	r4, r5, r0, lsl #8
    1088:	1b260000 	blne	981090 <__bss_end__+0x976a78>
    108c:	f0000028 			; <UNDEFINED> instruction: 0xf0000028
    1090:	0300008c 	movweq	r0, #140	; 0x8c
    1094:	008cf000 	addeq	pc, ip, r0
    1098:	00001400 	andeq	r1, r0, r0, lsl #8
    109c:	02b20100 	adcseq	r0, r2, #0
    10a0:	000005f4 	strdeq	r0, [r0], -r4
    10a4:	0028281c 	eoreq	r2, r8, ip, lsl r8
    10a8:	00055d00 	andeq	r5, r5, r0, lsl #26
    10ac:	00055900 	andeq	r5, r5, r0, lsl #18
    10b0:	e71b0000 	ldr	r0, [fp, -r0]
    10b4:	04000027 	streq	r0, [r0], #-39	; 0xffffffd9
    10b8:	0200008d 	andeq	r0, r0, #141, 0	; 0x8d
    10bc:	008d0400 	addeq	r0, sp, r0, lsl #8
    10c0:	00002000 	andeq	r2, r0, r0
    10c4:	02b30100 	adcseq	r0, r3, #0
    10c8:	0028001c 	eoreq	r0, r8, ip, lsl r0
    10cc:	00058400 	andeq	r8, r5, r0, lsl #8
    10d0:	00058200 	andeq	r8, r5, r0, lsl #4
    10d4:	27f41c00 	ldrbcs	r1, [r4, r0, lsl #24]!
    10d8:	059c0000 	ldreq	r0, [ip]
    10dc:	059a0000 	ldreq	r0, [sl]
    10e0:	0c270000 	stceq	0, cr0, [r7], #-0
    10e4:	10000028 	andne	r0, r0, r8, lsr #32
    10e8:	0400008d 	streq	r0, [r0], #-141	; 0xffffff73
    10ec:	24000000 	strcs	r0, [r0], #-0
    10f0:	0000280d 	andeq	r2, r0, sp, lsl #16
    10f4:	000005b1 			; <UNDEFINED> instruction: 0x000005b1
    10f8:	000005af 	andeq	r0, r0, pc, lsr #11
    10fc:	00000000 	andeq	r0, r0, r0
    1100:	8d2c1700 	stchi	7, cr1, [ip, #-0]
    1104:	02060000 	andeq	r0, r6, #0, 0
    1108:	01180000 	tsteq	r8, r0
    110c:	00760250 	rsbseq	r0, r6, r0, asr r2
    1110:	d0280000 	eorle	r0, r8, r0
    1114:	01000002 	tsteq	r0, r2
    1118:	8c0314f4 	cfstrshi	mvf1, [r3], {244}	; 0xf4
    111c:	29000006 	stmdbcs	r0, {r1, r2}
    1120:	006e6970 	rsbeq	r6, lr, r0, ror r9
    1124:	2c2bf401 	cfstrscs	mvf15, [fp], #-4
    1128:	29000000 	stmdbcs	r0, {}	; <UNPREDICTABLE>
    112c:	f4010072 	vst4.16	{d0-d3}, [r1 :256], r2
    1130:	00005438 	andeq	r5, r0, r8, lsr r4
    1134:	00672900 	rsbeq	r2, r7, r0, lsl #18
    1138:	5443f401 	strbpl	pc, [r3], #-1025	; 0xfffffbff	; <UNPREDICTABLE>
    113c:	29000000 	stmdbcs	r0, {}	; <UNPREDICTABLE>
    1140:	f4010062 	vst4.16	{d0-d3}, [r1 :128], r2
    1144:	0000544e 	andeq	r5, r0, lr, asr #8
    1148:	5a2a0000 	bpl	a81150 <__bss_end__+0xa76b38>
    114c:	01000002 	tsteq	r0, r2
    1150:	85900ee6 	ldrhi	r0, [r0, #3814]	; 0xee6
    1154:	06080000 	streq	r0, [r8], -r0
    1158:	9c010000 	stcls	0, cr0, [r1], {-0}
    115c:	000026c1 	andeq	r2, r0, r1, asr #13
    1160:	6e697015 	mcrvs	0, 3, r7, cr9, cr5, {0}
    1164:	24e60100 	strbtcs	r0, [r6], #256	; 0x100
    1168:	0000002c 	andeq	r0, r0, ip, lsr #32
    116c:	000005cc 	andeq	r0, r0, ip, asr #11
    1170:	000005c4 	andeq	r0, r0, r4, asr #11
    1174:	01006215 	tsteq	r0, r5, lsl r2
    1178:	005431e6 	subseq	r3, r4, r6, ror #3
    117c:	060e0000 	streq	r0, [lr], -r0
    1180:	06060000 	streq	r0, [r6], -r0
    1184:	c1220000 			; <UNDEFINED> instruction: 0xc1220000
    1188:	90000026 	andls	r0, r0, r6, lsr #32
    118c:	02000085 	andeq	r0, r0, #133, 0	; 0x85
    1190:	00000000 	andeq	r0, r0, r0
    1194:	02e80100 	rsceq	r0, r8, #0
    1198:	00000ac9 	andeq	r0, r0, r9, asr #21
    119c:	0026da1c 	eoreq	sp, r6, ip, lsl sl
    11a0:	00064c00 	andeq	r4, r6, r0, lsl #24
    11a4:	00064800 	andeq	r4, r6, r0, lsl #16
    11a8:	26ce1c00 	strbcs	r1, [lr], r0, lsl #24
    11ac:	06780000 	ldrbteq	r0, [r8], -r0
    11b0:	06740000 	ldrbteq	r0, [r4], -r0
    11b4:	4d220000 	stcmi	0, cr0, [r2, #-0]
    11b8:	98000027 	stmdals	r0, {r0, r1, r2, r5}
    11bc:	01000085 	smlabbeq	r0, r5, r0, r0
    11c0:	00003800 	andeq	r3, r0, r0, lsl #16
    11c4:	03d90100 	bicseq	r0, r9, #0
    11c8:	000007ed 	andeq	r0, r0, sp, ror #15
    11cc:	00275a1c 	eoreq	r5, r7, ip, lsl sl
    11d0:	00069800 	andeq	r9, r6, r0, lsl #16
    11d4:	00069600 	andeq	r9, r6, r0, lsl #12
    11d8:	27a71b00 	strcs	r1, [r7, r0, lsl #22]!
    11dc:	85980000 	ldrhi	r0, [r8]
    11e0:	00030000 	andeq	r0, r3, r0
    11e4:	00008598 	muleq	r0, r8, r5
    11e8:	00000028 	andeq	r0, r0, r8, lsr #32
    11ec:	1c02b901 			; <UNDEFINED> instruction: 0x1c02b901
    11f0:	000027c0 	andeq	r2, r0, r0, asr #15
    11f4:	000006ad 	andeq	r0, r0, sp, lsr #13
    11f8:	000006ab 	andeq	r0, r0, fp, lsr #13
    11fc:	0027b41c 	eoreq	fp, r7, ip, lsl r4
    1200:	0006c500 	andeq	ip, r6, r0, lsl #10
    1204:	0006c300 	andeq	ip, r6, r0, lsl #6
    1208:	27cc2400 	strbcs	r2, [ip, r0, lsl #8]
    120c:	06da0000 	ldrbeq	r0, [sl], r0
    1210:	06d80000 	ldrbeq	r0, [r8], r0
    1214:	d8250000 	stmdale	r5!, {}	; <UNPREDICTABLE>
    1218:	98000027 	stmdals	r0, {r0, r1, r2, r5}
    121c:	04000085 	streq	r0, [r0], #-133	; 0xffffff7b
    1220:	77000000 	strvc	r0, [r0, -r0]
    1224:	24000007 	strcs	r0, [r0], #-7
    1228:	000027d9 	ldrdeq	r2, [r0], -r9
    122c:	000006ef 	andeq	r0, r0, pc, ror #13
    1230:	000006ed 	andeq	r0, r0, sp, ror #13
    1234:	28352600 	ldmdacs	r5!, {r9, sl, sp}
    1238:	859c0000 	ldrhi	r0, [ip]
    123c:	00030000 	andeq	r0, r3, r0
    1240:	0000859c 	muleq	r0, ip, r5
    1244:	00000014 	andeq	r0, r0, r4, lsl r0
    1248:	9f02a801 	svcls	0x0002a801
    124c:	1c000007 	stcne	0, cr0, [r0], {7}
    1250:	00002842 	andeq	r2, r0, r2, asr #16
    1254:	00000704 	andeq	r0, r0, r4, lsl #14
    1258:	00000702 	andeq	r0, r0, r2, lsl #14
    125c:	27e71b00 	strbcs	r1, [r7, r0, lsl #22]!
    1260:	85b00000 	ldrhi	r0, [r0, #0]!
    1264:	00020000 	andeq	r0, r2, r0
    1268:	000085b0 			; <UNDEFINED> instruction: 0x000085b0
    126c:	00000010 	andeq	r0, r0, r0, lsl r0
    1270:	1c02a901 			; <UNDEFINED> instruction: 0x1c02a901
    1274:	00002800 	andeq	r2, r0, r0, lsl #16
    1278:	00000719 	andeq	r0, r0, r9, lsl r7
    127c:	00000717 	andeq	r0, r0, r7, lsl r7
    1280:	0027f41c 	eoreq	pc, r7, ip, lsl r4	; <UNPREDICTABLE>
    1284:	00073100 	andeq	r3, r7, r0, lsl #2
    1288:	00072f00 	andeq	r2, r7, r0, lsl #30
    128c:	280c2700 	stmdacs	ip, {r8, r9, sl, sp}
    1290:	85b00000 	ldrhi	r0, [r0, #0]!
    1294:	00040000 	andeq	r0, r4, r0
    1298:	0d240000 	stceq	0, cr0, [r4, #-0]
    129c:	46000028 	strmi	r0, [r0], -r8, lsr #32
    12a0:	44000007 	strmi	r0, [r0], #-7
    12a4:	00000007 	andeq	r0, r0, r7
    12a8:	22000000 	andcs	r0, r0, #0, 0
    12ac:	00002719 	andeq	r2, r0, r9, lsl r7
    12b0:	000085c0 	andeq	r8, r0, r0, asr #11
    12b4:	00500002 	subseq	r0, r0, r2
    12b8:	da010000 	ble	412c0 <__bss_end__+0x36ca8>
    12bc:	0008e203 	andeq	lr, r8, r3, lsl #4
    12c0:	27261c00 	strcs	r1, [r6, -r0, lsl #24]!
    12c4:	075b0000 	ldrbeq	r0, [fp, -r0]
    12c8:	07590000 	ldrbeq	r0, [r9, -r0]
    12cc:	671b0000 	ldrvs	r0, [fp, -r0]
    12d0:	c0000027 	andgt	r0, r0, r7, lsr #32
    12d4:	04000085 	streq	r0, [r0], #-133	; 0xffffff7b
    12d8:	0085c000 	addeq	ip, r5, r0
    12dc:	00003000 	andeq	r3, r0, r0
    12e0:	02c60100 	sbceq	r0, r6, #0
    12e4:	0027801c 	eoreq	r8, r7, ip, lsl r0
    12e8:	00077000 	andeq	r7, r7, r0
    12ec:	00076e00 	andeq	r6, r7, r0, lsl #28
    12f0:	27741c00 	ldrbcs	r1, [r4, -r0, lsl #24]!
    12f4:	07880000 	streq	r0, [r8, r0]
    12f8:	07860000 	streq	r0, [r6, r0]
    12fc:	8c240000 	stchi	0, cr0, [r4], #-0
    1300:	9d000027 	stcls	0, cr0, [r0, #-156]	; 0xffffff64
    1304:	9b000007 	blls	1328 <__code_start__-0x6cd8>
    1308:	25000007 	strcs	r0, [r0, #-7]
    130c:	00002798 	muleq	r0, r8, r7
    1310:	000085c0 	andeq	r8, r0, r0, asr #11
    1314:	00000004 	andeq	r0, r0, r4
    1318:	0000086c 	andeq	r0, r0, ip, ror #16
    131c:	00279924 	eoreq	r9, r7, r4, lsr #18
    1320:	0007b200 	andeq	fp, r7, r0, lsl #4
    1324:	0007b000 	andeq	fp, r7, r0
    1328:	1b260000 	blne	981330 <__bss_end__+0x976d18>
    132c:	c4000028 	strgt	r0, [r0], #-40	; 0xffffffd8
    1330:	03000085 	movweq	r0, #133	; 0x85
    1334:	0085c400 	addeq	ip, r5, r0, lsl #8
    1338:	00001400 	andeq	r1, r0, r0, lsl #8
    133c:	02b20100 	adcseq	r0, r2, #0
    1340:	00000894 	muleq	r0, r4, r8
    1344:	0028281c 	eoreq	r2, r8, ip, lsl r8
    1348:	0007c700 	andeq	ip, r7, r0, lsl #14
    134c:	0007c500 	andeq	ip, r7, r0, lsl #10
    1350:	e71b0000 	ldr	r0, [fp, -r0]
    1354:	d8000027 	stmdale	r0, {r0, r1, r2, r5}
    1358:	02000085 	andeq	r0, r0, #133, 0	; 0x85
    135c:	0085d800 	addeq	sp, r5, r0, lsl #16
    1360:	00001800 	andeq	r1, r0, r0, lsl #16
    1364:	02b30100 	adcseq	r0, r3, #0
    1368:	0028001c 	eoreq	r0, r8, ip, lsl r0
    136c:	0007dc00 	andeq	sp, r7, r0, lsl #24
    1370:	0007da00 	andeq	sp, r7, r0, lsl #20
    1374:	27f41c00 	ldrbcs	r1, [r4, r0, lsl #24]!
    1378:	07f40000 	ldrbeq	r0, [r4, r0]!
    137c:	07f20000 	ldrbeq	r0, [r2, r0]!
    1380:	0c270000 	stceq	0, cr0, [r7], #-0
    1384:	e0000028 	and	r0, r0, r8, lsr #32
    1388:	04000085 	streq	r0, [r0], #-133	; 0xffffff7b
    138c:	24000000 	strcs	r0, [r0], #-0
    1390:	0000280d 	andeq	r2, r0, sp, lsl #16
    1394:	00000809 	andeq	r0, r0, r9, lsl #16
    1398:	00000807 	andeq	r0, r0, r7, lsl #16
    139c:	00000000 	andeq	r0, r0, r0
    13a0:	00273322 	eoreq	r3, r7, r2, lsr #6
    13a4:	00889400 	addeq	r9, r8, r0, lsl #8
    13a8:	68000200 	stmdavs	r0, {r9}
    13ac:	01000000 	mrseq	r0, (UNDEF: 0)
    13b0:	09d703dc 	ldmibeq	r7, {r2, r3, r4, r6, r7, r8, r9}^
    13b4:	401c0000 	andsmi	r0, ip, r0
    13b8:	1e000027 	cdpne	0, 0, cr0, cr0, cr7, {1}
    13bc:	1c000008 	stcne	0, cr0, [r0], {8}
    13c0:	1b000008 	blne	13e8 <__code_start__-0x6c18>
    13c4:	000027a7 	andeq	r2, r0, r7, lsr #15
    13c8:	00008894 	muleq	r0, r4, r8
    13cc:	88940004 	ldmhi	r4, {r2}
    13d0:	002c0000 	eoreq	r0, ip, r0
    13d4:	be010000 	cdplt	0, 0, cr0, cr1, cr0, {0}
    13d8:	27c01c02 	strbcs	r1, [r0, r2, lsl #24]
    13dc:	08330000 	ldmdaeq	r3!, {}	; <UNPREDICTABLE>
    13e0:	08310000 	ldmdaeq	r1!, {}	; <UNPREDICTABLE>
    13e4:	b41c0000 	ldrlt	r0, [ip], #-0
    13e8:	4a000027 	bmi	148c <__code_start__-0x6b74>
    13ec:	48000008 	stmdami	r0, {r3}
    13f0:	24000008 	strcs	r0, [r0], #-8
    13f4:	000027cc 	andeq	r2, r0, ip, asr #15
    13f8:	0000085f 	andeq	r0, r0, pc, asr r8
    13fc:	0000085d 	andeq	r0, r0, sp, asr r8
    1400:	0027d825 	eoreq	sp, r7, r5, lsr #16
    1404:	00889400 	addeq	r9, r8, r0, lsl #8
    1408:	00000400 	andeq	r0, r0, r0, lsl #8
    140c:	00096100 	andeq	r6, r9, r0, lsl #2
    1410:	27d92400 	ldrbcs	r2, [r9, r0, lsl #8]
    1414:	08740000 	ldmdaeq	r4!, {}^	; <UNPREDICTABLE>
    1418:	08720000 	ldmdaeq	r2!, {}^	; <UNPREDICTABLE>
    141c:	26000000 	strcs	r0, [r0], -r0
    1420:	00002835 	andeq	r2, r0, r5, lsr r8
    1424:	00008898 	muleq	r0, r8, r8
    1428:	88980003 	ldmhi	r8, {r0, r1}
    142c:	00140000 	andseq	r0, r4, r0
    1430:	a8010000 	stmdage	r1, {}	; <UNPREDICTABLE>
    1434:	00098902 	andeq	r8, r9, r2, lsl #18
    1438:	28421c00 	stmdacs	r2, {sl, fp, ip}^
    143c:	08890000 	stmeq	r9, {}	; <UNPREDICTABLE>
    1440:	08870000 	stmeq	r7, {}	; <UNPREDICTABLE>
    1444:	1b000000 	blne	144c <__code_start__-0x6bb4>
    1448:	000027e7 	andeq	r2, r0, r7, ror #15
    144c:	000088ac 	andeq	r8, r0, ip, lsr #17
    1450:	88ac0002 	stmiahi	ip!, {r1}
    1454:	00140000 	andseq	r0, r4, r0
    1458:	a9010000 	stmdbge	r1, {}	; <UNPREDICTABLE>
    145c:	28001c02 	stmdacs	r0, {r1, sl, fp, ip}
    1460:	089e0000 	ldmeq	lr, {}	; <UNPREDICTABLE>
    1464:	089c0000 	ldmeq	ip, {}	; <UNPREDICTABLE>
    1468:	f41c0000 			; <UNDEFINED> instruction: 0xf41c0000
    146c:	b5000027 	strlt	r0, [r0, #-39]	; 0xffffffd9
    1470:	b3000008 	movwlt	r0, #8
    1474:	27000008 	strcs	r0, [r0, -r8]
    1478:	0000280c 	andeq	r2, r0, ip, lsl #16
    147c:	000088b0 			; <UNDEFINED> instruction: 0x000088b0
    1480:	00000004 	andeq	r0, r0, r4
    1484:	00280d24 	eoreq	r0, r8, r4, lsr #26
    1488:	0008ca00 	andeq	ip, r8, r0, lsl #20
    148c:	0008c800 	andeq	ip, r8, r0, lsl #16
    1490:	00000000 	andeq	r0, r0, r0
    1494:	27192300 	ldrcs	r2, [r9, -r0, lsl #6]
    1498:	88c00000 	stmiahi	r0, {}^	; <UNPREDICTABLE>
    149c:	00020000 	andeq	r0, r2, r0
    14a0:	00000080 	andeq	r0, r0, r0, lsl #1
    14a4:	1c03dd01 	stcne	13, cr13, [r3], {1}
    14a8:	00002726 	andeq	r2, r0, r6, lsr #14
    14ac:	000008df 	ldrdeq	r0, [r0], -pc	; <UNPREDICTABLE>
    14b0:	000008dd 	ldrdeq	r0, [r0], -sp
    14b4:	0027671b 	eoreq	r6, r7, fp, lsl r7
    14b8:	0088c000 	addeq	ip, r8, r0
    14bc:	c0000400 	andgt	r0, r0, r0, lsl #8
    14c0:	34000088 	strcc	r0, [r0], #-136	; 0xffffff78
    14c4:	01000000 	mrseq	r0, (UNDEF: 0)
    14c8:	801c02c6 	andshi	r0, ip, r6, asr #5
    14cc:	f4000027 	vst4.8	{d0-d3}, [r0 :128], r7
    14d0:	f2000008 	vhadd.s8	d0, d0, d8
    14d4:	1c000008 	stcne	0, cr0, [r0], {8}
    14d8:	00002774 	andeq	r2, r0, r4, ror r7
    14dc:	0000090c 	andeq	r0, r0, ip, lsl #18
    14e0:	0000090a 	andeq	r0, r0, sl, lsl #18
    14e4:	00278c24 	eoreq	r8, r7, r4, lsr #24
    14e8:	00092100 	andeq	r2, r9, r0, lsl #2
    14ec:	00091f00 	andeq	r1, r9, r0, lsl #30
    14f0:	27982500 	ldrcs	r2, [r8, r0, lsl #10]
    14f4:	88c00000 	stmiahi	r0, {}^	; <UNPREDICTABLE>
    14f8:	00040000 	andeq	r0, r4, r0
    14fc:	0a520000 	beq	1481504 <__bss_end__+0x1476eec>
    1500:	99240000 	stmdbls	r4!, {}	; <UNPREDICTABLE>
    1504:	36000027 	strcc	r0, [r0], -r7, lsr #32
    1508:	34000009 	strcc	r0, [r0], #-9
    150c:	00000009 	andeq	r0, r0, r9
    1510:	00281b26 	eoreq	r1, r8, r6, lsr #22
    1514:	0088c400 	addeq	ip, r8, r0, lsl #8
    1518:	c4000300 	strgt	r0, [r0], #-768	; 0xfffffd00
    151c:	14000088 	strne	r0, [r0], #-136	; 0xffffff78
    1520:	01000000 	mrseq	r0, (UNDEF: 0)
    1524:	0a7a02b2 	beq	1e81ff4 <__bss_end__+0x1e779dc>
    1528:	281c0000 	ldmdacs	ip, {}	; <UNPREDICTABLE>
    152c:	4b000028 	blmi	15d4 <__code_start__-0x6a2c>
    1530:	49000009 	stmdbmi	r0, {r0, r3}
    1534:	00000009 	andeq	r0, r0, r9
    1538:	0027e71b 	eoreq	lr, r7, fp, lsl r7
    153c:	0088d800 	addeq	sp, r8, r0, lsl #16
    1540:	d8000200 	stmdale	r0, {r9}
    1544:	1c000088 	stcne	0, cr0, [r0], {136}	; 0x88
    1548:	01000000 	mrseq	r0, (UNDEF: 0)
    154c:	001c02b3 			; <UNDEFINED> instruction: 0x001c02b3
    1550:	60000028 	andvs	r0, r0, r8, lsr #32
    1554:	5e000009 	cdppl	0, 0, cr0, cr0, cr9, {0}
    1558:	1c000009 	stcne	0, cr0, [r0], {9}
    155c:	000027f4 	strdeq	r2, [r0], -r4
    1560:	00000978 	andeq	r0, r0, r8, ror r9
    1564:	00000976 	andeq	r0, r0, r6, ror r9
    1568:	00280c27 	eoreq	r0, r8, r7, lsr #24
    156c:	0088e000 	addeq	lr, r8, r0
    1570:	00000400 	andeq	r0, r0, r0, lsl #8
    1574:	280d2400 	stmdacs	sp, {sl, sp}
    1578:	098d0000 	stmibeq	sp, {}	; <UNPREDICTABLE>
    157c:	098b0000 	stmibeq	fp, {}	; <UNPREDICTABLE>
    1580:	00000000 	andeq	r0, r0, r0
    1584:	22000000 	andcs	r0, r0, #0, 0
    1588:	000026c1 	andeq	r2, r0, r1, asr #13
    158c:	000085f0 	strdeq	r8, [r0], -r0
    1590:	00980002 	addseq	r0, r8, r2
    1594:	e9010000 	stmdb	r1, {}	; <UNPREDICTABLE>
    1598:	000eca02 	andeq	ip, lr, r2, lsl #20
    159c:	26da1c00 	ldrbcs	r1, [sl], r0, lsl #24
    15a0:	09a40000 	stmibeq	r4!, {}	; <UNPREDICTABLE>
    15a4:	09a00000 	stmibeq	r0!, {}	; <UNPREDICTABLE>
    15a8:	ce1c0000 	cdpgt	0, 1, cr0, cr12, cr0, {0}
    15ac:	d0000026 	andle	r0, r0, r6, lsr #32
    15b0:	cc000009 	stcgt	0, cr0, [r0], {9}
    15b4:	22000009 	andcs	r0, r0, #9, 0
    15b8:	0000274d 	andeq	r2, r0, sp, asr #14
    15bc:	000085f8 	strdeq	r8, [r0], -r8	; <UNPREDICTABLE>
    15c0:	00d00001 	sbcseq	r0, r0, r1
    15c4:	d9010000 	stmdble	r1, {}	; <UNPREDICTABLE>
    15c8:	000bee03 	andeq	lr, fp, r3, lsl #28
    15cc:	275a1c00 	ldrbcs	r1, [sl, -r0, lsl #24]
    15d0:	09f00000 	ldmibeq	r0!, {}^	; <UNPREDICTABLE>
    15d4:	09ee0000 	stmibeq	lr!, {}^	; <UNPREDICTABLE>
    15d8:	a71b0000 	ldrge	r0, [fp, -r0]
    15dc:	f8000027 			; <UNDEFINED> instruction: 0xf8000027
    15e0:	03000085 	movweq	r0, #133	; 0x85
    15e4:	0085f800 	addeq	pc, r5, r0, lsl #16
    15e8:	00002800 	andeq	r2, r0, r0, lsl #16
    15ec:	02b90100 	adcseq	r0, r9, #0
    15f0:	0027c01c 	eoreq	ip, r7, ip, lsl r0
    15f4:	000a0500 	andeq	r0, sl, r0, lsl #10
    15f8:	000a0300 	andeq	r0, sl, r0, lsl #6
    15fc:	27b41c00 	ldrcs	r1, [r4, r0, lsl #24]!
    1600:	0a1d0000 	beq	741608 <__bss_end__+0x736ff0>
    1604:	0a1b0000 	beq	6c160c <__bss_end__+0x6b6ff4>
    1608:	cc240000 	stcgt	0, cr0, [r4], #-0
    160c:	32000027 	andcc	r0, r0, #39, 0	; 0x27
    1610:	3000000a 	andcc	r0, r0, sl
    1614:	2500000a 	strcs	r0, [r0, #-10]
    1618:	000027d8 	ldrdeq	r2, [r0], -r8
    161c:	000085f8 	strdeq	r8, [r0], -r8	; <UNPREDICTABLE>
    1620:	00000004 	andeq	r0, r0, r4
    1624:	00000b78 	andeq	r0, r0, r8, ror fp
    1628:	0027d924 	eoreq	sp, r7, r4, lsr #18
    162c:	000a4700 	andeq	r4, sl, r0, lsl #14
    1630:	000a4500 	andeq	r4, sl, r0, lsl #10
    1634:	35260000 	strcc	r0, [r6, #-0]!
    1638:	fc000028 	stc2	0, cr0, [r0], {40}	; 0x28
    163c:	03000085 	movweq	r0, #133	; 0x85
    1640:	0085fc00 	addeq	pc, r5, r0, lsl #24
    1644:	00001400 	andeq	r1, r0, r0, lsl #8
    1648:	02a80100 	adceq	r0, r8, #0
    164c:	00000ba0 	andeq	r0, r0, r0, lsr #23
    1650:	0028421c 	eoreq	r4, r8, ip, lsl r2
    1654:	000a5c00 	andeq	r5, sl, r0, lsl #24
    1658:	000a5a00 	andeq	r5, sl, r0, lsl #20
    165c:	e71b0000 	ldr	r0, [fp, -r0]
    1660:	10000027 	andne	r0, r0, r7, lsr #32
    1664:	02000086 	andeq	r0, r0, #134, 0	; 0x86
    1668:	00861000 	addeq	r1, r6, r0
    166c:	00001000 	andeq	r1, r0, r0
    1670:	02a90100 	adceq	r0, r9, #0
    1674:	0028001c 	eoreq	r0, r8, ip, lsl r0
    1678:	000a7100 	andeq	r7, sl, r0, lsl #2
    167c:	000a6f00 	andeq	r6, sl, r0, lsl #30
    1680:	27f41c00 	ldrbcs	r1, [r4, r0, lsl #24]!
    1684:	0a890000 	beq	fe24168c <__bss_end__+0xfe237074>
    1688:	0a870000 	beq	fe1c1690 <__bss_end__+0xfe1b7078>
    168c:	0c270000 	stceq	0, cr0, [r7], #-0
    1690:	10000028 	andne	r0, r0, r8, lsr #32
    1694:	04000086 	streq	r0, [r0], #-134	; 0xffffff7a
    1698:	24000000 	strcs	r0, [r0], #-0
    169c:	0000280d 	andeq	r2, r0, sp, lsl #16
    16a0:	00000a9e 	muleq	r0, lr, sl
    16a4:	00000a9c 	muleq	r0, ip, sl
    16a8:	00000000 	andeq	r0, r0, r0
    16ac:	00271922 	eoreq	r1, r7, r2, lsr #18
    16b0:	00862000 	addeq	r2, r6, r0
    16b4:	e8000200 	stmda	r0, {r9}
    16b8:	01000000 	mrseq	r0, (UNDEF: 0)
    16bc:	0ce303da 	stcleq	3, cr0, [r3], #872	; 0x368
    16c0:	261c0000 	ldrcs	r0, [ip], -r0
    16c4:	b3000027 	movwlt	r0, #39	; 0x27
    16c8:	b100000a 	tstlt	r0, sl
    16cc:	1b00000a 	blne	16fc <__code_start__-0x6904>
    16d0:	00002767 	andeq	r2, r0, r7, ror #14
    16d4:	00008620 	andeq	r8, r0, r0, lsr #12
    16d8:	86200004 	strthi	r0, [r0], -r4
    16dc:	00300000 	eorseq	r0, r0, r0
    16e0:	c6010000 	strgt	r0, [r1], -r0
    16e4:	27801c02 	strcs	r1, [r0, r2, lsl #24]
    16e8:	0ac80000 	beq	ff2016f0 <__bss_end__+0xff1f70d8>
    16ec:	0ac60000 	beq	ff1816f4 <__bss_end__+0xff1770dc>
    16f0:	741c0000 	ldrvc	r0, [ip], #-0
    16f4:	e0000027 	and	r0, r0, r7, lsr #32
    16f8:	de00000a 	cdple	0, 0, cr0, cr0, cr10, {0}
    16fc:	2400000a 	strcs	r0, [r0], #-10
    1700:	0000278c 	andeq	r2, r0, ip, lsl #15
    1704:	00000af5 	strdeq	r0, [r0], -r5
    1708:	00000af3 	strdeq	r0, [r0], -r3
    170c:	00279825 	eoreq	r9, r7, r5, lsr #16
    1710:	00862000 	addeq	r2, r6, r0
    1714:	00000400 	andeq	r0, r0, r0, lsl #8
    1718:	000c6d00 	andeq	r6, ip, r0, lsl #26
    171c:	27992400 	ldrcs	r2, [r9, r0, lsl #8]
    1720:	0b0a0000 	bleq	281728 <__bss_end__+0x277110>
    1724:	0b080000 	bleq	20172c <__bss_end__+0x1f7114>
    1728:	26000000 	strcs	r0, [r0], -r0
    172c:	0000281b 	andeq	r2, r0, fp, lsl r8
    1730:	00008624 	andeq	r8, r0, r4, lsr #12
    1734:	86240003 	strthi	r0, [r4], -r3
    1738:	00140000 	andseq	r0, r4, r0
    173c:	b2010000 	andlt	r0, r1, #0, 0
    1740:	000c9502 	andeq	r9, ip, r2, lsl #10
    1744:	28281c00 	stmdacs	r8!, {sl, fp, ip}
    1748:	0b1f0000 	bleq	7c1750 <__bss_end__+0x7b7138>
    174c:	0b1d0000 	bleq	741754 <__bss_end__+0x73713c>
    1750:	1b000000 	blne	1758 <__code_start__-0x68a8>
    1754:	000027e7 	andeq	r2, r0, r7, ror #15
    1758:	00008638 	andeq	r8, r0, r8, lsr r6
    175c:	86380002 	ldrthi	r0, [r8], -r2
    1760:	00180000 	andseq	r0, r8, r0
    1764:	b3010000 	movwlt	r0, #4096	; 0x1000
    1768:	28001c02 	stmdacs	r0, {r1, sl, fp, ip}
    176c:	0b340000 	bleq	d01774 <__bss_end__+0xcf715c>
    1770:	0b320000 	bleq	c81778 <__bss_end__+0xc77160>
    1774:	f41c0000 			; <UNDEFINED> instruction: 0xf41c0000
    1778:	4c000027 	stcmi	0, cr0, [r0], {39}	; 0x27
    177c:	4a00000b 	bmi	17b0 <__code_start__-0x6850>
    1780:	2700000b 	strcs	r0, [r0, -fp]
    1784:	0000280c 	andeq	r2, r0, ip, lsl #16
    1788:	00008640 	andeq	r8, r0, r0, asr #12
    178c:	00000004 	andeq	r0, r0, r4
    1790:	00280d24 	eoreq	r0, r8, r4, lsr #26
    1794:	000b6100 	andeq	r6, fp, r0, lsl #2
    1798:	000b5f00 	andeq	r5, fp, r0, lsl #30
    179c:	00000000 	andeq	r0, r0, r0
    17a0:	27332200 	ldrcs	r2, [r3, -r0, lsl #4]!
    17a4:	88f40000 	ldmhi	r4!, {}^	; <UNPREDICTABLE>
    17a8:	00020000 	andeq	r0, r2, r0
    17ac:	00000100 	andeq	r0, r0, r0, lsl #2
    17b0:	d803dc01 	stmdale	r3, {r0, sl, fp, ip, lr, pc}
    17b4:	1c00000d 	stcne	0, cr0, [r0], {13}
    17b8:	00002740 	andeq	r2, r0, r0, asr #14
    17bc:	00000b76 	andeq	r0, r0, r6, ror fp
    17c0:	00000b74 	andeq	r0, r0, r4, ror fp
    17c4:	0027a71b 	eoreq	sl, r7, fp, lsl r7
    17c8:	0088f400 	addeq	pc, r8, r0, lsl #8
    17cc:	f4000400 	vst3.8	{d0-d2}, [r0], r0
    17d0:	2c000088 	stccs	0, cr0, [r0], {136}	; 0x88
    17d4:	01000000 	mrseq	r0, (UNDEF: 0)
    17d8:	c01c02be 			; <UNDEFINED> instruction: 0xc01c02be
    17dc:	8b000027 	blhi	1880 <__code_start__-0x6780>
    17e0:	8900000b 	stmdbhi	r0, {r0, r1, r3}
    17e4:	1c00000b 	stcne	0, cr0, [r0], {11}
    17e8:	000027b4 			; <UNDEFINED> instruction: 0x000027b4
    17ec:	00000ba2 	andeq	r0, r0, r2, lsr #23
    17f0:	00000ba0 	andeq	r0, r0, r0, lsr #23
    17f4:	0027cc24 	eoreq	ip, r7, r4, lsr #24
    17f8:	000bb700 	andeq	fp, fp, r0, lsl #14
    17fc:	000bb500 	andeq	fp, fp, r0, lsl #10
    1800:	27d82500 	ldrbcs	r2, [r8, r0, lsl #10]
    1804:	88f40000 	ldmhi	r4!, {}^	; <UNPREDICTABLE>
    1808:	00040000 	andeq	r0, r4, r0
    180c:	0d620000 	stcleq	0, cr0, [r2, #-0]
    1810:	d9240000 	stmdble	r4!, {}	; <UNPREDICTABLE>
    1814:	cc000027 	stcgt	0, cr0, [r0], {39}	; 0x27
    1818:	ca00000b 	bgt	184c <__code_start__-0x67b4>
    181c:	0000000b 	andeq	r0, r0, fp
    1820:	00283526 	eoreq	r3, r8, r6, lsr #10
    1824:	0088f800 	addeq	pc, r8, r0, lsl #16
    1828:	f8000300 			; <UNDEFINED> instruction: 0xf8000300
    182c:	14000088 	strne	r0, [r0], #-136	; 0xffffff78
    1830:	01000000 	mrseq	r0, (UNDEF: 0)
    1834:	0d8a02a8 	sfmeq	f0, 4, [sl, #672]	; 0x2a0
    1838:	421c0000 	andsmi	r0, ip, #0, 0
    183c:	e1000028 	tst	r0, r8, lsr #32
    1840:	df00000b 	svcle	0x0000000b
    1844:	0000000b 	andeq	r0, r0, fp
    1848:	0027e71b 	eoreq	lr, r7, fp, lsl r7
    184c:	00890c00 	addeq	r0, r9, r0, lsl #24
    1850:	0c000200 	sfmeq	f0, 4, [r0], {-0}
    1854:	14000089 	strne	r0, [r0], #-137	; 0xffffff77
    1858:	01000000 	mrseq	r0, (UNDEF: 0)
    185c:	001c02a9 	andseq	r0, ip, r9, lsr #5
    1860:	f6000028 			; <UNDEFINED> instruction: 0xf6000028
    1864:	f400000b 	vst4.8	{d0-d3}, [r0], fp
    1868:	1c00000b 	stcne	0, cr0, [r0], {11}
    186c:	000027f4 	strdeq	r2, [r0], -r4
    1870:	00000c0d 	andeq	r0, r0, sp, lsl #24
    1874:	00000c0b 	andeq	r0, r0, fp, lsl #24
    1878:	00280c27 	eoreq	r0, r8, r7, lsr #24
    187c:	00891000 	addeq	r1, r9, r0
    1880:	00000400 	andeq	r0, r0, r0, lsl #8
    1884:	280d2400 	stmdacs	sp, {sl, sp}
    1888:	0c220000 	stceq	0, cr0, [r2], #-0
    188c:	0c200000 	stceq	0, cr0, [r0], #-0
    1890:	00000000 	andeq	r0, r0, r0
    1894:	19230000 	stmdbne	r3!, {}	; <UNPREDICTABLE>
    1898:	20000027 	andcs	r0, r0, r7, lsr #32
    189c:	02000089 	andeq	r0, r0, #137, 0	; 0x89
    18a0:	00011800 	andeq	r1, r1, r0, lsl #16
    18a4:	03dd0100 	bicseq	r0, sp, #0
    18a8:	0027261c 	eoreq	r2, r7, ip, lsl r6
    18ac:	000c3700 	andeq	r3, ip, r0, lsl #14
    18b0:	000c3500 	andeq	r3, ip, r0, lsl #10
    18b4:	27671b00 	strbcs	r1, [r7, -r0, lsl #22]!
    18b8:	89200000 	stmdbhi	r0!, {}	; <UNPREDICTABLE>
    18bc:	00040000 	andeq	r0, r4, r0
    18c0:	00008920 	andeq	r8, r0, r0, lsr #18
    18c4:	00000034 	andeq	r0, r0, r4, lsr r0
    18c8:	1c02c601 	stcne	6, cr12, [r2], {1}
    18cc:	00002780 	andeq	r2, r0, r0, lsl #15
    18d0:	00000c4c 	andeq	r0, r0, ip, asr #24
    18d4:	00000c4a 	andeq	r0, r0, sl, asr #24
    18d8:	0027741c 	eoreq	r7, r7, ip, lsl r4
    18dc:	000c6400 	andeq	r6, ip, r0, lsl #8
    18e0:	000c6200 	andeq	r6, ip, r0, lsl #4
    18e4:	278c2400 	strcs	r2, [ip, r0, lsl #8]
    18e8:	0c790000 	ldcleq	0, cr0, [r9], #-0
    18ec:	0c770000 	ldcleq	0, cr0, [r7], #-0
    18f0:	98250000 	stmdals	r5!, {}	; <UNPREDICTABLE>
    18f4:	20000027 	andcs	r0, r0, r7, lsr #32
    18f8:	04000089 	streq	r0, [r0], #-137	; 0xffffff77
    18fc:	53000000 	movwpl	r0, #0
    1900:	2400000e 	strcs	r0, [r0], #-14
    1904:	00002799 	muleq	r0, r9, r7
    1908:	00000c8e 	andeq	r0, r0, lr, lsl #25
    190c:	00000c8c 	andeq	r0, r0, ip, lsl #25
    1910:	281b2600 	ldmdacs	fp, {r9, sl, sp}
    1914:	89240000 	stmdbhi	r4!, {}	; <UNPREDICTABLE>
    1918:	00030000 	andeq	r0, r3, r0
    191c:	00008924 	andeq	r8, r0, r4, lsr #18
    1920:	00000014 	andeq	r0, r0, r4, lsl r0
    1924:	7b02b201 	blvc	ae130 <__bss_end__+0xa3b18>
    1928:	1c00000e 	stcne	0, cr0, [r0], {14}
    192c:	00002828 	andeq	r2, r0, r8, lsr #16
    1930:	00000ca3 	andeq	r0, r0, r3, lsr #25
    1934:	00000ca1 	andeq	r0, r0, r1, lsr #25
    1938:	27e71b00 	strbcs	r1, [r7, r0, lsl #22]!
    193c:	89380000 	ldmdbhi	r8!, {}	; <UNPREDICTABLE>
    1940:	00020000 	andeq	r0, r2, r0
    1944:	00008938 	andeq	r8, r0, r8, lsr r9
    1948:	0000001c 	andeq	r0, r0, ip, lsl r0
    194c:	1c02b301 	stcne	3, cr11, [r2], {1}
    1950:	00002800 	andeq	r2, r0, r0, lsl #16
    1954:	00000cb8 			; <UNDEFINED> instruction: 0x00000cb8
    1958:	00000cb6 			; <UNDEFINED> instruction: 0x00000cb6
    195c:	0027f41c 	eoreq	pc, r7, ip, lsl r4	; <UNPREDICTABLE>
    1960:	000cd000 	andeq	sp, ip, r0
    1964:	000cce00 	andeq	ip, ip, r0, lsl #28
    1968:	280c2700 	stmdacs	ip, {r8, r9, sl, sp}
    196c:	89400000 	stmdbhi	r0, {}^	; <UNPREDICTABLE>
    1970:	00040000 	andeq	r0, r4, r0
    1974:	0d240000 	stceq	0, cr0, [r4, #-0]
    1978:	e5000028 	str	r0, [r0, #-40]	; 0xffffffd8
    197c:	e300000c 	movw	r0, #12
    1980:	0000000c 	andeq	r0, r0, ip
    1984:	00000000 	andeq	r0, r0, r0
    1988:	0026c122 	eoreq	ip, r6, r2, lsr #2
    198c:	00865000 	addeq	r5, r6, r0
    1990:	30000200 	andcc	r0, r0, r0, lsl #4
    1994:	01000001 	tsteq	r0, r1
    1998:	12cb02ea 	sbcne	r0, fp, #-1610612722	; 0xa000000e
    199c:	da1c0000 	ble	7019a4 <__bss_end__+0x6f738c>
    19a0:	fc000026 	stc2	0, cr0, [r0], {38}	; 0x26
    19a4:	f800000c 			; <UNDEFINED> instruction: 0xf800000c
    19a8:	1c00000c 	stcne	0, cr0, [r0], {12}
    19ac:	000026ce 	andeq	r2, r0, lr, asr #13
    19b0:	00000d28 	andeq	r0, r0, r8, lsr #26
    19b4:	00000d24 	andeq	r0, r0, r4, lsr #26
    19b8:	00274d22 	eoreq	r4, r7, r2, lsr #26
    19bc:	00865800 	addeq	r5, r6, r0, lsl #16
    19c0:	68000100 	stmdavs	r0, {r8}
    19c4:	01000001 	tsteq	r0, r1
    19c8:	0fef03d9 	svceq	0x00ef03d9
    19cc:	5a1c0000 	bpl	7019d4 <__bss_end__+0x6f73bc>
    19d0:	48000027 	stmdami	r0, {r0, r1, r2, r5}
    19d4:	4600000d 	strmi	r0, [r0], -sp
    19d8:	1b00000d 	blne	1a14 <__code_start__-0x65ec>
    19dc:	000027a7 	andeq	r2, r0, r7, lsr #15
    19e0:	00008658 	andeq	r8, r0, r8, asr r6
    19e4:	86580003 	ldrbhi	r0, [r8], -r3
    19e8:	00280000 	eoreq	r0, r8, r0
    19ec:	b9010000 	stmdblt	r1, {}	; <UNPREDICTABLE>
    19f0:	27c01c02 	strbcs	r1, [r0, r2, lsl #24]
    19f4:	0d5d0000 	ldcleq	0, cr0, [sp, #-0]
    19f8:	0d5b0000 	ldcleq	0, cr0, [fp, #-0]
    19fc:	b41c0000 	ldrlt	r0, [ip], #-0
    1a00:	75000027 	strvc	r0, [r0, #-39]	; 0xffffffd9
    1a04:	7300000d 	movwvc	r0, #13
    1a08:	2400000d 	strcs	r0, [r0], #-13
    1a0c:	000027cc 	andeq	r2, r0, ip, asr #15
    1a10:	00000d8a 	andeq	r0, r0, sl, lsl #27
    1a14:	00000d88 	andeq	r0, r0, r8, lsl #27
    1a18:	0027d825 	eoreq	sp, r7, r5, lsr #16
    1a1c:	00865800 	addeq	r5, r6, r0, lsl #16
    1a20:	00000400 	andeq	r0, r0, r0, lsl #8
    1a24:	000f7900 	andeq	r7, pc, r0, lsl #18
    1a28:	27d92400 	ldrbcs	r2, [r9, r0, lsl #8]
    1a2c:	0d9f0000 	ldceq	0, cr0, [pc]	; 1a34 <__code_start__-0x65cc>
    1a30:	0d9d0000 	ldceq	0, cr0, [sp]
    1a34:	26000000 	strcs	r0, [r0], -r0
    1a38:	00002835 	andeq	r2, r0, r5, lsr r8
    1a3c:	0000865c 	andeq	r8, r0, ip, asr r6
    1a40:	865c0003 	ldrbhi	r0, [ip], -r3
    1a44:	00140000 	andseq	r0, r4, r0
    1a48:	a8010000 	stmdage	r1, {}	; <UNPREDICTABLE>
    1a4c:	000fa102 	andeq	sl, pc, r2, lsl #2
    1a50:	28421c00 	stmdacs	r2, {sl, fp, ip}^
    1a54:	0db40000 	ldceq	0, cr0, [r4]
    1a58:	0db20000 	ldceq	0, cr0, [r2]
    1a5c:	1b000000 	blne	1a64 <__code_start__-0x659c>
    1a60:	000027e7 	andeq	r2, r0, r7, ror #15
    1a64:	00008670 	andeq	r8, r0, r0, ror r6
    1a68:	86700002 	ldrbthi	r0, [r0], -r2
    1a6c:	00100000 	andseq	r0, r0, r0
    1a70:	a9010000 	stmdbge	r1, {}	; <UNPREDICTABLE>
    1a74:	28001c02 	stmdacs	r0, {r1, sl, fp, ip}
    1a78:	0dc90000 	stcleq	0, cr0, [r9]
    1a7c:	0dc70000 	stcleq	0, cr0, [r7]
    1a80:	f41c0000 			; <UNDEFINED> instruction: 0xf41c0000
    1a84:	e1000027 	tst	r0, r7, lsr #32
    1a88:	df00000d 	svcle	0x0000000d
    1a8c:	2700000d 	strcs	r0, [r0, -sp]
    1a90:	0000280c 	andeq	r2, r0, ip, lsl #16
    1a94:	00008670 	andeq	r8, r0, r0, ror r6
    1a98:	00000004 	andeq	r0, r0, r4
    1a9c:	00280d24 	eoreq	r0, r8, r4, lsr #26
    1aa0:	000df600 	andeq	pc, sp, r0, lsl #12
    1aa4:	000df400 	andeq	pc, sp, r0, lsl #8
    1aa8:	00000000 	andeq	r0, r0, r0
    1aac:	27192200 	ldrcs	r2, [r9, -r0, lsl #4]
    1ab0:	86800000 	strhi	r0, [r0], r0
    1ab4:	00020000 	andeq	r0, r2, r0
    1ab8:	00000180 	andeq	r0, r0, r0, lsl #3
    1abc:	e403da01 	str	sp, [r3], #-2561	; 0xfffff5ff
    1ac0:	1c000010 	stcne	0, cr0, [r0], {16}
    1ac4:	00002726 	andeq	r2, r0, r6, lsr #14
    1ac8:	00000e0b 	andeq	r0, r0, fp, lsl #28
    1acc:	00000e09 	andeq	r0, r0, r9, lsl #28
    1ad0:	0027671b 	eoreq	r6, r7, fp, lsl r7
    1ad4:	00868000 	addeq	r8, r6, r0
    1ad8:	80000400 	andhi	r0, r0, r0, lsl #8
    1adc:	30000086 	andcc	r0, r0, r6, lsl #1
    1ae0:	01000000 	mrseq	r0, (UNDEF: 0)
    1ae4:	801c02c6 	andshi	r0, ip, r6, asr #5
    1ae8:	20000027 	andcs	r0, r0, r7, lsr #32
    1aec:	1e00000e 	cdpne	0, 0, cr0, cr0, cr14, {0}
    1af0:	1c00000e 	stcne	0, cr0, [r0], {14}
    1af4:	00002774 	andeq	r2, r0, r4, ror r7
    1af8:	00000e38 	andeq	r0, r0, r8, lsr lr
    1afc:	00000e36 	andeq	r0, r0, r6, lsr lr
    1b00:	00278c24 	eoreq	r8, r7, r4, lsr #24
    1b04:	000e4d00 	andeq	r4, lr, r0, lsl #26
    1b08:	000e4b00 	andeq	r4, lr, r0, lsl #22
    1b0c:	27982500 	ldrcs	r2, [r8, r0, lsl #10]
    1b10:	86800000 	strhi	r0, [r0], r0
    1b14:	00040000 	andeq	r0, r4, r0
    1b18:	106e0000 	rsbne	r0, lr, r0
    1b1c:	99240000 	stmdbls	r4!, {}	; <UNPREDICTABLE>
    1b20:	62000027 	andvs	r0, r0, #39, 0	; 0x27
    1b24:	6000000e 	andvs	r0, r0, lr
    1b28:	0000000e 	andeq	r0, r0, lr
    1b2c:	00281b26 	eoreq	r1, r8, r6, lsr #22
    1b30:	00868400 	addeq	r8, r6, r0, lsl #8
    1b34:	84000300 	strhi	r0, [r0], #-768	; 0xfffffd00
    1b38:	14000086 	strne	r0, [r0], #-134	; 0xffffff7a
    1b3c:	01000000 	mrseq	r0, (UNDEF: 0)
    1b40:	109602b2 			; <UNDEFINED> instruction: 0x109602b2
    1b44:	281c0000 	ldmdacs	ip, {}	; <UNPREDICTABLE>
    1b48:	77000028 	strvc	r0, [r0, -r8, lsr #32]
    1b4c:	7500000e 	strvc	r0, [r0, #-14]
    1b50:	0000000e 	andeq	r0, r0, lr
    1b54:	0027e71b 	eoreq	lr, r7, fp, lsl r7
    1b58:	00869800 	addeq	r9, r6, r0, lsl #16
    1b5c:	98000200 	stmdals	r0, {r9}
    1b60:	18000086 	stmdane	r0, {r1, r2, r7}
    1b64:	01000000 	mrseq	r0, (UNDEF: 0)
    1b68:	001c02b3 			; <UNDEFINED> instruction: 0x001c02b3
    1b6c:	8c000028 	stchi	0, cr0, [r0], {40}	; 0x28
    1b70:	8a00000e 	bhi	1bb0 <__code_start__-0x6450>
    1b74:	1c00000e 	stcne	0, cr0, [r0], {14}
    1b78:	000027f4 	strdeq	r2, [r0], -r4
    1b7c:	00000ea4 	andeq	r0, r0, r4, lsr #29
    1b80:	00000ea2 	andeq	r0, r0, r2, lsr #29
    1b84:	00280c27 	eoreq	r0, r8, r7, lsr #24
    1b88:	0086a000 	addeq	sl, r6, r0
    1b8c:	00000400 	andeq	r0, r0, r0, lsl #8
    1b90:	280d2400 	stmdacs	sp, {sl, sp}
    1b94:	0eb90000 	cdpeq	0, 11, cr0, cr9, cr0, {0}
    1b98:	0eb70000 	cdpeq	0, 11, cr0, cr7, cr0, {0}
    1b9c:	00000000 	andeq	r0, r0, r0
    1ba0:	33220000 			; <UNDEFINED> instruction: 0x33220000
    1ba4:	54000027 	strpl	r0, [r0], #-39	; 0xffffffd9
    1ba8:	02000089 	andeq	r0, r0, #137, 0	; 0x89
    1bac:	00019800 	andeq	r9, r1, r0, lsl #16
    1bb0:	03dc0100 	bicseq	r0, ip, #0
    1bb4:	000011d9 	ldrdeq	r1, [r0], -r9
    1bb8:	0027401c 	eoreq	r4, r7, ip, lsl r0
    1bbc:	000ece00 	andeq	ip, lr, r0, lsl #28
    1bc0:	000ecc00 	andeq	ip, lr, r0, lsl #24
    1bc4:	27a71b00 	strcs	r1, [r7, r0, lsl #22]!
    1bc8:	89540000 	ldmdbhi	r4, {}^	; <UNPREDICTABLE>
    1bcc:	00040000 	andeq	r0, r4, r0
    1bd0:	00008954 	andeq	r8, r0, r4, asr r9
    1bd4:	0000002c 	andeq	r0, r0, ip, lsr #32
    1bd8:	1c02be01 	stcne	14, cr11, [r2], {1}
    1bdc:	000027c0 	andeq	r2, r0, r0, asr #15
    1be0:	00000ee3 	andeq	r0, r0, r3, ror #29
    1be4:	00000ee1 	andeq	r0, r0, r1, ror #29
    1be8:	0027b41c 	eoreq	fp, r7, ip, lsl r4
    1bec:	000efa00 	andeq	pc, lr, r0, lsl #20
    1bf0:	000ef800 	andeq	pc, lr, r0, lsl #16
    1bf4:	27cc2400 	strbcs	r2, [ip, r0, lsl #8]
    1bf8:	0f0f0000 	svceq	0x000f0000
    1bfc:	0f0d0000 	svceq	0x000d0000
    1c00:	d8250000 	stmdale	r5!, {}	; <UNPREDICTABLE>
    1c04:	54000027 	strpl	r0, [r0], #-39	; 0xffffffd9
    1c08:	04000089 	streq	r0, [r0], #-137	; 0xffffff77
    1c0c:	63000000 	movwvs	r0, #0
    1c10:	24000011 	strcs	r0, [r0], #-17	; 0xffffffef
    1c14:	000027d9 	ldrdeq	r2, [r0], -r9
    1c18:	00000f24 	andeq	r0, r0, r4, lsr #30
    1c1c:	00000f22 	andeq	r0, r0, r2, lsr #30
    1c20:	28352600 	ldmdacs	r5!, {r9, sl, sp}
    1c24:	89580000 	ldmdbhi	r8, {}^	; <UNPREDICTABLE>
    1c28:	00030000 	andeq	r0, r3, r0
    1c2c:	00008958 	andeq	r8, r0, r8, asr r9
    1c30:	00000014 	andeq	r0, r0, r4, lsl r0
    1c34:	8b02a801 	blhi	abc40 <__bss_end__+0xa1628>
    1c38:	1c000011 	stcne	0, cr0, [r0], {17}
    1c3c:	00002842 	andeq	r2, r0, r2, asr #16
    1c40:	00000f39 	andeq	r0, r0, r9, lsr pc
    1c44:	00000f37 	andeq	r0, r0, r7, lsr pc
    1c48:	27e71b00 	strbcs	r1, [r7, r0, lsl #22]!
    1c4c:	896c0000 	stmdbhi	ip!, {}^	; <UNPREDICTABLE>
    1c50:	00020000 	andeq	r0, r2, r0
    1c54:	0000896c 	andeq	r8, r0, ip, ror #18
    1c58:	00000014 	andeq	r0, r0, r4, lsl r0
    1c5c:	1c02a901 			; <UNDEFINED> instruction: 0x1c02a901
    1c60:	00002800 	andeq	r2, r0, r0, lsl #16
    1c64:	00000f4e 	andeq	r0, r0, lr, asr #30
    1c68:	00000f4c 	andeq	r0, r0, ip, asr #30
    1c6c:	0027f41c 	eoreq	pc, r7, ip, lsl r4	; <UNPREDICTABLE>
    1c70:	000f6500 	andeq	r6, pc, r0, lsl #10
    1c74:	000f6300 	andeq	r6, pc, r0, lsl #6
    1c78:	280c2700 	stmdacs	ip, {r8, r9, sl, sp}
    1c7c:	89700000 	ldmdbhi	r0!, {}^	; <UNPREDICTABLE>
    1c80:	00040000 	andeq	r0, r4, r0
    1c84:	0d240000 	stceq	0, cr0, [r4, #-0]
    1c88:	7a000028 	bvc	1d30 <__code_start__-0x62d0>
    1c8c:	7800000f 	stmdavc	r0, {r0, r1, r2, r3}
    1c90:	0000000f 	andeq	r0, r0, pc
    1c94:	23000000 	movwcs	r0, #0
    1c98:	00002719 	andeq	r2, r0, r9, lsl r7
    1c9c:	00008980 	andeq	r8, r0, r0, lsl #19
    1ca0:	01b00002 	movseq	r0, r2
    1ca4:	dd010000 	stcle	0, cr0, [r1, #-0]
    1ca8:	27261c03 	strcs	r1, [r6, -r3, lsl #24]!
    1cac:	0f8f0000 	svceq	0x008f0000
    1cb0:	0f8d0000 	svceq	0x008d0000
    1cb4:	671b0000 	ldrvs	r0, [fp, -r0]
    1cb8:	80000027 	andhi	r0, r0, r7, lsr #32
    1cbc:	04000089 	streq	r0, [r0], #-137	; 0xffffff77
    1cc0:	00898000 	addeq	r8, r9, r0
    1cc4:	00003400 	andeq	r3, r0, r0, lsl #8
    1cc8:	02c60100 	sbceq	r0, r6, #0
    1ccc:	0027801c 	eoreq	r8, r7, ip, lsl r0
    1cd0:	000fa400 	andeq	sl, pc, r0, lsl #8
    1cd4:	000fa200 	andeq	sl, pc, r0, lsl #4
    1cd8:	27741c00 	ldrbcs	r1, [r4, -r0, lsl #24]!
    1cdc:	0fbc0000 	svceq	0x00bc0000
    1ce0:	0fba0000 	svceq	0x00ba0000
    1ce4:	8c240000 	stchi	0, cr0, [r4], #-0
    1ce8:	d1000027 	tstle	r0, r7, lsr #32
    1cec:	cf00000f 	svcgt	0x0000000f
    1cf0:	2500000f 	strcs	r0, [r0, #-15]
    1cf4:	00002798 	muleq	r0, r8, r7
    1cf8:	00008980 	andeq	r8, r0, r0, lsl #19
    1cfc:	00000004 	andeq	r0, r0, r4
    1d00:	00001254 	andeq	r1, r0, r4, asr r2
    1d04:	00279924 	eoreq	r9, r7, r4, lsr #18
    1d08:	000fe600 	andeq	lr, pc, r0, lsl #12
    1d0c:	000fe400 	andeq	lr, pc, r0, lsl #8
    1d10:	1b260000 	blne	981d18 <__bss_end__+0x977700>
    1d14:	84000028 	strhi	r0, [r0], #-40	; 0xffffffd8
    1d18:	03000089 	movweq	r0, #137	; 0x89
    1d1c:	00898400 	addeq	r8, r9, r0, lsl #8
    1d20:	00001400 	andeq	r1, r0, r0, lsl #8
    1d24:	02b20100 	adcseq	r0, r2, #0
    1d28:	0000127c 	andeq	r1, r0, ip, ror r2
    1d2c:	0028281c 	eoreq	r2, r8, ip, lsl r8
    1d30:	000ffb00 	andeq	pc, pc, r0, lsl #22
    1d34:	000ff900 	andeq	pc, pc, r0, lsl #18
    1d38:	e71b0000 	ldr	r0, [fp, -r0]
    1d3c:	98000027 	stmdals	r0, {r0, r1, r2, r5}
    1d40:	02000089 	andeq	r0, r0, #137, 0	; 0x89
    1d44:	00899800 	addeq	r9, r9, r0, lsl #16
    1d48:	00001c00 	andeq	r1, r0, r0, lsl #24
    1d4c:	02b30100 	adcseq	r0, r3, #0
    1d50:	0028001c 	eoreq	r0, r8, ip, lsl r0
    1d54:	00101000 	andseq	r1, r0, r0
    1d58:	00100e00 	andseq	r0, r0, r0, lsl #28
    1d5c:	27f41c00 	ldrbcs	r1, [r4, r0, lsl #24]!
    1d60:	10280000 	eorne	r0, r8, r0
    1d64:	10260000 	eorne	r0, r6, r0
    1d68:	0c270000 	stceq	0, cr0, [r7], #-0
    1d6c:	a0000028 	andge	r0, r0, r8, lsr #32
    1d70:	04000089 	streq	r0, [r0], #-137	; 0xffffff77
    1d74:	24000000 	strcs	r0, [r0], #-0
    1d78:	0000280d 	andeq	r2, r0, sp, lsl #16
    1d7c:	0000103d 	andeq	r1, r0, sp, lsr r0
    1d80:	0000103b 	andeq	r1, r0, fp, lsr r0
    1d84:	00000000 	andeq	r0, r0, r0
    1d88:	26c12200 	strbcs	r2, [r1], r0, lsl #4
    1d8c:	86b00000 	ldrthi	r0, [r0], r0
    1d90:	00020000 	andeq	r0, r2, r0
    1d94:	000001c8 	andeq	r0, r0, r8, asr #3
    1d98:	cc02eb01 			; <UNDEFINED> instruction: 0xcc02eb01
    1d9c:	1c000016 	stcne	0, cr0, [r0], {22}
    1da0:	000026da 	ldrdeq	r2, [r0], -sl
    1da4:	00001054 	andeq	r1, r0, r4, asr r0
    1da8:	00001050 	andeq	r1, r0, r0, asr r0
    1dac:	0026ce1c 	eoreq	ip, r6, ip, lsl lr
    1db0:	00107e00 	andseq	r7, r0, r0, lsl #28
    1db4:	00107a00 	andseq	r7, r0, r0, lsl #20
    1db8:	274d2200 	strbcs	r2, [sp, -r0, lsl #4]
    1dbc:	86b80000 	ldrthi	r0, [r8], r0
    1dc0:	00010000 	andeq	r0, r1, r0
    1dc4:	00000200 	andeq	r0, r0, r0, lsl #4
    1dc8:	f003d901 			; <UNDEFINED> instruction: 0xf003d901
    1dcc:	1c000013 	stcne	0, cr0, [r0], {19}
    1dd0:	0000275a 	andeq	r2, r0, sl, asr r7
    1dd4:	0000109e 	muleq	r0, lr, r0
    1dd8:	0000109c 	muleq	r0, ip, r0
    1ddc:	0027a71b 	eoreq	sl, r7, fp, lsl r7
    1de0:	0086b800 	addeq	fp, r6, r0, lsl #16
    1de4:	b8000300 	stmdalt	r0, {r8, r9}
    1de8:	28000086 	stmdacs	r0, {r1, r2, r7}
    1dec:	01000000 	mrseq	r0, (UNDEF: 0)
    1df0:	c01c02b9 			; <UNDEFINED> instruction: 0xc01c02b9
    1df4:	b3000027 	movwlt	r0, #39	; 0x27
    1df8:	b1000010 	tstlt	r0, r0, lsl r0
    1dfc:	1c000010 	stcne	0, cr0, [r0], {16}
    1e00:	000027b4 			; <UNDEFINED> instruction: 0x000027b4
    1e04:	000010cb 	andeq	r1, r0, fp, asr #1
    1e08:	000010c9 	andeq	r1, r0, r9, asr #1
    1e0c:	0027cc24 	eoreq	ip, r7, r4, lsr #24
    1e10:	0010e000 	andseq	lr, r0, r0
    1e14:	0010de00 	andseq	sp, r0, r0, lsl #28
    1e18:	27d82500 	ldrbcs	r2, [r8, r0, lsl #10]
    1e1c:	86b80000 	ldrthi	r0, [r8], r0
    1e20:	00040000 	andeq	r0, r4, r0
    1e24:	137a0000 	cmnne	sl, #0, 0
    1e28:	d9240000 	stmdble	r4!, {}	; <UNPREDICTABLE>
    1e2c:	f5000027 			; <UNDEFINED> instruction: 0xf5000027
    1e30:	f3000010 	vqadd.u8	d0, d0, d0
    1e34:	00000010 	andeq	r0, r0, r0, lsl r0
    1e38:	00283526 	eoreq	r3, r8, r6, lsr #10
    1e3c:	0086bc00 	addeq	fp, r6, r0, lsl #24
    1e40:	bc000300 	stclt	3, cr0, [r0], {-0}
    1e44:	14000086 	strne	r0, [r0], #-134	; 0xffffff7a
    1e48:	01000000 	mrseq	r0, (UNDEF: 0)
    1e4c:	13a202a8 			; <UNDEFINED> instruction: 0x13a202a8
    1e50:	421c0000 	andsmi	r0, ip, #0, 0
    1e54:	0a000028 	beq	1efc <__code_start__-0x6104>
    1e58:	08000011 	stmdaeq	r0, {r0, r4}
    1e5c:	00000011 	andeq	r0, r0, r1, lsl r0
    1e60:	0027e71b 	eoreq	lr, r7, fp, lsl r7
    1e64:	0086d000 	addeq	sp, r6, r0
    1e68:	d0000200 	andle	r0, r0, r0, lsl #4
    1e6c:	10000086 	andne	r0, r0, r6, lsl #1
    1e70:	01000000 	mrseq	r0, (UNDEF: 0)
    1e74:	001c02a9 	andseq	r0, ip, r9, lsr #5
    1e78:	1f000028 	svcne	0x00000028
    1e7c:	1d000011 	stcne	0, cr0, [r0, #-68]	; 0xffffffbc
    1e80:	1c000011 	stcne	0, cr0, [r0], {17}
    1e84:	000027f4 	strdeq	r2, [r0], -r4
    1e88:	00001137 	andeq	r1, r0, r7, lsr r1
    1e8c:	00001135 	andeq	r1, r0, r5, lsr r1
    1e90:	00280c27 	eoreq	r0, r8, r7, lsr #24
    1e94:	0086d000 	addeq	sp, r6, r0
    1e98:	00000400 	andeq	r0, r0, r0, lsl #8
    1e9c:	280d2400 	stmdacs	sp, {sl, sp}
    1ea0:	114c0000 	mrsne	r0, (UNDEF: 76)
    1ea4:	114a0000 	mrsne	r0, (UNDEF: 74)
    1ea8:	00000000 	andeq	r0, r0, r0
    1eac:	19220000 	stmdbne	r2!, {}	; <UNPREDICTABLE>
    1eb0:	e0000027 	and	r0, r0, r7, lsr #32
    1eb4:	02000086 	andeq	r0, r0, #134, 0	; 0x86
    1eb8:	00021800 	andeq	r1, r2, r0, lsl #16
    1ebc:	03da0100 	bicseq	r0, sl, #0
    1ec0:	000014e5 	andeq	r1, r0, r5, ror #9
    1ec4:	0027261c 	eoreq	r2, r7, ip, lsl r6
    1ec8:	00116100 	andseq	r6, r1, r0, lsl #2
    1ecc:	00115f00 	andseq	r5, r1, r0, lsl #30
    1ed0:	27671b00 	strbcs	r1, [r7, -r0, lsl #22]!
    1ed4:	86e00000 	strbthi	r0, [r0], r0
    1ed8:	00040000 	andeq	r0, r4, r0
    1edc:	000086e0 	andeq	r8, r0, r0, ror #13
    1ee0:	00000030 	andeq	r0, r0, r0, lsr r0
    1ee4:	1c02c601 	stcne	6, cr12, [r2], {1}
    1ee8:	00002780 	andeq	r2, r0, r0, lsl #15
    1eec:	00001176 	andeq	r1, r0, r6, ror r1
    1ef0:	00001174 	andeq	r1, r0, r4, ror r1
    1ef4:	0027741c 	eoreq	r7, r7, ip, lsl r4
    1ef8:	00118e00 	andseq	r8, r1, r0, lsl #28
    1efc:	00118c00 	andseq	r8, r1, r0, lsl #24
    1f00:	278c2400 	strcs	r2, [ip, r0, lsl #8]
    1f04:	11a30000 			; <UNDEFINED> instruction: 0x11a30000
    1f08:	11a10000 			; <UNDEFINED> instruction: 0x11a10000
    1f0c:	98250000 	stmdals	r5!, {}	; <UNPREDICTABLE>
    1f10:	e0000027 	and	r0, r0, r7, lsr #32
    1f14:	04000086 	streq	r0, [r0], #-134	; 0xffffff7a
    1f18:	6f000000 	svcvs	0x00000000
    1f1c:	24000014 	strcs	r0, [r0], #-20	; 0xffffffec
    1f20:	00002799 	muleq	r0, r9, r7
    1f24:	000011b8 			; <UNDEFINED> instruction: 0x000011b8
    1f28:	000011b6 			; <UNDEFINED> instruction: 0x000011b6
    1f2c:	281b2600 	ldmdacs	fp, {r9, sl, sp}
    1f30:	86e40000 	strbthi	r0, [r4], r0
    1f34:	00030000 	andeq	r0, r3, r0
    1f38:	000086e4 	andeq	r8, r0, r4, ror #13
    1f3c:	00000014 	andeq	r0, r0, r4, lsl r0
    1f40:	9702b201 	strls	fp, [r2, -r1, lsl #4]
    1f44:	1c000014 	stcne	0, cr0, [r0], {20}
    1f48:	00002828 	andeq	r2, r0, r8, lsr #16
    1f4c:	000011cd 	andeq	r1, r0, sp, asr #3
    1f50:	000011cb 	andeq	r1, r0, fp, asr #3
    1f54:	27e71b00 	strbcs	r1, [r7, r0, lsl #22]!
    1f58:	86f80000 	ldrbthi	r0, [r8], r0
    1f5c:	00020000 	andeq	r0, r2, r0
    1f60:	000086f8 	strdeq	r8, [r0], -r8	; <UNPREDICTABLE>
    1f64:	00000018 	andeq	r0, r0, r8, lsl r0
    1f68:	1c02b301 	stcne	3, cr11, [r2], {1}
    1f6c:	00002800 	andeq	r2, r0, r0, lsl #16
    1f70:	000011e2 	andeq	r1, r0, r2, ror #3
    1f74:	000011e0 	andeq	r1, r0, r0, ror #3
    1f78:	0027f41c 	eoreq	pc, r7, ip, lsl r4	; <UNPREDICTABLE>
    1f7c:	0011fa00 	andseq	pc, r1, r0, lsl #20
    1f80:	0011f800 	andseq	pc, r1, r0, lsl #16
    1f84:	280c2700 	stmdacs	ip, {r8, r9, sl, sp}
    1f88:	87000000 	strhi	r0, [r0, -r0]
    1f8c:	00040000 	andeq	r0, r4, r0
    1f90:	0d240000 	stceq	0, cr0, [r4, #-0]
    1f94:	0f000028 	svceq	0x00000028
    1f98:	0d000012 	stceq	0, cr0, [r0, #-72]	; 0xffffffb8
    1f9c:	00000012 	andeq	r0, r0, r2, lsl r0
    1fa0:	22000000 	andcs	r0, r0, #0, 0
    1fa4:	00002733 	andeq	r2, r0, r3, lsr r7
    1fa8:	000089b4 			; <UNDEFINED> instruction: 0x000089b4
    1fac:	02300002 	eorseq	r0, r0, #2, 0
    1fb0:	dc010000 	stcle	0, cr0, [r1], {-0}
    1fb4:	0015da03 	andseq	sp, r5, r3, lsl #20
    1fb8:	27401c00 	strbcs	r1, [r0, -r0, lsl #24]
    1fbc:	12240000 	eorne	r0, r4, #0, 0
    1fc0:	12220000 	eorne	r0, r2, #0, 0
    1fc4:	a71b0000 	ldrge	r0, [fp, -r0]
    1fc8:	b4000027 	strlt	r0, [r0], #-39	; 0xffffffd9
    1fcc:	04000089 	streq	r0, [r0], #-137	; 0xffffff77
    1fd0:	0089b400 	addeq	fp, r9, r0, lsl #8
    1fd4:	00002c00 	andeq	r2, r0, r0, lsl #24
    1fd8:	02be0100 	adcseq	r0, lr, #0
    1fdc:	0027c01c 	eoreq	ip, r7, ip, lsl r0
    1fe0:	00123900 	andseq	r3, r2, r0, lsl #18
    1fe4:	00123700 	andseq	r3, r2, r0, lsl #14
    1fe8:	27b41c00 	ldrcs	r1, [r4, r0, lsl #24]!
    1fec:	12500000 	subsne	r0, r0, #0, 0
    1ff0:	124e0000 	subne	r0, lr, #0, 0
    1ff4:	cc240000 	stcgt	0, cr0, [r4], #-0
    1ff8:	65000027 	strvs	r0, [r0, #-39]	; 0xffffffd9
    1ffc:	63000012 	movwvs	r0, #18
    2000:	25000012 	strcs	r0, [r0, #-18]	; 0xffffffee
    2004:	000027d8 	ldrdeq	r2, [r0], -r8
    2008:	000089b4 			; <UNDEFINED> instruction: 0x000089b4
    200c:	00000004 	andeq	r0, r0, r4
    2010:	00001564 	andeq	r1, r0, r4, ror #10
    2014:	0027d924 	eoreq	sp, r7, r4, lsr #18
    2018:	00127a00 	andseq	r7, r2, r0, lsl #20
    201c:	00127800 	andseq	r7, r2, r0, lsl #16
    2020:	35260000 	strcc	r0, [r6, #-0]!
    2024:	b8000028 	stmdalt	r0, {r3, r5}
    2028:	03000089 	movweq	r0, #137	; 0x89
    202c:	0089b800 	addeq	fp, r9, r0, lsl #16
    2030:	00001400 	andeq	r1, r0, r0, lsl #8
    2034:	02a80100 	adceq	r0, r8, #0
    2038:	0000158c 	andeq	r1, r0, ip, lsl #11
    203c:	0028421c 	eoreq	r4, r8, ip, lsl r2
    2040:	00128f00 	andseq	r8, r2, r0, lsl #30
    2044:	00128d00 	andseq	r8, r2, r0, lsl #26
    2048:	e71b0000 	ldr	r0, [fp, -r0]
    204c:	cc000027 	stcgt	0, cr0, [r0], {39}	; 0x27
    2050:	02000089 	andeq	r0, r0, #137, 0	; 0x89
    2054:	0089cc00 	addeq	ip, r9, r0, lsl #24
    2058:	00001400 	andeq	r1, r0, r0, lsl #8
    205c:	02a90100 	adceq	r0, r9, #0
    2060:	0028001c 	eoreq	r0, r8, ip, lsl r0
    2064:	0012a400 	andseq	sl, r2, r0, lsl #8
    2068:	0012a200 	andseq	sl, r2, r0, lsl #4
    206c:	27f41c00 	ldrbcs	r1, [r4, r0, lsl #24]!
    2070:	12bb0000 	adcsne	r0, fp, #0, 0
    2074:	12b90000 	adcsne	r0, r9, #0, 0
    2078:	0c270000 	stceq	0, cr0, [r7], #-0
    207c:	d0000028 	andle	r0, r0, r8, lsr #32
    2080:	04000089 	streq	r0, [r0], #-137	; 0xffffff77
    2084:	24000000 	strcs	r0, [r0], #-0
    2088:	0000280d 	andeq	r2, r0, sp, lsl #16
    208c:	000012d0 	ldrdeq	r1, [r0], -r0
    2090:	000012ce 	andeq	r1, r0, lr, asr #5
    2094:	00000000 	andeq	r0, r0, r0
    2098:	00271923 	eoreq	r1, r7, r3, lsr #18
    209c:	0089e000 	addeq	lr, r9, r0
    20a0:	48000200 	stmdami	r0, {r9}
    20a4:	01000002 	tsteq	r0, r2
    20a8:	261c03dd 			; <UNDEFINED> instruction: 0x261c03dd
    20ac:	e5000027 	str	r0, [r0, #-39]	; 0xffffffd9
    20b0:	e3000012 	movw	r0, #18
    20b4:	1b000012 	blne	2104 <__code_start__-0x5efc>
    20b8:	00002767 	andeq	r2, r0, r7, ror #14
    20bc:	000089e0 	andeq	r8, r0, r0, ror #19
    20c0:	89e00004 	stmibhi	r0!, {r2}^
    20c4:	00340000 	eorseq	r0, r4, r0
    20c8:	c6010000 	strgt	r0, [r1], -r0
    20cc:	27801c02 	strcs	r1, [r0, r2, lsl #24]
    20d0:	12fa0000 	rscsne	r0, sl, #0, 0
    20d4:	12f80000 	rscsne	r0, r8, #0, 0
    20d8:	741c0000 	ldrvc	r0, [ip], #-0
    20dc:	12000027 	andne	r0, r0, #39, 0	; 0x27
    20e0:	10000013 	andne	r0, r0, r3, lsl r0
    20e4:	24000013 	strcs	r0, [r0], #-19	; 0xffffffed
    20e8:	0000278c 	andeq	r2, r0, ip, lsl #15
    20ec:	00001327 	andeq	r1, r0, r7, lsr #6
    20f0:	00001325 	andeq	r1, r0, r5, lsr #6
    20f4:	00279825 	eoreq	r9, r7, r5, lsr #16
    20f8:	0089e000 	addeq	lr, r9, r0
    20fc:	00000400 	andeq	r0, r0, r0, lsl #8
    2100:	00165500 	andseq	r5, r6, r0, lsl #10
    2104:	27992400 	ldrcs	r2, [r9, r0, lsl #8]
    2108:	133c0000 	teqne	ip, #0, 0
    210c:	133a0000 	teqne	sl, #0, 0
    2110:	26000000 	strcs	r0, [r0], -r0
    2114:	0000281b 	andeq	r2, r0, fp, lsl r8
    2118:	000089e4 	andeq	r8, r0, r4, ror #19
    211c:	89e40003 	stmibhi	r4!, {r0, r1}^
    2120:	00140000 	andseq	r0, r4, r0
    2124:	b2010000 	andlt	r0, r1, #0, 0
    2128:	00167d02 	andseq	r7, r6, r2, lsl #26
    212c:	28281c00 	stmdacs	r8!, {sl, fp, ip}
    2130:	13510000 	cmpne	r1, #0, 0
    2134:	134f0000 	movtne	r0, #61440	; 0xf000
    2138:	1b000000 	blne	2140 <__code_start__-0x5ec0>
    213c:	000027e7 	andeq	r2, r0, r7, ror #15
    2140:	000089f8 	strdeq	r8, [r0], -r8	; <UNPREDICTABLE>
    2144:	89f80002 	ldmibhi	r8!, {r1}^
    2148:	001c0000 	andseq	r0, ip, r0
    214c:	b3010000 	movwlt	r0, #4096	; 0x1000
    2150:	28001c02 	stmdacs	r0, {r1, sl, fp, ip}
    2154:	13660000 	cmnne	r6, #0, 0
    2158:	13640000 	cmnne	r4, #0, 0
    215c:	f41c0000 			; <UNDEFINED> instruction: 0xf41c0000
    2160:	7e000027 	cdpvc	0, 0, cr0, cr0, cr7, {1}
    2164:	7c000013 	stcvc	0, cr0, [r0], {19}
    2168:	27000013 	smladcs	r0, r3, r0, r0
    216c:	0000280c 	andeq	r2, r0, ip, lsl #16
    2170:	00008a00 	andeq	r8, r0, r0, lsl #20
    2174:	00000004 	andeq	r0, r0, r4
    2178:	00280d24 	eoreq	r0, r8, r4, lsr #26
    217c:	00139300 	andseq	r9, r3, r0, lsl #6
    2180:	00139100 	andseq	r9, r3, r0, lsl #2
    2184:	00000000 	andeq	r0, r0, r0
    2188:	c1220000 			; <UNDEFINED> instruction: 0xc1220000
    218c:	10000026 	andne	r0, r0, r6, lsr #32
    2190:	02000087 	andeq	r0, r0, #135, 0	; 0x87
    2194:	00026000 	andeq	r6, r2, r0
    2198:	02ec0100 	rsceq	r0, ip, #0
    219c:	00001acd 	andeq	r1, r0, sp, asr #21
    21a0:	0026da1c 	eoreq	sp, r6, ip, lsl sl
    21a4:	0013aa00 	andseq	sl, r3, r0, lsl #20
    21a8:	0013a600 	andseq	sl, r3, r0, lsl #12
    21ac:	26ce1c00 	strbcs	r1, [lr], r0, lsl #24
    21b0:	13d40000 	bicsne	r0, r4, #0, 0
    21b4:	13d00000 	bicsne	r0, r0, #0, 0
    21b8:	4d220000 	stcmi	0, cr0, [r2, #-0]
    21bc:	18000027 	stmdane	r0, {r0, r1, r2, r5}
    21c0:	01000087 	smlabbeq	r0, r7, r0, r0
    21c4:	00029800 	andeq	r9, r2, r0, lsl #16
    21c8:	03d90100 	bicseq	r0, r9, #0
    21cc:	000017f1 	strdeq	r1, [r0], -r1	; <UNPREDICTABLE>
    21d0:	00275a1c 	eoreq	r5, r7, ip, lsl sl
    21d4:	0013f400 	andseq	pc, r3, r0, lsl #8
    21d8:	0013f200 	andseq	pc, r3, r0, lsl #4
    21dc:	27a71b00 	strcs	r1, [r7, r0, lsl #22]!
    21e0:	87180000 	ldrhi	r0, [r8, -r0]
    21e4:	00030000 	andeq	r0, r3, r0
    21e8:	00008718 	andeq	r8, r0, r8, lsl r7
    21ec:	00000028 	andeq	r0, r0, r8, lsr #32
    21f0:	1c02b901 			; <UNDEFINED> instruction: 0x1c02b901
    21f4:	000027c0 	andeq	r2, r0, r0, asr #15
    21f8:	00001409 	andeq	r1, r0, r9, lsl #8
    21fc:	00001407 	andeq	r1, r0, r7, lsl #8
    2200:	0027b41c 	eoreq	fp, r7, ip, lsl r4
    2204:	00142100 	andseq	r2, r4, r0, lsl #2
    2208:	00141f00 	andseq	r1, r4, r0, lsl #30
    220c:	27cc2400 	strbcs	r2, [ip, r0, lsl #8]
    2210:	14360000 	ldrtne	r0, [r6], #-0
    2214:	14340000 	ldrtne	r0, [r4], #-0
    2218:	d8250000 	stmdale	r5!, {}	; <UNPREDICTABLE>
    221c:	18000027 	stmdane	r0, {r0, r1, r2, r5}
    2220:	04000087 	streq	r0, [r0], #-135	; 0xffffff79
    2224:	7b000000 	blvc	222c <__code_start__-0x5dd4>
    2228:	24000017 	strcs	r0, [r0], #-23	; 0xffffffe9
    222c:	000027d9 	ldrdeq	r2, [r0], -r9
    2230:	0000144b 	andeq	r1, r0, fp, asr #8
    2234:	00001449 	andeq	r1, r0, r9, asr #8
    2238:	28352600 	ldmdacs	r5!, {r9, sl, sp}
    223c:	871c0000 	ldrhi	r0, [ip, -r0]
    2240:	00030000 	andeq	r0, r3, r0
    2244:	0000871c 	andeq	r8, r0, ip, lsl r7
    2248:	00000014 	andeq	r0, r0, r4, lsl r0
    224c:	a302a801 	movwge	sl, #10241	; 0x2801
    2250:	1c000017 	stcne	0, cr0, [r0], {23}
    2254:	00002842 	andeq	r2, r0, r2, asr #16
    2258:	00001460 	andeq	r1, r0, r0, ror #8
    225c:	0000145e 	andeq	r1, r0, lr, asr r4
    2260:	27e71b00 	strbcs	r1, [r7, r0, lsl #22]!
    2264:	87300000 	ldrhi	r0, [r0, -r0]!
    2268:	00020000 	andeq	r0, r2, r0
    226c:	00008730 	andeq	r8, r0, r0, lsr r7
    2270:	00000010 	andeq	r0, r0, r0, lsl r0
    2274:	1c02a901 			; <UNDEFINED> instruction: 0x1c02a901
    2278:	00002800 	andeq	r2, r0, r0, lsl #16
    227c:	00001475 	andeq	r1, r0, r5, ror r4
    2280:	00001473 	andeq	r1, r0, r3, ror r4
    2284:	0027f41c 	eoreq	pc, r7, ip, lsl r4	; <UNPREDICTABLE>
    2288:	00148d00 	andseq	r8, r4, r0, lsl #26
    228c:	00148b00 	andseq	r8, r4, r0, lsl #22
    2290:	280c2700 	stmdacs	ip, {r8, r9, sl, sp}
    2294:	87300000 	ldrhi	r0, [r0, -r0]!
    2298:	00040000 	andeq	r0, r4, r0
    229c:	0d240000 	stceq	0, cr0, [r4, #-0]
    22a0:	a2000028 	andge	r0, r0, #40, 0	; 0x28
    22a4:	a0000014 	andge	r0, r0, r4, lsl r0
    22a8:	00000014 	andeq	r0, r0, r4, lsl r0
    22ac:	22000000 	andcs	r0, r0, #0, 0
    22b0:	00002719 	andeq	r2, r0, r9, lsl r7
    22b4:	00008740 	andeq	r8, r0, r0, asr #14
    22b8:	02b00002 	adcseq	r0, r0, #2, 0
    22bc:	da010000 	ble	422c4 <__bss_end__+0x37cac>
    22c0:	0018e603 	andseq	lr, r8, r3, lsl #12
    22c4:	27261c00 	strcs	r1, [r6, -r0, lsl #24]!
    22c8:	14b70000 	ldrtne	r0, [r7], #0
    22cc:	14b50000 	ldrtne	r0, [r5], #0
    22d0:	671b0000 	ldrvs	r0, [fp, -r0]
    22d4:	40000027 	andmi	r0, r0, r7, lsr #32
    22d8:	04000087 	streq	r0, [r0], #-135	; 0xffffff79
    22dc:	00874000 	addeq	r4, r7, r0
    22e0:	00003000 	andeq	r3, r0, r0
    22e4:	02c60100 	sbceq	r0, r6, #0
    22e8:	0027801c 	eoreq	r8, r7, ip, lsl r0
    22ec:	0014cc00 	andseq	ip, r4, r0, lsl #24
    22f0:	0014ca00 	andseq	ip, r4, r0, lsl #20
    22f4:	27741c00 	ldrbcs	r1, [r4, -r0, lsl #24]!
    22f8:	14e40000 	strbtne	r0, [r4], #0
    22fc:	14e20000 	strbtne	r0, [r2], #0
    2300:	8c240000 	stchi	0, cr0, [r4], #-0
    2304:	f9000027 			; <UNDEFINED> instruction: 0xf9000027
    2308:	f7000014 			; <UNDEFINED> instruction: 0xf7000014
    230c:	25000014 	strcs	r0, [r0, #-20]	; 0xffffffec
    2310:	00002798 	muleq	r0, r8, r7
    2314:	00008740 	andeq	r8, r0, r0, asr #14
    2318:	00000004 	andeq	r0, r0, r4
    231c:	00001870 	andeq	r1, r0, r0, ror r8
    2320:	00279924 	eoreq	r9, r7, r4, lsr #18
    2324:	00150e00 	andseq	r0, r5, r0, lsl #28
    2328:	00150c00 	andseq	r0, r5, r0, lsl #24
    232c:	1b260000 	blne	982334 <__bss_end__+0x977d1c>
    2330:	44000028 	strmi	r0, [r0], #-40	; 0xffffffd8
    2334:	03000087 	movweq	r0, #135	; 0x87
    2338:	00874400 	addeq	r4, r7, r0, lsl #8
    233c:	00001400 	andeq	r1, r0, r0, lsl #8
    2340:	02b20100 	adcseq	r0, r2, #0
    2344:	00001898 	muleq	r0, r8, r8
    2348:	0028281c 	eoreq	r2, r8, ip, lsl r8
    234c:	00152300 	andseq	r2, r5, r0, lsl #6
    2350:	00152100 	andseq	r2, r5, r0, lsl #2
    2354:	e71b0000 	ldr	r0, [fp, -r0]
    2358:	58000027 	stmdapl	r0, {r0, r1, r2, r5}
    235c:	02000087 	andeq	r0, r0, #135, 0	; 0x87
    2360:	00875800 	addeq	r5, r7, r0, lsl #16
    2364:	00001800 	andeq	r1, r0, r0, lsl #16
    2368:	02b30100 	adcseq	r0, r3, #0
    236c:	0028001c 	eoreq	r0, r8, ip, lsl r0
    2370:	00153800 	andseq	r3, r5, r0, lsl #16
    2374:	00153600 	andseq	r3, r5, r0, lsl #12
    2378:	27f41c00 	ldrbcs	r1, [r4, r0, lsl #24]!
    237c:	15500000 	ldrbne	r0, [r0, #-0]
    2380:	154e0000 	strbne	r0, [lr, #-0]
    2384:	0c270000 	stceq	0, cr0, [r7], #-0
    2388:	60000028 	andvs	r0, r0, r8, lsr #32
    238c:	04000087 	streq	r0, [r0], #-135	; 0xffffff79
    2390:	24000000 	strcs	r0, [r0], #-0
    2394:	0000280d 	andeq	r2, r0, sp, lsl #16
    2398:	00001565 	andeq	r1, r0, r5, ror #10
    239c:	00001563 	andeq	r1, r0, r3, ror #10
    23a0:	00000000 	andeq	r0, r0, r0
    23a4:	00273322 	eoreq	r3, r7, r2, lsr #6
    23a8:	008a1400 	addeq	r1, sl, r0, lsl #8
    23ac:	c8000200 	stmdagt	r0, {r9}
    23b0:	01000002 	tsteq	r0, r2
    23b4:	19db03dc 	ldmibne	fp, {r2, r3, r4, r6, r7, r8, r9}^
    23b8:	401c0000 	andsmi	r0, ip, r0
    23bc:	7a000027 	bvc	2460 <__code_start__-0x5ba0>
    23c0:	78000015 	stmdavc	r0, {r0, r2, r4}
    23c4:	1b000015 	blne	2420 <__code_start__-0x5be0>
    23c8:	000027a7 	andeq	r2, r0, r7, lsr #15
    23cc:	00008a14 	andeq	r8, r0, r4, lsl sl
    23d0:	8a140004 	bhi	5023e8 <__bss_end__+0x4f7dd0>
    23d4:	002c0000 	eoreq	r0, ip, r0
    23d8:	be010000 	cdplt	0, 0, cr0, cr1, cr0, {0}
    23dc:	27c01c02 	strbcs	r1, [r0, r2, lsl #24]
    23e0:	158f0000 	strne	r0, [pc]	; 23e8 <__code_start__-0x5c18>
    23e4:	158d0000 	strne	r0, [sp]
    23e8:	b41c0000 	ldrlt	r0, [ip], #-0
    23ec:	a6000027 	strge	r0, [r0], -r7, lsr #32
    23f0:	a4000015 	strge	r0, [r0], #-21	; 0xffffffeb
    23f4:	24000015 	strcs	r0, [r0], #-21	; 0xffffffeb
    23f8:	000027cc 	andeq	r2, r0, ip, asr #15
    23fc:	000015bb 			; <UNDEFINED> instruction: 0x000015bb
    2400:	000015b9 			; <UNDEFINED> instruction: 0x000015b9
    2404:	0027d825 	eoreq	sp, r7, r5, lsr #16
    2408:	008a1400 	addeq	r1, sl, r0, lsl #8
    240c:	00000400 	andeq	r0, r0, r0, lsl #8
    2410:	00196500 	andseq	r6, r9, r0, lsl #10
    2414:	27d92400 	ldrbcs	r2, [r9, r0, lsl #8]
    2418:	15d00000 	ldrbne	r0, [r0]
    241c:	15ce0000 	strbne	r0, [lr]
    2420:	26000000 	strcs	r0, [r0], -r0
    2424:	00002835 	andeq	r2, r0, r5, lsr r8
    2428:	00008a18 	andeq	r8, r0, r8, lsl sl
    242c:	8a180003 	bhi	602440 <__bss_end__+0x5f7e28>
    2430:	00140000 	andseq	r0, r4, r0
    2434:	a8010000 	stmdage	r1, {}	; <UNPREDICTABLE>
    2438:	00198d02 	andseq	r8, r9, r2, lsl #26
    243c:	28421c00 	stmdacs	r2, {sl, fp, ip}^
    2440:	15e50000 	strbne	r0, [r5, #0]!
    2444:	15e30000 	strbne	r0, [r3, #0]!
    2448:	1b000000 	blne	2450 <__code_start__-0x5bb0>
    244c:	000027e7 	andeq	r2, r0, r7, ror #15
    2450:	00008a2c 	andeq	r8, r0, ip, lsr #20
    2454:	8a2c0002 	bhi	b02464 <__bss_end__+0xaf7e4c>
    2458:	00140000 	andseq	r0, r4, r0
    245c:	a9010000 	stmdbge	r1, {}	; <UNPREDICTABLE>
    2460:	28001c02 	stmdacs	r0, {r1, sl, fp, ip}
    2464:	15fa0000 	ldrbne	r0, [sl, #0]!
    2468:	15f80000 	ldrbne	r0, [r8, #0]!
    246c:	f41c0000 			; <UNDEFINED> instruction: 0xf41c0000
    2470:	11000027 	tstne	r0, r7, lsr #32
    2474:	0f000016 	svceq	0x00000016
    2478:	27000016 	smladcs	r0, r6, r0, r0
    247c:	0000280c 	andeq	r2, r0, ip, lsl #16
    2480:	00008a30 	andeq	r8, r0, r0, lsr sl
    2484:	00000004 	andeq	r0, r0, r4
    2488:	00280d24 	eoreq	r0, r8, r4, lsr #26
    248c:	00162600 	andseq	r2, r6, r0, lsl #12
    2490:	00162400 	andseq	r2, r6, r0, lsl #8
    2494:	00000000 	andeq	r0, r0, r0
    2498:	27192300 	ldrcs	r2, [r9, -r0, lsl #6]
    249c:	8a400000 	bhi	10024a4 <__bss_end__+0xff7e8c>
    24a0:	00020000 	andeq	r0, r2, r0
    24a4:	000002e0 	andeq	r0, r0, r0, ror #5
    24a8:	1c03dd01 	stcne	13, cr13, [r3], {1}
    24ac:	00002726 	andeq	r2, r0, r6, lsr #14
    24b0:	0000163b 	andeq	r1, r0, fp, lsr r6
    24b4:	00001639 	andeq	r1, r0, r9, lsr r6
    24b8:	0027671b 	eoreq	r6, r7, fp, lsl r7
    24bc:	008a4000 	addeq	r4, sl, r0
    24c0:	40000400 	andmi	r0, r0, r0, lsl #8
    24c4:	3400008a 	strcc	r0, [r0], #-138	; 0xffffff76
    24c8:	01000000 	mrseq	r0, (UNDEF: 0)
    24cc:	801c02c6 	andshi	r0, ip, r6, asr #5
    24d0:	50000027 	andpl	r0, r0, r7, lsr #32
    24d4:	4e000016 	mcrmi	0, 0, r0, cr0, cr6, {0}
    24d8:	1c000016 	stcne	0, cr0, [r0], {22}
    24dc:	00002774 	andeq	r2, r0, r4, ror r7
    24e0:	00001668 	andeq	r1, r0, r8, ror #12
    24e4:	00001666 	andeq	r1, r0, r6, ror #12
    24e8:	00278c24 	eoreq	r8, r7, r4, lsr #24
    24ec:	00167d00 	andseq	r7, r6, r0, lsl #26
    24f0:	00167b00 	andseq	r7, r6, r0, lsl #22
    24f4:	27982500 	ldrcs	r2, [r8, r0, lsl #10]
    24f8:	8a400000 	bhi	1002500 <__bss_end__+0xff7ee8>
    24fc:	00040000 	andeq	r0, r4, r0
    2500:	1a560000 	bne	1582508 <__bss_end__+0x1577ef0>
    2504:	99240000 	stmdbls	r4!, {}	; <UNPREDICTABLE>
    2508:	92000027 	andls	r0, r0, #39, 0	; 0x27
    250c:	90000016 	andls	r0, r0, r6, lsl r0
    2510:	00000016 	andeq	r0, r0, r6, lsl r0
    2514:	00281b26 	eoreq	r1, r8, r6, lsr #22
    2518:	008a4400 	addeq	r4, sl, r0, lsl #8
    251c:	44000300 	strmi	r0, [r0], #-768	; 0xfffffd00
    2520:	1400008a 	strne	r0, [r0], #-138	; 0xffffff76
    2524:	01000000 	mrseq	r0, (UNDEF: 0)
    2528:	1a7e02b2 	bne	1f82ff8 <__bss_end__+0x1f789e0>
    252c:	281c0000 	ldmdacs	ip, {}	; <UNPREDICTABLE>
    2530:	a7000028 	strge	r0, [r0, -r8, lsr #32]
    2534:	a5000016 	strge	r0, [r0, #-22]	; 0xffffffea
    2538:	00000016 	andeq	r0, r0, r6, lsl r0
    253c:	0027e71b 	eoreq	lr, r7, fp, lsl r7
    2540:	008a5800 	addeq	r5, sl, r0, lsl #16
    2544:	58000200 	stmdapl	r0, {r9}
    2548:	1c00008a 	stcne	0, cr0, [r0], {138}	; 0x8a
    254c:	01000000 	mrseq	r0, (UNDEF: 0)
    2550:	001c02b3 			; <UNDEFINED> instruction: 0x001c02b3
    2554:	bc000028 	stclt	0, cr0, [r0], {40}	; 0x28
    2558:	ba000016 	blt	25b8 <__code_start__-0x5a48>
    255c:	1c000016 	stcne	0, cr0, [r0], {22}
    2560:	000027f4 	strdeq	r2, [r0], -r4
    2564:	000016d4 	ldrdeq	r1, [r0], -r4
    2568:	000016d2 	ldrdeq	r1, [r0], -r2
    256c:	00280c27 	eoreq	r0, r8, r7, lsr #24
    2570:	008a6000 	addeq	r6, sl, r0
    2574:	00000400 	andeq	r0, r0, r0, lsl #8
    2578:	280d2400 	stmdacs	sp, {sl, sp}
    257c:	16e90000 	strbtne	r0, [r9], r0
    2580:	16e70000 	strbtne	r0, [r7], r0
    2584:	00000000 	andeq	r0, r0, r0
    2588:	22000000 	andcs	r0, r0, #0, 0
    258c:	000026c1 	andeq	r2, r0, r1, asr #13
    2590:	00008770 	andeq	r8, r0, r0, ror r7
    2594:	02f80002 	rscseq	r0, r8, #2, 0
    2598:	ed010000 	stc	0, cr0, [r1, #-0]
    259c:	001ece02 	andseq	ip, lr, r2, lsl #28
    25a0:	26da1c00 	ldrbcs	r1, [sl], r0, lsl #24
    25a4:	17000000 	strne	r0, [r0, -r0]
    25a8:	16fc0000 	ldrbtne	r0, [ip], r0
    25ac:	ce1c0000 	cdpgt	0, 1, cr0, cr12, cr0, {0}
    25b0:	2a000026 	bcs	2650 <__code_start__-0x59b0>
    25b4:	26000017 			; <UNDEFINED> instruction: 0x26000017
    25b8:	22000017 	andcs	r0, r0, #23, 0
    25bc:	0000274d 	andeq	r2, r0, sp, asr #14
    25c0:	00008778 	andeq	r8, r0, r8, ror r7
    25c4:	03300001 	teqeq	r0, #1, 0
    25c8:	d9010000 	stmdble	r1, {}	; <UNPREDICTABLE>
    25cc:	001bf203 	andseq	pc, fp, r3, lsl #4
    25d0:	275a1c00 	ldrbcs	r1, [sl, -r0, lsl #24]
    25d4:	174a0000 	strbne	r0, [sl, -r0]
    25d8:	17480000 	strbne	r0, [r8, -r0]
    25dc:	a71b0000 	ldrge	r0, [fp, -r0]
    25e0:	78000027 	stmdavc	r0, {r0, r1, r2, r5}
    25e4:	03000087 	movweq	r0, #135	; 0x87
    25e8:	00877800 	addeq	r7, r7, r0, lsl #16
    25ec:	00002800 	andeq	r2, r0, r0, lsl #16
    25f0:	02b90100 	adcseq	r0, r9, #0
    25f4:	0027c01c 	eoreq	ip, r7, ip, lsl r0
    25f8:	00175f00 	andseq	r5, r7, r0, lsl #30
    25fc:	00175d00 	andseq	r5, r7, r0, lsl #26
    2600:	27b41c00 	ldrcs	r1, [r4, r0, lsl #24]!
    2604:	17770000 	ldrbne	r0, [r7, -r0]!
    2608:	17750000 	ldrbne	r0, [r5, -r0]!
    260c:	cc240000 	stcgt	0, cr0, [r4], #-0
    2610:	8c000027 	stchi	0, cr0, [r0], {39}	; 0x27
    2614:	8a000017 	bhi	2678 <__code_start__-0x5988>
    2618:	25000017 	strcs	r0, [r0, #-23]	; 0xffffffe9
    261c:	000027d8 	ldrdeq	r2, [r0], -r8
    2620:	00008778 	andeq	r8, r0, r8, ror r7
    2624:	00000004 	andeq	r0, r0, r4
    2628:	00001b7c 	andeq	r1, r0, ip, ror fp
    262c:	0027d924 	eoreq	sp, r7, r4, lsr #18
    2630:	0017a100 	andseq	sl, r7, r0, lsl #2
    2634:	00179f00 	andseq	r9, r7, r0, lsl #30
    2638:	35260000 	strcc	r0, [r6, #-0]!
    263c:	7c000028 	stcvc	0, cr0, [r0], {40}	; 0x28
    2640:	03000087 	movweq	r0, #135	; 0x87
    2644:	00877c00 	addeq	r7, r7, r0, lsl #24
    2648:	00001400 	andeq	r1, r0, r0, lsl #8
    264c:	02a80100 	adceq	r0, r8, #0
    2650:	00001ba4 	andeq	r1, r0, r4, lsr #23
    2654:	0028421c 	eoreq	r4, r8, ip, lsl r2
    2658:	0017b600 	andseq	fp, r7, r0, lsl #12
    265c:	0017b400 	andseq	fp, r7, r0, lsl #8
    2660:	e71b0000 	ldr	r0, [fp, -r0]
    2664:	90000027 	andls	r0, r0, r7, lsr #32
    2668:	02000087 	andeq	r0, r0, #135, 0	; 0x87
    266c:	00879000 	addeq	r9, r7, r0
    2670:	00001000 	andeq	r1, r0, r0
    2674:	02a90100 	adceq	r0, r9, #0
    2678:	0028001c 	eoreq	r0, r8, ip, lsl r0
    267c:	0017cb00 	andseq	ip, r7, r0, lsl #22
    2680:	0017c900 	andseq	ip, r7, r0, lsl #18
    2684:	27f41c00 	ldrbcs	r1, [r4, r0, lsl #24]!
    2688:	17e30000 	strbne	r0, [r3, r0]!
    268c:	17e10000 	strbne	r0, [r1, r0]!
    2690:	0c270000 	stceq	0, cr0, [r7], #-0
    2694:	90000028 	andls	r0, r0, r8, lsr #32
    2698:	04000087 	streq	r0, [r0], #-135	; 0xffffff79
    269c:	24000000 	strcs	r0, [r0], #-0
    26a0:	0000280d 	andeq	r2, r0, sp, lsl #16
    26a4:	000017f8 	strdeq	r1, [r0], -r8
    26a8:	000017f6 	strdeq	r1, [r0], -r6
    26ac:	00000000 	andeq	r0, r0, r0
    26b0:	00271922 	eoreq	r1, r7, r2, lsr #18
    26b4:	0087a000 	addeq	sl, r7, r0
    26b8:	48000200 	stmdami	r0, {r9}
    26bc:	01000003 	tsteq	r0, r3
    26c0:	1ce703da 	stclne	3, cr0, [r7], #872	; 0x368
    26c4:	261c0000 	ldrcs	r0, [ip], -r0
    26c8:	0d000027 	stceq	0, cr0, [r0, #-156]	; 0xffffff64
    26cc:	0b000018 	bleq	2734 <__code_start__-0x58cc>
    26d0:	1b000018 	blne	2738 <__code_start__-0x58c8>
    26d4:	00002767 	andeq	r2, r0, r7, ror #14
    26d8:	000087a0 	andeq	r8, r0, r0, lsr #15
    26dc:	87a00004 	strhi	r0, [r0, r4]!
    26e0:	00300000 	eorseq	r0, r0, r0
    26e4:	c6010000 	strgt	r0, [r1], -r0
    26e8:	27801c02 	strcs	r1, [r0, r2, lsl #24]
    26ec:	18220000 	stmdane	r2!, {}	; <UNPREDICTABLE>
    26f0:	18200000 	stmdane	r0!, {}	; <UNPREDICTABLE>
    26f4:	741c0000 	ldrvc	r0, [ip], #-0
    26f8:	3a000027 	bcc	279c <__code_start__-0x5864>
    26fc:	38000018 	stmdacc	r0, {r3, r4}
    2700:	24000018 	strcs	r0, [r0], #-24	; 0xffffffe8
    2704:	0000278c 	andeq	r2, r0, ip, lsl #15
    2708:	0000184f 	andeq	r1, r0, pc, asr #16
    270c:	0000184d 	andeq	r1, r0, sp, asr #16
    2710:	00279825 	eoreq	r9, r7, r5, lsr #16
    2714:	0087a000 	addeq	sl, r7, r0
    2718:	00000400 	andeq	r0, r0, r0, lsl #8
    271c:	001c7100 	andseq	r7, ip, r0, lsl #2
    2720:	27992400 	ldrcs	r2, [r9, r0, lsl #8]
    2724:	18640000 	stmdane	r4!, {}^	; <UNPREDICTABLE>
    2728:	18620000 	stmdane	r2!, {}^	; <UNPREDICTABLE>
    272c:	26000000 	strcs	r0, [r0], -r0
    2730:	0000281b 	andeq	r2, r0, fp, lsl r8
    2734:	000087a4 	andeq	r8, r0, r4, lsr #15
    2738:	87a40003 	strhi	r0, [r4, r3]!
    273c:	00140000 	andseq	r0, r4, r0
    2740:	b2010000 	andlt	r0, r1, #0, 0
    2744:	001c9902 	andseq	r9, ip, r2, lsl #18
    2748:	28281c00 	stmdacs	r8!, {sl, fp, ip}
    274c:	18790000 	ldmdane	r9!, {}^	; <UNPREDICTABLE>
    2750:	18770000 	ldmdane	r7!, {}^	; <UNPREDICTABLE>
    2754:	1b000000 	blne	275c <__code_start__-0x58a4>
    2758:	000027e7 	andeq	r2, r0, r7, ror #15
    275c:	000087b8 			; <UNDEFINED> instruction: 0x000087b8
    2760:	87b80002 	ldrhi	r0, [r8, r2]!
    2764:	00180000 	andseq	r0, r8, r0
    2768:	b3010000 	movwlt	r0, #4096	; 0x1000
    276c:	28001c02 	stmdacs	r0, {r1, sl, fp, ip}
    2770:	188e0000 	stmne	lr, {}	; <UNPREDICTABLE>
    2774:	188c0000 	stmne	ip, {}	; <UNPREDICTABLE>
    2778:	f41c0000 			; <UNDEFINED> instruction: 0xf41c0000
    277c:	a6000027 	strge	r0, [r0], -r7, lsr #32
    2780:	a4000018 	strge	r0, [r0], #-24	; 0xffffffe8
    2784:	27000018 	smladcs	r0, r8, r0, r0
    2788:	0000280c 	andeq	r2, r0, ip, lsl #16
    278c:	000087c0 	andeq	r8, r0, r0, asr #15
    2790:	00000004 	andeq	r0, r0, r4
    2794:	00280d24 	eoreq	r0, r8, r4, lsr #26
    2798:	0018bb00 	andseq	fp, r8, r0, lsl #22
    279c:	0018b900 	andseq	fp, r8, r0, lsl #18
    27a0:	00000000 	andeq	r0, r0, r0
    27a4:	27332200 	ldrcs	r2, [r3, -r0, lsl #4]!
    27a8:	8a740000 	bhi	1d027b0 <__bss_end__+0x1cf8198>
    27ac:	00020000 	andeq	r0, r2, r0
    27b0:	00000360 	andeq	r0, r0, r0, ror #6
    27b4:	dc03dc01 	stcle	12, cr13, [r3], {1}
    27b8:	1c00001d 	stcne	0, cr0, [r0], {29}
    27bc:	00002740 	andeq	r2, r0, r0, asr #14
    27c0:	000018d0 	ldrdeq	r1, [r0], -r0
    27c4:	000018ce 	andeq	r1, r0, lr, asr #17
    27c8:	0027a71b 	eoreq	sl, r7, fp, lsl r7
    27cc:	008a7400 	addeq	r7, sl, r0, lsl #8
    27d0:	74000400 	strvc	r0, [r0], #-1024	; 0xfffffc00
    27d4:	2c00008a 	stccs	0, cr0, [r0], {138}	; 0x8a
    27d8:	01000000 	mrseq	r0, (UNDEF: 0)
    27dc:	c01c02be 			; <UNDEFINED> instruction: 0xc01c02be
    27e0:	e5000027 	str	r0, [r0, #-39]	; 0xffffffd9
    27e4:	e3000018 	movw	r0, #24
    27e8:	1c000018 	stcne	0, cr0, [r0], {24}
    27ec:	000027b4 			; <UNDEFINED> instruction: 0x000027b4
    27f0:	000018fc 	strdeq	r1, [r0], -ip
    27f4:	000018fa 	strdeq	r1, [r0], -sl
    27f8:	0027cc24 	eoreq	ip, r7, r4, lsr #24
    27fc:	00191100 	andseq	r1, r9, r0, lsl #2
    2800:	00190f00 	andseq	r0, r9, r0, lsl #30
    2804:	27d82500 	ldrbcs	r2, [r8, r0, lsl #10]
    2808:	8a740000 	bhi	1d02810 <__bss_end__+0x1cf81f8>
    280c:	00040000 	andeq	r0, r4, r0
    2810:	1d660000 	stclne	0, cr0, [r6, #-0]
    2814:	d9240000 	stmdble	r4!, {}	; <UNPREDICTABLE>
    2818:	26000027 	strcs	r0, [r0], -r7, lsr #32
    281c:	24000019 	strcs	r0, [r0], #-25	; 0xffffffe7
    2820:	00000019 	andeq	r0, r0, r9, lsl r0
    2824:	00283526 	eoreq	r3, r8, r6, lsr #10
    2828:	008a7800 	addeq	r7, sl, r0, lsl #16
    282c:	78000300 	stmdavc	r0, {r8, r9}
    2830:	1400008a 	strne	r0, [r0], #-138	; 0xffffff76
    2834:	01000000 	mrseq	r0, (UNDEF: 0)
    2838:	1d8e02a8 	sfmne	f0, 4, [lr, #672]	; 0x2a0
    283c:	421c0000 	andsmi	r0, ip, #0, 0
    2840:	3b000028 	blcc	28e8 <__code_start__-0x5718>
    2844:	39000019 	stmdbcc	r0, {r0, r3, r4}
    2848:	00000019 	andeq	r0, r0, r9, lsl r0
    284c:	0027e71b 	eoreq	lr, r7, fp, lsl r7
    2850:	008a8c00 	addeq	r8, sl, r0, lsl #24
    2854:	8c000200 	sfmhi	f0, 4, [r0], {-0}
    2858:	1400008a 	strne	r0, [r0], #-138	; 0xffffff76
    285c:	01000000 	mrseq	r0, (UNDEF: 0)
    2860:	001c02a9 	andseq	r0, ip, r9, lsr #5
    2864:	50000028 	andpl	r0, r0, r8, lsr #32
    2868:	4e000019 	mcrmi	0, 0, r0, cr0, cr9, {0}
    286c:	1c000019 	stcne	0, cr0, [r0], {25}
    2870:	000027f4 	strdeq	r2, [r0], -r4
    2874:	00001967 	andeq	r1, r0, r7, ror #18
    2878:	00001965 	andeq	r1, r0, r5, ror #18
    287c:	00280c27 	eoreq	r0, r8, r7, lsr #24
    2880:	008a9000 	addeq	r9, sl, r0
    2884:	00000400 	andeq	r0, r0, r0, lsl #8
    2888:	280d2400 	stmdacs	sp, {sl, sp}
    288c:	197c0000 	ldmdbne	ip!, {}^	; <UNPREDICTABLE>
    2890:	197a0000 	ldmdbne	sl!, {}^	; <UNPREDICTABLE>
    2894:	00000000 	andeq	r0, r0, r0
    2898:	19230000 	stmdbne	r3!, {}	; <UNPREDICTABLE>
    289c:	a0000027 	andge	r0, r0, r7, lsr #32
    28a0:	0200008a 	andeq	r0, r0, #138, 0	; 0x8a
    28a4:	00037800 	andeq	r7, r3, r0, lsl #16
    28a8:	03dd0100 	bicseq	r0, sp, #0
    28ac:	0027261c 	eoreq	r2, r7, ip, lsl r6
    28b0:	00199100 	andseq	r9, r9, r0, lsl #2
    28b4:	00198f00 	andseq	r8, r9, r0, lsl #30
    28b8:	27671b00 	strbcs	r1, [r7, -r0, lsl #22]!
    28bc:	8aa00000 	bhi	fe8028c4 <__bss_end__+0xfe7f82ac>
    28c0:	00040000 	andeq	r0, r4, r0
    28c4:	00008aa0 	andeq	r8, r0, r0, lsr #21
    28c8:	00000034 	andeq	r0, r0, r4, lsr r0
    28cc:	1c02c601 	stcne	6, cr12, [r2], {1}
    28d0:	00002780 	andeq	r2, r0, r0, lsl #15
    28d4:	000019a6 	andeq	r1, r0, r6, lsr #19
    28d8:	000019a4 	andeq	r1, r0, r4, lsr #19
    28dc:	0027741c 	eoreq	r7, r7, ip, lsl r4
    28e0:	0019be00 	andseq	fp, r9, r0, lsl #28
    28e4:	0019bc00 	andseq	fp, r9, r0, lsl #24
    28e8:	278c2400 	strcs	r2, [ip, r0, lsl #8]
    28ec:	19d30000 	ldmibne	r3, {}^	; <UNPREDICTABLE>
    28f0:	19d10000 	ldmibne	r1, {}^	; <UNPREDICTABLE>
    28f4:	98250000 	stmdals	r5!, {}	; <UNPREDICTABLE>
    28f8:	a0000027 	andge	r0, r0, r7, lsr #32
    28fc:	0400008a 	streq	r0, [r0], #-138	; 0xffffff76
    2900:	57000000 	strpl	r0, [r0, -r0]
    2904:	2400001e 	strcs	r0, [r0], #-30	; 0xffffffe2
    2908:	00002799 	muleq	r0, r9, r7
    290c:	000019e8 	andeq	r1, r0, r8, ror #19
    2910:	000019e6 	andeq	r1, r0, r6, ror #19
    2914:	281b2600 	ldmdacs	fp, {r9, sl, sp}
    2918:	8aa40000 	bhi	fe902920 <__bss_end__+0xfe8f8308>
    291c:	00030000 	andeq	r0, r3, r0
    2920:	00008aa4 	andeq	r8, r0, r4, lsr #21
    2924:	00000014 	andeq	r0, r0, r4, lsl r0
    2928:	7f02b201 	svcvc	0x0002b201
    292c:	1c00001e 	stcne	0, cr0, [r0], {30}
    2930:	00002828 	andeq	r2, r0, r8, lsr #16
    2934:	000019fd 	strdeq	r1, [r0], -sp
    2938:	000019fb 	strdeq	r1, [r0], -fp
    293c:	27e71b00 	strbcs	r1, [r7, r0, lsl #22]!
    2940:	8ab80000 	bhi	fee02948 <__bss_end__+0xfedf8330>
    2944:	00020000 	andeq	r0, r2, r0
    2948:	00008ab8 			; <UNDEFINED> instruction: 0x00008ab8
    294c:	0000001c 	andeq	r0, r0, ip, lsl r0
    2950:	1c02b301 	stcne	3, cr11, [r2], {1}
    2954:	00002800 	andeq	r2, r0, r0, lsl #16
    2958:	00001a12 	andeq	r1, r0, r2, lsl sl
    295c:	00001a10 	andeq	r1, r0, r0, lsl sl
    2960:	0027f41c 	eoreq	pc, r7, ip, lsl r4	; <UNPREDICTABLE>
    2964:	001a2a00 	andseq	r2, sl, r0, lsl #20
    2968:	001a2800 	andseq	r2, sl, r0, lsl #16
    296c:	280c2700 	stmdacs	ip, {r8, r9, sl, sp}
    2970:	8ac00000 	bhi	ff002978 <__bss_end__+0xfeff8360>
    2974:	00040000 	andeq	r0, r4, r0
    2978:	0d240000 	stceq	0, cr0, [r4, #-0]
    297c:	3f000028 	svccc	0x00000028
    2980:	3d00001a 	stccc	0, cr0, [r0, #-104]	; 0xffffff98
    2984:	0000001a 	andeq	r0, r0, sl, lsl r0
    2988:	00000000 	andeq	r0, r0, r0
    298c:	0026c122 	eoreq	ip, r6, r2, lsr #2
    2990:	0087d000 	addeq	sp, r7, r0
    2994:	90000200 	andls	r0, r0, r0, lsl #4
    2998:	01000003 	tsteq	r0, r3
    299c:	22cf02ee 	sbccs	r0, pc, #-536870898	; 0xe000000e
    29a0:	da1c0000 	ble	7029a8 <__bss_end__+0x6f8390>
    29a4:	56000026 	strpl	r0, [r0], -r6, lsr #32
    29a8:	5200001a 	andpl	r0, r0, #26, 0
    29ac:	1c00001a 	stcne	0, cr0, [r0], {26}
    29b0:	000026ce 	andeq	r2, r0, lr, asr #13
    29b4:	00001a80 	andeq	r1, r0, r0, lsl #21
    29b8:	00001a7c 	andeq	r1, r0, ip, ror sl
    29bc:	00274d22 	eoreq	r4, r7, r2, lsr #26
    29c0:	0087d800 	addeq	sp, r7, r0, lsl #16
    29c4:	c8000100 	stmdagt	r0, {r8}
    29c8:	01000003 	tsteq	r0, r3
    29cc:	1ff303d9 	svcne	0x00f303d9
    29d0:	5a1c0000 	bpl	7029d8 <__bss_end__+0x6f83c0>
    29d4:	a0000027 	andge	r0, r0, r7, lsr #32
    29d8:	9e00001a 	mcrls	0, 0, r0, cr0, cr10, {0}
    29dc:	1b00001a 	blne	2a4c <__code_start__-0x55b4>
    29e0:	000027a7 	andeq	r2, r0, r7, lsr #15
    29e4:	000087d8 	ldrdeq	r8, [r0], -r8	; <UNPREDICTABLE>
    29e8:	87d80003 	ldrbhi	r0, [r8, r3]
    29ec:	00280000 	eoreq	r0, r8, r0
    29f0:	b9010000 	stmdblt	r1, {}	; <UNPREDICTABLE>
    29f4:	27c01c02 	strbcs	r1, [r0, r2, lsl #24]
    29f8:	1ab50000 	bne	fed42a00 <__bss_end__+0xfed383e8>
    29fc:	1ab30000 	bne	fecc2a04 <__bss_end__+0xfecb83ec>
    2a00:	b41c0000 	ldrlt	r0, [ip], #-0
    2a04:	cd000027 	stcgt	0, cr0, [r0, #-156]	; 0xffffff64
    2a08:	cb00001a 	blgt	2a78 <__code_start__-0x5588>
    2a0c:	2400001a 	strcs	r0, [r0], #-26	; 0xffffffe6
    2a10:	000027cc 	andeq	r2, r0, ip, asr #15
    2a14:	00001ae2 	andeq	r1, r0, r2, ror #21
    2a18:	00001ae0 	andeq	r1, r0, r0, ror #21
    2a1c:	0027d825 	eoreq	sp, r7, r5, lsr #16
    2a20:	0087d800 	addeq	sp, r7, r0, lsl #16
    2a24:	00000400 	andeq	r0, r0, r0, lsl #8
    2a28:	001f7d00 	andseq	r7, pc, r0, lsl #26
    2a2c:	27d92400 	ldrbcs	r2, [r9, r0, lsl #8]
    2a30:	1af70000 	bne	ffdc2a38 <__bss_end__+0xffdb8420>
    2a34:	1af50000 	bne	ffd42a3c <__bss_end__+0xffd38424>
    2a38:	26000000 	strcs	r0, [r0], -r0
    2a3c:	00002835 	andeq	r2, r0, r5, lsr r8
    2a40:	000087dc 	ldrdeq	r8, [r0], -ip
    2a44:	87dc0003 	ldrbhi	r0, [ip, r3]
    2a48:	00140000 	andseq	r0, r4, r0
    2a4c:	a8010000 	stmdage	r1, {}	; <UNPREDICTABLE>
    2a50:	001fa502 	andseq	sl, pc, r2, lsl #10
    2a54:	28421c00 	stmdacs	r2, {sl, fp, ip}^
    2a58:	1b0c0000 	blne	302a60 <__bss_end__+0x2f8448>
    2a5c:	1b0a0000 	blne	282a64 <__bss_end__+0x27844c>
    2a60:	1b000000 	blne	2a68 <__code_start__-0x5598>
    2a64:	000027e7 	andeq	r2, r0, r7, ror #15
    2a68:	000087f0 	strdeq	r8, [r0], -r0
    2a6c:	87f00002 	ldrbhi	r0, [r0, r2]!
    2a70:	00100000 	andseq	r0, r0, r0
    2a74:	a9010000 	stmdbge	r1, {}	; <UNPREDICTABLE>
    2a78:	28001c02 	stmdacs	r0, {r1, sl, fp, ip}
    2a7c:	1b210000 	blne	842a84 <__bss_end__+0x83846c>
    2a80:	1b1f0000 	blne	7c2a88 <__bss_end__+0x7b8470>
    2a84:	f41c0000 			; <UNDEFINED> instruction: 0xf41c0000
    2a88:	39000027 	stmdbcc	r0, {r0, r1, r2, r5}
    2a8c:	3700001b 	smladcc	r0, fp, r0, r0
    2a90:	2700001b 	smladcs	r0, fp, r0, r0
    2a94:	0000280c 	andeq	r2, r0, ip, lsl #16
    2a98:	000087f0 	strdeq	r8, [r0], -r0
    2a9c:	00000004 	andeq	r0, r0, r4
    2aa0:	00280d24 	eoreq	r0, r8, r4, lsr #26
    2aa4:	001b4e00 	andseq	r4, fp, r0, lsl #28
    2aa8:	001b4c00 	andseq	r4, fp, r0, lsl #24
    2aac:	00000000 	andeq	r0, r0, r0
    2ab0:	27192200 	ldrcs	r2, [r9, -r0, lsl #4]
    2ab4:	88000000 	stmdahi	r0, {}	; <UNPREDICTABLE>
    2ab8:	00020000 	andeq	r0, r2, r0
    2abc:	000003e0 	andeq	r0, r0, r0, ror #7
    2ac0:	e803da01 	stmda	r3, {r0, r9, fp, ip, lr, pc}
    2ac4:	1c000020 	stcne	0, cr0, [r0], {32}
    2ac8:	00002726 	andeq	r2, r0, r6, lsr #14
    2acc:	00001b63 	andeq	r1, r0, r3, ror #22
    2ad0:	00001b61 	andeq	r1, r0, r1, ror #22
    2ad4:	0027671b 	eoreq	r6, r7, fp, lsl r7
    2ad8:	00880000 	addeq	r0, r8, r0
    2adc:	00000400 	andeq	r0, r0, r0, lsl #8
    2ae0:	30000088 	andcc	r0, r0, r8, lsl #1
    2ae4:	01000000 	mrseq	r0, (UNDEF: 0)
    2ae8:	801c02c6 	andshi	r0, ip, r6, asr #5
    2aec:	78000027 	stmdavc	r0, {r0, r1, r2, r5}
    2af0:	7600001b 			; <UNDEFINED> instruction: 0x7600001b
    2af4:	1c00001b 	stcne	0, cr0, [r0], {27}
    2af8:	00002774 	andeq	r2, r0, r4, ror r7
    2afc:	00001b90 	muleq	r0, r0, fp
    2b00:	00001b8e 	andeq	r1, r0, lr, lsl #23
    2b04:	00278c24 	eoreq	r8, r7, r4, lsr #24
    2b08:	001ba500 	andseq	sl, fp, r0, lsl #10
    2b0c:	001ba300 	andseq	sl, fp, r0, lsl #6
    2b10:	27982500 	ldrcs	r2, [r8, r0, lsl #10]
    2b14:	88000000 	stmdahi	r0, {}	; <UNPREDICTABLE>
    2b18:	00040000 	andeq	r0, r4, r0
    2b1c:	20720000 	rsbscs	r0, r2, r0
    2b20:	99240000 	stmdbls	r4!, {}	; <UNPREDICTABLE>
    2b24:	ba000027 	blt	2bc8 <__code_start__-0x5438>
    2b28:	b800001b 	stmdalt	r0, {r0, r1, r3, r4}
    2b2c:	0000001b 	andeq	r0, r0, fp, lsl r0
    2b30:	00281b26 	eoreq	r1, r8, r6, lsr #22
    2b34:	00880400 	addeq	r0, r8, r0, lsl #8
    2b38:	04000300 	streq	r0, [r0], #-768	; 0xfffffd00
    2b3c:	14000088 	strne	r0, [r0], #-136	; 0xffffff78
    2b40:	01000000 	mrseq	r0, (UNDEF: 0)
    2b44:	209a02b2 			; <UNDEFINED> instruction: 0x209a02b2
    2b48:	281c0000 	ldmdacs	ip, {}	; <UNPREDICTABLE>
    2b4c:	cf000028 	svcgt	0x00000028
    2b50:	cd00001b 	stcgt	0, cr0, [r0, #-108]	; 0xffffff94
    2b54:	0000001b 	andeq	r0, r0, fp, lsl r0
    2b58:	0027e71b 	eoreq	lr, r7, fp, lsl r7
    2b5c:	00881800 	addeq	r1, r8, r0, lsl #16
    2b60:	18000200 	stmdane	r0, {r9}
    2b64:	18000088 	stmdane	r0, {r3, r7}
    2b68:	01000000 	mrseq	r0, (UNDEF: 0)
    2b6c:	001c02b3 			; <UNDEFINED> instruction: 0x001c02b3
    2b70:	e4000028 	str	r0, [r0], #-40	; 0xffffffd8
    2b74:	e200001b 	and	r0, r0, #27, 0
    2b78:	1c00001b 	stcne	0, cr0, [r0], {27}
    2b7c:	000027f4 	strdeq	r2, [r0], -r4
    2b80:	00001bfc 	strdeq	r1, [r0], -ip
    2b84:	00001bfa 	strdeq	r1, [r0], -sl
    2b88:	00280c27 	eoreq	r0, r8, r7, lsr #24
    2b8c:	00882000 	addeq	r2, r8, r0
    2b90:	00000400 	andeq	r0, r0, r0, lsl #8
    2b94:	280d2400 	stmdacs	sp, {sl, sp}
    2b98:	1c110000 	ldcne	0, cr0, [r1], {-0}
    2b9c:	1c0f0000 	stcne	0, cr0, [pc], {-0}
    2ba0:	00000000 	andeq	r0, r0, r0
    2ba4:	33220000 			; <UNDEFINED> instruction: 0x33220000
    2ba8:	d4000027 	strle	r0, [r0], #-39	; 0xffffffd9
    2bac:	0200008a 	andeq	r0, r0, #138, 0	; 0x8a
    2bb0:	0003f800 	andeq	pc, r3, r0, lsl #16
    2bb4:	03dc0100 	bicseq	r0, ip, #0
    2bb8:	000021dd 	ldrdeq	r2, [r0], -sp
    2bbc:	0027401c 	eoreq	r4, r7, ip, lsl r0
    2bc0:	001c2600 	andseq	r2, ip, r0, lsl #12
    2bc4:	001c2400 	andseq	r2, ip, r0, lsl #8
    2bc8:	27a71b00 	strcs	r1, [r7, r0, lsl #22]!
    2bcc:	8ad40000 	bhi	ff502bd4 <__bss_end__+0xff4f85bc>
    2bd0:	00040000 	andeq	r0, r4, r0
    2bd4:	00008ad4 	ldrdeq	r8, [r0], -r4
    2bd8:	0000002c 	andeq	r0, r0, ip, lsr #32
    2bdc:	1c02be01 	stcne	14, cr11, [r2], {1}
    2be0:	000027c0 	andeq	r2, r0, r0, asr #15
    2be4:	00001c3b 	andeq	r1, r0, fp, lsr ip
    2be8:	00001c39 	andeq	r1, r0, r9, lsr ip
    2bec:	0027b41c 	eoreq	fp, r7, ip, lsl r4
    2bf0:	001c5200 	andseq	r5, ip, r0, lsl #4
    2bf4:	001c5000 	andseq	r5, ip, r0
    2bf8:	27cc2400 	strbcs	r2, [ip, r0, lsl #8]
    2bfc:	1c670000 	stclne	0, cr0, [r7], #-0
    2c00:	1c650000 	stclne	0, cr0, [r5], #-0
    2c04:	d8250000 	stmdale	r5!, {}	; <UNPREDICTABLE>
    2c08:	d4000027 	strle	r0, [r0], #-39	; 0xffffffd9
    2c0c:	0400008a 	streq	r0, [r0], #-138	; 0xffffff76
    2c10:	67000000 	strvs	r0, [r0, -r0]
    2c14:	24000021 	strcs	r0, [r0], #-33	; 0xffffffdf
    2c18:	000027d9 	ldrdeq	r2, [r0], -r9
    2c1c:	00001c7c 	andeq	r1, r0, ip, ror ip
    2c20:	00001c7a 	andeq	r1, r0, sl, ror ip
    2c24:	28352600 	ldmdacs	r5!, {r9, sl, sp}
    2c28:	8ad80000 	bhi	ff602c30 <__bss_end__+0xff5f8618>
    2c2c:	00030000 	andeq	r0, r3, r0
    2c30:	00008ad8 	ldrdeq	r8, [r0], -r8	; <UNPREDICTABLE>
    2c34:	00000014 	andeq	r0, r0, r4, lsl r0
    2c38:	8f02a801 	svchi	0x0002a801
    2c3c:	1c000021 	stcne	0, cr0, [r0], {33}	; 0x21
    2c40:	00002842 	andeq	r2, r0, r2, asr #16
    2c44:	00001c91 	muleq	r0, r1, ip
    2c48:	00001c8f 	andeq	r1, r0, pc, lsl #25
    2c4c:	27e71b00 	strbcs	r1, [r7, r0, lsl #22]!
    2c50:	8aec0000 	bhi	ffb02c58 <__bss_end__+0xffaf8640>
    2c54:	00020000 	andeq	r0, r2, r0
    2c58:	00008aec 	andeq	r8, r0, ip, ror #21
    2c5c:	00000014 	andeq	r0, r0, r4, lsl r0
    2c60:	1c02a901 			; <UNDEFINED> instruction: 0x1c02a901
    2c64:	00002800 	andeq	r2, r0, r0, lsl #16
    2c68:	00001ca6 	andeq	r1, r0, r6, lsr #25
    2c6c:	00001ca4 	andeq	r1, r0, r4, lsr #25
    2c70:	0027f41c 	eoreq	pc, r7, ip, lsl r4	; <UNPREDICTABLE>
    2c74:	001cbd00 	andseq	fp, ip, r0, lsl #26
    2c78:	001cbb00 	andseq	fp, ip, r0, lsl #22
    2c7c:	280c2700 	stmdacs	ip, {r8, r9, sl, sp}
    2c80:	8af00000 	bhi	ffc02c88 <__bss_end__+0xffbf8670>
    2c84:	00040000 	andeq	r0, r4, r0
    2c88:	0d240000 	stceq	0, cr0, [r4, #-0]
    2c8c:	d2000028 	andle	r0, r0, #40, 0	; 0x28
    2c90:	d000001c 	andle	r0, r0, ip, lsl r0
    2c94:	0000001c 	andeq	r0, r0, ip, lsl r0
    2c98:	23000000 	movwcs	r0, #0
    2c9c:	00002719 	andeq	r2, r0, r9, lsl r7
    2ca0:	00008b00 	andeq	r8, r0, r0, lsl #22
    2ca4:	04100002 	ldreq	r0, [r0], #-2
    2ca8:	dd010000 	stcle	0, cr0, [r1, #-0]
    2cac:	27261c03 	strcs	r1, [r6, -r3, lsl #24]!
    2cb0:	1ce70000 	stclne	0, cr0, [r7]
    2cb4:	1ce50000 	stclne	0, cr0, [r5]
    2cb8:	671b0000 	ldrvs	r0, [fp, -r0]
    2cbc:	00000027 	andeq	r0, r0, r7, lsr #32
    2cc0:	0400008b 	streq	r0, [r0], #-139	; 0xffffff75
    2cc4:	008b0000 	addeq	r0, fp, r0
    2cc8:	00003400 	andeq	r3, r0, r0, lsl #8
    2ccc:	02c60100 	sbceq	r0, r6, #0
    2cd0:	0027801c 	eoreq	r8, r7, ip, lsl r0
    2cd4:	001cfc00 	andseq	pc, ip, r0, lsl #24
    2cd8:	001cfa00 	andseq	pc, ip, r0, lsl #20
    2cdc:	27741c00 	ldrbcs	r1, [r4, -r0, lsl #24]!
    2ce0:	1d140000 	ldcne	0, cr0, [r4, #-0]
    2ce4:	1d120000 	ldcne	0, cr0, [r2, #-0]
    2ce8:	8c240000 	stchi	0, cr0, [r4], #-0
    2cec:	29000027 	stmdbcs	r0, {r0, r1, r2, r5}
    2cf0:	2700001d 	smladcs	r0, sp, r0, r0
    2cf4:	2500001d 	strcs	r0, [r0, #-29]	; 0xffffffe3
    2cf8:	00002798 	muleq	r0, r8, r7
    2cfc:	00008b00 	andeq	r8, r0, r0, lsl #22
    2d00:	00000004 	andeq	r0, r0, r4
    2d04:	00002258 	andeq	r2, r0, r8, asr r2
    2d08:	00279924 	eoreq	r9, r7, r4, lsr #18
    2d0c:	001d3e00 	andseq	r3, sp, r0, lsl #28
    2d10:	001d3c00 	andseq	r3, sp, r0, lsl #24
    2d14:	1b260000 	blne	982d1c <__bss_end__+0x978704>
    2d18:	04000028 	streq	r0, [r0], #-40	; 0xffffffd8
    2d1c:	0300008b 	movweq	r0, #139	; 0x8b
    2d20:	008b0400 	addeq	r0, fp, r0, lsl #8
    2d24:	00001400 	andeq	r1, r0, r0, lsl #8
    2d28:	02b20100 	adcseq	r0, r2, #0
    2d2c:	00002280 	andeq	r2, r0, r0, lsl #5
    2d30:	0028281c 	eoreq	r2, r8, ip, lsl r8
    2d34:	001d5300 	andseq	r5, sp, r0, lsl #6
    2d38:	001d5100 	andseq	r5, sp, r0, lsl #2
    2d3c:	e71b0000 	ldr	r0, [fp, -r0]
    2d40:	18000027 	stmdane	r0, {r0, r1, r2, r5}
    2d44:	0200008b 	andeq	r0, r0, #139, 0	; 0x8b
    2d48:	008b1800 	addeq	r1, fp, r0, lsl #16
    2d4c:	00001c00 	andeq	r1, r0, r0, lsl #24
    2d50:	02b30100 	adcseq	r0, r3, #0
    2d54:	0028001c 	eoreq	r0, r8, ip, lsl r0
    2d58:	001d6800 	andseq	r6, sp, r0, lsl #16
    2d5c:	001d6600 	andseq	r6, sp, r0, lsl #12
    2d60:	27f41c00 	ldrbcs	r1, [r4, r0, lsl #24]!
    2d64:	1d800000 	stcne	0, cr0, [r0]
    2d68:	1d7e0000 	ldclne	0, cr0, [lr, #-0]
    2d6c:	0c270000 	stceq	0, cr0, [r7], #-0
    2d70:	20000028 	andcs	r0, r0, r8, lsr #32
    2d74:	0400008b 	streq	r0, [r0], #-139	; 0xffffff75
    2d78:	24000000 	strcs	r0, [r0], #-0
    2d7c:	0000280d 	andeq	r2, r0, sp, lsl #16
    2d80:	00001d95 	muleq	r0, r5, sp
    2d84:	00001d93 	muleq	r0, r3, sp
    2d88:	00000000 	andeq	r0, r0, r0
    2d8c:	26c12300 	strbcs	r2, [r1], r0, lsl #6
    2d90:	88300000 	ldmdahi	r0!, {}	; <UNPREDICTABLE>
    2d94:	00020000 	andeq	r0, r2, r0
    2d98:	00000428 	andeq	r0, r0, r8, lsr #8
    2d9c:	1c02ef01 	stcne	15, cr14, [r2], {1}
    2da0:	000026da 	ldrdeq	r2, [r0], -sl
    2da4:	00001dac 	andeq	r1, r0, ip, lsr #27
    2da8:	00001da8 	andeq	r1, r0, r8, lsr #27
    2dac:	0026ce1c 	eoreq	ip, r6, ip, lsl lr
    2db0:	001dda00 	andseq	sp, sp, r0, lsl #20
    2db4:	001dd200 	andseq	sp, sp, r0, lsl #4
    2db8:	274d2200 	strbcs	r2, [sp, -r0, lsl #4]
    2dbc:	88380000 	ldmdahi	r8!, {}	; <UNPREDICTABLE>
    2dc0:	00010000 	andeq	r0, r1, r0
    2dc4:	00000460 	andeq	r0, r0, r0, ror #8
    2dc8:	f003d901 			; <UNDEFINED> instruction: 0xf003d901
    2dcc:	1c000023 	stcne	0, cr0, [r0], {35}	; 0x23
    2dd0:	0000275a 	andeq	r2, r0, sl, asr r7
    2dd4:	00001e16 	andeq	r1, r0, r6, lsl lr
    2dd8:	00001e14 	andeq	r1, r0, r4, lsl lr
    2ddc:	0027a71b 	eoreq	sl, r7, fp, lsl r7
    2de0:	00883800 	addeq	r3, r8, r0, lsl #16
    2de4:	38000300 	stmdacc	r0, {r8, r9}
    2de8:	28000088 	stmdacs	r0, {r3, r7}
    2dec:	01000000 	mrseq	r0, (UNDEF: 0)
    2df0:	c01c02b9 			; <UNDEFINED> instruction: 0xc01c02b9
    2df4:	2b000027 	blcs	2e98 <__code_start__-0x5168>
    2df8:	2900001e 	stmdbcs	r0, {r1, r2, r3, r4}
    2dfc:	1c00001e 	stcne	0, cr0, [r0], {30}
    2e00:	000027b4 			; <UNDEFINED> instruction: 0x000027b4
    2e04:	00001e43 	andeq	r1, r0, r3, asr #28
    2e08:	00001e41 	andeq	r1, r0, r1, asr #28
    2e0c:	0027cc24 	eoreq	ip, r7, r4, lsr #24
    2e10:	001e5800 	andseq	r5, lr, r0, lsl #16
    2e14:	001e5600 	andseq	r5, lr, r0, lsl #12
    2e18:	27d82500 	ldrbcs	r2, [r8, r0, lsl #10]
    2e1c:	88380000 	ldmdahi	r8!, {}	; <UNPREDICTABLE>
    2e20:	00040000 	andeq	r0, r4, r0
    2e24:	237a0000 	cmncs	sl, #0, 0
    2e28:	d9240000 	stmdble	r4!, {}	; <UNPREDICTABLE>
    2e2c:	6d000027 	stcvs	0, cr0, [r0, #-156]	; 0xffffff64
    2e30:	6b00001e 	blvs	2eb0 <__code_start__-0x5150>
    2e34:	0000001e 	andeq	r0, r0, lr, lsl r0
    2e38:	00283526 	eoreq	r3, r8, r6, lsr #10
    2e3c:	00883c00 	addeq	r3, r8, r0, lsl #24
    2e40:	3c000300 	stccc	3, cr0, [r0], {-0}
    2e44:	14000088 	strne	r0, [r0], #-136	; 0xffffff78
    2e48:	01000000 	mrseq	r0, (UNDEF: 0)
    2e4c:	23a202a8 			; <UNDEFINED> instruction: 0x23a202a8
    2e50:	421c0000 	andsmi	r0, ip, #0, 0
    2e54:	82000028 	andhi	r0, r0, #40, 0	; 0x28
    2e58:	8000001e 	andhi	r0, r0, lr, lsl r0
    2e5c:	0000001e 	andeq	r0, r0, lr, lsl r0
    2e60:	0027e71b 	eoreq	lr, r7, fp, lsl r7
    2e64:	00885000 	addeq	r5, r8, r0
    2e68:	50000200 	andpl	r0, r0, r0, lsl #4
    2e6c:	10000088 	andne	r0, r0, r8, lsl #1
    2e70:	01000000 	mrseq	r0, (UNDEF: 0)
    2e74:	001c02a9 	andseq	r0, ip, r9, lsr #5
    2e78:	97000028 	strls	r0, [r0, -r8, lsr #32]
    2e7c:	9500001e 	strls	r0, [r0, #-30]	; 0xffffffe2
    2e80:	1c00001e 	stcne	0, cr0, [r0], {30}
    2e84:	000027f4 	strdeq	r2, [r0], -r4
    2e88:	00001eaf 	andeq	r1, r0, pc, lsr #29
    2e8c:	00001ead 	andeq	r1, r0, sp, lsr #29
    2e90:	00280c27 	eoreq	r0, r8, r7, lsr #24
    2e94:	00885000 	addeq	r5, r8, r0
    2e98:	00000400 	andeq	r0, r0, r0, lsl #8
    2e9c:	280d2400 	stmdacs	sp, {sl, sp}
    2ea0:	1ec40000 	cdpne	0, 12, cr0, cr4, cr0, {0}
    2ea4:	1ec20000 	cdpne	0, 12, cr0, cr2, cr0, {0}
    2ea8:	00000000 	andeq	r0, r0, r0
    2eac:	19220000 	stmdbne	r2!, {}	; <UNPREDICTABLE>
    2eb0:	60000027 	andvs	r0, r0, r7, lsr #32
    2eb4:	02000088 	andeq	r0, r0, #136, 0	; 0x88
    2eb8:	00047800 	andeq	r7, r4, r0, lsl #16
    2ebc:	03da0100 	bicseq	r0, sl, #0
    2ec0:	000024e5 	andeq	r2, r0, r5, ror #9
    2ec4:	0027261c 	eoreq	r2, r7, ip, lsl r6
    2ec8:	001edb00 	andseq	sp, lr, r0, lsl #22
    2ecc:	001ed700 	andseq	sp, lr, r0, lsl #14
    2ed0:	27671b00 	strbcs	r1, [r7, -r0, lsl #22]!
    2ed4:	88600000 	stmdahi	r0!, {}^	; <UNPREDICTABLE>
    2ed8:	00040000 	andeq	r0, r4, r0
    2edc:	00008860 	andeq	r8, r0, r0, ror #16
    2ee0:	00000034 	andeq	r0, r0, r4, lsr r0
    2ee4:	1c02c601 	stcne	6, cr12, [r2], {1}
    2ee8:	00002780 	andeq	r2, r0, r0, lsl #15
    2eec:	00001efe 	strdeq	r1, [r0], -lr
    2ef0:	00001efc 	strdeq	r1, [r0], -ip
    2ef4:	0027741c 	eoreq	r7, r7, ip, lsl r4
    2ef8:	001f1800 	andseq	r1, pc, r0, lsl #16
    2efc:	001f1400 	andseq	r1, pc, r0, lsl #8
    2f00:	278c2400 	strcs	r2, [ip, r0, lsl #8]
    2f04:	1f3b0000 	svcne	0x003b0000
    2f08:	1f390000 	svcne	0x00390000
    2f0c:	98250000 	stmdals	r5!, {}	; <UNPREDICTABLE>
    2f10:	60000027 	andvs	r0, r0, r7, lsr #32
    2f14:	04000088 	streq	r0, [r0], #-136	; 0xffffff78
    2f18:	6f000000 	svcvs	0x00000000
    2f1c:	24000024 	strcs	r0, [r0], #-36	; 0xffffffdc
    2f20:	00002799 	muleq	r0, r9, r7
    2f24:	00001f50 	andeq	r1, r0, r0, asr pc
    2f28:	00001f4e 	andeq	r1, r0, lr, asr #30
    2f2c:	281b2600 	ldmdacs	fp, {r9, sl, sp}
    2f30:	88640000 	stmdahi	r4!, {}^	; <UNPREDICTABLE>
    2f34:	00030000 	andeq	r0, r3, r0
    2f38:	00008864 	andeq	r8, r0, r4, ror #16
    2f3c:	00000014 	andeq	r0, r0, r4, lsl r0
    2f40:	9702b201 	strls	fp, [r2, -r1, lsl #4]
    2f44:	1c000024 	stcne	0, cr0, [r0], {36}	; 0x24
    2f48:	00002828 	andeq	r2, r0, r8, lsr #16
    2f4c:	00001f67 	andeq	r1, r0, r7, ror #30
    2f50:	00001f63 	andeq	r1, r0, r3, ror #30
    2f54:	27e71b00 	strbcs	r1, [r7, r0, lsl #22]!
    2f58:	88780000 	ldmdahi	r8!, {}^	; <UNPREDICTABLE>
    2f5c:	00020000 	andeq	r0, r2, r0
    2f60:	00008878 	andeq	r8, r0, r8, ror r8
    2f64:	0000001c 	andeq	r0, r0, ip, lsl r0
    2f68:	1c02b301 	stcne	3, cr11, [r2], {1}
    2f6c:	00002800 	andeq	r2, r0, r0, lsl #16
    2f70:	00001f8a 	andeq	r1, r0, sl, lsl #31
    2f74:	00001f88 	andeq	r1, r0, r8, lsl #31
    2f78:	0027f41c 	eoreq	pc, r7, ip, lsl r4	; <UNPREDICTABLE>
    2f7c:	001fa200 	andseq	sl, pc, r0, lsl #4
    2f80:	001fa000 	andseq	sl, pc, r0
    2f84:	280c2700 	stmdacs	ip, {r8, r9, sl, sp}
    2f88:	88800000 	stmhi	r0, {}	; <UNPREDICTABLE>
    2f8c:	00040000 	andeq	r0, r4, r0
    2f90:	0d240000 	stceq	0, cr0, [r4, #-0]
    2f94:	b7000028 	strlt	r0, [r0, -r8, lsr #32]
    2f98:	b500001f 	strlt	r0, [r0, #-31]	; 0xffffffe1
    2f9c:	0000001f 	andeq	r0, r0, pc, lsl r0
    2fa0:	22000000 	andcs	r0, r0, #0, 0
    2fa4:	00002733 	andeq	r2, r0, r3, lsr r7
    2fa8:	00008b34 	andeq	r8, r0, r4, lsr fp
    2fac:	04900002 	ldreq	r0, [r0], #2
    2fb0:	dc010000 	stcle	0, cr0, [r1], {-0}
    2fb4:	0025da03 	eoreq	sp, r5, r3, lsl #20
    2fb8:	27401c00 	strbcs	r1, [r0, -r0, lsl #24]
    2fbc:	1fcc0000 	svcne	0x00cc0000
    2fc0:	1fca0000 	svcne	0x00ca0000
    2fc4:	a71b0000 	ldrge	r0, [fp, -r0]
    2fc8:	34000027 	strcc	r0, [r0], #-39	; 0xffffffd9
    2fcc:	0400008b 	streq	r0, [r0], #-139	; 0xffffff75
    2fd0:	008b3400 	addeq	r3, fp, r0, lsl #8
    2fd4:	00002c00 	andeq	r2, r0, r0, lsl #24
    2fd8:	02be0100 	adcseq	r0, lr, #0
    2fdc:	0027c01c 	eoreq	ip, r7, ip, lsl r0
    2fe0:	001fe100 	andseq	lr, pc, r0, lsl #2
    2fe4:	001fdf00 	andseq	sp, pc, r0, lsl #30
    2fe8:	27b41c00 	ldrcs	r1, [r4, r0, lsl #24]!
    2fec:	1ff80000 	svcne	0x00f80000
    2ff0:	1ff60000 	svcne	0x00f60000
    2ff4:	cc240000 	stcgt	0, cr0, [r4], #-0
    2ff8:	0d000027 	stceq	0, cr0, [r0, #-156]	; 0xffffff64
    2ffc:	0b000020 	bleq	3084 <__code_start__-0x4f7c>
    3000:	25000020 	strcs	r0, [r0, #-32]	; 0xffffffe0
    3004:	000027d8 	ldrdeq	r2, [r0], -r8
    3008:	00008b34 	andeq	r8, r0, r4, lsr fp
    300c:	00000004 	andeq	r0, r0, r4
    3010:	00002564 	andeq	r2, r0, r4, ror #10
    3014:	0027d924 	eoreq	sp, r7, r4, lsr #18
    3018:	00202200 	eoreq	r2, r0, r0, lsl #4
    301c:	00202000 	eoreq	r2, r0, r0
    3020:	35260000 	strcc	r0, [r6, #-0]!
    3024:	38000028 	stmdacc	r0, {r3, r5}
    3028:	0300008b 	movweq	r0, #139	; 0x8b
    302c:	008b3800 	addeq	r3, fp, r0, lsl #16
    3030:	00001400 	andeq	r1, r0, r0, lsl #8
    3034:	02a80100 	adceq	r0, r8, #0
    3038:	0000258c 	andeq	r2, r0, ip, lsl #11
    303c:	0028421c 	eoreq	r4, r8, ip, lsl r2
    3040:	00203700 	eoreq	r3, r0, r0, lsl #14
    3044:	00203500 	eoreq	r3, r0, r0, lsl #10
    3048:	e71b0000 	ldr	r0, [fp, -r0]
    304c:	4c000027 	stcmi	0, cr0, [r0], {39}	; 0x27
    3050:	0200008b 	andeq	r0, r0, #139, 0	; 0x8b
    3054:	008b4c00 	addeq	r4, fp, r0, lsl #24
    3058:	00001400 	andeq	r1, r0, r0, lsl #8
    305c:	02a90100 	adceq	r0, r9, #0
    3060:	0028001c 	eoreq	r0, r8, ip, lsl r0
    3064:	00204c00 	eoreq	r4, r0, r0, lsl #24
    3068:	00204a00 	eoreq	r4, r0, r0, lsl #20
    306c:	27f41c00 	ldrbcs	r1, [r4, r0, lsl #24]!
    3070:	20630000 	rsbcs	r0, r3, r0
    3074:	20610000 	rsbcs	r0, r1, r0
    3078:	0c270000 	stceq	0, cr0, [r7], #-0
    307c:	50000028 	andpl	r0, r0, r8, lsr #32
    3080:	0400008b 	streq	r0, [r0], #-139	; 0xffffff75
    3084:	24000000 	strcs	r0, [r0], #-0
    3088:	0000280d 	andeq	r2, r0, sp, lsl #16
    308c:	00002078 	andeq	r2, r0, r8, ror r0
    3090:	00002076 	andeq	r2, r0, r6, ror r0
    3094:	00000000 	andeq	r0, r0, r0
    3098:	00271923 	eoreq	r1, r7, r3, lsr #18
    309c:	008b6000 	addeq	r6, fp, r0
    30a0:	a8000200 	stmdage	r0, {r9}
    30a4:	01000004 	tsteq	r0, r4
    30a8:	261c03dd 			; <UNDEFINED> instruction: 0x261c03dd
    30ac:	8f000027 	svchi	0x00000027
    30b0:	8b000020 	blhi	3138 <__code_start__-0x4ec8>
    30b4:	1b000020 	blne	313c <__code_start__-0x4ec4>
    30b8:	00002767 	andeq	r2, r0, r7, ror #14
    30bc:	00008b60 	andeq	r8, r0, r0, ror #22
    30c0:	8b600004 	blhi	18030d8 <__bss_end__+0x17f8ac0>
    30c4:	00380000 	eorseq	r0, r8, r0
    30c8:	c6010000 	strgt	r0, [r1], -r0
    30cc:	27802b02 	strcs	r2, [r0, r2, lsl #22]
    30d0:	02300000 	eorseq	r0, r0, #0, 0
    30d4:	0027741c 	eoreq	r7, r7, ip, lsl r4
    30d8:	0020b400 	eoreq	fp, r0, r0, lsl #8
    30dc:	0020b000 	eoreq	fp, r0, r0
    30e0:	278c2400 	strcs	r2, [ip, r0, lsl #8]
    30e4:	20d70000 	sbcscs	r0, r7, r0
    30e8:	20d50000 	sbcscs	r0, r5, r0
    30ec:	98250000 	stmdals	r5!, {}	; <UNPREDICTABLE>
    30f0:	60000027 	andvs	r0, r0, r7, lsr #32
    30f4:	0400008b 	streq	r0, [r0], #-139	; 0xffffff75
    30f8:	4f000000 	svcmi	0x00000000
    30fc:	24000026 	strcs	r0, [r0], #-38	; 0xffffffda
    3100:	00002799 	muleq	r0, r9, r7
    3104:	000020ec 	andeq	r2, r0, ip, ror #1
    3108:	000020ea 	andeq	r2, r0, sl, ror #1
    310c:	281b2600 	ldmdacs	fp, {r9, sl, sp}
    3110:	8b640000 	blhi	1903118 <__bss_end__+0x18f8b00>
    3114:	00030000 	andeq	r0, r3, r0
    3118:	00008b64 	andeq	r8, r0, r4, ror #22
    311c:	00000014 	andeq	r0, r0, r4, lsl r0
    3120:	7702b201 	strvc	fp, [r2, -r1, lsl #4]
    3124:	1c000026 	stcne	0, cr0, [r0], {38}	; 0x26
    3128:	00002828 	andeq	r2, r0, r8, lsr #16
    312c:	00002103 	andeq	r2, r0, r3, lsl #2
    3130:	000020ff 	strdeq	r2, [r0], -pc	; <UNPREDICTABLE>
    3134:	27e71b00 	strbcs	r1, [r7, r0, lsl #22]!
    3138:	8b780000 	blhi	1e03140 <__bss_end__+0x1df8b28>
    313c:	00020000 	andeq	r0, r2, r0
    3140:	00008b78 	andeq	r8, r0, r8, ror fp
    3144:	00000020 	andeq	r0, r0, r0, lsr #32
    3148:	2b02b301 	blcs	afd54 <__bss_end__+0xa573c>
    314c:	00002800 	andeq	r2, r0, r0, lsl #16
    3150:	f41c0230 			; <UNDEFINED> instruction: 0xf41c0230
    3154:	26000027 	strcs	r0, [r0], -r7, lsr #32
    3158:	24000021 	strcs	r0, [r0], #-33	; 0xffffffdf
    315c:	27000021 	strcs	r0, [r0, -r1, lsr #32]
    3160:	0000280c 	andeq	r2, r0, ip, lsl #16
    3164:	00008b80 	andeq	r8, r0, r0, lsl #23
    3168:	00000004 	andeq	r0, r0, r4
    316c:	00280d24 	eoreq	r0, r8, r4, lsr #26
    3170:	00213b00 	eoreq	r3, r1, r0, lsl #22
    3174:	00213900 	eoreq	r3, r1, r0, lsl #18
    3178:	00000000 	andeq	r0, r0, r0
    317c:	28000000 	stmdacs	r0, {}	; <UNPREDICTABLE>
    3180:	00000233 	andeq	r0, r0, r3, lsr r2
    3184:	0314d701 	tsteq	r4, #262144	; 0x40000
    3188:	000026e5 	andeq	r2, r0, r5, ror #13
    318c:	6e697029 	cdpvs	0, 6, cr7, cr9, cr9, {1}
    3190:	29d70100 	ldmibcs	r7, {r8}^
    3194:	0000002c 	andeq	r0, r0, ip, lsr #32
    3198:	01006229 	tsteq	r0, r9, lsr #4
    319c:	005436d7 	ldrsbeq	r3, [r4], #-103	; 0xffffff99
    31a0:	28000000 	stmdacs	r0, {}	; <UNPREDICTABLE>
    31a4:	0000007a 	andeq	r0, r0, sl, ror r0
    31a8:	0314d201 	tsteq	r4, #268435456	; 0x10000000
    31ac:	000026ff 	strdeq	r2, [r0], -pc	; <UNPREDICTABLE>
    31b0:	6e697029 	cdpvs	0, 6, cr7, cr9, cr9, {1}
    31b4:	27d20100 	ldrbcs	r0, [r2, r0, lsl #2]
    31b8:	0000002c 	andeq	r0, r0, ip, lsr #32
    31bc:	021f2800 	andseq	r2, pc, #0, 16
    31c0:	c9010000 	stmdbgt	r1, {}	; <UNPREDICTABLE>
    31c4:	27190314 			; <UNDEFINED> instruction: 0x27190314
    31c8:	70290000 	eorvc	r0, r9, r0
    31cc:	01006e69 	tsteq	r0, r9, ror #28
    31d0:	002c24c9 	eoreq	r2, ip, r9, asr #9
    31d4:	2c000000 	stccs	0, cr0, [r0], {-0}
    31d8:	006c3074 	rsbeq	r3, ip, r4, ror r0
    31dc:	0314c501 	tsteq	r4, #4194304	; 0x400000
    31e0:	00002733 	andeq	r2, r0, r3, lsr r7
    31e4:	6e697029 	cdpvs	0, 6, cr7, cr9, cr9, {1}
    31e8:	21c50100 	biccs	r0, r5, r0, lsl #2
    31ec:	0000002c 	andeq	r0, r0, ip, lsr #32
    31f0:	30742c00 	rsbscc	r2, r4, r0, lsl #24
    31f4:	bd010068 	stclt	0, cr0, [r1, #-416]	; 0xfffffe60
    31f8:	274d0314 	smlaldcs	r0, sp, r4, r3
    31fc:	70290000 	eorvc	r0, r9, r0
    3200:	01006e69 	tsteq	r0, r9, ror #28
    3204:	002c21bd 	strhteq	r2, [ip], -sp
    3208:	2c000000 	stccs	0, cr0, [r0], {-0}
    320c:	00683174 	rsbeq	r3, r8, r4, ror r1
    3210:	0314b801 	tsteq	r4, #65536	; 0x10000
    3214:	00002767 	andeq	r2, r0, r7, ror #14
    3218:	6e697029 	cdpvs	0, 6, cr7, cr9, cr9, {1}
    321c:	21b80100 			; <UNDEFINED> instruction: 0x21b80100
    3220:	0000002c 	andeq	r0, r0, ip, lsr #32
    3224:	01f82800 	mvnseq	r2, r0, lsl #16
    3228:	af010000 	svcge	0x00010000
    322c:	27a70314 			; <UNDEFINED> instruction: 0x27a70314
    3230:	70290000 	eorvc	r0, r9, r0
    3234:	01006e69 	tsteq	r0, r9, ror #28
    3238:	002c25af 	eoreq	r2, ip, pc, lsr #11
    323c:	452d0000 	strmi	r0, [sp, #-0]!
    3240:	01000002 	tsteq	r0, r2
    3244:	002c33af 	eoreq	r3, ip, pc, lsr #7
    3248:	b32e0000 			; <UNDEFINED> instruction: 0xb32e0000
    324c:	01000009 	tsteq	r0, r9
    3250:	002c0bb1 	strhteq	r0, [ip], -r1
    3254:	2e2f0000 	cdpcs	0, 2, cr0, cr15, cr0, {0}
    3258:	00000212 	andeq	r0, r0, r2, lsl r2
    325c:	2c13b101 	ldfcsd	f3, [r3], {1}
    3260:	00000000 	andeq	r0, r0, r0
    3264:	02002800 	andeq	r2, r0, #0, 16
    3268:	a5010000 	strge	r0, [r1, #-0]
    326c:	27e70314 			; <UNDEFINED> instruction: 0x27e70314
    3270:	70290000 	eorvc	r0, r9, r0
    3274:	01006e69 	tsteq	r0, r9, ror #28
    3278:	002c25a5 	eoreq	r2, ip, r5, lsr #11
    327c:	452d0000 	strmi	r0, [sp, #-0]!
    3280:	01000002 	tsteq	r0, r2
    3284:	002c33a5 	eoreq	r3, ip, r5, lsr #7
    3288:	b32e0000 			; <UNDEFINED> instruction: 0xb32e0000
    328c:	01000009 	tsteq	r0, r9
    3290:	002c0ba7 	eoreq	r0, ip, r7, lsr #23
    3294:	2e2f0000 	cdpcs	0, 2, cr0, cr15, cr0, {0}
    3298:	00000212 	andeq	r0, r0, r2, lsl r2
    329c:	2c13a701 	ldccs	7, cr10, [r3], {1}
    32a0:	00000000 	andeq	r0, r0, r0
    32a4:	023f2800 	eorseq	r2, pc, #0, 16
    32a8:	89010000 	stmdbhi	r1, {}	; <UNPREDICTABLE>
    32ac:	281b0314 	ldmdacs	fp, {r2, r4, r8, r9}
    32b0:	672d0000 	strvs	r0, [sp, -r0]!
    32b4:	01000002 	tsteq	r0, r2
    32b8:	002c2b89 	eoreq	r2, ip, r9, lsl #23
    32bc:	542d0000 	strtpl	r0, [sp], #-0
    32c0:	01000002 	tsteq	r0, r2
    32c4:	002c3f89 	eoreq	r3, ip, r9, lsl #31
    32c8:	2e2f0000 	cdpcs	0, 2, cr0, cr15, cr0, {0}
    32cc:	00000212 	andeq	r0, r0, r2, lsl r2
    32d0:	2c088c01 	stccs	12, cr8, [r8], {1}
    32d4:	00000000 	andeq	r0, r0, r0
    32d8:	02b62800 	adcseq	r2, r6, #0, 16
    32dc:	82010000 	andhi	r0, r1, #0, 0
    32e0:	28350314 	ldmdacs	r5!, {r2, r4, r8, r9}
    32e4:	70290000 	eorvc	r0, r9, r0
    32e8:	01006e69 	tsteq	r0, r9, ror #28
    32ec:	002c2e82 	eoreq	r2, ip, r2, lsl #29
    32f0:	28000000 	stmdacs	r0, {}	; <UNPREDICTABLE>
    32f4:	0000029e 	muleq	r0, lr, r2
    32f8:	03147d01 	tsteq	r4, #64	; 0x40
    32fc:	0000284f 	andeq	r2, r0, pc, asr #16
    3300:	6e697029 	cdpvs	0, 6, cr7, cr9, cr9, {1}
    3304:	2d7d0100 	ldfcse	f0, [sp, #-0]
    3308:	0000002c 	andeq	r0, r0, ip, lsr #32
    330c:	02ae3000 	adceq	r3, lr, #0, 0
    3310:	02ae0000 	adceq	r0, lr, #0, 0
    3314:	7c040000 	stcvc	0, cr0, [r4], {-0}
    3318:	024d3007 	subeq	r3, sp, #7, 0
    331c:	024d0000 	subeq	r0, sp, #0, 0
    3320:	f7040000 			; <UNDEFINED> instruction: 0xf7040000
    3324:	00843007 	addeq	r3, r4, r7
    3328:	00840000 	addeq	r0, r4, r0
    332c:	1d060000 	stcne	0, cr0, [r6, #-0]
    3330:	013a0006 	teqeq	sl, r6
    3334:	00040000 	andeq	r0, r4, r0
    3338:	0000042b 	andeq	r0, r0, fp, lsr #8
    333c:	02de0104 	sbcseq	r0, lr, #1
    3340:	af0c0000 	svcge	0x000c0000
    3344:	bf000003 	svclt	0x00000003
    3348:	38000003 	stmdacc	r0, {r0, r1}
    334c:	1800008d 	stmdane	r0, {r0, r2, r3, r7}
    3350:	e3000000 	movw	r0, #0
    3354:	02000010 	andeq	r0, r0, #16, 0
    3358:	6e690504 	cdpvs	5, 6, cr0, cr9, cr4, {0}
    335c:	a8030074 	stmdage	r3, {r2, r4, r5, r6}
    3360:	03000003 	movweq	r0, #3
    3364:	003817d1 	ldrsbteq	r1, [r8], -r1
    3368:	04040000 	streq	r0, [r4], #-0
    336c:	0000a907 	andeq	sl, r0, r7, lsl #18
    3370:	06010400 	streq	r0, [r1], -r0, lsl #8
    3374:	00000058 	andeq	r0, r0, r8, asr r0
    3378:	d6050204 	strle	r0, [r5], -r4, lsl #4
    337c:	04000000 	streq	r0, [r0], #-0
    3380:	00c10504 	sbceq	r0, r1, r4, lsl #10
    3384:	08040000 	stmdaeq	r4, {}	; <UNPREDICTABLE>
    3388:	0000bc05 	andeq	fp, r0, r5, lsl #24
    338c:	08010400 	stmdaeq	r1, {sl}
    3390:	00000056 	andeq	r0, r0, r6, asr r0
    3394:	64070204 	strvs	r0, [r7], #-516	; 0xfffffdfc
    3398:	04000000 	streq	r0, [r0], #-0
    339c:	00a40704 	adceq	r0, r4, r4, lsl #14
    33a0:	08040000 	stmdaeq	r4, {}	; <UNPREDICTABLE>
    33a4:	00009f07 	andeq	r9, r0, r7, lsl #30
    33a8:	00250500 	eoreq	r0, r5, r0, lsl #10
    33ac:	00860000 	addeq	r0, r6, r0
    33b0:	25060000 	strcs	r0, [r6, #-0]
    33b4:	00000000 	andeq	r0, r0, r0
    33b8:	0000ca07 	andeq	ip, r0, r7, lsl #20
    33bc:	0e1c0200 	cdpeq	2, 1, cr0, cr12, cr0, {0}
    33c0:	00000092 	muleq	r0, r2, r0
    33c4:	00770408 	rsbseq	r0, r7, r8, lsl #8
    33c8:	25050000 	strcs	r0, [r5, #-0]
    33cc:	a7000000 	strge	r0, [r0, -r0]
    33d0:	06000000 	streq	r0, [r0], -r0
    33d4:	000000a7 	andeq	r0, r0, r7, lsr #1
    33d8:	b4040800 	strlt	r0, [r4], #-2048	; 0xfffff800
    33dc:	04000000 	streq	r0, [r0], #-0
    33e0:	005f0801 	subseq	r0, pc, r1, lsl #16
    33e4:	ad090000 	stcge	0, cr0, [r9, #-0]
    33e8:	07000000 	streq	r0, [r0, -r0]
    33ec:	0000044d 	andeq	r0, r0, sp, asr #8
    33f0:	c50e2102 	strgt	r2, [lr, #-258]	; 0xfffffefe
    33f4:	08000000 	stmdaeq	r0, {}	; <UNPREDICTABLE>
    33f8:	00009804 	andeq	r9, r0, r4, lsl #16
    33fc:	024d0a00 	subeq	r0, sp, #0, 20
    3400:	04010000 	streq	r0, [r1], #-0
    3404:	00013507 	andeq	r3, r1, r7, lsl #10
    3408:	008d3800 	addeq	r3, sp, r0, lsl #16
    340c:	00001800 	andeq	r1, r0, r0, lsl #16
    3410:	359c0100 	ldrcc	r0, [ip, #256]	; 0x100
    3414:	0b000001 	bleq	3420 <__code_start__-0x4be0>
    3418:	0100705f 	qaddeq	r7, pc, r0	; <UNPREDICTABLE>
    341c:	01351404 	teqeq	r5, r4, lsl #8
    3420:	50010000 	andpl	r0, r1, r0
    3424:	0100630b 	tsteq	r0, fp, lsl #6
    3428:	00251c04 	eoreq	r1, r5, r4, lsl #24
    342c:	51010000 	mrspl	r0, (UNDEF: 1)
    3430:	01006e0c 	tsteq	r0, ip, lsl #28
    3434:	002c2604 	eoreq	r2, ip, r4, lsl #12
    3438:	21520000 	cmpcs	r2, r0
    343c:	214e0000 	mrscs	r0, (UNDEF: 78)
    3440:	700d0000 	andvc	r0, sp, r0
    3444:	0b050100 	bleq	14384c <__bss_end__+0x139234>
    3448:	00000137 	andeq	r0, r0, r7, lsr r1
    344c:	0000217b 	andeq	r2, r0, fp, ror r1
    3450:	00002173 	andeq	r2, r0, r3, ror r1
    3454:	0100650d 	tsteq	r0, sp, lsl #10
    3458:	01371405 	teqeq	r7, r5, lsl #8
    345c:	21b30000 			; <UNDEFINED> instruction: 0x21b30000
    3460:	21b10000 			; <UNDEFINED> instruction: 0x21b10000
    3464:	0e000000 	cdpeq	0, 0, cr0, cr0, cr0, {0}
    3468:	ad040804 	stcge	8, cr0, [r4, #-16]
    346c:	00000000 	andeq	r0, r0, r0
    3470:	0000019d 	muleq	r0, sp, r1
    3474:	04f70004 	ldrbteq	r0, [r7], #4
    3478:	01040000 	mrseq	r0, (UNDEF: 4)
    347c:	000002de 	ldrdeq	r0, [r0], -lr
    3480:	0004340c 	andeq	r3, r4, ip, lsl #8
    3484:	0003bf00 	andeq	fp, r3, r0, lsl #30
    3488:	008d5000 	addeq	r5, sp, r0
    348c:	00005800 	andeq	r5, r0, r0, lsl #16
    3490:	0011fb00 	andseq	pc, r1, r0, lsl #22
    3494:	04160200 	ldreq	r0, [r6], #-512	; 0xfffffe00
    3498:	28020000 	stmdacs	r2, {}	; <UNPREDICTABLE>
    349c:	0000311b 	andeq	r3, r0, fp, lsl r1
    34a0:	04250300 	strteq	r0, [r5], #-768	; 0xfffffd00
    34a4:	04040000 	streq	r0, [r4], #-0
    34a8:	00004800 	andeq	r4, r0, r0, lsl #16
    34ac:	042f0400 	strteq	r0, [pc], #-1024	; 34b4 <__code_start__-0x4b4c>
    34b0:	00480000 	subeq	r0, r8, r0
    34b4:	00000000 	andeq	r0, r0, r0
    34b8:	27020405 	strcs	r0, [r2, -r5, lsl #8]
    34bc:	02000004 	andeq	r0, r0, #4, 0
    34c0:	00251863 	eoreq	r1, r5, r3, ror #16
    34c4:	04060000 	streq	r0, [r6], #-0
    34c8:	746e6905 	strbtvc	r6, [lr], #-2309	; 0xfffff6fb
    34cc:	07040700 	streq	r0, [r4, -r0, lsl #14]
    34d0:	000000a9 	andeq	r0, r0, r9, lsr #1
    34d4:	58060107 	stmdapl	r6, {r0, r1, r2, r8}
    34d8:	07000000 	streq	r0, [r0, -r0]
    34dc:	00d60502 	sbcseq	r0, r6, r2, lsl #10
    34e0:	04070000 	streq	r0, [r7], #-0
    34e4:	0000c105 	andeq	ip, r0, r5, lsl #2
    34e8:	05080700 	streq	r0, [r8, #-1792]	; 0xfffff900
    34ec:	000000bc 	strheq	r0, [r0], -ip
    34f0:	56080107 	strpl	r0, [r8], -r7, lsl #2
    34f4:	07000000 	streq	r0, [r0, -r0]
    34f8:	00640702 	rsbeq	r0, r4, r2, lsl #14
    34fc:	04070000 	streq	r0, [r7], #-0
    3500:	0000a407 	andeq	sl, r0, r7, lsl #8
    3504:	07080700 	streq	r0, [r8, -r0, lsl #14]
    3508:	0000009f 	muleq	r0, pc, r0	; <UNPREDICTABLE>
    350c:	00005608 	andeq	r5, r0, r8, lsl #12
    3510:	0000ab00 	andeq	sl, r0, r0, lsl #22
    3514:	00560900 	subseq	r0, r6, r0, lsl #18
    3518:	0a000000 	beq	3520 <__code_start__-0x4ae0>
    351c:	000000ca 	andeq	r0, r0, sl, asr #1
    3520:	b70e1c03 	strlt	r1, [lr, -r3, lsl #24]
    3524:	0b000000 	bleq	352c <__code_start__-0x4ad4>
    3528:	00009c04 	andeq	r9, r0, r4, lsl #24
    352c:	00560800 	subseq	r0, r6, r0, lsl #16
    3530:	00cc0000 	sbceq	r0, ip, r0
    3534:	cc090000 	stcgt	0, cr0, [r9], {-0}
    3538:	00000000 	andeq	r0, r0, r0
    353c:	00d9040b 	sbcseq	r0, r9, fp, lsl #8
    3540:	01070000 	mrseq	r0, (UNDEF: 7)
    3544:	00005f08 	andeq	r5, r0, r8, lsl #30
    3548:	00d20c00 	sbcseq	r0, r2, r0, lsl #24
    354c:	4d0a0000 	stcmi	0, cr0, [sl, #-0]
    3550:	03000004 	movweq	r0, #4
    3554:	00ea0e21 	rsceq	r0, sl, r1, lsr #28
    3558:	040b0000 	streq	r0, [fp], #-0
    355c:	000000bd 	strheq	r0, [r0], -sp
    3560:	00040f0d 	andeq	r0, r4, sp, lsl #30
    3564:	05060100 	streq	r0, [r6, #-256]	; 0xffffff00
    3568:	00000056 	andeq	r0, r0, r6, asr r0
    356c:	00008d50 	andeq	r8, r0, r0, asr sp
    3570:	00000058 	andeq	r0, r0, r8, asr r0
    3574:	01839c01 	orreq	r9, r3, r1, lsl #24
    3578:	660e0000 	strvs	r0, [lr], -r0
    357c:	0100746d 	tsteq	r0, sp, ror #8
    3580:	00cc1806 	sbceq	r1, ip, r6, lsl #16
    3584:	91020000 	mrsls	r0, (UNDEF: 2)
    3588:	62100f70 	andsvs	r0, r0, #112, 30	; 0x1c0
    358c:	01006675 	tsteq	r0, r5, ror r6
    3590:	01831108 	orreq	r1, r3, r8, lsl #2
    3594:	03050000 	movweq	r0, #20480	; 0x5000
    3598:	0000a210 	andeq	sl, r0, r0, lsl r2
    359c:	00040711 	andeq	r0, r4, r1, lsl r7
    35a0:	0d090100 	stfeqs	f0, [r9, #-0]
    35a4:	0000004a 	andeq	r0, r0, sl, asr #32
    35a8:	125c9102 	subsne	r9, ip, #-2147483648	; 0x80000000
    35ac:	01007a73 	tsteq	r0, r3, ror sl
    35b0:	00560d0c 	subseq	r0, r6, ip, lsl #26
    35b4:	21cc0000 	biccs	r0, ip, r0
    35b8:	21c60000 	biccs	r0, r6, r0
    35bc:	78130000 	ldmdavc	r3, {}	; <UNPREDICTABLE>
    35c0:	9400008d 	strls	r0, [r0], #-141	; 0xffffff73
    35c4:	76000001 	strvc	r0, [r0], -r1
    35c8:	14000001 	strne	r0, [r0], #-1
    35cc:	75025001 	strvc	r5, [r2, #-1]
    35d0:	51011400 	tstpl	r1, r0, lsl #8
    35d4:	04000a03 	streq	r0, [r0], #-2563	; 0xfffff5fd
    35d8:	03520114 	cmpeq	r2, #5
    35dc:	14064891 	strne	r4, [r6], #-2193	; 0xfffff76f
    35e0:	91025301 	tstls	r2, r1, lsl #6
    35e4:	8c15004c 	ldchi	0, cr0, [r5], {76}	; 0x4c
    35e8:	1400008d 	strne	r0, [r0], #-141	; 0xffffff73
    35ec:	75025001 	strvc	r5, [r2, #-1]
    35f0:	16000000 	strne	r0, [r0], -r0
    35f4:	000000d2 	ldrdeq	r0, [r0], -r2
    35f8:	00000194 	muleq	r0, r4, r1
    35fc:	00005d17 	andeq	r5, r0, r7, lsl sp
    3600:	0003ff00 	andeq	pc, r3, r0, lsl #30
    3604:	00040c18 	andeq	r0, r4, r8, lsl ip
    3608:	00040c00 	andeq	r0, r4, r0, lsl #24
    360c:	05020500 	streq	r0, [r2, #-1280]	; 0xfffffb00
    3610:	0000f300 	andeq	pc, r0, r0, lsl #6
    3614:	39000400 	stmdbcc	r0, {sl}
    3618:	04000006 	streq	r0, [r0], #-6
    361c:	0002de01 	andeq	sp, r2, r1, lsl #28
    3620:	04520c00 	ldrbeq	r0, [r2], #-3072	; 0xfffff400
    3624:	03bf0000 			; <UNDEFINED> instruction: 0x03bf0000
    3628:	8da80000 	stchi	0, cr0, [r8]
    362c:	00340000 	eorseq	r0, r4, r0
    3630:	13320000 	teqne	r2, #0, 0
    3634:	04020000 	streq	r0, [r2], #-0
    3638:	746e6905 	strbtvc	r6, [lr], #-2309	; 0xfffff6fb
    363c:	07040300 	streq	r0, [r4, -r0, lsl #6]
    3640:	000000a9 	andeq	r0, r0, r9, lsr #1
    3644:	58060103 	stmdapl	r6, {r0, r1, r8}
    3648:	03000000 	movweq	r0, #0
    364c:	00d60502 	sbcseq	r0, r6, r2, lsl #10
    3650:	04030000 	streq	r0, [r3], #-0
    3654:	0000c105 	andeq	ip, r0, r5, lsl #2
    3658:	05080300 	streq	r0, [r8, #-768]	; 0xfffffd00
    365c:	000000bc 	strheq	r0, [r0], -ip
    3660:	56080103 	strpl	r0, [r8], -r3, lsl #2
    3664:	03000000 	movweq	r0, #0
    3668:	00640702 	rsbeq	r0, r4, r2, lsl #14
    366c:	04030000 	streq	r0, [r3], #-0
    3670:	0000a407 	andeq	sl, r0, r7, lsl #8
    3674:	07080300 	streq	r0, [r8, -r0, lsl #6]
    3678:	0000009f 	muleq	r0, pc, r0	; <UNPREDICTABLE>
    367c:	00002504 	andeq	r2, r0, r4, lsl #10
    3680:	00007a00 	andeq	r7, r0, r0, lsl #20
    3684:	00250500 	eoreq	r0, r5, r0, lsl #10
    3688:	06000000 	streq	r0, [r0], -r0
    368c:	000000ca 	andeq	r0, r0, sl, asr #1
    3690:	860e1c02 	strhi	r1, [lr], -r2, lsl #24
    3694:	07000000 	streq	r0, [r0, -r0]
    3698:	00006b04 	andeq	r6, r0, r4, lsl #22
    369c:	00250400 	eoreq	r0, r5, r0, lsl #8
    36a0:	009b0000 	addseq	r0, fp, r0
    36a4:	9b050000 	blls	1436ac <__bss_end__+0x139094>
    36a8:	00000000 	andeq	r0, r0, r0
    36ac:	00a80407 	adceq	r0, r8, r7, lsl #8
    36b0:	01030000 	mrseq	r0, (UNDEF: 3)
    36b4:	00005f08 	andeq	r5, r0, r8, lsl #30
    36b8:	00a10800 	adceq	r0, r1, r0, lsl #16
    36bc:	4d060000 	stcmi	0, cr0, [r6, #-0]
    36c0:	02000004 	andeq	r0, r0, #4, 0
    36c4:	00b90e21 	adcseq	r0, r9, r1, lsr #28
    36c8:	04070000 	streq	r0, [r7], #-0
    36cc:	0000008c 	andeq	r0, r0, ip, lsl #1
    36d0:	0000ad09 	andeq	sl, r0, r9, lsl #26
    36d4:	070c0100 	streq	r0, [ip, -r0, lsl #2]
    36d8:	a1fc0305 	mvnsge	r0, r5, lsl #6
    36dc:	440a0000 	strmi	r0, [sl], #-0
    36e0:	01000004 	tsteq	r0, r4
    36e4:	00250504 	eoreq	r0, r5, r4, lsl #10
    36e8:	8da80000 	stchi	0, cr0, [r8]
    36ec:	00340000 	eorseq	r0, r4, r0
    36f0:	9c010000 	stcls	0, cr0, [r1], {-0}
    36f4:	0100700b 	tsteq	r0, fp
    36f8:	009b1f04 	addseq	r1, fp, r4, lsl #30
    36fc:	21f90000 	mvnscs	r0, r0
    3700:	21f50000 	mvnscs	r0, r0
    3704:	00000000 	andeq	r0, r0, r0
    3708:	00000ad7 	ldrdeq	r0, [r0], -r7
    370c:	06d70004 	ldrbeq	r0, [r7], r4
    3710:	01040000 	mrseq	r0, (UNDEF: 4)
    3714:	000002de 	ldrdeq	r0, [r0], -lr
    3718:	0004710c 	andeq	r7, r4, ip, lsl #2
    371c:	0003bf00 	andeq	fp, r3, r0, lsl #30
    3720:	008ddc00 	addeq	sp, sp, r0, lsl #24
    3724:	00074000 	andeq	r4, r7, r0
    3728:	00140100 	andseq	r0, r4, r0, lsl #2
    372c:	05040200 	streq	r0, [r4, #-512]	; 0xfffffe00
    3730:	00746e69 	rsbseq	r6, r4, r9, ror #28
    3734:	a9070403 	stmdbge	r7, {r0, r1, sl}
    3738:	03000000 	movweq	r0, #0
    373c:	00580601 	subseq	r0, r8, r1, lsl #12
    3740:	02030000 	andeq	r0, r3, #0, 0
    3744:	0000d605 	andeq	sp, r0, r5, lsl #12
    3748:	05040300 	streq	r0, [r4, #-768]	; 0xfffffd00
    374c:	000000c1 	andeq	r0, r0, r1, asr #1
    3750:	bc050803 	stclt	8, cr0, [r5], {3}
    3754:	03000000 	movweq	r0, #0
    3758:	00560801 	subseq	r0, r6, r1, lsl #16
    375c:	02030000 	andeq	r0, r3, #0, 0
    3760:	00006407 	andeq	r6, r0, r7, lsl #8
    3764:	02710400 	rsbseq	r0, r1, #0, 8
    3768:	34020000 	strcc	r0, [r2], #-0
    376c:	00006919 	andeq	r6, r0, r9, lsl r9
    3770:	07040300 	streq	r0, [r4, -r0, lsl #6]
    3774:	000000a4 	andeq	r0, r0, r4, lsr #1
    3778:	00046804 	andeq	r6, r4, r4, lsl #16
    377c:	19370200 	ldmdbne	r7!, {r9}
    3780:	0000007c 	andeq	r0, r0, ip, ror r0
    3784:	9f070803 	svcls	0x00070803
    3788:	05000000 	streq	r0, [r0, #-0]
    378c:	00000025 	andeq	r0, r0, r5, lsr #32
    3790:	00000092 	muleq	r0, r2, r0
    3794:	00002506 	andeq	r2, r0, r6, lsl #10
    3798:	ca070000 	bgt	1c37a0 <__bss_end__+0x1b9188>
    379c:	03000000 	movweq	r0, #0
    37a0:	009e0e1c 	addseq	r0, lr, ip, lsl lr
    37a4:	04080000 	streq	r0, [r8], #-0
    37a8:	00000083 	andeq	r0, r0, r3, lsl #1
    37ac:	00002505 	andeq	r2, r0, r5, lsl #10
    37b0:	0000b300 	andeq	fp, r0, r0, lsl #6
    37b4:	00b30600 	adcseq	r0, r3, r0, lsl #12
    37b8:	08000000 	stmdaeq	r0, {}	; <UNPREDICTABLE>
    37bc:	0000c004 	andeq	ip, r0, r4
    37c0:	08010300 	stmdaeq	r1, {r8, r9}
    37c4:	0000005f 	andeq	r0, r0, pc, asr r0
    37c8:	0000b909 	andeq	fp, r0, r9, lsl #18
    37cc:	044d0700 	strbeq	r0, [sp], #-1792	; 0xfffff900
    37d0:	21030000 	mrscs	r0, (UNDEF: 3)
    37d4:	0000d10e 	andeq	sp, r0, lr, lsl #2
    37d8:	a4040800 	strge	r0, [r4], #-2048	; 0xfffff800
    37dc:	07000000 	streq	r0, [r0, -r0]
    37e0:	00000484 	andeq	r0, r0, r4, lsl #9
    37e4:	b90d0b04 	stmdblt	sp, {r2, r8, r9, fp}
    37e8:	07000000 	streq	r0, [r0, -r0]
    37ec:	00000517 	andeq	r0, r0, r7, lsl r5
    37f0:	b90d0c04 	stmdblt	sp, {r2, sl, fp}
    37f4:	07000000 	streq	r0, [r0, -r0]
    37f8:	00000493 	muleq	r0, r3, r4
    37fc:	b90d0d04 	stmdblt	sp, {r2, r8, sl, fp}
    3800:	07000000 	streq	r0, [r0, -r0]
    3804:	000004d6 	ldrdeq	r0, [r0], -r6
    3808:	b90d0e04 	stmdblt	sp, {r2, r9, sl, fp}
    380c:	07000000 	streq	r0, [r0, -r0]
    3810:	00000547 	andeq	r0, r0, r7, asr #10
    3814:	b90d0f04 	stmdblt	sp, {r2, r8, r9, sl, fp}
    3818:	07000000 	streq	r0, [r0, -r0]
    381c:	000004c1 	andeq	r0, r0, r1, asr #9
    3820:	b90d1004 	stmdblt	sp, {r2, ip}
    3824:	07000000 	streq	r0, [r0, -r0]
    3828:	00000556 	andeq	r0, r0, r6, asr r5
    382c:	b90d1104 	stmdblt	sp, {r2, r8, ip}
    3830:	07000000 	streq	r0, [r0, -r0]
    3834:	000004e2 	andeq	r0, r0, r2, ror #9
    3838:	b90d1204 	stmdblt	sp, {r2, r9, ip}
    383c:	04000000 	streq	r0, [r0], #-0
    3840:	00000416 	andeq	r0, r0, r6, lsl r4
    3844:	431b2805 	tstmi	fp, #327680	; 0x50000
    3848:	0a000001 	beq	3854 <__code_start__-0x47ac>
    384c:	00000425 	andeq	r0, r0, r5, lsr #8
    3850:	5a000604 	bpl	5068 <__code_start__-0x2f98>
    3854:	0b000001 	bleq	3860 <__code_start__-0x47a0>
    3858:	0000042f 	andeq	r0, r0, pc, lsr #8
    385c:	0000015a 	andeq	r0, r0, sl, asr r1
    3860:	040c0000 	streq	r0, [ip], #-0
    3864:	00042704 	andeq	r2, r4, r4, lsl #14
    3868:	18630500 	stmdane	r3!, {r8, sl}^
    386c:	00000137 	andeq	r0, r0, r7, lsr r1
    3870:	00040c0d 	andeq	r0, r4, sp, lsl #24
    3874:	05810100 	streq	r0, [r1, #256]	; 0x100
    3878:	00000025 	andeq	r0, r0, r5, lsr #32
    387c:	00009064 	andeq	r9, r0, r4, rrx
    3880:	000004b8 			; <UNDEFINED> instruction: 0x000004b8
    3884:	07179c01 	ldreq	r9, [r7, -r1, lsl #24]
    3888:	620e0000 	andvs	r0, lr, #0, 0
    388c:	01006675 	tsteq	r0, r5, ror r6
    3890:	07171581 	ldreq	r1, [r7, -r1, lsl #11]
    3894:	221d0000 	andscs	r0, sp, #0, 0
    3898:	22170000 	andscs	r0, r7, #0, 0
    389c:	6e0e0000 	cdpvs	0, 0, cr0, cr14, cr0, {0}
    38a0:	1e810100 	rmfnes	f0, f1, f0
    38a4:	00000025 	andeq	r0, r0, r5, lsr #32
    38a8:	0000224f 	andeq	r2, r0, pc, asr #4
    38ac:	00002249 	andeq	r2, r0, r9, asr #4
    38b0:	746d660e 	strbtvc	r6, [sp], #-1550	; 0xfffff9f2
    38b4:	2d810100 	stfcss	f0, [r1]
    38b8:	000000b3 	strheq	r0, [r0], -r3
    38bc:	00002289 	andeq	r2, r0, r9, lsl #5
    38c0:	0000227d 	andeq	r2, r0, sp, ror r2
    38c4:	0004070f 	andeq	r0, r4, pc, lsl #14
    38c8:	3a810100 	bcc	fe043cd0 <__bss_end__+0xfe0396b8>
    38cc:	0000015c 	andeq	r0, r0, ip, asr r1
    38d0:	7dd49103 	ldfvcp	f1, [r4, #12]
    38d4:	01007010 	tsteq	r0, r0, lsl r0
    38d8:	07170882 	ldreq	r0, [r7, -r2, lsl #17]
    38dc:	22e70000 	rsccs	r0, r7, #0, 0
    38e0:	22d30000 	sbcscs	r0, r3, #0, 0
    38e4:	65100000 	ldrvs	r0, [r0, #-0]
    38e8:	12820100 	addne	r0, r2, #0
    38ec:	00000717 	andeq	r0, r0, r7, lsl r7
    38f0:	00002369 	andeq	r2, r0, r9, ror #6
    38f4:	00002365 	andeq	r2, r0, r5, ror #6
    38f8:	00307810 	eorseq	r7, r0, r0, lsl r8
    38fc:	5d0e8301 	stcpl	3, cr8, [lr, #-4]
    3900:	96000000 	strls	r0, [r0], -r0
    3904:	90000023 	andls	r0, r0, r3, lsr #32
    3908:	10000023 	andne	r0, r0, r3, lsr #32
    390c:	01003178 	tsteq	r0, r8, ror r1
    3910:	005d1183 	subseq	r1, sp, r3, lsl #3
    3914:	23c30000 	biccs	r0, r3, #0, 0
    3918:	23bf0000 			; <UNDEFINED> instruction: 0x23bf0000
    391c:	00110000 	andseq	r0, r1, r0
    3920:	01000005 	tsteq	r0, r5
    3924:	00b31186 	adcseq	r1, r3, r6, lsl #3
    3928:	23e50000 	mvncs	r0, #0, 0
    392c:	23e10000 	mvncs	r0, #0, 0
    3930:	a7120000 	ldrge	r0, [r2, -r0]
    3934:	2d000004 	stccs	0, cr0, [r0, #-16]
    3938:	05000007 	streq	r0, [r0, #-7]
    393c:	009fe803 	addseq	lr, pc, r3, lsl #16
    3940:	90cc1300 	sbcls	r1, ip, r0, lsl #6
    3944:	04000000 	streq	r0, [r0], #-0
    3948:	73100000 	tstvc	r0, #0, 0
    394c:	0a910100 	beq	fe443d54 <__bss_end__+0xfe43973c>
    3950:	00000717 	andeq	r0, r0, r7, lsl r7
    3954:	0000241b 	andeq	r2, r0, fp, lsl r4
    3958:	00002405 	andeq	r2, r0, r5, lsl #8
    395c:	6d756e14 	ldclvs	14, cr6, [r5, #-80]!	; 0xffffffb0
    3960:	0d910100 	ldfeqs	f0, [r1]
    3964:	00000732 	andeq	r0, r0, r2, lsr r7
    3968:	7dd89103 	ldfvcp	f1, [r8, #12]
    396c:	00056315 	andeq	r6, r5, r5, lsl r3
    3970:	17910100 	ldrne	r0, [r1, r0, lsl #2]
    3974:	00000732 	andeq	r0, r0, r2, lsr r7
    3978:	7ed89103 	atnvce	f1, f3
    397c:	0004a111 	andeq	sl, r4, r1, lsl r1
    3980:	0d920100 	ldfeqs	f0, [r2]
    3984:	0000002c 	andeq	r0, r0, ip, lsr #32
    3988:	000024a2 	andeq	r2, r0, r2, lsr #9
    398c:	0000249c 	muleq	r0, ip, r4
    3990:	00919416 	addseq	r9, r1, r6, lsl r4
    3994:	0001a400 	andeq	sl, r1, r0, lsl #8
    3998:	00053900 	andeq	r3, r5, r0, lsl #18
    399c:	79741000 	ldmdbvc	r4!, {ip}^
    39a0:	1d9e0100 	ldfnes	f0, [lr]
    39a4:	000000b3 	strheq	r0, [r0], -r3
    39a8:	000024d6 	ldrdeq	r2, [r0], -r6
    39ac:	000024cc 	andeq	r2, r0, ip, asr #9
    39b0:	00787817 	rsbseq	r7, r8, r7, lsl r8
    39b4:	701aa201 	andsvc	sl, sl, r1, lsl #4
    39b8:	18000000 	stmdane	r0, {}	; <UNPREDICTABLE>
    39bc:	000091a4 	andeq	r9, r0, r4, lsr #3
    39c0:	00000a92 	muleq	r0, r2, sl
    39c4:	000002d5 	ldrdeq	r0, [r0], -r5
    39c8:	02500119 	subseq	r0, r0, #1073741830	; 0x40000006
    39cc:	01190076 	tsteq	r9, r6, ror r0
    39d0:	dc030551 	cfstr32le	mvfx0, [r3], {81}	; 0x51
    39d4:	1900009e 	stmdbne	r0, {r1, r2, r3, r4, r7}
    39d8:	33015201 	movwcc	r5, #4609	; 0x1201
    39dc:	91bc1800 			; <UNDEFINED> instruction: 0x91bc1800
    39e0:	0a920000 	beq	fe4839e8 <__bss_end__+0xfe4793d0>
    39e4:	02f70000 	rscseq	r0, r7, #0, 0
    39e8:	01190000 	tsteq	r9, r0
    39ec:	00760250 	rsbseq	r0, r6, r0, asr r2
    39f0:	05510119 	ldrbeq	r0, [r1, #-281]	; 0xfffffee7
    39f4:	009ee003 	addseq	lr, lr, r3
    39f8:	52011900 	andpl	r1, r1, #0, 18
    39fc:	18003301 	stmdane	r0, {r0, r8, r9, ip, sp}
    3a00:	000091f0 	strdeq	r9, [r0], -r0
    3a04:	00000a9e 	muleq	r0, lr, sl
    3a08:	00000314 	andeq	r0, r0, r4, lsl r3
    3a0c:	05500119 	ldrbeq	r0, [r0, #-281]	; 0xfffffee7
    3a10:	009ee403 	addseq	lr, lr, r3, lsl #8
    3a14:	51011900 	tstpl	r1, r0, lsl #18
    3a18:	00007702 	andeq	r7, r0, r2, lsl #14
    3a1c:	0091fc18 	addseq	pc, r1, r8, lsl ip	; <UNPREDICTABLE>
    3a20:	000a9e00 	andeq	r9, sl, r0, lsl #28
    3a24:	00033100 	andeq	r3, r3, r0, lsl #2
    3a28:	50011900 	andpl	r1, r1, r0, lsl #18
    3a2c:	9eec0305 	cdpls	3, 14, cr0, cr12, cr5, {0}
    3a30:	01190000 	tsteq	r9, r0
    3a34:	007a0251 	rsbseq	r0, sl, r1, asr r2
    3a38:	920c1800 	andls	r1, ip, #0, 16
    3a3c:	0a920000 	beq	fe483a44 <__bss_end__+0xfe47942c>
    3a40:	03530000 	cmpeq	r3, #0, 0
    3a44:	01190000 	tsteq	r9, r0
    3a48:	00760250 	rsbseq	r0, r6, r0, asr r2
    3a4c:	05510119 	ldrbeq	r0, [r1, #-281]	; 0xfffffee7
    3a50:	009edc03 	addseq	sp, lr, r3, lsl #24
    3a54:	52011900 	andpl	r1, r1, #0, 18
    3a58:	18003301 	stmdane	r0, {r0, r8, r9, ip, sp}
    3a5c:	00009224 	andeq	r9, r0, r4, lsr #4
    3a60:	00000a92 	muleq	r0, r2, sl
    3a64:	00000375 	andeq	r0, r0, r5, ror r3
    3a68:	02500119 	subseq	r0, r0, #1073741830	; 0x40000006
    3a6c:	01190076 	tsteq	r9, r6, ror r0
    3a70:	e0030551 	and	r0, r3, r1, asr r5
    3a74:	1900009e 	stmdbne	r0, {r1, r2, r3, r4, r7}
    3a78:	33015201 	movwcc	r5, #4609	; 0x1201
    3a7c:	924c1800 	subls	r1, ip, #0, 16
    3a80:	07420000 	strbeq	r0, [r2, -r0]
    3a84:	03a90000 			; <UNDEFINED> instruction: 0x03a90000
    3a88:	01190000 	tsteq	r9, r0
    3a8c:	193a0150 	ldmdbne	sl!, {r4, r6, r8}
    3a90:	91035101 	tstls	r3, r1, lsl #2
    3a94:	01197dd0 			; <UNDEFINED> instruction: 0x01197dd0
    3a98:	80080252 	andhi	r0, r8, r2, asr r2
    3a9c:	02530119 	subseq	r0, r3, #1073741830	; 0x40000006
    3aa0:	02190077 	andseq	r0, r9, #119, 0	; 0x77
    3aa4:	7502007d 	strvc	r0, [r2, #-125]	; 0xffffff83
    3aa8:	7d021900 	vstrvc.16	s2, [r2, #-0]	; <UNPREDICTABLE>
    3aac:	00760204 	rsbseq	r0, r6, r4, lsl #4
    3ab0:	926c1800 	rsbls	r1, ip, #0, 16
    3ab4:	07420000 	strbeq	r0, [r2, -r0]
    3ab8:	03dd0000 	bicseq	r0, sp, #0, 0
    3abc:	01190000 	tsteq	r9, r0
    3ac0:	193a0150 	ldmdbne	sl!, {r4, r6, r8}
    3ac4:	91035101 	tstls	r3, r1, lsl #2
    3ac8:	01197ed0 			; <UNDEFINED> instruction: 0x01197ed0
    3acc:	80080252 	andhi	r0, r8, r2, asr r2
    3ad0:	02530119 	subseq	r0, r3, #1073741830	; 0x40000006
    3ad4:	0219007a 	andseq	r0, r9, #122, 0	; 0x7a
    3ad8:	7502007d 	strvc	r0, [r2, #-125]	; 0xffffff83
    3adc:	7d021900 	vstrvc.16	s2, [r2, #-0]	; <UNPREDICTABLE>
    3ae0:	00760204 	rsbseq	r0, r6, r4, lsl #4
    3ae4:	92781800 	rsbsls	r1, r8, #0, 16
    3ae8:	0aaa0000 	beq	fea83af0 <__bss_end__+0xfea794d8>
    3aec:	03fb0000 	mvnseq	r0, #0, 0
    3af0:	01190000 	tsteq	r9, r0
    3af4:	d0910350 	addsle	r0, r1, r0, asr r3
    3af8:	5101197d 	tstpl	r1, sp, ror r9
    3afc:	9ea00305 	cdpls	3, 10, cr0, cr0, cr5, {0}
    3b00:	18000000 	stmdane	r0, {}	; <UNPREDICTABLE>
    3b04:	0000928c 	andeq	r9, r0, ip, lsl #5
    3b08:	00000ab6 			; <UNDEFINED> instruction: 0x00000ab6
    3b0c:	00000417 	andeq	r0, r0, r7, lsl r4
    3b10:	03500119 	cmpeq	r0, #1073741830	; 0x40000006
    3b14:	197dd091 	ldmdbne	sp!, {r0, r4, r7, ip, lr, pc}^
    3b18:	91035101 	tstls	r3, r1, lsl #2
    3b1c:	18007ed0 	stmdane	r0, {r4, r6, r7, r9, sl, fp, ip, sp, lr}
    3b20:	000092b0 			; <UNDEFINED> instruction: 0x000092b0
    3b24:	00000a9e 	muleq	r0, lr, sl
    3b28:	00000450 	andeq	r0, r0, r0, asr r4
    3b2c:	05500119 	ldrbeq	r0, [r0, #-281]	; 0xfffffee7
    3b30:	009e8c03 	addseq	r8, lr, r3, lsl #24
    3b34:	51011900 	tstpl	r1, r0, lsl #18
    3b38:	9e780305 	cdpls	3, 7, cr0, cr8, cr5, {0}
    3b3c:	01190000 	tsteq	r9, r0
    3b40:	e8030552 	stmda	r3, {r1, r4, r6, r8, sl}
    3b44:	1900009f 	stmdbne	r0, {r0, r1, r2, r3, r4, r7}
    3b48:	08025301 	stmdaeq	r2, {r0, r8, r9, ip, lr}
    3b4c:	7d02199f 	vstrvc.16	s2, [r2, #-318]	; 0xfffffec2	; <UNPREDICTABLE>
    3b50:	f4030500 	vst3.8	{d0,d2,d4}, [r3], r0
    3b54:	0000009e 	muleq	r0, lr, r0
    3b58:	0092b41a 	addseq	fp, r2, sl, lsl r4
    3b5c:	000ac200 	andeq	ip, sl, r0, lsl #4
    3b60:	92d41800 	sbcsls	r1, r4, #0, 16
    3b64:	07420000 	strbeq	r0, [r2, -r0]
    3b68:	048d0000 	streq	r0, [sp], #0
    3b6c:	01190000 	tsteq	r9, r0
    3b70:	19400150 	stmdbne	r0, {r4, r6, r8}^
    3b74:	91035101 	tstls	r3, r1, lsl #2
    3b78:	01197dd0 			; <UNDEFINED> instruction: 0x01197dd0
    3b7c:	80080252 	andhi	r0, r8, r2, asr r2
    3b80:	02530119 	subseq	r0, r3, #1073741830	; 0x40000006
    3b84:	02190077 	andseq	r0, r9, #119, 0	; 0x77
    3b88:	7502007d 	strvc	r0, [r2, #-125]	; 0xffffff83
    3b8c:	7d021900 	vstrvc.16	s2, [r2, #-0]	; <UNPREDICTABLE>
    3b90:	00760204 	rsbseq	r0, r6, r4, lsl #4
    3b94:	92f41800 	rscsls	r1, r4, #0, 16
    3b98:	07420000 	strbeq	r0, [r2, -r0]
    3b9c:	04c10000 	strbeq	r0, [r1], #0
    3ba0:	01190000 	tsteq	r9, r0
    3ba4:	19400150 	stmdbne	r0, {r4, r6, r8}^
    3ba8:	91035101 	tstls	r3, r1, lsl #2
    3bac:	01197ed0 			; <UNDEFINED> instruction: 0x01197ed0
    3bb0:	80080252 	andhi	r0, r8, r2, asr r2
    3bb4:	02530119 	subseq	r0, r3, #1073741830	; 0x40000006
    3bb8:	0219007a 	andseq	r0, r9, #122, 0	; 0x7a
    3bbc:	7502007d 	strvc	r0, [r2, #-125]	; 0xffffff83
    3bc0:	7d021900 	vstrvc.16	s2, [r2, #-0]	; <UNPREDICTABLE>
    3bc4:	00760204 	rsbseq	r0, r6, r4, lsl #4
    3bc8:	93001800 	movwls	r1, #2048	; 0x800
    3bcc:	0ace0000 	beq	ff383bd4 <__bss_end__+0xff3795bc>
    3bd0:	04dd0000 	ldrbeq	r0, [sp], #0
    3bd4:	01190000 	tsteq	r9, r0
    3bd8:	d0910350 	addsle	r0, r1, r0, asr r3
    3bdc:	5101197d 	tstpl	r1, sp, ror r9
    3be0:	7ed29103 	atnvcs	f1, f3
    3be4:	93141800 	tstls	r4, #0, 16
    3be8:	0ace0000 	beq	ff383bf0 <__bss_end__+0xff3795d8>
    3bec:	04f90000 	ldrbteq	r0, [r9], #0
    3bf0:	01190000 	tsteq	r9, r0
    3bf4:	d0910350 	addsle	r0, r1, r0, asr r3
    3bf8:	5101197d 	tstpl	r1, sp, ror r9
    3bfc:	7ed09103 	atnvcs	f1, f3
    3c00:	93341800 	teqls	r4, #0, 16
    3c04:	0a9e0000 	beq	fe783c0c <__bss_end__+0xfe7795f4>
    3c08:	052f0000 	streq	r0, [pc, #-0]!	; 3c10 <__code_start__-0x43f0>
    3c0c:	01190000 	tsteq	r9, r0
    3c10:	30030550 	andcc	r0, r3, r0, asr r5
    3c14:	1900009f 	stmdbne	r0, {r0, r1, r2, r3, r4, r7}
    3c18:	03055101 	movweq	r5, #20737	; 0x5101
    3c1c:	00009e78 	andeq	r9, r0, r8, ror lr
    3c20:	05520119 	ldrbeq	r0, [r2, #-281]	; 0xfffffee7
    3c24:	009fe803 	addseq	lr, pc, r3, lsl #16
    3c28:	53011900 	movwpl	r1, #6400	; 0x1900
    3c2c:	19b60802 	ldmibne	r6!, {r1, fp}
    3c30:	02007d02 	andeq	r7, r0, #128	; 0x80
    3c34:	1a000076 	bne	3e14 <__code_start__-0x41ec>
    3c38:	00009338 	andeq	r9, r0, r8, lsr r3
    3c3c:	00000ac2 	andeq	r0, r0, r2, asr #21
    3c40:	90e41800 	rscls	r1, r4, r0, lsl #16
    3c44:	09c00000 	stmibeq	r0, {}^	; <UNPREDICTABLE>
    3c48:	054d0000 	strbeq	r0, [sp, #-0]
    3c4c:	01190000 	tsteq	r9, r0
    3c50:	00770250 	rsbseq	r0, r7, r0, asr r2
    3c54:	91901800 	orrsls	r1, r0, r0, lsl #16
    3c58:	0a9e0000 	beq	fe783c60 <__bss_end__+0xfe779648>
    3c5c:	05860000 	streq	r0, [r6]
    3c60:	01190000 	tsteq	r9, r0
    3c64:	8c030550 	cfstr32hi	mvfx0, [r3], {80}	; 0x50
    3c68:	1900009e 	stmdbne	r0, {r1, r2, r3, r4, r7}
    3c6c:	03055101 	movweq	r5, #20737	; 0x5101
    3c70:	00009e78 	andeq	r9, r0, r8, ror lr
    3c74:	05520119 	ldrbeq	r0, [r2, #-281]	; 0xfffffee7
    3c78:	009fe803 	addseq	lr, pc, r3, lsl #16
    3c7c:	53011900 	movwpl	r1, #6400	; 0x1900
    3c80:	19980802 	ldmibne	r8, {r1, fp}
    3c84:	05007d02 	streq	r7, [r0, #-3330]	; 0xfffff2fe
    3c88:	009ed003 	addseq	sp, lr, r3
    3c8c:	941a0000 	ldrls	r0, [sl], #-0
    3c90:	c2000091 	andgt	r0, r0, #145, 0	; 0x91
    3c94:	1800000a 	stmdane	r0, {r1, r3}
    3c98:	0000934c 	andeq	r9, r0, ip, asr #6
    3c9c:	00000a9e 	muleq	r0, lr, sl
    3ca0:	000005be 			; <UNDEFINED> instruction: 0x000005be
    3ca4:	05500119 	ldrbeq	r0, [r0, #-281]	; 0xfffffee7
    3ca8:	009f5803 	addseq	r5, pc, r3, lsl #16
    3cac:	51011900 	tstpl	r1, r0, lsl #18
    3cb0:	9e780305 	cdpls	3, 7, cr0, cr8, cr5, {0}
    3cb4:	01190000 	tsteq	r9, r0
    3cb8:	e8030552 	stmda	r3, {r1, r4, r6, r8, sl}
    3cbc:	1900009f 	stmdbne	r0, {r0, r1, r2, r3, r4, r7}
    3cc0:	08025301 	stmdaeq	r2, {r0, r8, r9, ip, lr}
    3cc4:	501a00be 	ldrhpl	r0, [sl], -lr
    3cc8:	c2000093 	andgt	r0, r0, #147, 0	; 0x93
    3ccc:	1800000a 	stmdane	r0, {r1, r3}
    3cd0:	0000937c 	andeq	r9, r0, ip, ror r3
    3cd4:	00000742 	andeq	r0, r0, r2, asr #14
    3cd8:	000005f4 	strdeq	r0, [r0], -r4
    3cdc:	01500119 	cmpeq	r0, r9, lsl r1
    3ce0:	5101193a 	tstpl	r1, sl, lsr r9
    3ce4:	7dd09103 	ldfvcp	f1, [r0, #12]
    3ce8:	02520119 	subseq	r0, r2, #1073741830	; 0x40000006
    3cec:	02198008 	andseq	r8, r9, #8, 0
    3cf0:	7502007d 	strvc	r0, [r2, #-125]	; 0xffffff83
    3cf4:	7d021900 	vstrvc.16	s2, [r2, #-0]	; <UNPREDICTABLE>
    3cf8:	00310104 	eorseq	r0, r1, r4, lsl #2
    3cfc:	0093b418 	addseq	fp, r3, r8, lsl r4
    3d00:	00074200 	andeq	r4, r7, r0, lsl #4
    3d04:	00062100 	andeq	r2, r6, r0, lsl #2
    3d08:	50011900 	andpl	r1, r1, r0, lsl #18
    3d0c:	01193a01 	tsteq	r9, r1, lsl #20
    3d10:	d0910351 	addsle	r0, r1, r1, asr r3
    3d14:	5201197d 	andpl	r1, r1, #2048000	; 0x1f4000
    3d18:	19800802 	stmibne	r0, {r1, fp}
    3d1c:	02007d02 	andeq	r7, r0, #128	; 0x80
    3d20:	02190075 	andseq	r0, r9, #117, 0	; 0x75
    3d24:	3001047d 	andcc	r0, r1, sp, ror r4
    3d28:	93e81800 	mvnls	r1, #0, 16
    3d2c:	07420000 	strbeq	r0, [r2, -r0]
    3d30:	064e0000 	strbeq	r0, [lr], -r0
    3d34:	01190000 	tsteq	r9, r0
    3d38:	19400150 	stmdbne	r0, {r4, r6, r8}^
    3d3c:	91035101 	tstls	r3, r1, lsl #2
    3d40:	01197dd0 			; <UNDEFINED> instruction: 0x01197dd0
    3d44:	80080252 	andhi	r0, r8, r2, asr r2
    3d48:	007d0219 	rsbseq	r0, sp, r9, lsl r2
    3d4c:	19007502 	stmdbne	r0, {r1, r8, sl, ip, sp, lr}
    3d50:	01047d02 	tsteq	r4, r2, lsl #26
    3d54:	1c180030 	ldcne	0, cr0, [r8], {48}	; 0x30
    3d58:	42000094 	andmi	r0, r0, #148, 0	; 0x94
    3d5c:	7b000007 	blvc	3d80 <__code_start__-0x4280>
    3d60:	19000006 	stmdbne	r0, {r1, r2}
    3d64:	32015001 	andcc	r5, r1, #1, 0
    3d68:	03510119 	cmpeq	r1, #1073741830	; 0x40000006
    3d6c:	197dd091 	ldmdbne	sp!, {r0, r4, r7, ip, lr, pc}^
    3d70:	08025201 	stmdaeq	r2, {r0, r9, ip, lr}
    3d74:	7d021980 	vstrvc.16	s2, [r2, #-256]	; 0xffffff00	; <UNPREDICTABLE>
    3d78:	00750200 	rsbseq	r0, r5, r0, lsl #4
    3d7c:	047d0219 	ldrbteq	r0, [sp], #-537	; 0xfffffde7
    3d80:	18003001 	stmdane	r0, {r0, ip, sp}
    3d84:	00009464 	andeq	r9, r0, r4, ror #8
    3d88:	00000742 	andeq	r0, r0, r2, asr #14
    3d8c:	000006a8 	andeq	r0, r0, r8, lsr #13
    3d90:	01500119 	cmpeq	r0, r9, lsl r1
    3d94:	51011938 	tstpl	r1, r8, lsr r9
    3d98:	7dd09103 	ldfvcp	f1, [r0, #12]
    3d9c:	02520119 	subseq	r0, r2, #1073741830	; 0x40000006
    3da0:	02198008 	andseq	r8, r9, #8, 0
    3da4:	7502007d 	strvc	r0, [r2, #-125]	; 0xffffff83
    3da8:	7d021900 	vstrvc.16	s2, [r2, #-0]	; <UNPREDICTABLE>
    3dac:	00300104 	eorseq	r0, r0, r4, lsl #2
    3db0:	00948418 	addseq	r8, r4, r8, lsl r4
    3db4:	000a9e00 	andeq	r9, sl, r0, lsl #28
    3db8:	0006cb00 	andeq	ip, r6, r0, lsl #22
    3dbc:	50011900 	andpl	r1, r1, r0, lsl #18
    3dc0:	9f800305 	svcls	0x00800305
    3dc4:	01190000 	tsteq	r9, r0
    3dc8:	007a0251 	rsbseq	r0, sl, r1, asr r2
    3dcc:	02520119 	subseq	r0, r2, #1073741830	; 0x40000006
    3dd0:	1b00007a 	blne	3fc0 <__code_start__-0x4040>
    3dd4:	00009494 	muleq	r0, r4, r4
    3dd8:	000006dd 	ldrdeq	r0, [r0], -sp
    3ddc:	04500119 	ldrbeq	r0, [r0], #-281	; 0xfffffee7
    3de0:	067dc891 			; <UNDEFINED> instruction: 0x067dc891
    3de4:	94a81800 	strtls	r1, [r8], #2048	; 0x800
    3de8:	0a9e0000 	beq	fe783df0 <__bss_end__+0xfe7797d8>
    3dec:	070c0000 	streq	r0, [ip, -r0]
    3df0:	01190000 	tsteq	r9, r0
    3df4:	b0030550 	andlt	r0, r3, r0, asr r5
    3df8:	1900009f 	stmdbne	r0, {r0, r1, r2, r3, r4, r7}
    3dfc:	03055101 	movweq	r5, #20737	; 0x5101
    3e00:	00009e78 	andeq	r9, r0, r8, ror lr
    3e04:	05520119 	ldrbeq	r0, [r2, #-281]	; 0xfffffee7
    3e08:	009fe803 	addseq	lr, pc, r3, lsl #16
    3e0c:	53011900 	movwpl	r1, #6400	; 0x1900
    3e10:	00e20802 	rsceq	r0, r2, r2, lsl #16
    3e14:	0094ac1a 	addseq	sl, r4, sl, lsl ip
    3e18:	000ac200 	andeq	ip, sl, r0, lsl #4
    3e1c:	08000000 	stmdaeq	r0, {}	; <UNPREDICTABLE>
    3e20:	0000b904 	andeq	fp, r0, r4, lsl #18
    3e24:	00c01c00 	sbceq	r1, r0, r0, lsl #24
    3e28:	072d0000 	streq	r0, [sp, -r0]!
    3e2c:	2c1d0000 	ldccs	0, cr0, [sp], {-0}
    3e30:	09000000 	stmdbeq	r0, {}	; <UNPREDICTABLE>
    3e34:	071d0900 	ldreq	r0, [sp, -r0, lsl #18]
    3e38:	b91c0000 	ldmdblt	ip, {}	; <UNPREDICTABLE>
    3e3c:	42000000 	andmi	r0, r0, #0, 0
    3e40:	1d000007 	stcne	0, cr0, [r0, #-28]	; 0xffffffe4
    3e44:	0000002c 	andeq	r0, r0, ip, lsr #32
    3e48:	241e007f 	ldrcs	r0, [lr], #-127	; 0xffffff81
    3e4c:	01000005 	tsteq	r0, r5
    3e50:	07170149 	ldreq	r0, [r7, -r9, asr #2]
    3e54:	8e4c0000 	cdphi	0, 4, cr0, cr12, cr0, {0}
    3e58:	01b40000 			; <UNDEFINED> instruction: 0x01b40000
    3e5c:	9c010000 	stcls	0, cr0, [r1], {-0}
    3e60:	000008ab 	andeq	r0, r0, fp, lsr #17
    3e64:	0005701f 	andeq	r7, r5, pc, lsl r0
    3e68:	0f490100 	svceq	0x00490100
    3e6c:	0000002c 	andeq	r0, r0, ip, lsr #32
    3e70:	0000251f 	andeq	r2, r0, pc, lsl r5
    3e74:	00002519 	andeq	r2, r0, r9, lsl r5
    3e78:	7473640e 	ldrbtvc	r6, [r3], #-1038	; 0xfffffbf2
    3e7c:	1b490100 	blne	1244284 <__bss_end__+0x1239c6c>
    3e80:	00000717 	andeq	r0, r0, r7, lsl r7
    3e84:	0000255d 	andeq	r2, r0, sp, asr r5
    3e88:	0000254d 	andeq	r2, r0, sp, asr #10
    3e8c:	01006e0e 	tsteq	r0, lr, lsl #28
    3e90:	00252449 	eoreq	r2, r5, r9, asr #8
    3e94:	25c10000 	strbcs	r0, [r1]
    3e98:	25bd0000 	ldrcs	r0, [sp, #0]!
    3e9c:	760e0000 	strvc	r0, [lr], -r0
    3ea0:	01006c61 	tsteq	r0, r1, ror #24
    3ea4:	00252b49 	eoreq	r2, r5, r9, asr #22
    3ea8:	25eb0000 	strbcs	r0, [fp, #0]!
    3eac:	25df0000 	ldrbcs	r0, [pc]	; 3eb4 <__code_start__-0x414c>
    3eb0:	a11f0000 	tstge	pc, r0
    3eb4:	01000004 	tsteq	r0, r4
    3eb8:	00253449 	eoreq	r3, r5, r9, asr #8
    3ebc:	26410000 	strbcs	r0, [r1], -r0
    3ec0:	263b0000 	ldrtcs	r0, [fp], -r0
    3ec4:	750f0000 	strvc	r0, [pc, #-0]	; 3ecc <__code_start__-0x4134>
    3ec8:	01000005 	tsteq	r0, r5
    3ecc:	00253f49 	eoreq	r3, r5, r9, asr #30
    3ed0:	91020000 	mrsls	r0, (UNDEF: 2)
    3ed4:	75621404 	strbvc	r1, [r2, #-1028]!	; 0xfffffbfc
    3ed8:	4e010066 	cdpmi	0, 0, cr0, cr1, cr6, {3}
    3edc:	0008ab07 	andeq	sl, r8, r7, lsl #22
    3ee0:	a8910300 	ldmge	r1, {r8, r9}
    3ee4:	0070107f 	rsbseq	r1, r0, pc, ror r0
    3ee8:	17114e01 	ldrne	r4, [r1, -r1, lsl #28]
    3eec:	8b000007 	blhi	3f10 <__code_start__-0x40f0>
    3ef0:	6b000026 	blvs	3f90 <__code_start__-0x4070>
    3ef4:	10000026 	andne	r0, r0, r6, lsr #32
    3ef8:	4f010075 	svcmi	0x00010075
    3efc:	00002c0b 	andeq	r2, r0, fp, lsl #24
    3f00:	00277100 	eoreq	r7, r7, r0, lsl #2
    3f04:	00275d00 	eoreq	r5, r7, r0, lsl #26
    3f08:	04a71200 	strteq	r1, [r7], #512	; 0x200
    3f0c:	08cb0000 	stmiaeq	fp, {}^	; <UNPREDICTABLE>
    3f10:	03050000 	movweq	r0, #20480	; 0x5000
    3f14:	00009fd0 	ldrdeq	r9, [r0], -r0
    3f18:	008eb816 	addeq	fp, lr, r6, lsl r8
    3f1c:	00007800 	andeq	r7, r0, r0, lsl #16
    3f20:	00083200 	andeq	r3, r8, r0, lsl #4
    3f24:	05111100 	ldreq	r1, [r1, #-256]	; 0xffffff00
    3f28:	54010000 	strpl	r0, [r1], #-0
    3f2c:	00002c0d 	andeq	r2, r0, sp, lsl #24
    3f30:	0027f200 	eoreq	pc, r7, r0, lsl #4
    3f34:	0027ea00 	eoreq	lr, r7, r0, lsl #20
    3f38:	70180000 	andsvc	r0, r8, r0
    3f3c:	5d00008f 	stcpl	0, cr0, [r0, #-572]	; 0xfffffdc4
    3f40:	47000009 	strmi	r0, [r0, -r9]
    3f44:	19000008 	stmdbne	r0, {r3}
    3f48:	91035101 	tstls	r3, r1, lsl #2
    3f4c:	18007fa0 	stmdane	r0, {r5, r7, r8, r9, sl, fp, ip, sp, lr}
    3f50:	00008f84 	andeq	r8, r0, r4, lsl #31
    3f54:	000008d0 	ldrdeq	r0, [r0], -r0	; <UNPREDICTABLE>
    3f58:	00000868 	andeq	r0, r0, r8, ror #16
    3f5c:	02500119 	subseq	r0, r0, #1073741830	; 0x40000006
    3f60:	01190075 	tsteq	r9, r5, ror r0
    3f64:	00740251 	rsbseq	r0, r4, r1, asr r2
    3f68:	03530119 	cmpeq	r3, #1073741830	; 0x40000006
    3f6c:	007fa091 			; <UNDEFINED> instruction: 0x007fa091
    3f70:	008fdc18 	addeq	sp, pc, r8, lsl ip	; <UNPREDICTABLE>
    3f74:	000a9e00 	andeq	r9, sl, r0, lsl #28
    3f78:	0008a100 	andeq	sl, r8, r0, lsl #2
    3f7c:	50011900 	andpl	r1, r1, r0, lsl #18
    3f80:	9e8c0305 	cdpls	3, 8, cr0, cr12, cr5, {0}
    3f84:	01190000 	tsteq	r9, r0
    3f88:	78030551 	stmdavc	r3, {r0, r4, r6, r8, sl}
    3f8c:	1900009e 	stmdbne	r0, {r1, r2, r3, r4, r7}
    3f90:	03055201 	movweq	r5, #20993	; 0x5201
    3f94:	00009fd0 	ldrdeq	r9, [r0], -r0
    3f98:	02530119 	subseq	r0, r3, #1073741830	; 0x40000006
    3f9c:	02197908 	andseq	r7, r9, #8, 18	; 0x20000
    3fa0:	0305007d 	movweq	r0, #20605	; 0x507d
    3fa4:	00009ea0 	andeq	r9, r0, r0, lsr #29
    3fa8:	8fe01a00 	svchi	0x00e01a00
    3fac:	0ac20000 	beq	ff083fb4 <__bss_end__+0xff07999c>
    3fb0:	1c000000 	stcne	0, cr0, [r0], {-0}
    3fb4:	000000b9 	strheq	r0, [r0], -r9
    3fb8:	000008bb 			; <UNDEFINED> instruction: 0x000008bb
    3fbc:	00002c1d 	andeq	r2, r0, sp, lsl ip
    3fc0:	1c003f00 	stcne	15, cr3, [r0], {-0}
    3fc4:	000000c0 	andeq	r0, r0, r0, asr #1
    3fc8:	000008cb 	andeq	r0, r0, fp, asr #17
    3fcc:	00002c1d 	andeq	r2, r0, sp, lsl ip
    3fd0:	09000400 	stmdbeq	r0, {sl}
    3fd4:	000008bb 			; <UNDEFINED> instruction: 0x000008bb
    3fd8:	0005311e 	andeq	r3, r5, lr, lsl r1
    3fdc:	0e380100 	rsfeqe	f0, f0, f0
    3fe0:	00000717 	andeq	r0, r0, r7, lsl r7
    3fe4:	00008e14 	andeq	r8, r0, r4, lsl lr
    3fe8:	00000038 	andeq	r0, r0, r8, lsr r0
    3fec:	095d9c01 	ldmdbeq	sp, {r0, sl, fp, ip, pc}^
    3ff0:	640e0000 	strvs	r0, [lr], #-0
    3ff4:	01007473 	tsteq	r0, r3, ror r4
    3ff8:	07171c38 			; <UNDEFINED> instruction: 0x07171c38
    3ffc:	28330000 	ldmdacs	r3!, {}	; <UNPREDICTABLE>
    4000:	28290000 	stmdacs	r9!, {}	; <UNPREDICTABLE>
    4004:	6e0e0000 	cdpvs	0, 0, cr0, cr14, cr0, {0}
    4008:	25380100 	ldrcs	r0, [r8, #-256]!	; 0xffffff00
    400c:	00000025 	andeq	r0, r0, r5, lsr #32
    4010:	0000287a 	andeq	r2, r0, sl, ror r8
    4014:	00002876 	andeq	r2, r0, r6, ror r8
    4018:	0100700e 	tsteq	r0, lr
    401c:	07172e38 			; <UNDEFINED> instruction: 0x07172e38
    4020:	28a30000 	stmiacs	r3!, {}	; <UNPREDICTABLE>
    4024:	289b0000 	ldmcs	fp, {}	; <UNPREDICTABLE>
    4028:	b31f0000 	tstlt	pc, #0, 0
    402c:	01000009 	tsteq	r0, r9
    4030:	07173738 			; <UNDEFINED> instruction: 0x07173738
    4034:	28dd0000 	ldmcs	sp, {}^	; <UNPREDICTABLE>
    4038:	28d90000 	ldmcs	r9, {}^	; <UNPREDICTABLE>
    403c:	6c100000 	ldcvs	0, cr0, [r0], {-0}
    4040:	01006e65 	tsteq	r0, r5, ror #28
    4044:	0025063a 	eoreq	r0, r5, sl, lsr r6
    4048:	29030000 	stmdbcs	r3, {}	; <UNPREDICTABLE>
    404c:	28fb0000 	ldmcs	fp!, {}^	; <UNPREDICTABLE>
    4050:	73100000 	tstvc	r0, #0, 0
    4054:	083e0100 	ldmdaeq	lr!, {r8}
    4058:	00000717 	andeq	r0, r0, r7, lsl r7
    405c:	00002951 	andeq	r2, r0, r1, asr r9
    4060:	0000294f 	andeq	r2, r0, pc, asr #18
    4064:	61702000 	cmnvs	r0, r0
    4068:	2e010064 	cdpcs	0, 0, cr0, cr1, cr4, {3}
    406c:	0007170e 	andeq	r1, r7, lr, lsl #14
    4070:	008df000 	addeq	pc, sp, r0
    4074:	00002400 	andeq	r2, r0, r0, lsl #8
    4078:	c09c0100 	addsgt	r0, ip, r0, lsl #2
    407c:	0e000009 	cdpeq	0, 0, cr0, cr0, cr9, {0}
    4080:	2e010070 	mcrcs	0, 0, r0, cr1, cr0, {3}
    4084:	00071718 	andeq	r1, r7, r8, lsl r7
    4088:	00296a00 	eoreq	r6, r9, r0, lsl #20
    408c:	00296400 	eoreq	r6, r9, r0, lsl #8
    4090:	05701f00 	ldrbeq	r1, [r0, #-3840]!	; 0xfffff100
    4094:	2e010000 	cdpcs	0, 0, cr0, cr1, cr0, {0}
    4098:	00071722 	andeq	r1, r7, r2, lsr #14
    409c:	00299900 	eoreq	r9, r9, r0, lsl #18
    40a0:	00299500 	eoreq	r9, r9, r0, lsl #10
    40a4:	04a10f00 	strteq	r0, [r1], #3840	; 0xf00
    40a8:	2e010000 	cdpcs	0, 0, cr0, cr1, cr0, {0}
    40ac:	0000252c 	andeq	r2, r0, ip, lsr #10
    40b0:	10520100 	subsne	r0, r2, r0, lsl #2
    40b4:	006e656c 	rsbeq	r6, lr, ip, ror #10
    40b8:	25062f01 	strcs	r2, [r6, #-3841]	; 0xfffff0ff
    40bc:	bc000000 	stclt	0, cr0, [r0], {-0}
    40c0:	ba000029 	blt	416c <__code_start__-0x3e94>
    40c4:	00000029 	andeq	r0, r0, r9, lsr #32
    40c8:	0004601e 	andeq	r6, r4, lr, lsl r0
    40cc:	0c270100 	stfeqs	f0, [r7], #-0
    40d0:	00000025 	andeq	r0, r0, r5, lsr #32
    40d4:	00008ddc 	ldrdeq	r8, [r0], -ip
    40d8:	00000014 	andeq	r0, r0, r4, lsl r0
    40dc:	09ed9c01 	stmibeq	sp!, {r0, sl, fp, ip, pc}^
    40e0:	630e0000 	movwvs	r0, #57344	; 0xe000
    40e4:	18270100 	stmdane	r7!, {r8}
    40e8:	00000025 	andeq	r0, r0, r5, lsr #32
    40ec:	000029d5 	ldrdeq	r2, [r0], -r5
    40f0:	000029cf 	andeq	r2, r0, pc, asr #19
    40f4:	04f12100 	ldrbteq	r2, [r1], #256	; 0x100
    40f8:	1f010000 	svcne	0x00010000
    40fc:	00900006 	addseq	r0, r0, r6
    4100:	00006400 	andeq	r6, r0, r0, lsl #8
    4104:	7d9c0100 	ldfvcs	f0, [ip]
    4108:	1f00000a 	svcne	0x0000000a
    410c:	000004ce 	andeq	r0, r0, lr, asr #9
    4110:	9e1b1f01 	cdpls	15, 1, cr1, cr11, cr1, {0}
    4114:	07000000 	streq	r0, [r0, -r0]
    4118:	0300002a 	movweq	r0, #42	; 0x2a
    411c:	1f00002a 	svcne	0x0000002a
    4120:	00000529 	andeq	r0, r0, r9, lsr #10
    4124:	d1301f01 	teqle	r0, r1, lsl #30
    4128:	2c000000 	stccs	0, cr0, [r0], {-0}
    412c:	2800002a 	stmdacs	r0, {r1, r3, r5}
    4130:	1200002a 	andne	r0, r0, #42, 0	; 0x2a
    4134:	000004a7 	andeq	r0, r0, r7, lsr #9
    4138:	00000a8d 	andeq	r0, r0, sp, lsl #21
    413c:	9fd80305 	svcls	0x00d80305
    4140:	48180000 	ldmdami	r8, {}	; <UNPREDICTABLE>
    4144:	9e000090 	mcrls	0, 0, r0, cr0, cr0, {4}
    4148:	7300000a 	movwvc	r0, #10
    414c:	1900000a 	stmdbne	r0, {r1, r3}
    4150:	03055001 	movweq	r5, #20481	; 0x5001
    4154:	00009e8c 	andeq	r9, r0, ip, lsl #29
    4158:	05510119 	ldrbeq	r0, [r1, #-281]	; 0xfffffee7
    415c:	009e7803 	addseq	r7, lr, r3, lsl #16
    4160:	52011900 	andpl	r1, r1, #0, 18
    4164:	9fd80305 	svcls	0x00d80305
    4168:	01190000 	tsteq	r9, r0
    416c:	20080253 	andcs	r0, r8, r3, asr r2
    4170:	007d0219 	rsbseq	r0, sp, r9, lsl r2
    4174:	9ec80305 	cdpls	3, 12, cr0, cr8, cr5, {0}
    4178:	1a000000 	bne	4180 <__code_start__-0x3e80>
    417c:	0000904c 	andeq	r9, r0, ip, asr #32
    4180:	00000ac2 	andeq	r0, r0, r2, asr #21
    4184:	00c01c00 	sbceq	r1, r0, r0, lsl #24
    4188:	0a8d0000 	beq	fe344190 <__bss_end__+0xfe339b78>
    418c:	2c1d0000 	ldccs	0, cr0, [sp], {-0}
    4190:	0e000000 	cdpeq	0, 0, cr0, cr0, cr0, {0}
    4194:	0a7d0900 	beq	1f4659c <__bss_end__+0x1f3bf84>
    4198:	68220000 	stmdavs	r2!, {}	; <UNPREDICTABLE>
    419c:	68000005 	stmdavs	r0, {r0, r2}
    41a0:	03000005 	movweq	r0, #5
    41a4:	0f2205f0 	svceq	0x002205f0
    41a8:	0f000004 	svceq	0x00000004
    41ac:	03000004 	movweq	r0, #4
    41b0:	40220628 	eormi	r0, r2, r8, lsr #12
    41b4:	40000005 	andmi	r0, r0, r5
    41b8:	03000005 	movweq	r0, #5
    41bc:	0a2205ef 	beq	885980 <__bss_end__+0x87b368>
    41c0:	0a000005 	beq	41dc <__code_start__-0x3e24>
    41c4:	03000005 	movweq	r0, #5
    41c8:	b42207f2 	strtlt	r0, [r2], #-2034	; 0xfffff80e
    41cc:	b4000004 	strlt	r0, [r0], #-4
    41d0:	03000004 	movweq	r0, #4
    41d4:	3922066e 	stmdbcc	r2!, {r1, r2, r3, r5, r6, r9, sl}
    41d8:	39000005 	stmdbcc	r0, {r0, r2}
    41dc:	03000005 	movweq	r0, #5
    41e0:	0a0007f3 	beq	61b4 <__code_start__-0x1e4c>
    41e4:	04000001 	streq	r0, [r0], #-1
    41e8:	0008e100 	andeq	lr, r8, r0, lsl #2
    41ec:	de010400 	cfcpysle	mvf0, mvf1
    41f0:	0c000002 	stceq	0, cr0, [r0], {2}
    41f4:	0000058c 	andeq	r0, r0, ip, lsl #11
    41f8:	000003bf 			; <UNDEFINED> instruction: 0x000003bf
    41fc:	000004e0 	andeq	r0, r0, r0, ror #9
    4200:	00000000 	andeq	r0, r0, r0
    4204:	00001a22 	andeq	r1, r0, r2, lsr #20
    4208:	69050402 	stmdbvs	r5, {r1, sl}
    420c:	0300746e 	movweq	r7, #1134	; 0x46e
    4210:	00a90704 	adceq	r0, r9, r4, lsl #14
    4214:	01030000 	mrseq	r0, (UNDEF: 3)
    4218:	00005806 	andeq	r5, r0, r6, lsl #16
    421c:	05020300 	streq	r0, [r2, #-768]	; 0xfffffd00
    4220:	000000d6 	ldrdeq	r0, [r0], -r6
    4224:	c1050403 	tstgt	r5, r3, lsl #8
    4228:	03000000 	movweq	r0, #0
    422c:	00bc0508 	adcseq	r0, ip, r8, lsl #10
    4230:	01030000 	mrseq	r0, (UNDEF: 3)
    4234:	00005608 	andeq	r5, r0, r8, lsl #12
    4238:	07020300 	streq	r0, [r2, -r0, lsl #6]
    423c:	00000064 	andeq	r0, r0, r4, rrx
    4240:	a4070403 	strge	r0, [r7], #-1027	; 0xfffffbfd
    4244:	03000000 	movweq	r0, #0
    4248:	009f0708 	addseq	r0, pc, r8, lsl #14
    424c:	25040000 	strcs	r0, [r4, #-0]
    4250:	7a000000 	bvc	4258 <__code_start__-0x3da8>
    4254:	05000000 	streq	r0, [r0, #-0]
    4258:	00000025 	andeq	r0, r0, r5, lsr #32
    425c:	00ca0600 	sbceq	r0, sl, r0, lsl #12
    4260:	1c020000 	stcne	0, cr0, [r2], {-0}
    4264:	0000860e 	andeq	r8, r0, lr, lsl #12
    4268:	6b040700 	blvs	105e70 <__bss_end__+0xfb858>
    426c:	04000000 	streq	r0, [r0], #-0
    4270:	00000025 	andeq	r0, r0, r5, lsr #32
    4274:	0000009b 	muleq	r0, fp, r0
    4278:	00009b05 	andeq	r9, r0, r5, lsl #22
    427c:	04070000 	streq	r0, [r7], #-0
    4280:	000000a8 	andeq	r0, r0, r8, lsr #1
    4284:	5f080103 	svcpl	0x00080103
    4288:	08000000 	stmdaeq	r0, {}	; <UNPREDICTABLE>
    428c:	000000a1 	andeq	r0, r0, r1, lsr #1
    4290:	00044d06 	andeq	r4, r4, r6, lsl #26
    4294:	0e210200 	cdpeq	2, 2, cr0, cr1, cr0, {0}
    4298:	000000b9 	strheq	r0, [r0], -r9
    429c:	008c0407 	addeq	r0, ip, r7, lsl #8
    42a0:	7e090000 	cdpvc	0, 0, cr0, cr9, cr0, {0}
    42a4:	01000005 	tsteq	r0, r5
    42a8:	952c060c 	strls	r0, [ip, #-1548]!	; 0xfffff9f4
    42ac:	00100000 	andseq	r0, r0, r0
    42b0:	9c010000 	stcls	0, cr0, [r1], {-0}
    42b4:	000000e8 	andeq	r0, r0, r8, ror #1
    42b8:	0100720a 	tsteq	r0, sl, lsl #4
    42bc:	002c0e0d 	eoreq	r0, ip, sp, lsl #28
    42c0:	2a530000 	bcs	14c42c8 <__bss_end__+0x14b9cb0>
    42c4:	2a4d0000 	bcs	13442cc <__bss_end__+0x1339cb4>
    42c8:	0b000000 	bleq	42d0 <__code_start__-0x3d30>
    42cc:	000000e0 	andeq	r0, r0, r0, ror #1
    42d0:	1c060301 	stcne	3, cr0, [r6], {1}
    42d4:	10000095 	mulne	r0, r5, r0
    42d8:	01000000 	mrseq	r0, (UNDEF: 0)
    42dc:	00720a9c 			; <UNDEFINED> instruction: 0x00720a9c
    42e0:	2c0e0401 	cfstrscs	mvf0, [lr], {1}
    42e4:	88000000 	stmdahi	r0, {}	; <UNPREDICTABLE>
    42e8:	8200002a 	andhi	r0, r0, #42, 0	; 0x2a
    42ec:	0000002a 	andeq	r0, r0, sl, lsr #32
    42f0:	00012f00 	andeq	r2, r1, r0, lsl #30
    42f4:	8a000400 	bhi	52fc <__code_start__-0x2d04>
    42f8:	04000009 	streq	r0, [r0], #-9
    42fc:	0002de01 	andeq	sp, r2, r1, lsl #28
    4300:	05b40c00 	ldreq	r0, [r4, #3072]!	; 0xc00
    4304:	03bf0000 			; <UNDEFINED> instruction: 0x03bf0000
    4308:	953c0000 	ldrls	r0, [ip, #-0]!
    430c:	002c0000 	eoreq	r0, ip, r0
    4310:	1aea0000 	bne	ffa84318 <__bss_end__+0xffa79d00>
    4314:	04020000 	streq	r0, [r2], #-0
    4318:	746e6905 	strbtvc	r6, [lr], #-2309	; 0xfffff6fb
    431c:	07040300 	streq	r0, [r4, -r0, lsl #6]
    4320:	000000a9 	andeq	r0, r0, r9, lsr #1
    4324:	58060103 	stmdapl	r6, {r0, r1, r8}
    4328:	03000000 	movweq	r0, #0
    432c:	00d60502 	sbcseq	r0, r6, r2, lsl #10
    4330:	04030000 	streq	r0, [r3], #-0
    4334:	0000c105 	andeq	ip, r0, r5, lsl #2
    4338:	05080300 	streq	r0, [r8, #-768]	; 0xfffffd00
    433c:	000000bc 	strheq	r0, [r0], -ip
    4340:	56080103 	strpl	r0, [r8], -r3, lsl #2
    4344:	03000000 	movweq	r0, #0
    4348:	00640702 	rsbeq	r0, r4, r2, lsl #14
    434c:	04030000 	streq	r0, [r3], #-0
    4350:	0000a407 	andeq	sl, r0, r7, lsl #8
    4354:	07080300 	streq	r0, [r8, -r0, lsl #6]
    4358:	0000009f 	muleq	r0, pc, r0	; <UNPREDICTABLE>
    435c:	00002504 	andeq	r2, r0, r4, lsl #10
    4360:	00007a00 	andeq	r7, r0, r0, lsl #20
    4364:	00250500 	eoreq	r0, r5, r0, lsl #10
    4368:	06000000 	streq	r0, [r0], -r0
    436c:	000000ca 	andeq	r0, r0, sl, asr #1
    4370:	860e1c02 	strhi	r1, [lr], -r2, lsl #24
    4374:	07000000 	streq	r0, [r0, -r0]
    4378:	00006b04 	andeq	r6, r0, r4, lsl #22
    437c:	00250400 	eoreq	r0, r5, r0, lsl #8
    4380:	009b0000 	addseq	r0, fp, r0
    4384:	9b050000 	blls	14438c <__bss_end__+0x139d74>
    4388:	00000000 	andeq	r0, r0, r0
    438c:	00a80407 	adceq	r0, r8, r7, lsl #8
    4390:	01030000 	mrseq	r0, (UNDEF: 3)
    4394:	00005f08 	andeq	r5, r0, r8, lsl #30
    4398:	00a10800 	adceq	r0, r1, r0, lsl #16
    439c:	4d060000 	stcmi	0, cr0, [r6, #-0]
    43a0:	02000004 	andeq	r0, r0, #4, 0
    43a4:	00b90e21 	adcseq	r0, r9, r1, lsr #28
    43a8:	04070000 	streq	r0, [r7], #-0
    43ac:	0000008c 	andeq	r0, r0, ip, lsl #1
    43b0:	0004b409 	andeq	fp, r4, r9, lsl #8
    43b4:	06040100 	streq	r0, [r4], -r0, lsl #2
    43b8:	0000953c 	andeq	r9, r0, ip, lsr r5
    43bc:	0000002c 	andeq	r0, r0, ip, lsr #32
    43c0:	010e9c01 	tsteq	lr, r1, lsl #24
    43c4:	500a0000 	andpl	r0, sl, r0
    43c8:	e8000095 	stmda	r0, {r0, r2, r4, r7}
    43cc:	0b000000 	bleq	43d4 <__code_start__-0x3c2c>
    43d0:	03055001 	movweq	r5, #20481	; 0x5001
    43d4:	00009ff4 	strdeq	r9, [r0], -r4
    43d8:	95540c00 	ldrbls	r0, [r4, #-3072]	; 0xfffff400
    43dc:	010e0000 	mrseq	r0, (UNDEF: 14)
    43e0:	5c0d0000 	stcpl	0, cr0, [sp], {-0}
    43e4:	1a000095 	bne	4640 <__code_start__-0x39c0>
    43e8:	04000001 	streq	r0, [r0], #-1
    43ec:	0b000001 	bleq	43f8 <__code_start__-0x3c08>
    43f0:	3a015001 	bcc	583fc <__bss_end__+0x4dde4>
    43f4:	95600c00 	strbls	r0, [r0, #-3072]!	; 0xfffff400
    43f8:	01260000 			; <UNDEFINED> instruction: 0x01260000
    43fc:	0e000000 	cdpeq	0, 0, cr0, cr0, cr0, {0}
    4400:	000005cf 	andeq	r0, r0, pc, asr #11
    4404:	000005cf 	andeq	r0, r0, pc, asr #11
    4408:	0e064d02 	cdpeq	13, 0, cr4, cr6, cr2, {0}
    440c:	000005ab 	andeq	r0, r0, fp, lsr #11
    4410:	000005ab 	andeq	r0, r0, fp, lsr #11
    4414:	0e065802 	cdpeq	8, 0, cr5, cr6, cr2, {0}
    4418:	000005a0 	andeq	r0, r0, r0, lsr #11
    441c:	000005a0 	andeq	r0, r0, r0, lsr #11
    4420:	00066b02 	andeq	r6, r6, r2, lsl #22
    4424:	00000189 	andeq	r0, r0, r9, lsl #3
    4428:	0a4a0004 	beq	1284440 <__bss_end__+0x1279e28>
    442c:	01040000 	mrseq	r0, (UNDEF: 4)
    4430:	000002de 	ldrdeq	r0, [r0], -lr
    4434:	0006050c 	andeq	r0, r6, ip, lsl #10
    4438:	0003bf00 	andeq	fp, r3, r0, lsl #30
    443c:	00956800 	addseq	r6, r5, r0, lsl #16
    4440:	00003c00 	andeq	r3, r0, r0, lsl #24
    4444:	001b9300 	andseq	r9, fp, r0, lsl #6
    4448:	05040200 	streq	r0, [r4, #-512]	; 0xfffffe00
    444c:	00746e69 	rsbseq	r6, r4, r9, ror #28
    4450:	a9070403 	stmdbge	r7, {r0, r1, sl}
    4454:	03000000 	movweq	r0, #0
    4458:	00580601 	subseq	r0, r8, r1, lsl #12
    445c:	02030000 	andeq	r0, r3, #0, 0
    4460:	0000d605 	andeq	sp, r0, r5, lsl #12
    4464:	05040300 	streq	r0, [r4, #-768]	; 0xfffffd00
    4468:	000000c1 	andeq	r0, r0, r1, asr #1
    446c:	bc050803 	stclt	8, cr0, [r5], {3}
    4470:	03000000 	movweq	r0, #0
    4474:	00560801 	subseq	r0, r6, r1, lsl #16
    4478:	02030000 	andeq	r0, r3, #0, 0
    447c:	00006407 	andeq	r6, r0, r7, lsl #8
    4480:	07040300 	streq	r0, [r4, -r0, lsl #6]
    4484:	000000a4 	andeq	r0, r0, r4, lsr #1
    4488:	9f070803 	svcls	0x00070803
    448c:	04000000 	streq	r0, [r0], #-0
    4490:	00000025 	andeq	r0, r0, r5, lsr #32
    4494:	0000007a 	andeq	r0, r0, sl, ror r0
    4498:	00002505 	andeq	r2, r0, r5, lsl #10
    449c:	ca060000 	bgt	1844a4 <__bss_end__+0x179e8c>
    44a0:	02000000 	andeq	r0, r0, #0, 0
    44a4:	00860e1c 	addeq	r0, r6, ip, lsl lr
    44a8:	04070000 	streq	r0, [r7], #-0
    44ac:	0000006b 	andeq	r0, r0, fp, rrx
    44b0:	00002504 	andeq	r2, r0, r4, lsl #10
    44b4:	00009b00 	andeq	r9, r0, r0, lsl #22
    44b8:	009b0500 	addseq	r0, fp, r0, lsl #10
    44bc:	07000000 	streq	r0, [r0, -r0]
    44c0:	0000a804 	andeq	sl, r0, r4, lsl #16
    44c4:	08010300 	stmdaeq	r1, {r8, r9}
    44c8:	0000005f 	andeq	r0, r0, pc, asr r0
    44cc:	0000a108 	andeq	sl, r0, r8, lsl #2
    44d0:	044d0600 	strbeq	r0, [sp], #-1536	; 0xfffffa00
    44d4:	21020000 	mrscs	r0, (UNDEF: 2)
    44d8:	0000b90e 	andeq	fp, r0, lr, lsl #18
    44dc:	8c040700 	stchi	7, cr0, [r4], {-0}
    44e0:	09000000 	stmdbeq	r0, {}	; <UNPREDICTABLE>
    44e4:	000005dd 	ldrdeq	r0, [r0], -sp
    44e8:	68060401 	stmdavs	r6, {r0, sl}
    44ec:	3c000095 	stccc	0, cr0, [r0], {149}	; 0x95
    44f0:	01000000 	mrseq	r0, (UNDEF: 0)
    44f4:	0001549c 	muleq	r1, ip, r4
    44f8:	04930600 	ldreq	r0, [r3], #1536	; 0x600
    44fc:	05010000 	streq	r0, [r1, #-0]
    4500:	00002510 	andeq	r2, r0, r0, lsl r5
    4504:	04d60600 	ldrbeq	r0, [r6], #1536	; 0x600
    4508:	05010000 	streq	r0, [r1, #-0]
    450c:	0000251f 	andeq	r2, r0, pc, lsl r5
    4510:	003a0a00 	eorseq	r0, sl, r0, lsl #20
    4514:	06010000 	streq	r0, [r1], -r0
    4518:	73620b07 	cmnvc	r2, #7168	; 0x1c00
    451c:	0a010073 	beq	446f0 <__bss_end__+0x3a0d8>
    4520:	0001540a 	andeq	r5, r1, sl, lsl #8
    4524:	002abd00 	eoreq	fp, sl, r0, lsl #26
    4528:	002ab700 	eoreq	fp, sl, r0, lsl #14
    452c:	05e50c00 	strbeq	r0, [r5, #3072]!	; 0xc00
    4530:	0b010000 	bleq	44538 <__bss_end__+0x39f20>
    4534:	0001540a 	andeq	r5, r1, sl, lsl #8
    4538:	958c0d00 	strls	r0, [ip, #3328]	; 0xd00
    453c:	00080000 	andeq	r0, r8, r0
    4540:	012f0000 			; <UNDEFINED> instruction: 0x012f0000
    4544:	690e0000 	stmdbvs	lr, {}	; <UNPREDICTABLE>
    4548:	1401006e 	strne	r0, [r1], #-110	; 0xffffff92
    454c:	00002c05 	andeq	r2, r0, r5, lsl #24
    4550:	0f000100 	svceq	0x00000100
    4554:	00009570 	andeq	r9, r0, r0, ror r5
    4558:	0000015a 	andeq	r0, r0, sl, asr r1
    455c:	00958c0f 	addseq	r8, r5, pc, lsl #24
    4560:	00016700 	andeq	r6, r1, r0, lsl #14
    4564:	95980f00 	ldrls	r0, [r8, #3840]	; 0xf00
    4568:	01730000 	cmneq	r3, r0
    456c:	9c0f0000 	stcls	0, cr0, [pc], {-0}
    4570:	80000095 	mulhi	r0, r5, r0
    4574:	00000001 	andeq	r0, r0, r1
    4578:	00250407 	eoreq	r0, r5, r7, lsl #8
    457c:	f7100000 			; <UNDEFINED> instruction: 0xf7100000
    4580:	f7000005 			; <UNDEFINED> instruction: 0xf7000005
    4584:	02000005 	andeq	r0, r0, #5, 0
    4588:	11060136 	tstne	r6, r6, lsr r1
    458c:	000005ed 	andeq	r0, r0, sp, ror #11
    4590:	000005ed 	andeq	r0, r0, sp, ror #11
    4594:	10063b02 	andne	r3, r6, r2, lsl #22
    4598:	0000003a 	andeq	r0, r0, sl, lsr r0
    459c:	0000003a 	andeq	r0, r0, sl, lsr r0
    45a0:	06010a02 	streq	r0, [r1], -r2, lsl #20
    45a4:	0004b411 	andeq	fp, r4, r1, lsl r4
    45a8:	0004b400 	andeq	fp, r4, r0, lsl #8
    45ac:	066e0200 	strbteq	r0, [lr], -r0, lsl #4
    45b0:	0000ce00 	andeq	ip, r0, r0, lsl #28
    45b4:	46000400 	strmi	r0, [r0], -r0, lsl #8
    45b8:	0400000b 	streq	r0, [r0], #-11
    45bc:	0002de01 	andeq	sp, r2, r1, lsl #28
    45c0:	061a0c00 	ldreq	r0, [sl], -r0, lsl #24
    45c4:	03bf0000 			; <UNDEFINED> instruction: 0x03bf0000
    45c8:	95a40000 	strls	r0, [r4, #0]!
    45cc:	00040000 	andeq	r0, r4, r0
    45d0:	1c560000 	mrane	r0, r6, acc0
    45d4:	04020000 	streq	r0, [r2], #-0
    45d8:	746e6905 	strbtvc	r6, [lr], #-2309	; 0xfffff6fb
    45dc:	07040300 	streq	r0, [r4, -r0, lsl #6]
    45e0:	000000a9 	andeq	r0, r0, r9, lsr #1
    45e4:	58060103 	stmdapl	r6, {r0, r1, r8}
    45e8:	03000000 	movweq	r0, #0
    45ec:	00d60502 	sbcseq	r0, r6, r2, lsl #10
    45f0:	04030000 	streq	r0, [r3], #-0
    45f4:	0000c105 	andeq	ip, r0, r5, lsl #2
    45f8:	05080300 	streq	r0, [r8, #-768]	; 0xfffffd00
    45fc:	000000bc 	strheq	r0, [r0], -ip
    4600:	56080103 	strpl	r0, [r8], -r3, lsl #2
    4604:	03000000 	movweq	r0, #0
    4608:	00640702 	rsbeq	r0, r4, r2, lsl #14
    460c:	04030000 	streq	r0, [r3], #-0
    4610:	0000a407 	andeq	sl, r0, r7, lsl #8
    4614:	07080300 	streq	r0, [r8, -r0, lsl #6]
    4618:	0000009f 	muleq	r0, pc, r0	; <UNPREDICTABLE>
    461c:	00002504 	andeq	r2, r0, r4, lsl #10
    4620:	00007a00 	andeq	r7, r0, r0, lsl #20
    4624:	00250500 	eoreq	r0, r5, r0, lsl #10
    4628:	06000000 	streq	r0, [r0], -r0
    462c:	000000ca 	andeq	r0, r0, sl, asr #1
    4630:	860e1c02 	strhi	r1, [lr], -r2, lsl #24
    4634:	07000000 	streq	r0, [r0, -r0]
    4638:	00006b04 	andeq	r6, r0, r4, lsl #22
    463c:	00250400 	eoreq	r0, r5, r0, lsl #8
    4640:	009b0000 	addseq	r0, fp, r0
    4644:	9b050000 	blls	14464c <__bss_end__+0x13a034>
    4648:	00000000 	andeq	r0, r0, r0
    464c:	00a80407 	adceq	r0, r8, r7, lsl #8
    4650:	01030000 	mrseq	r0, (UNDEF: 3)
    4654:	00005f08 	andeq	r5, r0, r8, lsl #30
    4658:	00a10800 	adceq	r0, r1, r0, lsl #16
    465c:	4d060000 	stcmi	0, cr0, [r6, #-0]
    4660:	02000004 	andeq	r0, r0, #4, 0
    4664:	00b90e21 	adcseq	r0, r9, r1, lsr #28
    4668:	04070000 	streq	r0, [r7], #-0
    466c:	0000008c 	andeq	r0, r0, ip, lsl #1
    4670:	0005f709 	andeq	pc, r5, r9, lsl #14
    4674:	06040100 	streq	r0, [r4], -r0, lsl #2
    4678:	000095a4 	andeq	r9, r0, r4, lsr #11
    467c:	00000004 	andeq	r0, r0, r4
    4680:	36009c01 	strcc	r9, [r0], -r1, lsl #24
    4684:	04000002 	streq	r0, [r0], #-2
    4688:	000bbf00 	andeq	fp, fp, r0, lsl #30
    468c:	de010400 	cfcpysle	mvf0, mvf1
    4690:	0c000002 	stceq	0, cr0, [r0], {2}
    4694:	00000662 	andeq	r0, r0, r2, ror #12
    4698:	000003bf 			; <UNDEFINED> instruction: 0x000003bf
    469c:	000004f0 	strdeq	r0, [r0], -r0	; <UNPREDICTABLE>
    46a0:	00000000 	andeq	r0, r0, r0
    46a4:	00001cfd 	strdeq	r1, [r0], -sp
    46a8:	69050402 	stmdbvs	r5, {r1, sl}
    46ac:	0300746e 	movweq	r7, #1134	; 0x46e
    46b0:	00000025 	andeq	r0, r0, r5, lsr #32
    46b4:	a9070404 	stmdbge	r7, {r2, sl}
    46b8:	04000000 	streq	r0, [r0], #-0
    46bc:	00580601 	subseq	r0, r8, r1, lsl #12
    46c0:	02040000 	andeq	r0, r4, #0, 0
    46c4:	0000d605 	andeq	sp, r0, r5, lsl #12
    46c8:	05040400 	streq	r0, [r4, #-1024]	; 0xfffffc00
    46cc:	000000c1 	andeq	r0, r0, r1, asr #1
    46d0:	bc050804 	stclt	8, cr0, [r5], {4}
    46d4:	04000000 	streq	r0, [r0], #-0
    46d8:	00560801 	subseq	r0, r6, r1, lsl #16
    46dc:	02040000 	andeq	r0, r4, #0, 0
    46e0:	00006407 	andeq	r6, r0, r7, lsl #8
    46e4:	07040400 	streq	r0, [r4, -r0, lsl #8]
    46e8:	000000a4 	andeq	r0, r0, r4, lsr #1
    46ec:	9f070804 	svcls	0x00070804
    46f0:	05000000 	streq	r0, [r0, #-0]
    46f4:	00000025 	andeq	r0, r0, r5, lsr #32
    46f8:	0000007f 	andeq	r0, r0, pc, ror r0
    46fc:	00002506 	andeq	r2, r0, r6, lsl #10
    4700:	ca070000 	bgt	1c4708 <__bss_end__+0x1ba0f0>
    4704:	02000000 	andeq	r0, r0, #0, 0
    4708:	008b0e1c 	addeq	r0, fp, ip, lsl lr
    470c:	04080000 	streq	r0, [r8], #-0
    4710:	00000070 	andeq	r0, r0, r0, ror r0
    4714:	00002505 	andeq	r2, r0, r5, lsl #10
    4718:	0000a000 	andeq	sl, r0, r0
    471c:	00a00600 	adceq	r0, r0, r0, lsl #12
    4720:	08000000 	stmdaeq	r0, {}	; <UNPREDICTABLE>
    4724:	0000ad04 	andeq	sl, r0, r4, lsl #26
    4728:	08010400 	stmdaeq	r1, {sl}
    472c:	0000005f 	andeq	r0, r0, pc, asr r0
    4730:	0000a603 	andeq	sl, r0, r3, lsl #12
    4734:	044d0700 	strbeq	r0, [sp], #-1792	; 0xfffff900
    4738:	21020000 	mrscs	r0, (UNDEF: 2)
    473c:	0000be0e 	andeq	fp, r0, lr, lsl #28
    4740:	91040800 	tstls	r4, r0, lsl #16
    4744:	09000000 	stmdbeq	r0, {}	; <UNPREDICTABLE>
    4748:	00000686 	andeq	r0, r0, r6, lsl #13
    474c:	31110d01 	tstcc	r1, r1, lsl #26
    4750:	0a000000 	beq	4758 <__code_start__-0x38a8>
    4754:	000005a0 	andeq	r0, r0, r0, lsr #11
    4758:	d4061f01 	strle	r1, [r6], #-3841	; 0xfffff0ff
    475c:	54000095 	strpl	r0, [r0], #-149	; 0xffffff6b
    4760:	01000000 	mrseq	r0, (UNDEF: 0)
    4764:	0001ae9c 	muleq	r1, ip, lr
    4768:	06aa0b00 	strteq	r0, [sl], r0, lsl #22
    476c:	2c010000 	stccs	0, cr0, [r1], {-0}
    4770:	00002c0f 	andeq	r2, r0, pc, lsl #24
    4774:	002aea00 	eoreq	lr, sl, r0, lsl #20
    4778:	002ae800 	eoreq	lr, sl, r0, lsl #16
    477c:	06450b00 	strbeq	r0, [r5], -r0, lsl #22
    4780:	2d010000 	stccs	0, cr0, [r1, #-0]
    4784:	00002c0f 	andeq	r2, r0, pc, lsl #24
    4788:	002b0400 	eoreq	r0, fp, r0, lsl #8
    478c:	002b0200 	eoreq	r0, fp, r0, lsl #4
    4790:	06770b00 	ldrbteq	r0, [r7], -r0, lsl #22
    4794:	2e010000 	cdpcs	0, 0, cr0, cr1, cr0, {0}
    4798:	00002c0f 	andeq	r2, r0, pc, lsl #24
    479c:	002b1e00 	eoreq	r1, fp, r0, lsl #28
    47a0:	002b1c00 	eoreq	r1, fp, r0, lsl #24
    47a4:	06910b00 	ldreq	r0, [r1], r0, lsl #22
    47a8:	2f010000 	svccs	0x00010000
    47ac:	00002c0f 	andeq	r2, r0, pc, lsl #24
    47b0:	002b3700 	eoreq	r3, fp, r0, lsl #14
    47b4:	002b3500 	eoreq	r3, fp, r0, lsl #10
    47b8:	95dc0c00 	ldrbls	r0, [ip, #3072]	; 0xc00
    47bc:	01d90000 	bicseq	r0, r9, r0
    47c0:	e80c0000 	stmda	ip, {}	; <UNPREDICTABLE>
    47c4:	08000095 	stmdaeq	r0, {r0, r2, r4, r7}
    47c8:	0c000002 	stceq	0, cr0, [r0], {2}
    47cc:	000095ec 	andeq	r9, r0, ip, ror #11
    47d0:	00000215 	andeq	r0, r0, r5, lsl r2
    47d4:	0095f40d 	addseq	pc, r5, sp, lsl #8
    47d8:	00022100 	andeq	r2, r2, r0, lsl #2
    47dc:	00016400 	andeq	r6, r1, r0, lsl #8
    47e0:	50010e00 	andpl	r0, r1, r0, lsl #28
    47e4:	0d003a01 	vstreq	s6, [r0, #-4]
    47e8:	00009600 	andeq	r9, r0, r0, lsl #12
    47ec:	0000022d 	andeq	r0, r0, sp, lsr #4
    47f0:	00000184 	andeq	r0, r0, r4, lsl #3
    47f4:	0550010e 	ldrbeq	r0, [r0, #-270]	; 0xfffffef2
    47f8:	1000240c 	andne	r2, r0, ip, lsl #8
    47fc:	51010e20 	tstpl	r1, r0, lsr #28
    4800:	00010c05 	andeq	r0, r1, r5, lsl #24
    4804:	0d005a00 	vstreq	s10, [r0, #-0]
    4808:	0000960c 	andeq	r9, r0, ip, lsl #12
    480c:	0000022d 	andeq	r0, r0, sp, lsr #4
    4810:	000001a4 	andeq	r0, r0, r4, lsr #3
    4814:	0550010e 	ldrbeq	r0, [r0, #-270]	; 0xfffffef2
    4818:	10001c0c 	andne	r1, r0, ip, lsl #24
    481c:	51010e20 	tstpl	r1, r0, lsr #28
    4820:	00200c05 	eoreq	r0, r0, r5, lsl #24
    4824:	0c005a00 			; <UNDEFINED> instruction: 0x0c005a00
    4828:	00009614 	andeq	r9, r0, r4, lsl r6
    482c:	000001ae 	andeq	r0, r0, lr, lsr #3
    4830:	06530f00 	ldrbeq	r0, [r3], -r0, lsl #30
    4834:	17010000 	strne	r0, [r1, -r0]
    4838:	0095c006 	addseq	ip, r5, r6
    483c:	00001400 	andeq	r1, r0, r0, lsl #8
    4840:	d99c0100 	ldmible	ip, {r8}
    4844:	0b000001 	bleq	4850 <__code_start__-0x37b0>
    4848:	000006b2 			; <UNDEFINED> instruction: 0x000006b2
    484c:	310e1801 	tstcc	lr, r1, lsl #16
    4850:	52000000 	andpl	r0, r0, #0, 0
    4854:	4c00002b 	stcmi	0, cr0, [r0], {43}	; 0x2b
    4858:	0000002b 	andeq	r0, r0, fp, lsr #32
    485c:	00068310 	andeq	r8, r6, r0, lsl r3
    4860:	050e0100 	streq	r0, [lr, #-256]	; 0xffffff00
    4864:	00000025 	andeq	r0, r0, r5, lsr #32
    4868:	000095a8 	andeq	r9, r0, r8, lsr #11
    486c:	00000018 	andeq	r0, r0, r8, lsl r0
    4870:	02089c01 	andeq	r9, r8, #256	; 0x100
    4874:	b20b0000 	andlt	r0, fp, #0, 0
    4878:	01000006 	tsteq	r0, r6
    487c:	00310e0f 	eorseq	r0, r1, pc, lsl #28
    4880:	2b800000 	blcs	fe004888 <__bss_end__+0xfdffa270>
    4884:	2b7c0000 	blcs	1f0488c <__bss_end__+0x1efa274>
    4888:	11000000 	mrsne	r0, (UNDEF: 0)
    488c:	00000636 	andeq	r0, r0, r6, lsr r6
    4890:	00000636 	andeq	r0, r0, r6, lsr r6
    4894:	06013b02 	streq	r3, [r1], -r2, lsl #22
    4898:	0005cf12 	andeq	ip, r5, r2, lsl pc
    489c:	0005cf00 	andeq	ip, r5, r0, lsl #30
    48a0:	064d0200 	strbeq	r0, [sp], -r0, lsl #4
    48a4:	0005ab12 	andeq	sl, r5, r2, lsl fp
    48a8:	0005ab00 	andeq	sl, r5, r0, lsl #22
    48ac:	06580200 	ldrbeq	r0, [r8], -r0, lsl #4
    48b0:	00064d12 	andeq	r4, r6, r2, lsl sp
    48b4:	00064d00 	andeq	r4, r6, r0, lsl #26
    48b8:	06b20200 	ldrteq	r0, [r2], r0, lsl #4
    48bc:	00024d00 	andeq	r4, r2, r0, lsl #26
    48c0:	e4000400 	str	r0, [r0], #-1024	; 0xfffffc00
    48c4:	0400000c 	streq	r0, [r0], #-12
    48c8:	0002de01 	andeq	sp, r2, r1, lsl #28
    48cc:	06cd0c00 	strbeq	r0, [sp], r0, lsl #24
    48d0:	03bf0000 			; <UNDEFINED> instruction: 0x03bf0000
    48d4:	96280000 	strtls	r0, [r8], -r0
    48d8:	00840000 	addeq	r0, r4, r0
    48dc:	1df40000 	ldclne	0, cr0, [r4]
    48e0:	04020000 	streq	r0, [r2], #-0
    48e4:	746e6905 	strbtvc	r6, [lr], #-2309	; 0xfffff6fb
    48e8:	07040300 	streq	r0, [r4, -r0, lsl #6]
    48ec:	000000a9 	andeq	r0, r0, r9, lsr #1
    48f0:	58060103 	stmdapl	r6, {r0, r1, r8}
    48f4:	03000000 	movweq	r0, #0
    48f8:	00d60502 	sbcseq	r0, r6, r2, lsl #10
    48fc:	04030000 	streq	r0, [r3], #-0
    4900:	0000c105 	andeq	ip, r0, r5, lsl #2
    4904:	05080300 	streq	r0, [r8, #-768]	; 0xfffffd00
    4908:	000000bc 	strheq	r0, [r0], -ip
    490c:	56080103 	strpl	r0, [r8], -r3, lsl #2
    4910:	03000000 	movweq	r0, #0
    4914:	00640702 	rsbeq	r0, r4, r2, lsl #14
    4918:	04030000 	streq	r0, [r3], #-0
    491c:	0000a407 	andeq	sl, r0, r7, lsl #8
    4920:	07080300 	streq	r0, [r8, -r0, lsl #6]
    4924:	0000009f 	muleq	r0, pc, r0	; <UNPREDICTABLE>
    4928:	00002504 	andeq	r2, r0, r4, lsl #10
    492c:	00007a00 	andeq	r7, r0, r0, lsl #20
    4930:	00250500 	eoreq	r0, r5, r0, lsl #10
    4934:	06000000 	streq	r0, [r0], -r0
    4938:	000000ca 	andeq	r0, r0, sl, asr #1
    493c:	860e1c02 	strhi	r1, [lr], -r2, lsl #24
    4940:	07000000 	streq	r0, [r0, -r0]
    4944:	00006b04 	andeq	r6, r0, r4, lsl #22
    4948:	00250400 	eoreq	r0, r5, r0, lsl #8
    494c:	009b0000 	addseq	r0, fp, r0
    4950:	9b050000 	blls	144958 <__bss_end__+0x13a340>
    4954:	00000000 	andeq	r0, r0, r0
    4958:	00a80407 	adceq	r0, r8, r7, lsl #8
    495c:	01030000 	mrseq	r0, (UNDEF: 3)
    4960:	00005f08 	andeq	r5, r0, r8, lsl #30
    4964:	00a10800 	adceq	r0, r1, r0, lsl #16
    4968:	4d060000 	stcmi	0, cr0, [r6, #-0]
    496c:	02000004 	andeq	r0, r0, #4, 0
    4970:	00b90e21 	adcseq	r0, r9, r1, lsr #28
    4974:	04070000 	streq	r0, [r7], #-0
    4978:	0000008c 	andeq	r0, r0, ip, lsl #1
    497c:	0006c309 	andeq	ip, r6, r9, lsl #6
    4980:	061e0100 	ldreq	r0, [lr], -r0, lsl #2
    4984:	00009694 	muleq	r0, r4, r6
    4988:	00000018 	andeq	r0, r0, r8, lsl r0
    498c:	01099c01 	tsteq	r9, r1, lsl #24
    4990:	730a0000 	movwvc	r0, #40960	; 0xa000
    4994:	01006365 	tsteq	r0, r5, ror #6
    4998:	002c191e 	eoreq	r1, ip, lr, lsl r9
    499c:	2ba30000 	blcs	fe8c49a4 <__bss_end__+0xfe8ba38c>
    49a0:	2b9f0000 	blcs	fe7c49a8 <__bss_end__+0xfe7ba390>
    49a4:	a80b0000 	stmdage	fp, {}	; <UNPREDICTABLE>
    49a8:	09000096 	stmdbeq	r0, {r1, r2, r4, r7}
    49ac:	0c000001 	stceq	0, cr0, [r0], {1}
    49b0:	f3115001 	vhadd.u16	d5, d1, d1
    49b4:	24355001 	ldrtcs	r5, [r5], #-1
    49b8:	1c5001f3 	ldfnee	f0, [r0], {243}	; 0xf3
    49bc:	01f32432 	mvnseq	r2, r2, lsr r4
    49c0:	24332250 	ldrtcs	r2, [r3], #-592	; 0xfffffdb0
    49c4:	ab090000 	blge	2449cc <__bss_end__+0x23a3b4>
    49c8:	01000005 	tsteq	r0, r5
    49cc:	967c061b 			; <UNDEFINED> instruction: 0x967c061b
    49d0:	00180000 	andseq	r0, r8, r0
    49d4:	9c010000 	stcls	0, cr0, [r1], {-0}
    49d8:	00000152 	andeq	r0, r0, r2, asr r1
    49dc:	00736d0a 	rsbseq	r6, r3, sl, lsl #26
    49e0:	2c181b01 			; <UNDEFINED> instruction: 0x2c181b01
    49e4:	c8000000 	stmdagt	r0, {}	; <UNPREDICTABLE>
    49e8:	c400002b 	strgt	r0, [r0], #-43	; 0xffffffd5
    49ec:	0b00002b 	bleq	4aa0 <__code_start__-0x3560>
    49f0:	00009690 	muleq	r0, r0, r6
    49f4:	00000152 	andeq	r0, r0, r2, asr r1
    49f8:	1150010c 	cmpne	r0, ip, lsl #2
    49fc:	355001f3 	ldrbcc	r0, [r0, #-499]	; 0xfffffe0d
    4a00:	5001f324 	andpl	pc, r1, r4, lsr #6
    4a04:	f324321c 	vqsub.u32	d3, d4, d12
    4a08:	33225001 			; <UNDEFINED> instruction: 0x33225001
    4a0c:	09000024 	stmdbeq	r0, {r2, r5}
    4a10:	000006f6 	strdeq	r0, [r0], -r6
    4a14:	58061201 	stmdapl	r6, {r0, r9, ip}
    4a18:	24000096 	strcs	r0, [r0], #-150	; 0xffffff6a
    4a1c:	01000000 	mrseq	r0, (UNDEF: 0)
    4a20:	0001c29c 	muleq	r1, ip, r2
    4a24:	73750a00 	cmnvc	r5, #0, 20
    4a28:	18120100 	ldmdane	r2, {r8}
    4a2c:	0000002c 	andeq	r0, r0, ip, lsr #32
    4a30:	00002bed 	andeq	r2, r0, sp, ror #23
    4a34:	00002be9 	andeq	r2, r0, r9, ror #23
    4a38:	0062720d 	rsbeq	r7, r2, sp, lsl #4
    4a3c:	2c0e1301 	stccs	3, cr1, [lr], {1}
    4a40:	0d000000 	stceq	0, cr0, [r0, #-0]
    4a44:	0b00002c 	bleq	4afc <__code_start__-0x3504>
    4a48:	0e00002c 	cdpeq	0, 0, cr0, cr0, cr12, {1}
    4a4c:	00009668 	andeq	r9, r0, r8, ror #12
    4a50:	00000014 	andeq	r0, r0, r4, lsl r0
    4a54:	000001b8 			; <UNDEFINED> instruction: 0x000001b8
    4a58:	0061720d 	rsbeq	r7, r1, sp, lsl #4
    4a5c:	2c121501 	cfldr32cs	mvfx1, [r2], {1}
    4a60:	22000000 	andcs	r0, r0, #0, 0
    4a64:	2000002c 	andcs	r0, r0, ip, lsr #32
    4a68:	0f00002c 	svceq	0x0000002c
    4a6c:	0000966c 	andeq	r9, r0, ip, ror #12
    4a70:	000001c2 	andeq	r0, r0, r2, asr #3
    4a74:	96640f00 	strbtls	r0, [r4], -r0, lsl #30
    4a78:	01c20000 	biceq	r0, r2, r0
    4a7c:	10000000 	andne	r0, r0, r0
    4a80:	000006e7 	andeq	r0, r0, r7, ror #13
    4a84:	2c0a0901 			; <UNDEFINED> instruction: 0x2c0a0901
    4a88:	3c000000 	stccc	0, cr0, [r0], {-0}
    4a8c:	1c000096 	stcne	0, cr0, [r0], {150}	; 0x96
    4a90:	01000000 	mrseq	r0, (UNDEF: 0)
    4a94:	00020a9c 	muleq	r2, ip, sl
    4a98:	00750d00 	rsbseq	r0, r5, r0, lsl #26
    4a9c:	2c0e0d01 	stccs	13, cr0, [lr], {1}
    4aa0:	39000000 	stmdbcc	r0, {}	; <UNPREDICTABLE>
    4aa4:	3500002c 	strcc	r0, [r0, #-44]	; 0xffffffd4
    4aa8:	0f00002c 	svceq	0x0000002c
    4aac:	00009644 	andeq	r9, r0, r4, asr #12
    4ab0:	00000238 	andeq	r0, r0, r8, lsr r2
    4ab4:	0096480f 	addseq	r4, r6, pc, lsl #16
    4ab8:	00020a00 	andeq	r0, r2, r0, lsl #20
    4abc:	96500f00 	ldrbls	r0, [r0], -r0, lsl #30
    4ac0:	02380000 	eorseq	r0, r8, #0, 0
    4ac4:	10000000 	andne	r0, r0, r0
    4ac8:	000006ff 	strdeq	r0, [r0], -pc	; <UNPREDICTABLE>
    4acc:	2c0a0401 	cfstrscs	mvf0, [sl], {1}
    4ad0:	28000000 	stmdacs	r0, {}	; <UNPREDICTABLE>
    4ad4:	14000096 	strne	r0, [r0], #-150	; 0xffffff6a
    4ad8:	01000000 	mrseq	r0, (UNDEF: 0)
    4adc:	0002389c 	muleq	r2, ip, r8
    4ae0:	96340b00 	ldrtls	r0, [r4], -r0, lsl #22
    4ae4:	02440000 	subeq	r0, r4, #0, 0
    4ae8:	010c0000 	mrseq	r0, (UNDEF: 12)
    4aec:	040c0550 	streq	r0, [ip], #-1360	; 0xfffffab0
    4af0:	00200030 	eoreq	r0, r0, r0, lsr r0
    4af4:	06b71100 	ldrteq	r1, [r7], r0, lsl #2
    4af8:	06b70000 	ldrteq	r0, [r7], r0
    4afc:	a1020000 	mrsge	r0, (UNDEF: 2)
    4b00:	06e11106 	strbteq	r1, [r1], r6, lsl #2
    4b04:	06e10000 	strbteq	r0, [r1], r0
    4b08:	c7020000 	strgt	r0, [r2, -r0]
    4b0c:	03a5000a 			; <UNDEFINED> instruction: 0x03a5000a
    4b10:	00040000 	andeq	r0, r4, r0
    4b14:	00000de5 	andeq	r0, r0, r5, ror #27
    4b18:	08030104 	stmdaeq	r3, {r2, r8}
    4b1c:	b40c0000 	strlt	r0, [ip], #-0
    4b20:	b0000008 	andlt	r0, r0, r8
    4b24:	ac000007 	stcge	0, cr0, [r0], {7}
    4b28:	1c000096 	stcne	0, cr0, [r0], {150}	; 0x96
    4b2c:	f2000001 	vhadd.s8	d0, d0, d1
    4b30:	0200001e 	andeq	r0, r0, #30, 0
    4b34:	6e690504 	cdpvs	5, 6, cr0, cr9, cr4, {0}
    4b38:	04030074 	streq	r0, [r3], #-116	; 0xffffff8c
    4b3c:	0000a907 	andeq	sl, r0, r7, lsl #18
    4b40:	002c0400 	eoreq	r0, ip, r0, lsl #8
    4b44:	01030000 	mrseq	r0, (UNDEF: 3)
    4b48:	00005806 	andeq	r5, r0, r6, lsl #16
    4b4c:	05020300 	streq	r0, [r2, #-768]	; 0xfffffd00
    4b50:	000000d6 	ldrdeq	r0, [r0], -r6
    4b54:	c1050403 	tstgt	r5, r3, lsl #8
    4b58:	03000000 	movweq	r0, #0
    4b5c:	00bc0508 	adcseq	r0, ip, r8, lsl #10
    4b60:	01030000 	mrseq	r0, (UNDEF: 3)
    4b64:	00005608 	andeq	r5, r0, r8, lsl #12
    4b68:	07020300 	streq	r0, [r2, -r0, lsl #6]
    4b6c:	00000064 	andeq	r0, r0, r4, rrx
    4b70:	00027105 	andeq	r7, r2, r5, lsl #2
    4b74:	19340300 	ldmdbne	r4!, {r8, r9}
    4b78:	0000006e 	andeq	r0, r0, lr, rrx
    4b7c:	a4070403 	strge	r0, [r7], #-1027	; 0xfffffbfd
    4b80:	03000000 	movweq	r0, #0
    4b84:	009f0708 	addseq	r0, pc, r8, lsl #14
    4b88:	01030000 	mrseq	r0, (UNDEF: 3)
    4b8c:	00005f08 	andeq	r5, r0, r8, lsl #30
    4b90:	01070600 	tsteq	r7, r0, lsl #12
    4b94:	00000054 	andeq	r0, r0, r4, asr r0
    4b98:	c20e0c04 	andgt	r0, lr, #4, 24	; 0x400
    4b9c:	07000000 	streq	r0, [r0, -r0]
    4ba0:	000008bb 			; <UNDEFINED> instruction: 0x000008bb
    4ba4:	07310700 	ldreq	r0, [r1, -r0, lsl #14]!
    4ba8:	07010000 	streq	r0, [r1, -r0]
    4bac:	00000756 	andeq	r0, r0, r6, asr r7
    4bb0:	07650704 	strbeq	r0, [r5, -r4, lsl #14]!
    4bb4:	07050000 	streq	r0, [r5, -r0]
    4bb8:	00000774 	andeq	r0, r0, r4, ror r7
    4bbc:	07830706 	streq	r0, [r3, r6, lsl #14]
    4bc0:	07070000 	streq	r0, [r7, -r0]
    4bc4:	000008a0 	andeq	r0, r0, r0, lsr #17
    4bc8:	07920703 	ldreq	r0, [r2, r3, lsl #14]
    4bcc:	00020000 	andeq	r0, r2, r0
    4bd0:	0007f705 	andeq	pc, r7, r5, lsl #14
    4bd4:	03150400 	tsteq	r5, #0, 8
    4bd8:	00000083 	andeq	r0, r0, r3, lsl #1
    4bdc:	00071c08 	andeq	r1, r7, r8, lsl #24
    4be0:	171d0100 	ldrne	r0, [sp, -r0, lsl #2]
    4be4:	00000033 	andeq	r0, r0, r3, lsr r0
    4be8:	2020001c 	eorcs	r0, r0, ip, lsl r0
    4bec:	00071208 	andeq	r1, r7, r8, lsl #4
    4bf0:	171e0100 	ldrne	r0, [lr, -r0, lsl #2]
    4bf4:	00000033 	andeq	r0, r0, r3, lsr r0
    4bf8:	20200028 	eorcs	r0, r0, r8, lsr #32
    4bfc:	00089608 	andeq	r9, r8, r8, lsl #12
    4c00:	171f0100 	ldrne	r0, [pc, -r0, lsl #2]
    4c04:	00000033 	andeq	r0, r0, r3, lsr r0
    4c08:	20200034 	eorcs	r0, r0, r4, lsr r0
    4c0c:	00074c09 	andeq	r4, r7, r9, lsl #24
    4c10:	05550100 	ldrbeq	r0, [r5, #-256]	; 0xffffff00
    4c14:	00000025 	andeq	r0, r0, r5, lsr #32
    4c18:	00009794 	muleq	r0, r4, r7
    4c1c:	00000034 	andeq	r0, r0, r4, lsr r0
    4c20:	016e9c01 	cmneq	lr, r1, lsl #24
    4c24:	700a0000 	andvc	r0, sl, r0
    4c28:	01006e69 	tsteq	r0, r9, ror #28
    4c2c:	002c1855 	eoreq	r1, ip, r5, asr r8
    4c30:	2c5f0000 	mracs	r0, pc, acc0
    4c34:	2c570000 	mracs	r0, r7, acc0
    4c38:	af0b0000 	svcge	0x000b0000
    4c3c:	01000008 	tsteq	r0, r8
    4c40:	002c0e58 	eoreq	r0, ip, r8, asr lr
    4c44:	2c9f0000 	ldccs	0, cr0, [pc], {0}
    4c48:	2c990000 	ldccs	0, cr0, [r9], {0}
    4c4c:	6f0c0000 	svcvs	0x000c0000
    4c50:	01006666 	tsteq	r0, r6, ror #12
    4c54:	002c0e59 	eoreq	r0, ip, r9, asr lr
    4c58:	2cdf0000 	ldclcs	0, cr0, [pc], {0}
    4c5c:	2cdd0000 	ldclcs	0, cr0, [sp], {0}
    4c60:	b00d0000 	andlt	r0, sp, r0
    4c64:	90000097 	mulls	r0, r7, r0
    4c68:	0e000003 	cdpeq	0, 0, cr0, cr0, cr3, {0}
    4c6c:	f30b5001 	vhadd.u8	d5, d11, d1
    4c70:	25355001 	ldrcs	r5, [r5, #-1]!
    4c74:	8080b423 	addhi	fp, r0, r3, lsr #8
    4c78:	00000281 	andeq	r0, r0, r1, lsl #5
    4c7c:	0007260f 	andeq	r2, r7, pc, lsl #12
    4c80:	064e0100 	strbeq	r0, [lr], -r0, lsl #2
    4c84:	00009778 	andeq	r9, r0, r8, ror r7
    4c88:	0000001c 	andeq	r0, r0, ip, lsl r0
    4c8c:	01c99c01 	biceq	r9, r9, r1, lsl #24
    4c90:	700a0000 	andvc	r0, sl, r0
    4c94:	01006e69 	tsteq	r0, r9, ror #28
    4c98:	002c1a4e 	eoreq	r1, ip, lr, asr #20
    4c9c:	2cfa0000 	ldclcs	0, cr0, [sl]
    4ca0:	2cf20000 	ldclcs	0, cr0, [r2]
    4ca4:	760a0000 	strvc	r0, [sl], -r0
    4ca8:	284e0100 	stmdacs	lr, {r8}^
    4cac:	0000002c 	andeq	r0, r0, ip, lsr #32
    4cb0:	00002d3c 	andeq	r2, r0, ip, lsr sp
    4cb4:	00002d34 	andeq	r2, r0, r4, lsr sp
    4cb8:	00978810 	addseq	r8, r7, r0, lsl r8
    4cbc:	00025100 	andeq	r5, r2, r0, lsl #2
    4cc0:	0001bf00 	andeq	fp, r1, r0, lsl #30
    4cc4:	50010e00 	andpl	r0, r1, r0, lsl #28
    4cc8:	5001f303 	andpl	pc, r1, r3, lsl #6
    4ccc:	97901100 	ldrls	r1, [r0, r0, lsl #2]
    4cd0:	020a0000 	andeq	r0, sl, #0, 0
    4cd4:	0f000000 	svceq	0x00000000
    4cd8:	000007a1 	andeq	r0, r0, r1, lsr #15
    4cdc:	68064901 	stmdavs	r6, {r0, r8, fp, lr}
    4ce0:	10000097 	mulne	r0, r7, r0
    4ce4:	01000000 	mrseq	r0, (UNDEF: 0)
    4ce8:	00020a9c 	muleq	r2, ip, sl
    4cec:	69700a00 	ldmdbvs	r0!, {r9, fp}^
    4cf0:	4901006e 	stmdbmi	r1, {r1, r2, r3, r5, r6}
    4cf4:	00002c1e 	andeq	r2, r0, lr, lsl ip
    4cf8:	002d7a00 	eoreq	r7, sp, r0, lsl #20
    4cfc:	002d7600 	eoreq	r7, sp, r0, lsl #12
    4d00:	97740d00 	ldrbls	r0, [r4, -r0, lsl #26]!
    4d04:	02d90000 	sbcseq	r0, r9, #0, 0
    4d08:	010e0000 	mrseq	r0, (UNDEF: 14)
    4d0c:	01f30350 	mvnseq	r0, r0, asr r3
    4d10:	51010e50 	tstpl	r1, r0, asr lr
    4d14:	00003001 	andeq	r3, r0, r1
    4d18:	0007e50f 	andeq	lr, r7, pc, lsl #10
    4d1c:	06420100 	strbeq	r0, [r2], -r0, lsl #2
    4d20:	00009744 	andeq	r9, r0, r4, asr #14
    4d24:	00000024 	andeq	r0, r0, r4, lsr #32
    4d28:	02519c01 	subseq	r9, r1, #256	; 0x100
    4d2c:	700a0000 	andvc	r0, sl, r0
    4d30:	01006e69 	tsteq	r0, r9, ror #28
    4d34:	002c1c42 	eoreq	r1, ip, r2, asr #24
    4d38:	2d9f0000 	ldccs	0, cr0, [pc]	; 4d40 <__code_start__-0x32c0>
    4d3c:	2d9b0000 	ldccs	0, cr0, [fp]
    4d40:	600d0000 	andvs	r0, sp, r0
    4d44:	9c000097 	stcls	0, cr0, [r0], {151}	; 0x97
    4d48:	0e000003 	cdpeq	0, 0, cr0, cr0, cr3, {0}
    4d4c:	0c055001 	stceq	0, cr5, [r5], {1}
    4d50:	20200028 	eorcs	r0, r0, r8, lsr #32
    4d54:	0551010e 	ldrbeq	r0, [r1, #-270]	; 0xfffffef2
    4d58:	5001f331 	andpl	pc, r1, r1, lsr r3	; <UNPREDICTABLE>
    4d5c:	0f000024 	svceq	0x00000024
    4d60:	000008dd 	ldrdeq	r0, [r0], -sp
    4d64:	20063b01 	andcs	r3, r6, r1, lsl #22
    4d68:	24000097 	strcs	r0, [r0], #-151	; 0xffffff69
    4d6c:	01000000 	mrseq	r0, (UNDEF: 0)
    4d70:	0002989c 	muleq	r2, ip, r8
    4d74:	69700a00 	ldmdbvs	r0!, {r9, fp}^
    4d78:	3b01006e 	blcc	44f38 <__bss_end__+0x3a920>
    4d7c:	00002c1b 	andeq	r2, r0, fp, lsl ip
    4d80:	002dc400 	eoreq	ip, sp, r0, lsl #8
    4d84:	002dc000 	eoreq	ip, sp, r0
    4d88:	973c0d00 	ldrls	r0, [ip, -r0, lsl #26]!
    4d8c:	039c0000 	orrseq	r0, ip, #0, 0
    4d90:	010e0000 	mrseq	r0, (UNDEF: 14)
    4d94:	1c0c0550 	cfstr32ne	mvfx0, [ip], {80}	; 0x50
    4d98:	0e202000 	cdpeq	0, 2, cr2, cr0, cr0, {0}
    4d9c:	31055101 	tstcc	r5, r1, lsl #2
    4da0:	245001f3 	ldrbcs	r0, [r0], #-499	; 0xfffffe0d
    4da4:	840f0000 	strhi	r0, [pc], #-0	; 4dac <__code_start__-0x3254>
    4da8:	01000000 	mrseq	r0, (UNDEF: 0)
    4dac:	97100636 			; <UNDEFINED> instruction: 0x97100636
    4db0:	00100000 	andseq	r0, r0, r0
    4db4:	9c010000 	stcls	0, cr0, [r1], {-0}
    4db8:	000002d9 	ldrdeq	r0, [r0], -r9
    4dbc:	6e69700a 	cdpvs	0, 6, cr7, cr9, cr10, {0}
    4dc0:	1f360100 	svcne	0x00360100
    4dc4:	0000002c 	andeq	r0, r0, ip, lsr #32
    4dc8:	00002de9 	andeq	r2, r0, r9, ror #27
    4dcc:	00002de5 	andeq	r2, r0, r5, ror #27
    4dd0:	00971c0d 	addseq	r1, r7, sp, lsl #24
    4dd4:	0002d900 	andeq	sp, r2, r0, lsl #18
    4dd8:	50010e00 	andpl	r0, r1, r0, lsl #28
    4ddc:	5001f303 	andpl	pc, r1, r3, lsl #6
    4de0:	0151010e 	cmpeq	r1, lr, lsl #2
    4de4:	0f000031 	svceq	0x00000031
    4de8:	000008cb 	andeq	r0, r0, fp, asr #17
    4dec:	ac062801 	stcge	8, cr2, [r6], {1}
    4df0:	64000096 	strvs	r0, [r0], #-150	; 0xffffff6a
    4df4:	01000000 	mrseq	r0, (UNDEF: 0)
    4df8:	0003749c 	muleq	r3, ip, r4
    4dfc:	69700a00 	ldmdbvs	r0!, {r9, fp}^
    4e00:	2801006e 	stmdacs	r1, {r1, r2, r3, r5, r6}
    4e04:	00002c21 	andeq	r2, r0, r1, lsr #24
    4e08:	002e0e00 	eoreq	r0, lr, r0, lsl #28
    4e0c:	002e0a00 	eoreq	r0, lr, r0, lsl #20
    4e10:	07f21200 	ldrbeq	r1, [r2, r0, lsl #4]!
    4e14:	28010000 	stmdacs	r1, {}	; <UNPREDICTABLE>
    4e18:	0000c232 	andeq	ip, r0, r2, lsr r2
    4e1c:	002e3300 	eoreq	r3, lr, r0, lsl #6
    4e20:	002e2f00 	eoreq	r2, lr, r0, lsl #30
    4e24:	666f0c00 	strbtvs	r0, [pc], -r0, lsl #24
    4e28:	2d010066 	stccs	0, cr0, [r1, #-408]	; 0xfffffe68
    4e2c:	00002c0e 	andeq	r2, r0, lr, lsl #24
    4e30:	002e5600 	eoreq	r5, lr, r0, lsl #12
    4e34:	002e5400 	eoreq	r5, lr, r0, lsl #8
    4e38:	00670c00 	rsbeq	r0, r7, r0, lsl #24
    4e3c:	2c0e2e01 	stccs	14, cr2, [lr], {1}
    4e40:	6b000000 	blvs	4e48 <__code_start__-0x31b8>
    4e44:	6900002e 	stmdbvs	r0, {r1, r2, r3, r5}
    4e48:	0c00002e 	stceq	0, cr0, [r0], {46}	; 0x2e
    4e4c:	30010076 	andcc	r0, r1, r6, ror r0
    4e50:	00002c0e 	andeq	r2, r0, lr, lsl #24
    4e54:	002e8600 	eoreq	r8, lr, r0, lsl #12
    4e58:	002e7e00 	eoreq	r7, lr, r0, lsl #28
    4e5c:	96f41000 	ldrbtls	r1, [r4], r0
    4e60:	03900000 	orrseq	r0, r0, #0, 0
    4e64:	03630000 	cmneq	r3, #0, 0
    4e68:	010e0000 	mrseq	r0, (UNDEF: 14)
    4e6c:	00760250 	rsbseq	r0, r6, r0, asr r2
    4e70:	97080d00 	strls	r0, [r8, -r0, lsl #26]
    4e74:	039c0000 	orrseq	r0, ip, #0, 0
    4e78:	010e0000 	mrseq	r0, (UNDEF: 14)
    4e7c:	00760250 	rsbseq	r0, r6, r0, asr r2
    4e80:	42130000 	andsmi	r0, r3, #0, 0
    4e84:	02000007 	andeq	r0, r0, #7, 0
    4e88:	006218b6 	strhteq	r1, [r2], #-134	; 0xffffff7a
    4e8c:	90030000 	andls	r0, r3, r0
    4e90:	14000003 	strne	r0, [r0], #-3
    4e94:	b6020078 			; <UNDEFINED> instruction: 0xb6020078
    4e98:	0000622b 	andeq	r6, r0, fp, lsr #4
    4e9c:	e1150000 	tst	r5, r0
    4ea0:	e1000006 	tst	r0, r6
    4ea4:	02000006 	andeq	r0, r0, #6, 0
    4ea8:	4d150ac7 	vldrmi	s0, [r5, #-796]	; 0xfffffce4
    4eac:	4d000006 	stcmi	0, cr0, [r0, #-24]	; 0xffffffe8
    4eb0:	02000006 	andeq	r0, r0, #6, 0
    4eb4:	cd0006b2 	stcgt	6, cr0, [r0, #-712]	; 0xfffffd38
    4eb8:	04000005 	streq	r0, [r0], #-5
    4ebc:	000f4200 	andeq	r4, pc, r0, lsl #4
    4ec0:	03010400 	movweq	r0, #5120	; 0x1400
    4ec4:	0c000008 	stceq	0, cr0, [r0], {8}
    4ec8:	00000917 	andeq	r0, r0, r7, lsl r9
    4ecc:	000007b0 			; <UNDEFINED> instruction: 0x000007b0
    4ed0:	000097c8 	andeq	r9, r0, r8, asr #15
    4ed4:	000001f0 	strdeq	r0, [r0], -r0	; <UNPREDICTABLE>
    4ed8:	000020b1 	strheq	r2, [r0], -r1
    4edc:	69050402 	stmdbvs	r5, {r1, sl}
    4ee0:	0300746e 	movweq	r7, #1134	; 0x46e
    4ee4:	00a90704 	adceq	r0, r9, r4, lsl #14
    4ee8:	2c040000 	stccs	0, cr0, [r4], {-0}
    4eec:	03000000 	movweq	r0, #0
    4ef0:	00580601 	subseq	r0, r8, r1, lsl #12
    4ef4:	02030000 	andeq	r0, r3, #0, 0
    4ef8:	0000d605 	andeq	sp, r0, r5, lsl #12
    4efc:	05040300 	streq	r0, [r4, #-768]	; 0xfffffd00
    4f00:	000000c1 	andeq	r0, r0, r1, asr #1
    4f04:	bc050803 	stclt	8, cr0, [r5], {3}
    4f08:	03000000 	movweq	r0, #0
    4f0c:	00560801 	subseq	r0, r6, r1, lsl #16
    4f10:	02030000 	andeq	r0, r3, #0, 0
    4f14:	00006407 	andeq	r6, r0, r7, lsl #8
    4f18:	02710500 	rsbseq	r0, r1, #0, 10
    4f1c:	34050000 	strcc	r0, [r5], #-0
    4f20:	00006e19 	andeq	r6, r0, r9, lsl lr
    4f24:	07040300 	streq	r0, [r4, -r0, lsl #6]
    4f28:	000000a4 	andeq	r0, r0, r4, lsr #1
    4f2c:	9f070803 	svcls	0x00070803
    4f30:	03000000 	movweq	r0, #0
    4f34:	005f0801 	subseq	r0, pc, r1, lsl #16
    4f38:	07060000 	streq	r0, [r6, -r0]
    4f3c:	00005401 	andeq	r5, r0, r1, lsl #8
    4f40:	0e0c0400 	cfcpyseq	mvf0, mvf12
    4f44:	000000c2 	andeq	r0, r0, r2, asr #1
    4f48:	0008bb07 	andeq	fp, r8, r7, lsl #22
    4f4c:	31070000 	mrscc	r0, (UNDEF: 7)
    4f50:	01000007 	tsteq	r0, r7
    4f54:	00075607 	andeq	r5, r7, r7, lsl #12
    4f58:	65070400 	strvs	r0, [r7, #-1024]	; 0xfffffc00
    4f5c:	05000007 	streq	r0, [r0, #-7]
    4f60:	00077407 	andeq	r7, r7, r7, lsl #8
    4f64:	83070600 	movwhi	r0, #30208	; 0x7600
    4f68:	07000007 	streq	r0, [r0, -r7]
    4f6c:	0008a007 	andeq	sl, r8, r7
    4f70:	92070300 	andls	r0, r7, #0, 6
    4f74:	02000007 	andeq	r0, r0, #7, 0
    4f78:	090b0800 	stmdbeq	fp, {fp}
    4f7c:	022c0000 	eoreq	r0, ip, #0, 0
    4f80:	015e0806 	cmpeq	lr, r6, lsl #16
    4f84:	69090000 	stmdbvs	r9, {}	; <UNPREDICTABLE>
    4f88:	0902006f 	stmdbeq	r2, {r0, r1, r2, r3, r5, r6}
    4f8c:	00003309 	andeq	r3, r0, r9, lsl #6
    4f90:	69090000 	stmdbvs	r9, {}	; <UNPREDICTABLE>
    4f94:	02007265 	andeq	r7, r0, #1342177286	; 0x50000006
    4f98:	0033090a 	eorseq	r0, r3, sl, lsl #18
    4f9c:	09040000 	stmdbeq	r4, {}	; <UNPREDICTABLE>
    4fa0:	00726969 	rsbseq	r6, r2, r9, ror #18
    4fa4:	33091102 	movwcc	r1, #37122	; 0x9102
    4fa8:	08000000 	stmdaeq	r0, {}	; <UNPREDICTABLE>
    4fac:	72636c09 	rsbvc	r6, r3, #2304	; 0x900
    4fb0:	09130200 	ldmdbeq	r3, {r9}
    4fb4:	00000033 	andeq	r0, r0, r3, lsr r0
    4fb8:	636d090c 	cmnvs	sp, #12, 18	; 0x30000
    4fbc:	14020072 	strne	r0, [r2], #-114	; 0xffffff8e
    4fc0:	00003309 	andeq	r3, r0, r9, lsl #6
    4fc4:	6c091000 	stcvs	0, cr1, [r9], {-0}
    4fc8:	02007273 	andeq	r7, r0, #805306375	; 0x30000007
    4fcc:	00330915 	eorseq	r0, r3, r5, lsl r9
    4fd0:	09140000 	ldmdbeq	r4, {}	; <UNPREDICTABLE>
    4fd4:	0072736d 	rsbseq	r7, r2, sp, ror #6
    4fd8:	33091602 	movwcc	r1, #38402	; 0x9602
    4fdc:	18000000 	stmdane	r0, {}	; <UNPREDICTABLE>
    4fe0:	0009800a 	andeq	r8, r9, sl
    4fe4:	09170200 	ldmdbeq	r7, {r9}
    4fe8:	00000033 	andeq	r0, r0, r3, lsr r0
    4fec:	09580a1c 	ldmdbeq	r8, {r2, r3, r4, r9, fp}^
    4ff0:	1b020000 	blne	84ff8 <__bss_end__+0x7a9e0>
    4ff4:	00003309 	andeq	r3, r0, r9, lsl #6
    4ff8:	f80a2000 			; <UNDEFINED> instruction: 0xf80a2000
    4ffc:	02000008 	andeq	r0, r0, #8, 0
    5000:	0033091d 	eorseq	r0, r3, sp, lsl r9
    5004:	0a240000 	beq	90500c <__bss_end__+0x8fa9f4>
    5008:	0000093d 	andeq	r0, r0, sp, lsr r9
    500c:	33091e02 	movwcc	r1, #40450	; 0x9e02
    5010:	28000000 	stmdacs	r0, {}	; <UNPREDICTABLE>
    5014:	09420b00 	stmdbeq	r2, {r8, r9, fp}^
    5018:	08010000 	stmdaeq	r1, {}	; <UNPREDICTABLE>
    501c:	00017409 	andeq	r7, r1, r9, lsl #8
    5020:	21500400 	cmpcs	r0, r0, lsl #8
    5024:	33040c20 	movwcc	r0, #19488	; 0x4c20
    5028:	0d000000 	stceq	0, cr0, [r0, #-0]
    502c:	0000016e 	andeq	r0, r0, lr, ror #2
    5030:	0009880b 	andeq	r8, r9, fp, lsl #16
    5034:	23290100 			; <UNDEFINED> instruction: 0x23290100
    5038:	0000018f 	andeq	r0, r0, pc, lsl #3
    503c:	20215040 	eorcs	r5, r1, r0, asr #32
    5040:	00c2040c 	sbceq	r0, r2, ip, lsl #8
    5044:	890d0000 	stmdbhi	sp, {}	; <UNPREDICTABLE>
    5048:	0e000001 	cdpeq	0, 0, cr0, cr0, cr1, {0}
    504c:	000005cf 	andeq	r0, r0, pc, asr #11
    5050:	8006cc01 	andhi	ip, r6, r1, lsl #24
    5054:	14000099 	strne	r0, [r0], #-153	; 0xffffff67
    5058:	01000000 	mrseq	r0, (UNDEF: 0)
    505c:	0001b49c 	muleq	r1, ip, r4
    5060:	99880f00 	stmibls	r8, {r8, r9, sl, fp}
    5064:	01b40000 			; <UNDEFINED> instruction: 0x01b40000
    5068:	10000000 	andne	r0, r0, r0
    506c:	0000092c 	andeq	r0, r0, ip, lsr #18
    5070:	2505b601 	strcs	fp, [r5, #-1537]	; 0xfffff9ff
    5074:	60000000 	andvs	r0, r0, r0
    5078:	20000099 	mulcs	r0, r9, r0
    507c:	01000000 	mrseq	r0, (UNDEF: 0)
    5080:	0001eb9c 	muleq	r1, ip, fp
    5084:	99680f00 	stmdbls	r8!, {r8, r9, sl, fp}^
    5088:	05a00000 	streq	r0, [r0, #0]!
    508c:	70110000 	andsvc	r0, r1, r0
    5090:	ac000099 	stcge	0, cr0, [r0], {153}	; 0x99
    5094:	12000005 	andne	r0, r0, #5, 0
    5098:	0c055001 	stceq	0, cr5, [r5], {1}
    509c:	20215064 	eorcs	r5, r1, r4, rrx
    50a0:	6a100000 	bvs	4050a8 <__bss_end__+0x3faa90>
    50a4:	01000009 	tsteq	r0, r9
    50a8:	002505b3 	strhteq	r0, [r5], -r3
    50ac:	99500000 	ldmdbls	r0, {}^	; <UNPREDICTABLE>
    50b0:	00100000 	andseq	r0, r0, r0
    50b4:	9c010000 	stcls	0, cr0, [r1], {-0}
    50b8:	00000218 	andeq	r0, r0, r8, lsl r2
    50bc:	0099580f 	addseq	r5, r9, pc, lsl #16
    50c0:	0005a000 	andeq	sl, r5, r0
    50c4:	995c0f00 	ldmdbls	ip, {r8, r9, sl, fp}^
    50c8:	03090000 	movweq	r0, #36864	; 0x9000
    50cc:	0e000000 	cdpeq	0, 0, cr0, cr0, cr0, {0}
    50d0:	00000996 	muleq	r0, r6, r9
    50d4:	2006ab01 	andcs	sl, r6, r1, lsl #22
    50d8:	30000099 	mulcc	r0, r9, r0
    50dc:	01000000 	mrseq	r0, (UNDEF: 0)
    50e0:	00027c9c 	muleq	r2, ip, ip
    50e4:	00631300 	rsbeq	r1, r3, r0, lsl #6
    50e8:	2c19ab01 			; <UNDEFINED> instruction: 0x2c19ab01
    50ec:	c6000000 	strgt	r0, [r0], -r0
    50f0:	c200002e 	andgt	r0, r0, #46, 0	; 0x2e
    50f4:	0f00002e 	svceq	0x0000002e
    50f8:	0000992c 	andeq	r9, r0, ip, lsr #18
    50fc:	000005a0 	andeq	r0, r0, r0, lsr #11
    5100:	0099300f 	addseq	r3, r9, pc
    5104:	0002db00 	andeq	sp, r2, r0, lsl #22
    5108:	99441400 	stmdbls	r4, {sl, ip}^
    510c:	05b80000 	ldreq	r0, [r8, #0]!
    5110:	02720000 	rsbseq	r0, r2, #0, 0
    5114:	01120000 	tsteq	r2, r0
    5118:	400c0550 	andmi	r0, ip, r0, asr r5
    511c:	12202150 	eorne	r2, r0, #20
    5120:	74055101 	strvc	r5, [r5], #-257	; 0xfffffeff
    5124:	1aff0800 	bne	fffc712c <__bss_end__+0xfffbcb14>
    5128:	99480f00 	stmdbls	r8, {r8, r9, sl, fp}^
    512c:	05a00000 	streq	r0, [r0, #0]!
    5130:	10000000 	andne	r0, r0, r0
    5134:	0000094e 	andeq	r0, r0, lr, asr #18
    5138:	2505a301 	strcs	sl, [r5, #-769]	; 0xfffffcff
    513c:	f0000000 			; <UNDEFINED> instruction: 0xf0000000
    5140:	30000098 	mulcc	r0, r8, r0
    5144:	01000000 	mrseq	r0, (UNDEF: 0)
    5148:	0002db9c 	muleq	r2, ip, fp
    514c:	00631500 	rsbeq	r1, r3, r0, lsl #10
    5150:	2509a701 	strcs	sl, [r9, #-1793]	; 0xfffff8ff
    5154:	e6000000 	str	r0, [r0], -r0
    5158:	e400002e 	str	r0, [r0], #-46	; 0xffffffd2
    515c:	0f00002e 	svceq	0x0000002e
    5160:	000098f8 	strdeq	r9, [r0], -r8
    5164:	000005a0 	andeq	r0, r0, r0, lsr #11
    5168:	0098fc0f 	addseq	pc, r8, pc, lsl #24
    516c:	00030900 	andeq	r0, r3, r0, lsl #18
    5170:	990c1400 	stmdbls	ip, {sl, ip}
    5174:	05ac0000 	streq	r0, [ip, #0]!
    5178:	02d10000 	sbcseq	r0, r1, #0, 0
    517c:	01120000 	tsteq	r2, r0
    5180:	400c0550 	andmi	r0, ip, r0, asr r5
    5184:	00202150 	eoreq	r2, r0, r0, asr r1
    5188:	0099140f 	addseq	r1, r9, pc, lsl #8
    518c:	0005a000 	andeq	sl, r5, r0
    5190:	1e100000 	cdpne	0, 1, cr0, cr0, cr0, {0}
    5194:	01000009 	tsteq	r0, r9
    5198:	00250594 	mlaeq	r5, r4, r5, r0
    519c:	98d00000 	ldmls	r0, {}^	; <UNPREDICTABLE>
    51a0:	00200000 	eoreq	r0, r0, r0
    51a4:	9c010000 	stcls	0, cr0, [r1], {-0}
    51a8:	00000309 	andeq	r0, r0, r9, lsl #6
    51ac:	0098dc11 	addseq	sp, r8, r1, lsl ip
    51b0:	0005ac00 	andeq	sl, r5, r0, lsl #24
    51b4:	50011200 	andpl	r1, r1, r0, lsl #4
    51b8:	50640c05 	rsbpl	r0, r4, r5, lsl #24
    51bc:	00002021 	andeq	r2, r0, r1, lsr #32
    51c0:	0008fd10 	andeq	pc, r8, r0, lsl sp	; <UNPREDICTABLE>
    51c4:	058b0100 	streq	r0, [fp, #256]	; 0x100
    51c8:	00000025 	andeq	r0, r0, r5, lsr #32
    51cc:	000098b8 			; <UNDEFINED> instruction: 0x000098b8
    51d0:	00000018 	andeq	r0, r0, r8, lsl r0
    51d4:	03379c01 	teqeq	r7, #256	; 0x100
    51d8:	c4110000 	ldrgt	r0, [r1], #-0
    51dc:	ac000098 	stcge	0, cr0, [r0], {152}	; 0x98
    51e0:	12000005 	andne	r0, r0, #5, 0
    51e4:	0c055001 	stceq	0, cr5, [r5], {1}
    51e8:	20215064 	eorcs	r5, r1, r4, rrx
    51ec:	ed0e0000 	stc	0, cr0, [lr, #-0]
    51f0:	01000005 	tsteq	r0, r5
    51f4:	98080645 	stmdals	r8, {r0, r2, r6, r9, sl}
    51f8:	00b00000 	adcseq	r0, r0, r0
    51fc:	9c010000 	stcls	0, cr0, [r1], {-0}
    5200:	00000484 	andeq	r0, r0, r4, lsl #9
    5204:	0008ef16 	andeq	lr, r8, r6, lsl pc
    5208:	0e7e0100 	rpweqe	f0, f6, f0
    520c:	00000062 	andeq	r0, r0, r2, rrx
    5210:	1814010e 	ldmdane	r4, {r1, r2, r3, r8}
    5214:	c4000098 	strgt	r0, [r0], #-152	; 0xffffff68
    5218:	73000005 	movwvc	r0, #5
    521c:	12000003 	andne	r0, r0, #3, 0
    5220:	3e015001 	cdpcc	0, 0, cr5, cr1, cr1, {0}
    5224:	01510112 	cmpeq	r1, r2, lsl r1
    5228:	24140032 	ldrcs	r0, [r4], #-50	; 0xffffffce
    522c:	c4000098 	strgt	r0, [r0], #-152	; 0xffffff68
    5230:	8b000005 	blhi	524c <__code_start__-0x2db4>
    5234:	12000003 	andne	r0, r0, #3, 0
    5238:	3f015001 	svccc	0x00015001
    523c:	01510112 	cmpeq	r1, r2, lsl r1
    5240:	280f0032 	stmdacs	pc, {r1, r4, r5}	; <UNPREDICTABLE>
    5244:	a0000098 	mulge	r0, r8, r0
    5248:	14000005 	strne	r0, [r0], #-5
    524c:	00009834 	andeq	r9, r0, r4, lsr r8
    5250:	0000053d 	andeq	r0, r0, sp, lsr r5
    5254:	000003b0 			; <UNDEFINED> instruction: 0x000003b0
    5258:	05500112 	ldrbeq	r0, [r0, #-274]	; 0xfffffeee
    525c:	2150040c 	cmpcs	r0, ip, lsl #8
    5260:	51011220 	tstpl	r1, r0, lsr #4
    5264:	0f003101 	svceq	0x00003101
    5268:	00009838 	andeq	r9, r0, r8, lsr r8
    526c:	000005a0 	andeq	r0, r0, r0, lsr #11
    5270:	00984814 	addseq	r4, r8, r4, lsl r8
    5274:	0005b800 	andeq	fp, r5, r0, lsl #16
    5278:	0003d200 	andeq	sp, r3, r0, lsl #4
    527c:	50011200 	andpl	r1, r1, r0, lsl #4
    5280:	12007402 	andne	r7, r0, #33554432	; 0x2000000
    5284:	30015101 	andcc	r5, r1, r1, lsl #2
    5288:	98541400 	ldmdals	r4, {sl, ip}^
    528c:	05b80000 	ldreq	r0, [r8, #0]!
    5290:	03ee0000 	mvneq	r0, #0, 0
    5294:	01120000 	tsteq	r2, r0
    5298:	440c0550 	strmi	r0, [ip], #-1360	; 0xfffffab0
    529c:	12202150 	eorne	r2, r0, #20
    52a0:	30015101 	andcc	r5, r1, r1, lsl #2
    52a4:	98601400 	stmdals	r0!, {sl, ip}^
    52a8:	05b80000 	ldreq	r0, [r8, #0]!
    52ac:	040a0000 	streq	r0, [sl], #-0
    52b0:	01120000 	tsteq	r2, r0
    52b4:	4c0c0550 	cfstr32mi	mvfx0, [ip], {80}	; 0x50
    52b8:	12202150 	eorne	r2, r0, #20
    52bc:	33015101 	movwcc	r5, #4353	; 0x1101
    52c0:	986c1400 	stmdals	ip!, {sl, ip}^
    52c4:	05b80000 	ldreq	r0, [r8, #0]!
    52c8:	04260000 	strteq	r0, [r6], #-0
    52cc:	01120000 	tsteq	r2, r0
    52d0:	500c0550 	andpl	r0, ip, r0, asr r5
    52d4:	12202150 	eorne	r2, r0, #20
    52d8:	30015101 	andcc	r5, r1, r1, lsl #2
    52dc:	98781400 	ldmdals	r8!, {sl, ip}^
    52e0:	05b80000 	ldreq	r0, [r8, #0]!
    52e4:	04430000 	strbeq	r0, [r3], #-0
    52e8:	01120000 	tsteq	r2, r0
    52ec:	480c0550 	stmdami	ip, {r4, r6, r8, sl}
    52f0:	12202150 	eorne	r2, r0, #20
    52f4:	08025101 	stmdaeq	r2, {r0, r8, ip, lr}
    52f8:	841400c7 	ldrhi	r0, [r4], #-199	; 0xffffff39
    52fc:	b8000098 	stmdalt	r0, {r3, r4, r7}
    5300:	61000005 	tstvs	r0, r5
    5304:	12000004 	andne	r0, r0, #4, 0
    5308:	0c055001 	stceq	0, cr5, [r5], {1}
    530c:	20215068 	eorcs	r5, r1, r8, rrx
    5310:	03510112 	cmpeq	r1, #-2147483644	; 0x80000004
    5314:	00010e0a 	andeq	r0, r1, sl, lsl #28
    5318:	00989014 	addseq	r9, r8, r4, lsl r0
    531c:	0005b800 	andeq	fp, r5, r0, lsl #16
    5320:	00047a00 	andeq	r7, r4, r0, lsl #20
    5324:	50011200 	andpl	r1, r1, r0, lsl #4
    5328:	12007402 	andne	r7, r0, #33554432	; 0x2000000
    532c:	33015101 	movwcc	r5, #4353	; 0x1101
    5330:	98940f00 	ldmls	r4, {r8, r9, sl, fp}
    5334:	05a00000 	streq	r0, [r0, #0]!
    5338:	0e000000 	cdpeq	0, 0, cr0, cr0, cr0, {0}
    533c:	0000095d 	andeq	r0, r0, sp, asr r9
    5340:	94063501 	strls	r3, [r6], #-1281	; 0xfffffaff
    5344:	24000099 	strcs	r0, [r0], #-153	; 0xffffff67
    5348:	01000000 	mrseq	r0, (UNDEF: 0)
    534c:	0004d39c 	muleq	r4, ip, r3
    5350:	999c0f00 	ldmibls	ip, {r8, r9, sl, fp}
    5354:	01940000 	orrseq	r0, r4, r0
    5358:	a00f0000 	andge	r0, pc, r0
    535c:	a0000099 	mulge	r0, r9, r0
    5360:	14000005 	strne	r0, [r0], #-5
    5364:	000099ac 	andeq	r9, r0, ip, lsr #19
    5368:	000004d3 	ldrdeq	r0, [r0], -r3
    536c:	000004c9 	andeq	r0, r0, r9, asr #9
    5370:	05500112 	ldrbeq	r0, [r0, #-274]	; 0xfffffeee
    5374:	2150040c 	cmpcs	r0, ip, lsl #8
    5378:	51011220 	tstpl	r1, r0, lsr #4
    537c:	00fe0902 	rscseq	r0, lr, r2, lsl #18
    5380:	0099b00f 	addseq	fp, r9, pc
    5384:	0005a000 	andeq	sl, r5, r0
    5388:	8d170000 	ldchi	0, cr0, [r7, #-0]
    538c:	01000009 	tsteq	r0, r9
    5390:	97c80d31 			; <UNDEFINED> instruction: 0x97c80d31
    5394:	00200000 	eoreq	r0, r0, r0
    5398:	9c010000 	stcls	0, cr0, [r1], {-0}
    539c:	00000536 	andeq	r0, r0, r6, lsr r5
    53a0:	0009c518 	andeq	ip, r9, r8, lsl r5
    53a4:	25310100 	ldrcs	r0, [r1, #-256]!	; 0xffffff00
    53a8:	00000536 	andeq	r0, r0, r6, lsr r5
    53ac:	00002efd 	strdeq	r2, [r0], -sp
    53b0:	00002ef9 	strdeq	r2, [r0], -r9
    53b4:	6c617613 	stclvs	6, cr7, [r1], #-76	; 0xffffffb4
    53b8:	34310100 	ldrtcc	r0, [r1], #-256	; 0xffffff00
    53bc:	0000002c 	andeq	r0, r0, ip, lsr #32
    53c0:	00002f1f 	andeq	r2, r0, pc, lsl pc
    53c4:	00002f1b 	andeq	r2, r0, fp, lsl pc
    53c8:	0097d814 	addseq	sp, r7, r4, lsl r8
    53cc:	0005ac00 	andeq	sl, r5, r0, lsl #24
    53d0:	00052500 	andeq	r2, r5, r0, lsl #10
    53d4:	50011200 	andpl	r1, r1, r0, lsl #4
    53d8:	00007402 	andeq	r7, r0, r2, lsl #8
    53dc:	0097e411 	addseq	lr, r7, r1, lsl r4
    53e0:	0005b800 	andeq	fp, r5, r0, lsl #16
    53e4:	50011200 	andpl	r1, r1, r0, lsl #4
    53e8:	00007402 	andeq	r7, r0, r2, lsl #8
    53ec:	3c040c00 	stccc	12, cr0, [r4], {-0}
    53f0:	19000005 	stmdbne	r0, {r0, r2}
    53f4:	00097817 	andeq	r7, r9, r7, lsl r8
    53f8:	0d2e0100 	stfeqs	f0, [lr, #-0]
    53fc:	000097e8 	andeq	r9, r0, r8, ror #15
    5400:	00000020 	andeq	r0, r0, r0, lsr #32
    5404:	05a09c01 	streq	r9, [r0, #3073]!	; 0xc01
    5408:	c5180000 	ldrgt	r0, [r8, #-0]
    540c:	01000009 	tsteq	r0, r9
    5410:	0536242e 	ldreq	r2, [r6, #-1070]!	; 0xfffffbd2
    5414:	2f410000 	svccs	0x00410000
    5418:	2f3d0000 	svccs	0x003d0000
    541c:	76130000 	ldrvc	r0, [r3], -r0
    5420:	01006c61 	tsteq	r0, r1, ror #24
    5424:	002c332e 	eoreq	r3, ip, lr, lsr #6
    5428:	2f630000 	svccs	0x00630000
    542c:	2f5f0000 	svccs	0x005f0000
    5430:	f8140000 			; <UNDEFINED> instruction: 0xf8140000
    5434:	ac000097 	stcge	0, cr0, [r0], {151}	; 0x97
    5438:	8f000005 	svchi	0x00000005
    543c:	12000005 	andne	r0, r0, #5, 0
    5440:	74025001 	strvc	r5, [r2], #-1
    5444:	04110000 	ldreq	r0, [r1], #-0
    5448:	b8000098 	stmdalt	r0, {r3, r4, r7}
    544c:	12000005 	andne	r0, r0, #5, 0
    5450:	74025001 	strvc	r5, [r2], #-1
    5454:	1a000000 	bne	545c <__code_start__-0x2ba4>
    5458:	000006b7 			; <UNDEFINED> instruction: 0x000006b7
    545c:	000006b7 			; <UNDEFINED> instruction: 0x000006b7
    5460:	1a06a103 	bne	1ad874 <__bss_end__+0x1a325c>
    5464:	000009a0 	andeq	r0, r0, r0, lsr #19
    5468:	000009a0 	andeq	r0, r0, r0, lsr #19
    546c:	1a0bc803 	bne	2f7480 <__bss_end__+0x2ece68>
    5470:	000008e9 	andeq	r0, r0, r9, ror #17
    5474:	000008e9 	andeq	r0, r0, r9, ror #17
    5478:	1a06b303 	bne	1b208c <__bss_end__+0x1a7a74>
    547c:	000008cb 	andeq	r0, r0, fp, asr #17
    5480:	000008cb 	andeq	r0, r0, fp, asr #17
    5484:	00061904 	andeq	r1, r6, r4, lsl #18
    5488:	000008e9 	andeq	r0, r0, r9, ror #17
    548c:	10da0004 	sbcsne	r0, sl, r4
    5490:	01040000 	mrseq	r0, (UNDEF: 4)
    5494:	00000803 	andeq	r0, r0, r3, lsl #16
    5498:	000a420c 	andeq	r4, sl, ip, lsl #4
    549c:	0007b000 	andeq	fp, r7, r0
    54a0:	0099b800 	addseq	fp, r9, r0, lsl #16
    54a4:	0003b000 	andeq	fp, r3, r0
    54a8:	0022ba00 	eoreq	fp, r2, r0, lsl #20
    54ac:	05040200 	streq	r0, [r4, #-512]	; 0xfffffe00
    54b0:	00746e69 	rsbseq	r6, r4, r9, ror #28
    54b4:	a9070403 	stmdbge	r7, {r0, r1, sl}
    54b8:	03000000 	movweq	r0, #0
    54bc:	00580601 	subseq	r0, r8, r1, lsl #12
    54c0:	02030000 	andeq	r0, r3, #0, 0
    54c4:	0000d605 	andeq	sp, r0, r5, lsl #12
    54c8:	05040300 	streq	r0, [r4, #-768]	; 0xfffffd00
    54cc:	000000c1 	andeq	r0, r0, r1, asr #1
    54d0:	bc050803 	stclt	8, cr0, [r5], {3}
    54d4:	03000000 	movweq	r0, #0
    54d8:	00560801 	subseq	r0, r6, r1, lsl #16
    54dc:	02030000 	andeq	r0, r3, #0, 0
    54e0:	00006407 	andeq	r6, r0, r7, lsl #8
    54e4:	02710400 	rsbseq	r0, r1, #0, 8
    54e8:	34030000 	strcc	r0, [r3], #-0
    54ec:	00006919 	andeq	r6, r0, r9, lsl r9
    54f0:	07040300 	streq	r0, [r4, -r0, lsl #6]
    54f4:	000000a4 	andeq	r0, r0, r4, lsr #1
    54f8:	9f070803 	svcls	0x00070803
    54fc:	03000000 	movweq	r0, #0
    5500:	005f0801 	subseq	r0, pc, r1, lsl #16
    5504:	77050000 	strvc	r0, [r5, -r0]
    5508:	03000000 	movweq	r0, #0
    550c:	0a640408 	beq	1906534 <__bss_end__+0x18fbf1c>
    5510:	04060000 	streq	r0, [r6], #-0
    5514:	2c040707 	stccs	7, cr0, [r4], {7}
    5518:	01000000 	mrseq	r0, (UNDEF: 0)
    551c:	00a4061f 	adceq	r0, r4, pc, lsl r6
    5520:	d0080000 	andle	r0, r8, r0
    5524:	00000009 	andeq	r0, r0, r9
    5528:	00002000 	andeq	r2, r0, r0
    552c:	0004e209 	andeq	lr, r4, r9, lsl #4
    5530:	0d220100 	stfeqs	f0, [r2, #-0]
    5534:	00000077 	andeq	r0, r0, r7, ror r0
    5538:	0009eb0a 	andeq	lr, r9, sl, lsl #22
    553c:	0e230100 	sufeqs	f0, f3, f0
    5540:	000000c2 	andeq	r0, r0, r2, asr #1
    5544:	a2080305 	andge	r0, r8, #335544320	; 0x14000000
    5548:	040b0000 	streq	r0, [fp], #-0
    554c:	00000077 	andeq	r0, r0, r7, ror r0
    5550:	0009ae0a 	andeq	sl, r9, sl, lsl #28
    5554:	0e240100 	sufeqs	f0, f4, f0
    5558:	000000c2 	andeq	r0, r0, r2, asr #1
    555c:	a2040305 	andge	r0, r4, #335544320	; 0x14000000
    5560:	210a0000 	mrscs	r0, (UNDEF: 10)
    5564:	0100000a 	tsteq	r0, sl
    5568:	00c20e25 	sbceq	r0, r2, r5, lsr #28
    556c:	03050000 	movweq	r0, #20480	; 0x5000
    5570:	0000a200 	andeq	sl, r0, r0, lsl #4
    5574:	0009f70c 	andeq	pc, r9, ip, lsl #14
    5578:	06750100 	ldrbteq	r0, [r5], -r0, lsl #2
    557c:	00009d08 	andeq	r9, r0, r8, lsl #26
    5580:	00000060 	andeq	r0, r0, r0, rrx
    5584:	01649c01 	cmneq	r4, r1, lsl #24
    5588:	700d0000 	andvc	r0, sp, r0
    558c:	16750100 	ldrbtne	r0, [r5], -r0, lsl #2
    5590:	0000008a 	andeq	r0, r0, sl, lsl #1
    5594:	00002f87 	andeq	r2, r0, r7, lsl #31
    5598:	00002f81 	andeq	r2, r0, r1, lsl #31
    559c:	0004a70e 	andeq	sl, r4, lr, lsl #14
    55a0:	00017400 	andeq	r7, r1, r0, lsl #8
    55a4:	f0030500 			; <UNDEFINED> instruction: 0xf0030500
    55a8:	0f0000a1 	svceq	0x000000a1
    55ac:	00009d54 	andeq	r9, r0, r4, asr sp
    55b0:	000008bc 			; <UNDEFINED> instruction: 0x000008bc
    55b4:	0000015a 	andeq	r0, r0, sl, asr r1
    55b8:	05500110 	ldrbeq	r0, [r0, #-272]	; 0xfffffef0
    55bc:	00a16803 	adceq	r6, r1, r3, lsl #16
    55c0:	51011000 	mrspl	r1, (UNDEF: 1)
    55c4:	a0000305 	andge	r0, r0, r5, lsl #6
    55c8:	01100000 	tsteq	r0, r0
    55cc:	f0030552 			; <UNDEFINED> instruction: 0xf0030552
    55d0:	100000a1 	andne	r0, r0, r1, lsr #1
    55d4:	08025301 	stmdaeq	r2, {r0, r8, r9, ip, lr}
    55d8:	7d021077 	stcvc	0, cr1, [r2, #-476]	; 0xfffffe24
    55dc:	01f30300 	mvnseq	r0, r0, lsl #6
    55e0:	58110050 	ldmdapl	r1, {r4, r6}
    55e4:	c800009d 	stmdagt	r0, {r0, r2, r3, r4, r7}
    55e8:	00000008 	andeq	r0, r0, r8
    55ec:	00007e12 	andeq	r7, r0, r2, lsl lr
    55f0:	00017400 	andeq	r7, r1, r0, lsl #8
    55f4:	002c1300 	eoreq	r1, ip, r0, lsl #6
    55f8:	00090000 	andeq	r0, r9, r0
    55fc:	00016405 	andeq	r6, r1, r5, lsl #8
    5600:	09d91400 	ldmibeq	r9, {sl, ip}^
    5604:	72010000 	andvc	r0, r1, #0, 0
    5608:	009cf406 	addseq	pc, ip, r6, lsl #8
    560c:	00001400 	andeq	r1, r0, r0, lsl #8
    5610:	0c9c0100 	ldfeqs	f0, [ip], {0}
    5614:	000009ca 	andeq	r0, r0, sl, asr #19
    5618:	f0066f01 			; <UNDEFINED> instruction: 0xf0066f01
    561c:	0400009c 	streq	r0, [r0], #-156	; 0xffffff64
    5620:	01000000 	mrseq	r0, (UNDEF: 0)
    5624:	0001ae9c 	muleq	r1, ip, lr
    5628:	00701500 	rsbseq	r1, r0, r0, lsl #10
    562c:	8a126f01 	bhi	4a1238 <__bss_end__+0x496c20>
    5630:	01000000 	mrseq	r0, (UNDEF: 0)
    5634:	a2160050 	andsge	r0, r6, #80, 0	; 0x50
    5638:	0100000a 	tsteq	r0, sl
    563c:	008a075e 	addeq	r0, sl, lr, asr r7
    5640:	9bd80000 	blls	ff605648 <__bss_end__+0xff5fb030>
    5644:	01180000 	tsteq	r8, r0
    5648:	9c010000 	stcls	0, cr0, [r1], {-0}
    564c:	0000042c 	andeq	r0, r0, ip, lsr #8
    5650:	0009bd17 	andeq	fp, r9, r7, lsl sp
    5654:	205e0100 	subscs	r0, lr, r0, lsl #2
    5658:	0000002c 	andeq	r0, r0, ip, lsr #32
    565c:	00002fc8 	andeq	r2, r0, r8, asr #31
    5660:	00002fb4 			; <UNDEFINED> instruction: 0x00002fb4
    5664:	000a0117 	andeq	r0, sl, r7, lsl r1
    5668:	315e0100 	cmpcc	lr, r0, lsl #2
    566c:	0000002c 	andeq	r0, r0, ip, lsr #32
    5670:	00003061 	andeq	r3, r0, r1, rrx
    5674:	0000304d 	andeq	r3, r0, sp, asr #32
    5678:	0004a70e 	andeq	sl, r4, lr, lsl #14
    567c:	00043c00 	andeq	r3, r4, r0, lsl #24
    5680:	d8030500 	stmdale	r3, {r8, sl}
    5684:	180000a1 	stmdane	r0, {r0, r5, r7}
    5688:	66010068 	strvs	r0, [r1], -r8, rrx
    568c:	00002c0e 	andeq	r2, r0, lr, lsl #24
    5690:	00311700 	eorseq	r1, r1, r0, lsl #14
    5694:	00310b00 	eorseq	r0, r1, r0, lsl #22
    5698:	08541900 	ldmdaeq	r4, {r8, fp, ip}^
    569c:	9be80000 	blls	ffa056a4 <__bss_end__+0xff9fb08c>
    56a0:	e8040000 	stmda	r4, {}	; <UNPREDICTABLE>
    56a4:	0400009b 	streq	r0, [r0], #-155	; 0xffffff65
    56a8:	01000000 	mrseq	r0, (UNDEF: 0)
    56ac:	02380560 	eorseq	r0, r8, #96, 10	; 0x18000000
    56b0:	651a0000 	ldrvs	r0, [sl, #-0]
    56b4:	6b000008 	blvs	56dc <__code_start__-0x2924>
    56b8:	69000031 	stmdbvs	r0, {r0, r4, r5}
    56bc:	00000031 	andeq	r0, r0, r1, lsr r0
    56c0:	00089619 	andeq	r9, r8, r9, lsl r6
    56c4:	009bf400 	addseq	pc, fp, r0, lsl #8
    56c8:	9bf40200 	blls	ffd05ed0 <__bss_end__+0xffcfb8b8>
    56cc:	00080000 	andeq	r0, r8, r0
    56d0:	61010000 	mrsvs	r0, (UNDEF: 1)
    56d4:	00026c11 	andeq	r6, r2, r1, lsl ip
    56d8:	08b11a00 	ldmeq	r1!, {r9, fp, ip}
    56dc:	31800000 	orrcc	r0, r0, r0
    56e0:	317e0000 	cmncc	lr, r0
    56e4:	a71a0000 	ldrge	r0, [sl, -r0]
    56e8:	96000008 	strls	r0, [r0], -r8
    56ec:	94000031 	strls	r0, [r0], #-49	; 0xffffffcf
    56f0:	00000031 	andeq	r0, r0, r1, lsr r0
    56f4:	00081f1b 	andeq	r1, r8, fp, lsl pc
    56f8:	009c0400 	addseq	r0, ip, r0, lsl #8
    56fc:	05180100 	ldreq	r0, [r8, #-256]	; 0xffffff00
    5700:	67010000 	strvs	r0, [r1, -r0]
    5704:	00030a09 	andeq	r0, r3, r9, lsl #20
    5708:	083a1a00 	ldmdaeq	sl!, {r9, fp, ip}
    570c:	31af0000 			; <UNDEFINED> instruction: 0x31af0000
    5710:	31a90000 			; <UNDEFINED> instruction: 0x31a90000
    5714:	301a0000 	andscc	r0, sl, r0
    5718:	f6000008 			; <UNDEFINED> instruction: 0xf6000008
    571c:	ee000031 	mcr	0, 0, r0, cr0, cr1, {1}
    5720:	1c000031 	stcne	0, cr0, [r0], {49}	; 0x31
    5724:	00000518 	andeq	r0, r0, r8, lsl r5
    5728:	00085419 	andeq	r5, r8, r9, lsl r4
    572c:	009c0400 	addseq	r0, ip, r0, lsl #8
    5730:	9c040400 	cfstrsls	mvf0, [r4], {-0}
    5734:	00040000 	andeq	r0, r4, r0
    5738:	11010000 	mrsne	r0, (UNDEF: 1)
    573c:	0002c705 	andeq	ip, r2, r5, lsl #14
    5740:	08651a00 	stmdaeq	r5!, {r9, fp, ip}^
    5744:	32340000 	eorscc	r0, r4, #0, 0
    5748:	32320000 	eorscc	r0, r2, #0, 0
    574c:	0f000000 	svceq	0x00000000
    5750:	00009c9c 	muleq	r0, ip, ip
    5754:	000008bc 			; <UNDEFINED> instruction: 0x000008bc
    5758:	000002ff 	strdeq	r0, [r0], -pc	; <UNPREDICTABLE>
    575c:	05500110 	ldrbeq	r0, [r0, #-272]	; 0xfffffef0
    5760:	009e8c03 	addseq	r8, lr, r3, lsl #24
    5764:	51011000 	mrspl	r1, (UNDEF: 1)
    5768:	a0000305 	andge	r0, r0, r5, lsl #6
    576c:	01100000 	tsteq	r0, r0
    5770:	e8030552 	stmda	r3, {r1, r4, r6, r8, sl}
    5774:	100000a1 	andne	r0, r0, r1, lsr #1
    5778:	41015301 	tstmi	r1, r1, lsl #6
    577c:	007d0210 	rsbseq	r0, sp, r0, lsl r2
    5780:	a1140305 	tstge	r4, r5, lsl #6
    5784:	11000000 	mrsne	r0, (UNDEF: 0)
    5788:	00009ca0 	andeq	r9, r0, r0, lsr #25
    578c:	000008c8 	andeq	r0, r0, r8, asr #17
    5790:	70190000 	andsvc	r0, r9, r0
    5794:	1c000008 	stcne	0, cr0, [r0], {8}
    5798:	0300009c 	movweq	r0, #156	; 0x9c
    579c:	00009c1c 	andeq	r9, r0, ip, lsl ip
    57a0:	00000004 	andeq	r0, r0, r4
    57a4:	3e056801 	cdpcc	8, 0, cr6, cr5, cr1, {0}
    57a8:	1a000003 	bne	57bc <__code_start__-0x2844>
    57ac:	0000088b 	andeq	r0, r0, fp, lsl #17
    57b0:	00003249 	andeq	r3, r0, r9, asr #4
    57b4:	00003247 	andeq	r3, r0, r7, asr #4
    57b8:	0008811a 	andeq	r8, r8, sl, lsl r1
    57bc:	00325e00 	eorseq	r5, r2, r0, lsl #28
    57c0:	00325c00 	eorseq	r5, r2, r0, lsl #24
    57c4:	340f0000 	strcc	r0, [pc], #-0	; 57cc <__code_start__-0x2834>
    57c8:	4100009c 	swpmi	r0, ip, [r0]	; <UNPREDICTABLE>
    57cc:	53000004 	movwpl	r0, #4
    57d0:	10000003 	andne	r0, r0, r3
    57d4:	f3035001 	vhadd.u8	d5, d3, d1
    57d8:	0f005001 	svceq	0x00005001
    57dc:	00009c58 	andeq	r9, r0, r8, asr ip
    57e0:	000008bc 			; <UNDEFINED> instruction: 0x000008bc
    57e4:	0000038c 	andeq	r0, r0, ip, lsl #7
    57e8:	05500110 	ldrbeq	r0, [r0, #-272]	; 0xfffffef0
    57ec:	009e8c03 	addseq	r8, lr, r3, lsl #24
    57f0:	51011000 	mrspl	r1, (UNDEF: 1)
    57f4:	a0000305 	andge	r0, r0, r5, lsl #6
    57f8:	01100000 	tsteq	r0, r0
    57fc:	d8030552 	stmdale	r3, {r1, r4, r6, r8, sl}
    5800:	100000a1 	andne	r0, r0, r1, lsr #1
    5804:	08025301 	stmdaeq	r2, {r0, r8, r9, ip, lr}
    5808:	7d02105f 	stcvc	0, cr1, [r2, #-380]	; 0xfffffe84
    580c:	10030500 	andne	r0, r3, r0, lsl #10
    5810:	000000a0 	andeq	r0, r0, r0, lsr #1
    5814:	009c5c11 	addseq	r5, ip, r1, lsl ip
    5818:	0008c800 	andeq	ip, r8, r0, lsl #16
    581c:	9c601100 	stflse	f1, [r0], #-0
    5820:	08d40000 	ldmeq	r4, {}^	; <UNPREDICTABLE>
    5824:	7c0f0000 	stcvc	0, cr0, [pc], {-0}
    5828:	bc00009c 	stclt	0, cr0, [r0], {156}	; 0x9c
    582c:	d7000008 	strle	r0, [r0, -r8]
    5830:	10000003 	andne	r0, r0, r3
    5834:	03055001 	movweq	r5, #20481	; 0x5001
    5838:	0000a0cc 	andeq	sl, r0, ip, asr #1
    583c:	05510110 	ldrbeq	r0, [r1, #-272]	; 0xfffffef0
    5840:	00a00003 	adceq	r0, r0, r3
    5844:	52011000 	andpl	r1, r1, #0, 0
    5848:	a1d80305 	bicsge	r0, r8, r5, lsl #6
    584c:	01100000 	tsteq	r0, r0
    5850:	60080253 	andvs	r0, r8, r3, asr r2
    5854:	007d0210 	rsbseq	r0, sp, r0, lsl r2
    5858:	a1000305 	tstge	r0, r5, lsl #6
    585c:	11000000 	mrsne	r0, (UNDEF: 0)
    5860:	00009c80 	andeq	r9, r0, r0, lsl #25
    5864:	000008c8 	andeq	r0, r0, r8, asr #17
    5868:	009ca411 	addseq	sl, ip, r1, lsl r4
    586c:	0008d400 	andeq	sp, r8, r0, lsl #8
    5870:	9cc00f00 	stclls	15, cr0, [r0], {0}
    5874:	08bc0000 	ldmeq	ip!, {}	; <UNPREDICTABLE>
    5878:	04220000 	strteq	r0, [r2], #-0
    587c:	01100000 	tsteq	r0, r0
    5880:	20030550 	andcs	r0, r3, r0, asr r5
    5884:	100000a1 	andne	r0, r0, r1, lsr #1
    5888:	03055101 	movweq	r5, #20737	; 0x5101
    588c:	0000a000 	andeq	sl, r0, r0
    5890:	05520110 	ldrbeq	r0, [r2, #-272]	; 0xfffffef0
    5894:	00a1d803 	adceq	sp, r1, r3, lsl #16
    5898:	53011000 	movwpl	r1, #4096	; 0x1000
    589c:	10680802 	rsbne	r0, r8, r2, lsl #16
    58a0:	05007d02 	streq	r7, [r0, #-3330]	; 0xfffff2fe
    58a4:	00a14c03 	adceq	r4, r1, r3, lsl #24
    58a8:	c4110000 	ldrgt	r0, [r1], #-0
    58ac:	c800009c 	stmdagt	r0, {r2, r3, r4, r7}
    58b0:	00000008 	andeq	r0, r0, r8
    58b4:	00007e12 	andeq	r7, r0, r2, lsl lr
    58b8:	00043c00 	andeq	r3, r4, r0, lsl #24
    58bc:	002c1300 	eoreq	r1, ip, r0, lsl #6
    58c0:	000f0000 	andeq	r0, pc, r0
    58c4:	00042c05 	andeq	r2, r4, r5, lsl #24
    58c8:	02ae1600 	adceq	r1, lr, #0, 12
    58cc:	53010000 	movwpl	r0, #4096	; 0x1000
    58d0:	00008a07 	andeq	r8, r0, r7, lsl #20
    58d4:	009b7400 	addseq	r7, fp, r0, lsl #8
    58d8:	00006400 	andeq	r6, r0, r0, lsl #8
    58dc:	089c0100 	ldmeq	ip, {r8}
    58e0:	17000005 	strne	r0, [r0, -r5]
    58e4:	000009bd 			; <UNDEFINED> instruction: 0x000009bd
    58e8:	2c185301 	ldccs	3, cr5, [r8], {1}
    58ec:	79000000 	stmdbvc	r0, {}	; <UNPREDICTABLE>
    58f0:	71000032 	tstvc	r0, r2, lsr r0
    58f4:	0e000032 	mcreq	0, 0, r0, cr0, cr2, {1}
    58f8:	000004a7 	andeq	r0, r0, r7, lsr #9
    58fc:	00000518 	andeq	r0, r0, r8, lsl r5
    5900:	a1d00305 	bicsge	r0, r0, r5, lsl #6
    5904:	c51d0000 	ldrgt	r0, [sp, #-0]
    5908:	01000009 	tsteq	r0, r9
    590c:	008a0b55 	addeq	r0, sl, r5, asr fp
    5910:	32b10000 	adcscc	r0, r1, #0, 0
    5914:	32ad0000 	adccc	r0, sp, #0, 0
    5918:	8c0f0000 	stchi	0, cr0, [pc], {-0}
    591c:	1d00009b 	stcne	0, cr0, [r0, #-620]	; 0xfffffd94
    5920:	a6000005 	strge	r0, [r0], -r5
    5924:	10000004 	andne	r0, r0, r4
    5928:	74025001 	strvc	r5, [r2], #-1
    592c:	9c0f0000 	stcls	0, cr0, [pc], {-0}
    5930:	e000009b 	mul	r0, fp, r0
    5934:	c5000008 	strgt	r0, [r0, #-8]
    5938:	10000004 	andne	r0, r0, r4
    593c:	75025001 	strvc	r5, [r2, #-1]
    5940:	51011000 	mrspl	r1, (UNDEF: 1)
    5944:	01103001 	tsteq	r0, r1
    5948:	00740252 	rsbseq	r0, r4, r2, asr r2
    594c:	9bc40f00 	blls	ff109554 <__bss_end__+0xff0fef3c>
    5950:	08bc0000 	ldmeq	ip!, {}	; <UNPREDICTABLE>
    5954:	04fe0000 	ldrbteq	r0, [lr], #0
    5958:	01100000 	tsteq	r0, r0
    595c:	8c030550 	cfstr32hi	mvfx0, [r3], {80}	; 0x50
    5960:	1000009e 	mulne	r0, lr, r0
    5964:	03055101 	movweq	r5, #20737	; 0x5101
    5968:	0000a000 	andeq	sl, r0, r0
    596c:	05520110 	ldrbeq	r0, [r2, #-272]	; 0xfffffef0
    5970:	00a1d003 	adceq	sp, r1, r3
    5974:	53011000 	movwpl	r1, #4096	; 0x1000
    5978:	10540802 	subsne	r0, r4, r2, lsl #16
    597c:	05007d02 	streq	r7, [r0, #-3330]	; 0xfffff2fe
    5980:	00a01003 	adceq	r1, r0, r3
    5984:	c8110000 	ldmdagt	r1, {}	; <UNPREDICTABLE>
    5988:	c800009b 	stmdagt	r0, {r0, r1, r3, r4, r7}
    598c:	00000008 	andeq	r0, r0, r8
    5990:	00007e12 	andeq	r7, r0, r2, lsl lr
    5994:	00051800 	andeq	r1, r5, r0, lsl #16
    5998:	002c1300 	eoreq	r1, ip, r0, lsl #6
    599c:	00070000 	andeq	r0, r7, r0
    59a0:	00050805 	andeq	r0, r5, r5, lsl #16
    59a4:	0a2a1600 	beq	a8b1ac <__bss_end__+0xa80b94>
    59a8:	47010000 	strmi	r0, [r1, -r0]
    59ac:	00008a07 	andeq	r8, r0, r7, lsl #20
    59b0:	009adc00 	addseq	sp, sl, r0, lsl #24
    59b4:	00009800 	andeq	r9, r0, r0, lsl #16
    59b8:	2b9c0100 	blcs	fe705dc0 <__bss_end__+0xfe6fb7a8>
    59bc:	17000006 	strne	r0, [r0, -r6]
    59c0:	000009bd 			; <UNDEFINED> instruction: 0x000009bd
    59c4:	2c204701 	stccs	7, cr4, [r0], #-4
    59c8:	df000000 	svcle	0x00000000
    59cc:	cf000032 	svcgt	0x00000032
    59d0:	0e000032 	mcreq	0, 0, r0, cr0, cr2, {1}
    59d4:	000004a7 	andeq	r0, r0, r7, lsr #9
    59d8:	0000043c 	andeq	r0, r0, ip, lsr r4
    59dc:	a1c00305 	bicge	r0, r0, r5, lsl #6
    59e0:	c51d0000 	ldrgt	r0, [sp, #-0]
    59e4:	01000009 	tsteq	r0, r9
    59e8:	008a0b4b 	addeq	r0, sl, fp, asr #22
    59ec:	33530000 	cmpcc	r3, #0, 0
    59f0:	334d0000 	movtcc	r0, #53248	; 0xd000
    59f4:	1f1b0000 	svcne	0x001b0000
    59f8:	ec000008 	stc	0, cr0, [r0], {8}
    59fc:	0300009a 	movweq	r0, #154	; 0x9a
    5a00:	00000500 	andeq	r0, r0, r0, lsl #10
    5a04:	a30e4901 	movwge	r4, #59649	; 0xe901
    5a08:	1a000005 	bne	5a24 <__code_start__-0x25dc>
    5a0c:	0000083a 	andeq	r0, r0, sl, lsr r8
    5a10:	00003382 	andeq	r3, r0, r2, lsl #7
    5a14:	00003380 	andeq	r3, r0, r0, lsl #7
    5a18:	0008301a 	andeq	r3, r8, sl, lsl r0
    5a1c:	00339a00 	eorseq	r9, r3, r0, lsl #20
    5a20:	00339600 	eorseq	r9, r3, r0, lsl #12
    5a24:	05001e00 	streq	r1, [r0, #-3584]	; 0xfffff200
    5a28:	0f000000 	svceq	0x00000000
    5a2c:	00009b34 	andeq	r9, r0, r4, lsr fp
    5a30:	000008bc 			; <UNDEFINED> instruction: 0x000008bc
    5a34:	000005dc 	ldrdeq	r0, [r0], -ip
    5a38:	05500110 	ldrbeq	r0, [r0, #-272]	; 0xfffffef0
    5a3c:	009e8c03 	addseq	r8, lr, r3, lsl #24
    5a40:	51011000 	mrspl	r1, (UNDEF: 1)
    5a44:	a0000305 	andge	r0, r0, r5, lsl #6
    5a48:	01100000 	tsteq	r0, r0
    5a4c:	c0030552 	andgt	r0, r3, r2, asr r5
    5a50:	100000a1 	andne	r0, r0, r1, lsr #1
    5a54:	08025301 	stmdaeq	r2, {r0, r8, r9, ip, lr}
    5a58:	7d021048 	stcvc	0, cr1, [r2, #-288]	; 0xfffffee0
    5a5c:	10030500 	andne	r0, r3, r0, lsl #10
    5a60:	000000a0 	andeq	r0, r0, r0, lsr #1
    5a64:	009b3811 	addseq	r3, fp, r1, lsl r8
    5a68:	0008c800 	andeq	ip, r8, r0, lsl #16
    5a6c:	9b580f00 	blls	1609674 <__bss_end__+0x15ff05c>
    5a70:	08bc0000 	ldmeq	ip!, {}	; <UNPREDICTABLE>
    5a74:	06210000 	strteq	r0, [r1], -r0
    5a78:	01100000 	tsteq	r0, r0
    5a7c:	8c030550 	cfstr32hi	mvfx0, [r3], {80}	; 0x50
    5a80:	100000a0 	andne	r0, r0, r0, lsr #1
    5a84:	03055101 	movweq	r5, #20737	; 0x5101
    5a88:	0000a000 	andeq	sl, r0, r0
    5a8c:	05520110 	ldrbeq	r0, [r2, #-272]	; 0xfffffef0
    5a90:	00a1c003 	adceq	ip, r1, r3
    5a94:	53011000 	movwpl	r1, #4096	; 0x1000
    5a98:	104e0802 	subne	r0, lr, r2, lsl #16
    5a9c:	08007d02 	stmdaeq	r0, {r1, r8, sl, fp, ip, sp, lr}
    5aa0:	235001f3 	cmpcs	r0, #-1073741764	; 0xc000003c
    5aa4:	1af80907 	bne	ffe07ec8 <__bss_end__+0xffdfd8b0>
    5aa8:	9b5c1100 	blls	1709eb0 <__bss_end__+0x16ff898>
    5aac:	08c80000 	stmiaeq	r8, {}^	; <UNPREDICTABLE>
    5ab0:	0c000000 	stceq	0, cr0, [r0], {-0}
    5ab4:	00000a4c 	andeq	r0, r0, ip, asr #20
    5ab8:	84063c01 	strhi	r3, [r6], #-3073	; 0xfffff3ff
    5abc:	5800009a 	stmdapl	r0, {r1, r3, r4, r7}
    5ac0:	01000000 	mrseq	r0, (UNDEF: 0)
    5ac4:	0006cf9c 	muleq	r6, ip, pc	; <UNPREDICTABLE>
    5ac8:	09f00a00 	ldmibeq	r0!, {r9, fp}^
    5acc:	3d010000 	stccc	0, cr0, [r1, #-0]
    5ad0:	00002510 	andeq	r2, r0, r0, lsl r5
    5ad4:	10030500 	andne	r0, r3, r0, lsl #10
    5ad8:	0e0000a6 	cdpeq	0, 0, cr0, cr0, cr6, {5}
    5adc:	000004a7 	andeq	r0, r0, r7, lsr #9
    5ae0:	000006df 	ldrdeq	r0, [r0], -pc	; <UNPREDICTABLE>
    5ae4:	a1b00305 	lslsge	r0, r5, #6
    5ae8:	07070000 	streq	r0, [r7, -r0]
    5aec:	00002c04 	andeq	r2, r0, r4, lsl #24
    5af0:	0a420100 	beq	1085ef8 <__bss_end__+0x107b8e0>
    5af4:	0000067a 	andeq	r0, r0, sl, ror r6
    5af8:	000a1308 	andeq	r1, sl, r8, lsl #6
    5afc:	10000000 	andne	r0, r0, r0
    5b00:	b00f0000 	andlt	r0, pc, r0
    5b04:	e400009a 	str	r0, [r0], #-154	; 0xffffff66
    5b08:	96000006 	strls	r0, [r0], -r6
    5b0c:	10000006 	andne	r0, r0, r6
    5b10:	40035001 	andmi	r5, r3, r1
    5b14:	01102440 	tsteq	r0, r0, asr #8
    5b18:	48400351 	stmdami	r0, {r0, r4, r6, r8, r9}^
    5b1c:	c80f0024 	stmdagt	pc, {r2, r5}	; <UNPREDICTABLE>
    5b20:	bc00009a 	stclt	0, cr0, [r0], {154}	; 0x9a
    5b24:	c5000008 	strgt	r0, [r0, #-8]
    5b28:	10000006 	andne	r0, r0, r6
    5b2c:	03055001 	movweq	r5, #20481	; 0x5001
    5b30:	0000a05c 	andeq	sl, r0, ip, asr r0
    5b34:	05510110 	ldrbeq	r0, [r1, #-272]	; 0xfffffef0
    5b38:	00a00003 	adceq	r0, r0, r3
    5b3c:	52011000 	andpl	r1, r1, #0, 0
    5b40:	a1b00305 	lslsge	r0, r5, #6
    5b44:	01100000 	tsteq	r0, r0
    5b48:	40080253 	andmi	r0, r8, r3, asr r2
    5b4c:	9acc1100 	bls	ff309f54 <__bss_end__+0xff2ff93c>
    5b50:	08c80000 	stmiaeq	r8, {}^	; <UNPREDICTABLE>
    5b54:	12000000 	andne	r0, r0, #0, 0
    5b58:	0000007e 	andeq	r0, r0, lr, ror r0
    5b5c:	000006df 	ldrdeq	r0, [r0], -pc	; <UNPREDICTABLE>
    5b60:	00002c13 	andeq	r2, r0, r3, lsl ip
    5b64:	05000c00 	streq	r0, [r0, #-3072]	; 0xfffff400
    5b68:	000006cf 	andeq	r0, r0, pc, asr #13
    5b6c:	000a7c0c 	andeq	r7, sl, ip, lsl #24
    5b70:	062d0100 	strteq	r0, [sp], -r0, lsl #2
    5b74:	000099e8 	andeq	r9, r0, r8, ror #19
    5b78:	0000009c 	muleq	r0, ip, r0
    5b7c:	07c89c01 	strbeq	r9, [r8, r1, lsl #24]
    5b80:	c4170000 	ldrgt	r0, [r7], #-0
    5b84:	01000009 	tsteq	r0, r9
    5b88:	002c262d 	eoreq	r2, ip, sp, lsr #12
    5b8c:	33c80000 	biccc	r0, r8, #0, 0
    5b90:	33ba0000 			; <UNDEFINED> instruction: 0x33ba0000
    5b94:	b9170000 	ldmdblt	r7, {}	; <UNPREDICTABLE>
    5b98:	01000009 	tsteq	r0, r9
    5b9c:	002c362d 	eoreq	r3, ip, sp, lsr #12
    5ba0:	34300000 	ldrtcc	r0, [r0], #-0
    5ba4:	34280000 	strtcc	r0, [r8], #-0
    5ba8:	c51d0000 	ldrgt	r0, [sp, #-0]
    5bac:	01000009 	tsteq	r0, r9
    5bb0:	00c20b2e 	sbceq	r0, r2, lr, lsr #22
    5bb4:	34780000 	ldrbtcc	r0, [r8], #-0
    5bb8:	346a0000 	strbtcc	r0, [sl], #-0
    5bbc:	a70e0000 	strge	r0, [lr, -r0]
    5bc0:	d8000004 	stmdale	r0, {r2}
    5bc4:	05000007 	streq	r0, [r0, #-7]
    5bc8:	00a19803 	adceq	r9, r1, r3, lsl #16
    5bcc:	9a400f00 	bls	10097d4 <__bss_end__+0xfff1bc>
    5bd0:	08bc0000 	ldmeq	ip!, {}	; <UNPREDICTABLE>
    5bd4:	077e0000 	ldrbeq	r0, [lr, -r0]!
    5bd8:	01100000 	tsteq	r0, r0
    5bdc:	8c030550 	cfstr32hi	mvfx0, [r3], {80}	; 0x50
    5be0:	1000009e 	mulne	r0, lr, r0
    5be4:	03055101 	movweq	r5, #20737	; 0x5101
    5be8:	0000a000 	andeq	sl, r0, r0
    5bec:	05520110 	ldrbeq	r0, [r2, #-272]	; 0xfffffef0
    5bf0:	00a19803 	adceq	r9, r1, r3, lsl #16
    5bf4:	53011000 	movwpl	r1, #4096	; 0x1000
    5bf8:	10300802 	eorsne	r0, r0, r2, lsl #16
    5bfc:	05007d02 	streq	r7, [r0, #-3330]	; 0xfffff2fe
    5c00:	00a00c03 	adceq	r0, r0, r3, lsl #24
    5c04:	44110000 	ldrmi	r0, [r1], #-0
    5c08:	c800009a 	stmdagt	r0, {r1, r3, r4, r7}
    5c0c:	0f000008 	svceq	0x00000008
    5c10:	00009a68 	andeq	r9, r0, r8, ror #20
    5c14:	000008bc 			; <UNDEFINED> instruction: 0x000008bc
    5c18:	000007be 			; <UNDEFINED> instruction: 0x000007be
    5c1c:	05500110 	ldrbeq	r0, [r0, #-272]	; 0xfffffef0
    5c20:	00a01803 	adceq	r1, r0, r3, lsl #16
    5c24:	51011000 	mrspl	r1, (UNDEF: 1)
    5c28:	a0000305 	andge	r0, r0, r5, lsl #6
    5c2c:	01100000 	tsteq	r0, r0
    5c30:	98030552 	stmdals	r3, {r1, r4, r6, r8, sl}
    5c34:	100000a1 	andne	r0, r0, r1, lsr #1
    5c38:	08025301 	stmdaeq	r2, {r0, r8, r9, ip, lr}
    5c3c:	7d021034 	stcvc	0, cr1, [r2, #-208]	; 0xffffff30
    5c40:	01f30300 	mvnseq	r0, r0, lsl #6
    5c44:	6c110050 	ldcvs	0, cr0, [r1], {80}	; 0x50
    5c48:	c800009a 	stmdagt	r0, {r1, r3, r4, r7}
    5c4c:	00000008 	andeq	r0, r0, r8
    5c50:	00007e12 	andeq	r7, r0, r2, lsl lr
    5c54:	0007d800 	andeq	sp, r7, r0, lsl #16
    5c58:	002c1300 	eoreq	r1, ip, r0, lsl #6
    5c5c:	00160000 	andseq	r0, r6, r0
    5c60:	0007c805 	andeq	ip, r7, r5, lsl #16
    5c64:	0a6b1f00 	beq	1acd86c <__bss_end__+0x1ac3254>
    5c68:	2a010000 	bcs	45c70 <__bss_end__+0x3b658>
    5c6c:	00008a07 	andeq	r8, r0, r7, lsl #20
    5c70:	0099d800 	addseq	sp, r9, r0, lsl #16
    5c74:	00001000 	andeq	r1, r0, r0
    5c78:	1f9c0100 	svcne	0x009c0100
    5c7c:	000009a6 	andeq	r0, r0, r6, lsr #19
    5c80:	8a072901 	bhi	1d008c <__bss_end__+0x1c5a74>
    5c84:	c8000000 	stmdagt	r0, {}	; <UNPREDICTABLE>
    5c88:	10000099 	mulne	r0, r9, r0
    5c8c:	01000000 	mrseq	r0, (UNDEF: 0)
    5c90:	0a191f9c 	beq	64db08 <__bss_end__+0x6434f0>
    5c94:	28010000 	stmdacs	r1, {}	; <UNPREDICTABLE>
    5c98:	00008a07 	andeq	r8, r0, r7, lsl #20
    5c9c:	0099b800 	addseq	fp, r9, r0, lsl #16
    5ca0:	00001000 	andeq	r1, r0, r0
    5ca4:	209c0100 	addscs	r0, ip, r0, lsl #2
    5ca8:	000009e3 	andeq	r0, r0, r3, ror #19
    5cac:	2c181001 	ldccs	0, cr1, [r8], {1}
    5cb0:	03000000 	movweq	r0, #0
    5cb4:	00000854 	andeq	r0, r0, r4, asr r8
    5cb8:	01007821 	tsteq	r0, r1, lsr #16
    5cbc:	002c2910 	eoreq	r2, ip, r0, lsl r9
    5cc0:	6e210000 	cdpvs	0, 2, cr0, cr1, cr0, {0}
    5cc4:	35100100 	ldrcc	r0, [r0, #-256]	; 0xffffff00
    5cc8:	0000002c 	andeq	r0, r0, ip, lsr #32
    5ccc:	0004a70e 	andeq	sl, r4, lr, lsl #14
    5cd0:	00051800 	andeq	r1, r5, r0, lsl #16
    5cd4:	e8030500 	stmda	r3, {r8, sl}
    5cd8:	000000a1 	andeq	r0, r0, r1, lsr #1
    5cdc:	000a3a20 	andeq	r3, sl, r0, lsr #20
    5ce0:	180d0100 	stmdane	sp, {r8}
    5ce4:	0000002c 	andeq	r0, r0, ip, lsr #32
    5ce8:	00087003 	andeq	r7, r8, r3
    5cec:	00782100 	rsbseq	r2, r8, r0, lsl #2
    5cf0:	2c290d01 	stccs	13, cr0, [r9], #-4
    5cf4:	00000000 	andeq	r0, r0, r0
    5cf8:	000a5920 	andeq	r5, sl, r0, lsr #18
    5cfc:	18070100 	stmdane	r7, {r8}
    5d00:	0000002c 	andeq	r0, r0, ip, lsr #32
    5d04:	00089603 	andeq	r9, r8, r3, lsl #12
    5d08:	00782100 	rsbseq	r2, r8, r0, lsl #2
    5d0c:	2c2c0701 	stccs	7, cr0, [ip], #-4
    5d10:	21000000 	mrscs	r0, (UNDEF: 0)
    5d14:	0701006e 	streq	r0, [r1, -lr, rrx]
    5d18:	00002c38 	andeq	r2, r0, r8, lsr ip
    5d1c:	0b200000 	bleq	805d24 <__bss_end__+0x7fb70c>
    5d20:	0100000a 	tsteq	r0, sl
    5d24:	005d1804 	subseq	r1, sp, r4, lsl #16
    5d28:	bc030000 	stclt	0, cr0, [r3], {-0}
    5d2c:	21000008 	tstcs	r0, r8
    5d30:	04010078 	streq	r0, [r1], #-120	; 0xffffff88
    5d34:	00005d29 	andeq	r5, r0, r9, lsr #26
    5d38:	00792100 	rsbseq	r2, r9, r0, lsl #2
    5d3c:	5d350401 	cfldrspl	mvf0, [r5, #-4]!
    5d40:	00000000 	andeq	r0, r0, r0
    5d44:	00040f22 	andeq	r0, r4, r2, lsr #30
    5d48:	00040f00 	andeq	r0, r4, r0, lsl #30
    5d4c:	06280200 	strteq	r0, [r8], -r0, lsl #4
    5d50:	0004b422 	andeq	fp, r4, r2, lsr #8
    5d54:	0004b400 	andeq	fp, r4, r0, lsl #8
    5d58:	066e0200 	strbteq	r0, [lr], -r0, lsl #4
    5d5c:	000a9322 	andeq	r9, sl, r2, lsr #6
    5d60:	000a9300 	andeq	r9, sl, r0, lsl #6
    5d64:	061d0200 	ldreq	r0, [sp], -r0, lsl #4
    5d68:	00024d22 	andeq	r4, r2, r2, lsr #26
    5d6c:	00024d00 	andeq	r4, r2, r0, lsl #26
    5d70:	07f70200 	ldrbeq	r0, [r7, r0, lsl #4]!
    5d74:	00014900 	andeq	r4, r1, r0, lsl #18
    5d78:	fd000400 	stc2	4, cr0, [r0, #-0]
    5d7c:	04000012 	streq	r0, [r0], #-18	; 0xffffffee
    5d80:	0002de01 	andeq	sp, r2, r1, lsl #28
    5d84:	0ad00c00 	beq	ff408d8c <__bss_end__+0xff3fe774>
    5d88:	03bf0000 			; <UNDEFINED> instruction: 0x03bf0000
    5d8c:	9d680000 	stclls	0, cr0, [r8, #-0]
    5d90:	003c0000 	eorseq	r0, ip, r0
    5d94:	26510000 	ldrbcs	r0, [r1], -r0
    5d98:	04020000 	streq	r0, [r2], #-0
    5d9c:	746e6905 	strbtvc	r6, [lr], #-2309	; 0xfffff6fb
    5da0:	07040300 	streq	r0, [r4, -r0, lsl #6]
    5da4:	000000a9 	andeq	r0, r0, r9, lsr #1
    5da8:	58060103 	stmdapl	r6, {r0, r1, r8}
    5dac:	03000000 	movweq	r0, #0
    5db0:	00d60502 	sbcseq	r0, r6, r2, lsl #10
    5db4:	04030000 	streq	r0, [r3], #-0
    5db8:	0000c105 	andeq	ip, r0, r5, lsl #2
    5dbc:	05080300 	streq	r0, [r8, #-768]	; 0xfffffd00
    5dc0:	000000bc 	strheq	r0, [r0], -ip
    5dc4:	56080103 	strpl	r0, [r8], -r3, lsl #2
    5dc8:	03000000 	movweq	r0, #0
    5dcc:	00640702 	rsbeq	r0, r4, r2, lsl #14
    5dd0:	04030000 	streq	r0, [r3], #-0
    5dd4:	0000a407 	andeq	sl, r0, r7, lsl #8
    5dd8:	07080300 	streq	r0, [r8, -r0, lsl #6]
    5ddc:	0000009f 	muleq	r0, pc, r0	; <UNPREDICTABLE>
    5de0:	00002504 	andeq	r2, r0, r4, lsl #10
    5de4:	00007a00 	andeq	r7, r0, r0, lsl #20
    5de8:	00250500 	eoreq	r0, r5, r0, lsl #10
    5dec:	06000000 	streq	r0, [r0], -r0
    5df0:	000000ca 	andeq	r0, r0, sl, asr #1
    5df4:	860e1c02 	strhi	r1, [lr], -r2, lsl #24
    5df8:	07000000 	streq	r0, [r0, -r0]
    5dfc:	00006b04 	andeq	r6, r0, r4, lsl #22
    5e00:	00250400 	eoreq	r0, r5, r0, lsl #8
    5e04:	009b0000 	addseq	r0, fp, r0
    5e08:	9b050000 	blls	145e10 <__bss_end__+0x13b7f8>
    5e0c:	00000000 	andeq	r0, r0, r0
    5e10:	00a80407 	adceq	r0, r8, r7, lsl #8
    5e14:	01030000 	mrseq	r0, (UNDEF: 3)
    5e18:	00005f08 	andeq	r5, r0, r8, lsl #30
    5e1c:	00a10800 	adceq	r0, r1, r0, lsl #16
    5e20:	4d060000 	stcmi	0, cr0, [r6, #-0]
    5e24:	02000004 	andeq	r0, r0, #4, 0
    5e28:	00b90e21 	adcseq	r0, r9, r1, lsr #28
    5e2c:	04070000 	streq	r0, [r7], #-0
    5e30:	0000008c 	andeq	r0, r0, ip, lsl #1
    5e34:	00007a09 	andeq	r7, r0, r9, lsl #20
    5e38:	07060100 	streq	r0, [r6, -r0, lsl #2]
    5e3c:	a20c0305 	andge	r0, ip, #335544320	; 0x14000000
    5e40:	c30a0000 	movwgt	r0, #40960	; 0xa000
    5e44:	0100000a 	tsteq	r0, sl
    5e48:	9d94060b 	ldcls	6, cr0, [r4, #44]	; 0x2c
    5e4c:	00100000 	andseq	r0, r0, r0
    5e50:	9c010000 	stcls	0, cr0, [r1], {-0}
    5e54:	000000f1 	strdeq	r0, [r0], -r1
    5e58:	0070660b 	rsbseq	r6, r0, fp, lsl #12
    5e5c:	86190b01 	ldrhi	r0, [r9], -r1, lsl #22
    5e60:	01000000 	mrseq	r0, (UNDEF: 0)
    5e64:	930c0050 	movwls	r0, #49232	; 0xc050
    5e68:	0100000a 	tsteq	r0, sl
    5e6c:	9d7c0608 	ldclls	6, cr0, [ip, #-32]!	; 0xffffffe0
    5e70:	00180000 	andseq	r0, r8, r0
    5e74:	9c010000 	stcls	0, cr0, [r1], {-0}
    5e78:	000ab20d 	andeq	fp, sl, sp, lsl #4
    5e7c:	0c030100 	stfeqs	f0, [r3], {-0}
    5e80:	00000025 	andeq	r0, r0, r5, lsr #32
    5e84:	00009d68 	andeq	r9, r0, r8, ror #26
    5e88:	00000014 	andeq	r0, r0, r4, lsl r0
    5e8c:	01409c01 	cmpeq	r0, r1, lsl #24
    5e90:	630e0000 	movwvs	r0, #57344	; 0xe000
    5e94:	21030100 	mrscs	r0, (UNDEF: 19)
    5e98:	00000025 	andeq	r0, r0, r5, lsr #32
    5e9c:	000034dc 	ldrdeq	r3, [r0], -ip
    5ea0:	000034d8 	ldrdeq	r3, [r0], -r8
    5ea4:	009d740f 	addseq	r7, sp, pc, lsl #8
    5ea8:	00014000 	andeq	r4, r1, r0
    5eac:	50011000 	andpl	r1, r1, r0
    5eb0:	00007402 	andeq	r7, r0, r2, lsl #8
    5eb4:	09961100 	ldmibeq	r6, {r8, ip}
    5eb8:	09960000 	ldmibeq	r6, {}	; <UNPREDICTABLE>
    5ebc:	42020000 	andmi	r0, r2, #0, 0
    5ec0:	01370006 	teqeq	r7, r6
    5ec4:	00040000 	andeq	r0, r4, r0
    5ec8:	0000140c 	andeq	r1, r0, ip, lsl #8
    5ecc:	02de0104 	sbcseq	r0, lr, #1
    5ed0:	e60c0000 	str	r0, [ip], -r0
    5ed4:	bf00000a 	svclt	0x0000000a
    5ed8:	a4000003 	strge	r0, [r0], #-3
    5edc:	3400009d 	strcc	r0, [r0], #-157	; 0xffffff63
    5ee0:	13000000 	movwne	r0, #0
    5ee4:	02000027 	andeq	r0, r0, #39, 0	; 0x27
    5ee8:	6e690504 	cdpvs	5, 6, cr0, cr9, cr4, {0}
    5eec:	04030074 	streq	r0, [r3], #-116	; 0xffffff8c
    5ef0:	0000a907 	andeq	sl, r0, r7, lsl #18
    5ef4:	06010300 	streq	r0, [r1], -r0, lsl #6
    5ef8:	00000058 	andeq	r0, r0, r8, asr r0
    5efc:	d6050203 	strle	r0, [r5], -r3, lsl #4
    5f00:	03000000 	movweq	r0, #0
    5f04:	00c10504 	sbceq	r0, r1, r4, lsl #10
    5f08:	08030000 	stmdaeq	r3, {}	; <UNPREDICTABLE>
    5f0c:	0000bc05 	andeq	fp, r0, r5, lsl #24
    5f10:	08010300 	stmdaeq	r1, {r8, r9}
    5f14:	00000056 	andeq	r0, r0, r6, asr r0
    5f18:	64070203 	strvs	r0, [r7], #-515	; 0xfffffdfd
    5f1c:	03000000 	movweq	r0, #0
    5f20:	00a40704 	adceq	r0, r4, r4, lsl #14
    5f24:	08030000 	stmdaeq	r3, {}	; <UNPREDICTABLE>
    5f28:	00009f07 	andeq	r9, r0, r7, lsl #30
    5f2c:	00250400 	eoreq	r0, r5, r0, lsl #8
    5f30:	007a0000 	rsbseq	r0, sl, r0
    5f34:	25050000 	strcs	r0, [r5, #-0]
    5f38:	00000000 	andeq	r0, r0, r0
    5f3c:	0000ca06 	andeq	ip, r0, r6, lsl #20
    5f40:	0e1c0200 	cdpeq	2, 1, cr0, cr12, cr0, {0}
    5f44:	00000086 	andeq	r0, r0, r6, lsl #1
    5f48:	006b0407 	rsbeq	r0, fp, r7, lsl #8
    5f4c:	25040000 	strcs	r0, [r4, #-0]
    5f50:	9b000000 	blls	5f58 <__code_start__-0x20a8>
    5f54:	05000000 	streq	r0, [r0, #-0]
    5f58:	0000009b 	muleq	r0, fp, r0
    5f5c:	a8040700 	stmdage	r4, {r8, r9, sl}
    5f60:	03000000 	movweq	r0, #0
    5f64:	005f0801 	subseq	r0, pc, r1, lsl #16
    5f68:	a1080000 	mrsge	r0, (UNDEF: 8)
    5f6c:	06000000 	streq	r0, [r0], -r0
    5f70:	0000044d 	andeq	r0, r0, sp, asr #8
    5f74:	b90e2102 	stmdblt	lr, {r1, r8, sp}
    5f78:	07000000 	streq	r0, [r0, -r0]
    5f7c:	00008c04 	andeq	r8, r0, r4, lsl #24
    5f80:	05390900 	ldreq	r0, [r9, #-2304]!	; 0xfffff700
    5f84:	04010000 	streq	r0, [r1], #-0
    5f88:	00013407 	andeq	r3, r1, r7, lsl #8
    5f8c:	009da400 	addseq	sl, sp, r0, lsl #8
    5f90:	00003400 	andeq	r3, r0, r0, lsl #8
    5f94:	349c0100 	ldrcc	r0, [ip], #256	; 0x100
    5f98:	0a000001 	beq	5fa4 <__code_start__-0x205c>
    5f9c:	00000ae1 	andeq	r0, r0, r1, ror #21
    5fa0:	34150401 	ldrcc	r0, [r5], #-1025	; 0xfffffbff
    5fa4:	01000001 	tsteq	r0, r1
    5fa8:	72730b50 	rsbsvc	r0, r3, #80, 22	; 0x14000
    5fac:	04010063 	streq	r0, [r1], #-99	; 0xffffff9d
    5fb0:	00009b27 	andeq	r9, r0, r7, lsr #22
    5fb4:	0034fe00 	eorseq	pc, r4, r0, lsl #28
    5fb8:	0034fa00 	eorseq	pc, r4, r0, lsl #20
    5fbc:	31730c00 	cmncc	r3, r0, lsl #24
    5fc0:	0b050100 	bleq	1463c8 <__bss_end__+0x13bdb0>
    5fc4:	00000134 	andeq	r0, r0, r4, lsr r1
    5fc8:	00003529 	andeq	r3, r0, r9, lsr #10
    5fcc:	0000351f 	andeq	r3, r0, pc, lsl r5
    5fd0:	0032730c 	eorseq	r7, r2, ip, lsl #6
    5fd4:	9b110601 	blls	4477e0 <__bss_end__+0x43d1c8>
    5fd8:	6e000000 	cdpvs	0, 0, cr0, cr0, cr0, {0}
    5fdc:	6a000035 	bvs	60b8 <__code_start__-0x1f48>
    5fe0:	0c000035 	stceq	0, cr0, [r0], {53}	; 0x35
    5fe4:	07010063 	streq	r0, [r1, -r3, rrx]
    5fe8:	0000a10a 	andeq	sl, r0, sl, lsl #2
    5fec:	00359200 	eorseq	r9, r5, r0, lsl #4
    5ff0:	00358e00 	eorseq	r8, r5, r0, lsl #28
    5ff4:	04070000 	streq	r0, [r7], #-0
    5ff8:	000000a1 	andeq	r0, r0, r1, lsr #1
    5ffc:	0000f700 	andeq	pc, r0, r0, lsl #14
    6000:	c2000400 	andgt	r0, r0, #0, 8
    6004:	04000014 	streq	r0, [r0], #-20	; 0xffffffec
    6008:	0002de01 	andeq	sp, r2, r1, lsl #28
    600c:	0af60c00 	beq	ffd89014 <__bss_end__+0xffd7e9fc>
    6010:	03bf0000 			; <UNDEFINED> instruction: 0x03bf0000
    6014:	9dd80000 	ldclls	0, cr0, [r8]
    6018:	002c0000 	eoreq	r0, ip, r0
    601c:	28210000 	stmdacs	r1!, {}	; <UNPREDICTABLE>
    6020:	04020000 	streq	r0, [r2], #-0
    6024:	746e6905 	strbtvc	r6, [lr], #-2309	; 0xfffff6fb
    6028:	07040300 	streq	r0, [r4, -r0, lsl #6]
    602c:	000000a9 	andeq	r0, r0, r9, lsr #1
    6030:	58060103 	stmdapl	r6, {r0, r1, r8}
    6034:	03000000 	movweq	r0, #0
    6038:	00d60502 	sbcseq	r0, r6, r2, lsl #10
    603c:	04030000 	streq	r0, [r3], #-0
    6040:	0000c105 	andeq	ip, r0, r5, lsl #2
    6044:	05080300 	streq	r0, [r8, #-768]	; 0xfffffd00
    6048:	000000bc 	strheq	r0, [r0], -ip
    604c:	56080103 	strpl	r0, [r8], -r3, lsl #2
    6050:	03000000 	movweq	r0, #0
    6054:	00640702 	rsbeq	r0, r4, r2, lsl #14
    6058:	04030000 	streq	r0, [r3], #-0
    605c:	0000a407 	andeq	sl, r0, r7, lsl #8
    6060:	07080300 	streq	r0, [r8, -r0, lsl #6]
    6064:	0000009f 	muleq	r0, pc, r0	; <UNPREDICTABLE>
    6068:	00002504 	andeq	r2, r0, r4, lsl #10
    606c:	00007a00 	andeq	r7, r0, r0, lsl #20
    6070:	00250500 	eoreq	r0, r5, r0, lsl #10
    6074:	06000000 	streq	r0, [r0], -r0
    6078:	000000ca 	andeq	r0, r0, sl, asr #1
    607c:	860e1c02 	strhi	r1, [lr], -r2, lsl #24
    6080:	07000000 	streq	r0, [r0, -r0]
    6084:	00006b04 	andeq	r6, r0, r4, lsl #22
    6088:	00250400 	eoreq	r0, r5, r0, lsl #8
    608c:	009b0000 	addseq	r0, fp, r0
    6090:	9b050000 	blls	146098 <__bss_end__+0x13ba80>
    6094:	00000000 	andeq	r0, r0, r0
    6098:	00a80407 	adceq	r0, r8, r7, lsl #8
    609c:	01030000 	mrseq	r0, (UNDEF: 3)
    60a0:	00005f08 	andeq	r5, r0, r8, lsl #30
    60a4:	00a10800 	adceq	r0, r1, r0, lsl #16
    60a8:	4d060000 	stcmi	0, cr0, [r6, #-0]
    60ac:	02000004 	andeq	r0, r0, #4, 0
    60b0:	00b90e21 	adcseq	r0, r9, r1, lsr #28
    60b4:	04070000 	streq	r0, [r7], #-0
    60b8:	0000008c 	andeq	r0, r0, ip, lsl #1
    60bc:	00054009 	andeq	r4, r5, r9
    60c0:	05030100 	streq	r0, [r3, #-256]	; 0xffffff00
    60c4:	00000025 	andeq	r0, r0, r5, lsr #32
    60c8:	00009dd8 	ldrdeq	r9, [r0], -r8
    60cc:	0000002c 	andeq	r0, r0, ip, lsr #32
    60d0:	610a9c01 	tstvs	sl, r1, lsl #24
    60d4:	18030100 	stmdane	r3, {r8}
    60d8:	0000009b 	muleq	r0, fp, r0
    60dc:	000035b4 			; <UNDEFINED> instruction: 0x000035b4
    60e0:	000035b0 			; <UNDEFINED> instruction: 0x000035b0
    60e4:	0100620a 	tsteq	r0, sl, lsl #4
    60e8:	009b2703 	addseq	r2, fp, r3, lsl #14
    60ec:	35d60000 	ldrbcc	r0, [r6]
    60f0:	35d20000 	ldrbcc	r0, [r2]
    60f4:	00000000 	andeq	r0, r0, r0
    60f8:	0000010f 	andeq	r0, r0, pc, lsl #2
    60fc:	15510004 	ldrbne	r0, [r1, #-4]
    6100:	01040000 	mrseq	r0, (UNDEF: 4)
    6104:	000002de 	ldrdeq	r0, [r0], -lr
    6108:	000b060c 	andeq	r0, fp, ip, lsl #12
    610c:	0003bf00 	andeq	fp, r3, r0, lsl #30
    6110:	009e0400 	addseq	r0, lr, r0, lsl #8
    6114:	00002000 	andeq	r2, r0, r0
    6118:	0028e800 	eoreq	lr, r8, r0, lsl #16
    611c:	05040200 	streq	r0, [r4, #-512]	; 0xfffffe00
    6120:	00746e69 	rsbseq	r6, r4, r9, ror #28
    6124:	a9070403 	stmdbge	r7, {r0, r1, sl}
    6128:	03000000 	movweq	r0, #0
    612c:	00580601 	subseq	r0, r8, r1, lsl #12
    6130:	02030000 	andeq	r0, r3, #0, 0
    6134:	0000d605 	andeq	sp, r0, r5, lsl #12
    6138:	05040300 	streq	r0, [r4, #-768]	; 0xfffffd00
    613c:	000000c1 	andeq	r0, r0, r1, asr #1
    6140:	bc050803 	stclt	8, cr0, [r5], {3}
    6144:	03000000 	movweq	r0, #0
    6148:	00560801 	subseq	r0, r6, r1, lsl #16
    614c:	02030000 	andeq	r0, r3, #0, 0
    6150:	00006407 	andeq	r6, r0, r7, lsl #8
    6154:	07040300 	streq	r0, [r4, -r0, lsl #6]
    6158:	000000a4 	andeq	r0, r0, r4, lsr #1
    615c:	9f070803 	svcls	0x00070803
    6160:	04000000 	streq	r0, [r0], #-0
    6164:	00000025 	andeq	r0, r0, r5, lsr #32
    6168:	0000007a 	andeq	r0, r0, sl, ror r0
    616c:	00002505 	andeq	r2, r0, r5, lsl #10
    6170:	ca060000 	bgt	186178 <__bss_end__+0x17bb60>
    6174:	02000000 	andeq	r0, r0, #0, 0
    6178:	00860e1c 	addeq	r0, r6, ip, lsl lr
    617c:	04070000 	streq	r0, [r7], #-0
    6180:	0000006b 	andeq	r0, r0, fp, rrx
    6184:	00002504 	andeq	r2, r0, r4, lsl #10
    6188:	00009b00 	andeq	r9, r0, r0, lsl #22
    618c:	009b0500 	addseq	r0, fp, r0, lsl #10
    6190:	07000000 	streq	r0, [r0, -r0]
    6194:	0000a804 	andeq	sl, r0, r4, lsl #16
    6198:	08010300 	stmdaeq	r1, {r8, r9}
    619c:	0000005f 	andeq	r0, r0, pc, asr r0
    61a0:	0000a108 	andeq	sl, r0, r8, lsl #2
    61a4:	044d0600 	strbeq	r0, [sp], #-1536	; 0xfffffa00
    61a8:	21020000 	mrscs	r0, (UNDEF: 2)
    61ac:	0000b90e 	andeq	fp, r0, lr, lsl #18
    61b0:	8c040700 	stchi	7, cr0, [r4], {-0}
    61b4:	09000000 	stmdbeq	r0, {}	; <UNPREDICTABLE>
    61b8:	0000050a 	andeq	r0, r0, sl, lsl #10
    61bc:	0c070301 	stceq	3, cr0, [r7], {1}
    61c0:	04000001 	streq	r0, [r0], #-1
    61c4:	2000009e 	mulcs	r0, lr, r0
    61c8:	01000000 	mrseq	r0, (UNDEF: 0)
    61cc:	00010c9c 	muleq	r1, ip, ip
    61d0:	31730a00 	cmncc	r3, r0, lsl #20
    61d4:	15030100 	strne	r0, [r3, #-256]	; 0xffffff00
    61d8:	0000010c 	andeq	r0, r0, ip, lsl #2
    61dc:	730b5001 	movwvc	r5, #45057	; 0xb001
    61e0:	03010032 	movweq	r0, #4146	; 0x1032
    61e4:	00009b26 	andeq	r9, r0, r6, lsr #22
    61e8:	0035fa00 	eorseq	pc, r5, r0, lsl #20
    61ec:	0035f400 	eorseq	pc, r5, r0, lsl #8
    61f0:	00730c00 	rsbseq	r0, r3, r0, lsl #24
    61f4:	0c140401 	cfldrseq	mvf0, [r4], {1}
    61f8:	2b000001 	blcs	6204 <__code_start__-0x1dfc>
    61fc:	25000036 	strcs	r0, [r0, #-54]	; 0xffffffca
    6200:	00000036 	andeq	r0, r0, r6, lsr r0
    6204:	00a10407 	adceq	r0, r1, r7, lsl #8
    6208:	4e000000 	cdpmi	0, 0, cr0, cr0, cr0, {0}
    620c:	04000001 	streq	r0, [r0], #-1
    6210:	00160700 	andseq	r0, r6, r0, lsl #14
    6214:	de010400 	cfcpysle	mvf0, mvf1
    6218:	0c000002 	stceq	0, cr0, [r0], {2}
    621c:	00000b16 	andeq	r0, r0, r6, lsl fp
    6220:	000003bf 			; <UNDEFINED> instruction: 0x000003bf
    6224:	00000530 	andeq	r0, r0, r0, lsr r5
    6228:	00000000 	andeq	r0, r0, r0
    622c:	000029ad 	andeq	r2, r0, sp, lsr #19
    6230:	69050402 	stmdbvs	r5, {r1, sl}
    6234:	0300746e 	movweq	r7, #1134	; 0x46e
    6238:	000003a8 	andeq	r0, r0, r8, lsr #7
    623c:	3817d103 	ldmdacc	r7, {r0, r1, r8, ip, lr, pc}
    6240:	04000000 	streq	r0, [r0], #-0
    6244:	00a90704 	adceq	r0, r9, r4, lsl #14
    6248:	01040000 	mrseq	r0, (UNDEF: 4)
    624c:	00005806 	andeq	r5, r0, r6, lsl #16
    6250:	05020400 	streq	r0, [r2, #-1024]	; 0xfffffc00
    6254:	000000d6 	ldrdeq	r0, [r0], -r6
    6258:	c1050404 	tstgt	r5, r4, lsl #8
    625c:	04000000 	streq	r0, [r0], #-0
    6260:	00bc0508 	adcseq	r0, ip, r8, lsl #10
    6264:	01040000 	mrseq	r0, (UNDEF: 4)
    6268:	00005608 	andeq	r5, r0, r8, lsl #12
    626c:	005b0500 	subseq	r0, fp, r0, lsl #10
    6270:	02040000 	andeq	r0, r4, #0, 0
    6274:	00006407 	andeq	r6, r0, r7, lsl #8
    6278:	07040400 	streq	r0, [r4, -r0, lsl #8]
    627c:	000000a4 	andeq	r0, r0, r4, lsr #1
    6280:	9f070804 	svcls	0x00070804
    6284:	06000000 	streq	r0, [r0], -r0
    6288:	00000025 	andeq	r0, r0, r5, lsr #32
    628c:	0000008b 	andeq	r0, r0, fp, lsl #1
    6290:	00002507 	andeq	r2, r0, r7, lsl #10
    6294:	ca080000 	bgt	20629c <__bss_end__+0x1fbc84>
    6298:	02000000 	andeq	r0, r0, #0, 0
    629c:	00970e1c 	addseq	r0, r7, ip, lsl lr
    62a0:	04090000 	streq	r0, [r9], #-0
    62a4:	0000007c 	andeq	r0, r0, ip, ror r0
    62a8:	00002506 	andeq	r2, r0, r6, lsl #10
    62ac:	0000ac00 	andeq	sl, r0, r0, lsl #24
    62b0:	00ac0700 	adceq	r0, ip, r0, lsl #14
    62b4:	09000000 	stmdbeq	r0, {}	; <UNPREDICTABLE>
    62b8:	0000b904 	andeq	fp, r0, r4, lsl #18
    62bc:	08010400 	stmdaeq	r1, {sl}
    62c0:	0000005f 	andeq	r0, r0, pc, asr r0
    62c4:	0000b205 	andeq	fp, r0, r5, lsl #4
    62c8:	044d0800 	strbeq	r0, [sp], #-2048	; 0xfffff800
    62cc:	21020000 	mrscs	r0, (UNDEF: 2)
    62d0:	0000ca0e 	andeq	ip, r0, lr, lsl #20
    62d4:	9d040900 	vstrls.16	s0, [r4, #-0]	; <UNPREDICTABLE>
    62d8:	0a000000 	beq	62e0 <__code_start__-0x1d20>
    62dc:	00000568 	andeq	r0, r0, r8, ror #10
    62e0:	25050401 	strcs	r0, [r5, #-1025]	; 0xfffffbff
    62e4:	24000000 	strcs	r0, [r0], #-0
    62e8:	2c00009e 	stccs	0, cr0, [r0], {158}	; 0x9e
    62ec:	01000000 	mrseq	r0, (UNDEF: 0)
    62f0:	00014b9c 	muleq	r1, ip, fp
    62f4:	735f0b00 	cmpvc	pc, #0, 22
    62f8:	04010031 	streq	r0, [r1], #-49	; 0xffffffcf
    62fc:	0000ac19 	andeq	sl, r0, r9, lsl ip
    6300:	00365a00 	eorseq	r5, r6, r0, lsl #20
    6304:	00365600 	eorseq	r5, r6, r0, lsl #12
    6308:	735f0b00 	cmpvc	pc, #0, 22
    630c:	04010032 	streq	r0, [r1], #-50	; 0xffffffce
    6310:	0000ac2a 	andeq	sl, r0, sl, lsr #24
    6314:	00367f00 	eorseq	r7, r6, r0, lsl #30
    6318:	00367b00 	eorseq	r7, r6, r0, lsl #22
    631c:	006e0b00 	rsbeq	r0, lr, r0, lsl #22
    6320:	2c360401 	cfldrscs	mvf0, [r6], #-4
    6324:	a6000000 	strge	r0, [r0], -r0
    6328:	a0000036 	andge	r0, r0, r6, lsr r0
    632c:	0c000036 	stceq	0, cr0, [r0], {54}	; 0x36
    6330:	01003173 	tsteq	r0, r3, ror r1
    6334:	014b1a05 	cmpeq	fp, r5, lsl #20
    6338:	36d90000 	ldrbcc	r0, [r9], r0
    633c:	36d10000 	ldrbcc	r0, [r1], r0
    6340:	730c0000 	movwvc	r0, #49152	; 0xc000
    6344:	05010032 	streq	r0, [r1, #-50]	; 0xffffffce
    6348:	00014b2c 	andeq	r4, r1, ip, lsr #22
    634c:	00371500 	eorseq	r1, r7, r0, lsl #10
    6350:	00370f00 	eorseq	r0, r7, r0, lsl #30
    6354:	04090000 	streq	r0, [r9], #-0
    6358:	00000062 	andeq	r0, r0, r2, rrx
    635c:	0000ce00 	andeq	ip, r0, r0, lsl #28
    6360:	bb000400 	bllt	7368 <__code_start__-0xc98>
    6364:	04000016 	streq	r0, [r0], #-22	; 0xffffffea
    6368:	0002de01 	andeq	sp, r2, r1, lsl #28
    636c:	0b270c00 	bleq	9c9374 <__bss_end__+0x9bed5c>
    6370:	03bf0000 			; <UNDEFINED> instruction: 0x03bf0000
    6374:	9e500000 	cdpls	0, 5, cr0, cr0, cr0, {0}
    6378:	00040000 	andeq	r0, r4, r0
    637c:	2ad20000 	bcs	ff486384 <__bss_end__+0xff47bd6c>
    6380:	04020000 	streq	r0, [r2], #-0
    6384:	746e6905 	strbtvc	r6, [lr], #-2309	; 0xfffff6fb
    6388:	07040300 	streq	r0, [r4, -r0, lsl #6]
    638c:	000000a9 	andeq	r0, r0, r9, lsr #1
    6390:	58060103 	stmdapl	r6, {r0, r1, r8}
    6394:	03000000 	movweq	r0, #0
    6398:	00d60502 	sbcseq	r0, r6, r2, lsl #10
    639c:	04030000 	streq	r0, [r3], #-0
    63a0:	0000c105 	andeq	ip, r0, r5, lsl #2
    63a4:	05080300 	streq	r0, [r8, #-768]	; 0xfffffd00
    63a8:	000000bc 	strheq	r0, [r0], -ip
    63ac:	56080103 	strpl	r0, [r8], -r3, lsl #2
    63b0:	03000000 	movweq	r0, #0
    63b4:	00640702 	rsbeq	r0, r4, r2, lsl #14
    63b8:	04030000 	streq	r0, [r3], #-0
    63bc:	0000a407 	andeq	sl, r0, r7, lsl #8
    63c0:	07080300 	streq	r0, [r8, -r0, lsl #6]
    63c4:	0000009f 	muleq	r0, pc, r0	; <UNPREDICTABLE>
    63c8:	00002504 	andeq	r2, r0, r4, lsl #10
    63cc:	00007a00 	andeq	r7, r0, r0, lsl #20
    63d0:	00250500 	eoreq	r0, r5, r0, lsl #10
    63d4:	06000000 	streq	r0, [r0], -r0
    63d8:	000000ca 	andeq	r0, r0, sl, asr #1
    63dc:	860e1c02 	strhi	r1, [lr], -r2, lsl #24
    63e0:	07000000 	streq	r0, [r0, -r0]
    63e4:	00006b04 	andeq	r6, r0, r4, lsl #22
    63e8:	00250400 	eoreq	r0, r5, r0, lsl #8
    63ec:	009b0000 	addseq	r0, fp, r0
    63f0:	9b050000 	blls	1463f8 <__bss_end__+0x13bde0>
    63f4:	00000000 	andeq	r0, r0, r0
    63f8:	00a80407 	adceq	r0, r8, r7, lsl #8
    63fc:	01030000 	mrseq	r0, (UNDEF: 3)
    6400:	00005f08 	andeq	r5, r0, r8, lsl #30
    6404:	00a10800 	adceq	r0, r1, r0, lsl #16
    6408:	4d060000 	stcmi	0, cr0, [r6, #-0]
    640c:	02000004 	andeq	r0, r0, #4, 0
    6410:	00b90e21 	adcseq	r0, r9, r1, lsr #28
    6414:	04070000 	streq	r0, [r7], #-0
    6418:	0000008c 	andeq	r0, r0, ip, lsl #1
    641c:	00063609 	andeq	r3, r6, r9, lsl #12
    6420:	06030100 	streq	r0, [r3], -r0, lsl #2
    6424:	00009e50 	andeq	r9, r0, r0, asr lr
    6428:	00000004 	andeq	r0, r0, r4
    642c:	Address 0x000000000000642c is out of bounds.


Disassembly of section .debug_abbrev:

00000000 <.debug_abbrev>:
       0:	25011101 	strcs	r1, [r1, #-257]	; 0xfffffeff
       4:	030b130e 	movweq	r1, #45838	; 0xb30e
       8:	110e1b0e 	tstne	lr, lr, lsl #22
       c:	10061201 	andne	r1, r6, r1, lsl #4
      10:	02000017 	andeq	r0, r0, #23, 0
      14:	0b0b0024 	bleq	2c00ac <__bss_end__+0x2b5a94>
      18:	08030b3e 	stmdaeq	r3, {r1, r2, r3, r4, r5, r8, r9, fp}
      1c:	24030000 	strcs	r0, [r3], #-0
      20:	3e0b0b00 	vmlacc.f64	d0, d11, d0
      24:	000e030b 	andeq	r0, lr, fp, lsl #6
      28:	00260400 	eoreq	r0, r6, r0, lsl #8
      2c:	00001349 	andeq	r1, r0, r9, asr #6
      30:	27011505 	strcs	r1, [r1, -r5, lsl #10]
      34:	01134919 	tsteq	r3, r9, lsl r9
      38:	06000013 			; <UNDEFINED> instruction: 0x06000013
      3c:	13490005 	movtne	r0, #36869	; 0x9005
      40:	34070000 	strcc	r0, [r7], #-0
      44:	3a0e0300 	bcc	380c4c <__bss_end__+0x376634>
      48:	390b3b0b 	stmdbcc	fp, {r0, r1, r3, r8, r9, fp, ip, sp}
      4c:	3f13490b 	svccc	0x0013490b
      50:	00193c19 	andseq	r3, r9, r9, lsl ip
      54:	000f0800 	andeq	r0, pc, r0, lsl #16
      58:	13490b0b 	movtne	r0, #39691	; 0x9b0b
      5c:	34090000 	strcc	r0, [r9], #-0
      60:	3a0e0300 	bcc	380c68 <__bss_end__+0x376650>
      64:	390b3b0b 	stmdbcc	fp, {r0, r1, r3, r8, r9, fp, ip, sp}
      68:	1c13490b 			; <UNDEFINED> instruction: 0x1c13490b
      6c:	0a00000b 	beq	a0 <__code_start__-0x7f60>
      70:	0e030016 	mcreq	0, 0, r0, cr3, cr6, {0}
      74:	0b3b0b3a 	bleq	ec2d64 <__bss_end__+0xeb874c>
      78:	13490b39 	movtne	r0, #39737	; 0x9b39
      7c:	130b0000 	movwne	r0, #45056	; 0xb000
      80:	3c0e0300 	stccc	3, cr0, [lr], {-0}
      84:	0c000019 	stceq	0, cr0, [r0], {25}
      88:	0b3e0104 	bleq	f804a0 <__bss_end__+0xf75e88>
      8c:	13490b0b 	movtne	r0, #39691	; 0x9b0b
      90:	0b3b0b3a 	bleq	ec2d80 <__bss_end__+0xeb8768>
      94:	13010b39 	movwne	r0, #6969	; 0x1b39
      98:	280d0000 	stmdacs	sp, {}	; <UNPREDICTABLE>
      9c:	1c0e0300 	stcne	3, cr0, [lr], {-0}
      a0:	0e00000b 	cdpeq	0, 0, cr0, cr0, cr11, {0}
      a4:	193f012e 	ldmdbne	pc!, {r1, r2, r3, r5, r8}	; <UNPREDICTABLE>
      a8:	0b3a0e03 	bleq	e838bc <__bss_end__+0xe792a4>
      ac:	0b390b3b 	bleq	e42da0 <__bss_end__+0xe38788>
      b0:	01111927 	tsteq	r1, r7, lsr #18
      b4:	18400612 	stmdane	r0, {r1, r4, r9, sl}^
      b8:	01194297 			; <UNDEFINED> instruction: 0x01194297
      bc:	0f000013 	svceq	0x00000013
      c0:	08030034 	stmdaeq	r3, {r2, r4, r5}
      c4:	0b3b0b3a 	bleq	ec2db4 <__bss_end__+0xeb879c>
      c8:	13490b39 	movtne	r0, #39737	; 0x9b39
      cc:	42b71702 	adcsmi	r1, r7, #524288	; 0x80000
      d0:	10000017 	andne	r0, r0, r7, lsl r0
      d4:	0111010b 	tsteq	r1, fp, lsl #2
      d8:	13010612 	movwne	r0, #5650	; 0x1612
      dc:	0b110000 	bleq	4400e4 <__bss_end__+0x435acc>
      e0:	12011101 	andne	r1, r1, #1073741824	; 0x40000000
      e4:	12000006 	andne	r0, r0, #6, 0
      e8:	01018289 	smlabbeq	r1, r9, r2, r8
      ec:	13310111 	teqne	r1, #1073741828	; 0x40000004
      f0:	8a130000 	bhi	4c00f8 <__bss_end__+0x4b5ae0>
      f4:	02000182 	andeq	r0, r0, #-2147483616	; 0x80000020
      f8:	18429118 	stmdane	r2, {r3, r4, r8, ip, pc}^
      fc:	89140000 	ldmdbhi	r4, {}	; <UNPREDICTABLE>
     100:	11000182 	smlabbne	r0, r2, r1, r0
     104:	00133101 	andseq	r3, r3, r1, lsl #2
     108:	82891500 	addhi	r1, r9, #0, 10
     10c:	01110101 	tsteq	r1, r1, lsl #2
     110:	13011331 	movwne	r1, #4913	; 0x1331
     114:	05160000 	ldreq	r0, [r6, #-0]
     118:	3a080300 	bcc	200d20 <__bss_end__+0x1f6708>
     11c:	390b3b0b 	stmdbcc	fp, {r0, r1, r3, r8, r9, fp, ip, sp}
     120:	0213490b 	andseq	r4, r3, #180224	; 0x2c000
     124:	1742b717 	smlaldne	fp, r2, r7, r7
     128:	05170000 	ldreq	r0, [r7, #-0]
     12c:	3a0e0300 	bcc	380d34 <__bss_end__+0x37671c>
     130:	390b3b0b 	stmdbcc	fp, {r0, r1, r3, r8, r9, fp, ip, sp}
     134:	0213490b 	andseq	r4, r3, #180224	; 0x2c000
     138:	1742b717 	smlaldne	fp, r2, r7, r7
     13c:	2e180000 	cdpcs	0, 1, cr0, cr8, cr0, {0}
     140:	3c193f00 	ldccc	15, cr3, [r9], {-0}
     144:	030e6e19 	movweq	r6, #60953	; 0xee19
     148:	3b0b3a0e 	blcc	2ce988 <__bss_end__+0x2c4370>
     14c:	000b390b 	andeq	r3, fp, fp, lsl #18
     150:	11010000 	mrsne	r0, (UNDEF: 1)
     154:	130e2501 	movwne	r2, #58625	; 0xe501
     158:	1b0e030b 	blne	380d8c <__bss_end__+0x376774>
     15c:	1201110e 	andne	r1, r1, #-2147483645	; 0x80000003
     160:	00171006 	andseq	r1, r7, r6
     164:	00240200 	eoreq	r0, r4, r0, lsl #4
     168:	0b3e0b0b 	bleq	f82d9c <__bss_end__+0xf78784>
     16c:	00000803 	andeq	r0, r0, r3, lsl #16
     170:	0b002403 	bleq	9184 <va_printk+0x120>
     174:	030b3e0b 	movweq	r3, #48651	; 0xbe0b
     178:	0400000e 	streq	r0, [r0], #-14
     17c:	13490026 	movtne	r0, #36902	; 0x9026
     180:	16050000 	strne	r0, [r5], -r0
     184:	3a0e0300 	bcc	380d8c <__bss_end__+0x376774>
     188:	390b3b0b 	stmdbcc	fp, {r0, r1, r3, r8, r9, fp, ip, sp}
     18c:	0013490b 	andseq	r4, r3, fp, lsl #18
     190:	01150600 	tsteq	r5, r0, lsl #12
     194:	13491927 	movtne	r1, #39207	; 0x9927
     198:	00001301 	andeq	r1, r0, r1, lsl #6
     19c:	49000507 	stmdbmi	r0, {r0, r1, r2, r8, sl}
     1a0:	08000013 	stmdaeq	r0, {r0, r1, r4}
     1a4:	0e030034 	mcreq	0, 0, r0, cr3, cr4, {1}
     1a8:	0b3b0b3a 	bleq	ec2e98 <__bss_end__+0xeb8880>
     1ac:	13490b39 	movtne	r0, #39737	; 0x9b39
     1b0:	193c193f 	ldmdbne	ip!, {r0, r1, r2, r3, r4, r5, r8, fp, ip}
     1b4:	0f090000 	svceq	0x00090000
     1b8:	490b0b00 	stmdbmi	fp, {r8, r9, fp}
     1bc:	0a000013 	beq	210 <__code_start__-0x7df0>
     1c0:	0e030113 	mcreq	1, 0, r0, cr3, cr3, {0}
     1c4:	0b3a0b0b 	bleq	e82df8 <__bss_end__+0xe787e0>
     1c8:	0b390b3b 	bleq	e42ebc <__bss_end__+0xe388a4>
     1cc:	00001301 	andeq	r1, r0, r1, lsl #6
     1d0:	03000d0b 	movweq	r0, #3339	; 0xd0b
     1d4:	3b0b3a08 	blcc	2ce9fc <__bss_end__+0x2c43e4>
     1d8:	490b390b 	stmdbmi	fp, {r0, r1, r3, r8, fp, ip, sp}
     1dc:	000b3813 	andeq	r3, fp, r3, lsl r8
     1e0:	000d0c00 	andeq	r0, sp, r0, lsl #24
     1e4:	0b3a0e03 	bleq	e839f8 <__bss_end__+0xe793e0>
     1e8:	0b390b3b 	bleq	e42edc <__bss_end__+0xe388c4>
     1ec:	0b381349 	bleq	e04f18 <__bss_end__+0xdfa900>
     1f0:	040d0000 	streq	r0, [sp], #-0
     1f4:	0b0b3e01 	bleq	2cfa00 <__bss_end__+0x2c53e8>
     1f8:	3a13490b 	bcc	4d262c <__bss_end__+0x4c8014>
     1fc:	390b3b0b 	stmdbcc	fp, {r0, r1, r3, r8, r9, fp, ip, sp}
     200:	0013010b 	andseq	r0, r3, fp, lsl #2
     204:	00280e00 	eoreq	r0, r8, r0, lsl #28
     208:	051c0803 	ldreq	r0, [ip, #-2051]	; 0xfffff7fd
     20c:	280f0000 	stmdacs	pc, {}	; <UNPREDICTABLE>
     210:	1c080300 	stcne	3, cr0, [r8], {-0}
     214:	1000000b 	andne	r0, r0, fp
     218:	0e030028 	cdpeq	0, 0, cr0, cr3, cr8, {1}
     21c:	0000051c 	andeq	r0, r0, ip, lsl r5
     220:	03003411 	movweq	r3, #1041	; 0x411
     224:	3b0b3a0e 	blcc	2cea64 <__bss_end__+0x2c444c>
     228:	490b390b 	stmdbmi	fp, {r0, r1, r3, r8, fp, ip, sp}
     22c:	000b1c13 	andeq	r1, fp, r3, lsl ip
     230:	01011200 	mrseq	r1, R9_usr
     234:	13011349 	movwne	r1, #4937	; 0x1349
     238:	21130000 	tstcs	r3, r0
     23c:	00134900 	andseq	r4, r3, r0, lsl #18
     240:	012e1400 			; <UNDEFINED> instruction: 0x012e1400
     244:	0e03193f 			; <UNDEFINED> instruction: 0x0e03193f
     248:	0b3b0b3a 	bleq	ec2f38 <__bss_end__+0xeb8920>
     24c:	19270b39 	stmdbne	r7!, {r0, r3, r4, r5, r8, r9, fp}
     250:	06120111 			; <UNDEFINED> instruction: 0x06120111
     254:	42971840 	addsmi	r1, r7, #64, 16	; 0x400000
     258:	00130119 	andseq	r0, r3, r9, lsl r1
     25c:	00051500 	andeq	r1, r5, r0, lsl #10
     260:	0b3a0803 	bleq	e82274 <__bss_end__+0xe77c5c>
     264:	0b390b3b 	bleq	e42f58 <__bss_end__+0xe38940>
     268:	17021349 	strne	r1, [r2, -r9, asr #6]
     26c:	001742b7 			; <UNDEFINED> instruction: 0x001742b7
     270:	00051600 	andeq	r1, r5, r0, lsl #12
     274:	0b3a0803 	bleq	e82288 <__bss_end__+0xe77c70>
     278:	0b390b3b 	bleq	e42f6c <__bss_end__+0xe38954>
     27c:	18021349 	stmdane	r2, {r0, r3, r6, r8, r9, ip}
     280:	89170000 	ldmdbhi	r7, {}	; <UNPREDICTABLE>
     284:	11010182 	smlabbne	r1, r2, r1, r0
     288:	00133101 	andseq	r3, r3, r1, lsl #2
     28c:	828a1800 	addhi	r1, sl, #0, 16
     290:	18020001 	stmdane	r2, {r0}
     294:	00184291 	mulseq	r8, r1, r2
     298:	010b1900 	tsteq	fp, r0, lsl #18
     29c:	06120111 			; <UNDEFINED> instruction: 0x06120111
     2a0:	341a0000 	ldrcc	r0, [sl], #-0
     2a4:	3a080300 	bcc	200eac <__bss_end__+0x1f6894>
     2a8:	390b3b0b 	stmdbcc	fp, {r0, r1, r3, r8, r9, fp, ip, sp}
     2ac:	0213490b 	andseq	r4, r3, #180224	; 0x2c000
     2b0:	1742b717 	smlaldne	fp, r2, r7, r7
     2b4:	1d1b0000 	ldcne	0, cr0, [fp, #-0]
     2b8:	52133101 	andspl	r3, r3, #1073741824	; 0x40000000
     2bc:	0542b801 	strbeq	fp, [r2, #-2049]	; 0xfffff7ff
     2c0:	06120111 			; <UNDEFINED> instruction: 0x06120111
     2c4:	0b590b58 	bleq	164302c <__bss_end__+0x1638a14>
     2c8:	00000b57 	andeq	r0, r0, r7, asr fp
     2cc:	3100051c 	tstcc	r0, ip, lsl r5
     2d0:	b7170213 			; <UNDEFINED> instruction: 0xb7170213
     2d4:	00001742 	andeq	r1, r0, r2, asr #14
     2d8:	0182891d 	orreq	r8, r2, sp, lsl r9
     2dc:	31011101 	tstcc	r1, r1, lsl #2
     2e0:	00130113 	andseq	r0, r3, r3, lsl r1
     2e4:	012e1e00 			; <UNDEFINED> instruction: 0x012e1e00
     2e8:	0e03193f 			; <UNDEFINED> instruction: 0x0e03193f
     2ec:	0b3b0b3a 	bleq	ec2fdc <__bss_end__+0xeb89c4>
     2f0:	19270b39 	stmdbne	r7!, {r0, r3, r4, r5, r8, r9, fp}
     2f4:	01111349 	tsteq	r1, r9, asr #6
     2f8:	18400612 	stmdane	r0, {r1, r4, r9, sl}^
     2fc:	01194297 			; <UNDEFINED> instruction: 0x01194297
     300:	1f000013 	svcne	0x00000013
     304:	0e030005 	cdpeq	0, 0, cr0, cr3, cr5, {0}
     308:	0b3b0b3a 	bleq	ec2ff8 <__bss_end__+0xeb89e0>
     30c:	13490b39 	movtne	r0, #39737	; 0x9b39
     310:	42b71702 	adcsmi	r1, r7, #524288	; 0x80000
     314:	20000017 	andcs	r0, r0, r7, lsl r0
     318:	0e030034 	mcreq	0, 0, r0, cr3, cr4, {1}
     31c:	0b3b0b3a 	bleq	ec300c <__bss_end__+0xeb89f4>
     320:	13490b39 	movtne	r0, #39737	; 0x9b39
     324:	42b71702 	adcsmi	r1, r7, #524288	; 0x80000
     328:	21000017 	tstcs	r0, r7, lsl r0
     32c:	0111010b 	tsteq	r1, fp, lsl #2
     330:	13010612 	movwne	r0, #5650	; 0x1612
     334:	1d220000 	stcne	0, cr0, [r2, #-0]
     338:	52133101 	andspl	r3, r3, #1073741824	; 0x40000000
     33c:	0542b801 	strbeq	fp, [r2, #-2049]	; 0xfffff7ff
     340:	0b581755 	bleq	160609c <__bss_end__+0x15fba84>
     344:	0b570b59 	bleq	15c30b0 <__bss_end__+0x15b8a98>
     348:	00001301 	andeq	r1, r0, r1, lsl #6
     34c:	31011d23 	tstcc	r1, r3, lsr #26
     350:	b8015213 	stmdalt	r1, {r0, r1, r4, r9, ip, lr}
     354:	17550542 	ldrbne	r0, [r5, -r2, asr #10]
     358:	0b590b58 	bleq	16430c0 <__bss_end__+0x1638aa8>
     35c:	00000b57 	andeq	r0, r0, r7, asr fp
     360:	31003424 	tstcc	r0, r4, lsr #8
     364:	b7170213 			; <UNDEFINED> instruction: 0xb7170213
     368:	00001742 	andeq	r1, r0, r2, asr #14
     36c:	31010b25 	tstcc	r1, r5, lsr #22
     370:	12011113 	andne	r1, r1, #-1073741820	; 0xc0000004
     374:	00130106 	andseq	r0, r3, r6, lsl #2
     378:	011d2600 	tsteq	sp, r0, lsl #12
     37c:	01521331 	cmpeq	r2, r1, lsr r3
     380:	110542b8 			; <UNDEFINED> instruction: 0x110542b8
     384:	58061201 	stmdapl	r6, {r0, r9, ip}
     388:	570b590b 	strpl	r5, [fp, -fp, lsl #18]
     38c:	0013010b 	andseq	r0, r3, fp, lsl #2
     390:	010b2700 	tsteq	fp, r0, lsl #14
     394:	01111331 	tsteq	r1, r1, lsr r3
     398:	00000612 	andeq	r0, r0, r2, lsl r6
     39c:	03012e28 	movweq	r2, #7720	; 0x1e28
     3a0:	3b0b3a0e 	blcc	2cebe0 <__bss_end__+0x2c45c8>
     3a4:	270b390b 	strcs	r3, [fp, -fp, lsl #18]
     3a8:	010b2019 	tsteq	fp, r9, lsl r0
     3ac:	29000013 	stmdbcs	r0, {r0, r1, r4}
     3b0:	08030005 	stmdaeq	r3, {r0, r2}
     3b4:	0b3b0b3a 	bleq	ec30a4 <__bss_end__+0xeb8a8c>
     3b8:	13490b39 	movtne	r0, #39737	; 0x9b39
     3bc:	2e2a0000 	cdpcs	0, 2, cr0, cr10, cr0, {0}
     3c0:	3a0e0301 	bcc	380fcc <__bss_end__+0x3769b4>
     3c4:	390b3b0b 	stmdbcc	fp, {r0, r1, r3, r8, r9, fp, ip, sp}
     3c8:	1119270b 	tstne	r9, fp, lsl #14
     3cc:	40061201 	andmi	r1, r6, r1, lsl #4
     3d0:	19429718 	stmdbne	r2, {r3, r4, r8, r9, sl, ip, pc}^
     3d4:	00001301 	andeq	r1, r0, r1, lsl #6
     3d8:	3100052b 	tstcc	r0, fp, lsr #10
     3dc:	00051c13 	andeq	r1, r5, r3, lsl ip
     3e0:	012e2c00 			; <UNDEFINED> instruction: 0x012e2c00
     3e4:	0b3a0803 	bleq	e823f8 <__bss_end__+0xe77de0>
     3e8:	0b390b3b 	bleq	e430dc <__bss_end__+0xe38ac4>
     3ec:	0b201927 	bleq	806890 <__bss_end__+0x7fc278>
     3f0:	00001301 	andeq	r1, r0, r1, lsl #6
     3f4:	0300052d 	movweq	r0, #1325	; 0x52d
     3f8:	3b0b3a0e 	blcc	2cec38 <__bss_end__+0x2c4620>
     3fc:	490b390b 	stmdbmi	fp, {r0, r1, r3, r8, fp, ip, sp}
     400:	2e000013 	mcrcs	0, 0, r0, cr0, cr3, {0}
     404:	0e030034 	mcreq	0, 0, r0, cr3, cr4, {1}
     408:	0b3b0b3a 	bleq	ec30f8 <__bss_end__+0xeb8ae0>
     40c:	13490b39 	movtne	r0, #39737	; 0x9b39
     410:	0b2f0000 	bleq	bc0418 <__bss_end__+0xbb5e00>
     414:	30000001 	andcc	r0, r0, r1
     418:	193f002e 	ldmdbne	pc!, {r1, r2, r3, r5}	; <UNPREDICTABLE>
     41c:	0e6e193c 			; <UNDEFINED> instruction: 0x0e6e193c
     420:	0b3a0e03 	bleq	e83c34 <__bss_end__+0xe7961c>
     424:	0b390b3b 	bleq	e43118 <__bss_end__+0xe38b00>
     428:	01000000 	mrseq	r0, (UNDEF: 0)
     42c:	0e250111 	mcreq	1, 1, r0, cr5, cr1, {0}
     430:	0e030b13 	vmoveq.32	d3[0], r0
     434:	01110e1b 	tsteq	r1, fp, lsl lr
     438:	17100612 			; <UNDEFINED> instruction: 0x17100612
     43c:	24020000 	strcs	r0, [r2], #-0
     440:	3e0b0b00 	vmlacc.f64	d0, d11, d0
     444:	0008030b 	andeq	r0, r8, fp, lsl #6
     448:	00160300 	andseq	r0, r6, r0, lsl #6
     44c:	0b3a0e03 	bleq	e83c60 <__bss_end__+0xe79648>
     450:	0b390b3b 	bleq	e43144 <__bss_end__+0xe38b2c>
     454:	00001349 	andeq	r1, r0, r9, asr #6
     458:	0b002404 	bleq	9470 <va_printk+0x40c>
     45c:	030b3e0b 	movweq	r3, #48651	; 0xbe0b
     460:	0500000e 	streq	r0, [r0, #-14]
     464:	19270115 	stmdbne	r7!, {r0, r2, r4, r8}
     468:	13011349 	movwne	r1, #4937	; 0x1349
     46c:	05060000 	streq	r0, [r6, #-0]
     470:	00134900 	andseq	r4, r3, r0, lsl #18
     474:	00340700 	eorseq	r0, r4, r0, lsl #14
     478:	0b3a0e03 	bleq	e83c8c <__bss_end__+0xe79674>
     47c:	0b390b3b 	bleq	e43170 <__bss_end__+0xe38b58>
     480:	193f1349 	ldmdbne	pc!, {r0, r3, r6, r8, r9, ip}	; <UNPREDICTABLE>
     484:	0000193c 	andeq	r1, r0, ip, lsr r9
     488:	0b000f08 	bleq	40b0 <__code_start__-0x3f50>
     48c:	0013490b 	andseq	r4, r3, fp, lsl #18
     490:	00260900 	eoreq	r0, r6, r0, lsl #18
     494:	00001349 	andeq	r1, r0, r9, asr #6
     498:	3f012e0a 	svccc	0x00012e0a
     49c:	3a0e0319 	bcc	381108 <__bss_end__+0x376af0>
     4a0:	390b3b0b 	stmdbcc	fp, {r0, r1, r3, r8, r9, fp, ip, sp}
     4a4:	4919270b 	ldmdbmi	r9, {r0, r1, r3, r8, r9, sl, sp}
     4a8:	12011113 	andne	r1, r1, #-1073741820	; 0xc0000004
     4ac:	97184006 	ldrls	r4, [r8, -r6]
     4b0:	13011942 	movwne	r1, #6466	; 0x1942
     4b4:	050b0000 	streq	r0, [fp, #-0]
     4b8:	3a080300 	bcc	2010c0 <__bss_end__+0x1f6aa8>
     4bc:	390b3b0b 	stmdbcc	fp, {r0, r1, r3, r8, r9, fp, ip, sp}
     4c0:	0213490b 	andseq	r4, r3, #180224	; 0x2c000
     4c4:	0c000018 	stceq	0, cr0, [r0], {24}
     4c8:	08030005 	stmdaeq	r3, {r0, r2}
     4cc:	0b3b0b3a 	bleq	ec31bc <__bss_end__+0xeb8ba4>
     4d0:	13490b39 	movtne	r0, #39737	; 0x9b39
     4d4:	42b71702 	adcsmi	r1, r7, #524288	; 0x80000
     4d8:	0d000017 	stceq	0, cr0, [r0, #-92]	; 0xffffffa4
     4dc:	08030034 	stmdaeq	r3, {r2, r4, r5}
     4e0:	0b3b0b3a 	bleq	ec31d0 <__bss_end__+0xeb8bb8>
     4e4:	13490b39 	movtne	r0, #39737	; 0x9b39
     4e8:	42b71702 	adcsmi	r1, r7, #524288	; 0x80000
     4ec:	0e000017 	mcreq	0, 0, r0, cr0, cr7, {0}
     4f0:	0b0b000f 	bleq	2c0534 <__bss_end__+0x2b5f1c>
     4f4:	01000000 	mrseq	r0, (UNDEF: 0)
     4f8:	0e250111 	mcreq	1, 1, r0, cr5, cr1, {0}
     4fc:	0e030b13 	vmoveq.32	d3[0], r0
     500:	01110e1b 	tsteq	r1, fp, lsl lr
     504:	17100612 			; <UNDEFINED> instruction: 0x17100612
     508:	16020000 	strne	r0, [r2], -r0
     50c:	3a0e0300 	bcc	381114 <__bss_end__+0x376afc>
     510:	390b3b0b 	stmdbcc	fp, {r0, r1, r3, r8, r9, fp, ip, sp}
     514:	0013490b 	andseq	r4, r3, fp, lsl #18
     518:	01130300 	tsteq	r3, r0, lsl #6
     51c:	0b0b0e03 	bleq	2c3d30 <__bss_end__+0x2b9718>
     520:	0b3b0b3a 	bleq	ec3210 <__bss_end__+0xeb8bf8>
     524:	00001301 	andeq	r1, r0, r1, lsl #6
     528:	03000d04 	movweq	r0, #3332	; 0xd04
     52c:	3813490e 	ldmdacc	r3, {r1, r2, r3, r8, fp, lr}
     530:	0019340b 	andseq	r3, r9, fp, lsl #8
     534:	000f0500 	andeq	r0, pc, r0, lsl #10
     538:	00000b0b 	andeq	r0, r0, fp, lsl #22
     53c:	0b002406 	bleq	955c <clean_reboot+0x20>
     540:	030b3e0b 	movweq	r3, #48651	; 0xbe0b
     544:	07000008 	streq	r0, [r0, -r8]
     548:	0b0b0024 	bleq	2c05e0 <__bss_end__+0x2b5fc8>
     54c:	0e030b3e 	vmoveq.16	d3[0], r0
     550:	15080000 	strne	r0, [r8, #-0]
     554:	49192701 	ldmdbmi	r9, {r0, r8, r9, sl, sp}
     558:	00130113 	andseq	r0, r3, r3, lsl r1
     55c:	00050900 	andeq	r0, r5, r0, lsl #18
     560:	00001349 	andeq	r1, r0, r9, asr #6
     564:	0300340a 	movweq	r3, #1034	; 0x40a
     568:	3b0b3a0e 	blcc	2ceda8 <__bss_end__+0x2c4790>
     56c:	490b390b 	stmdbmi	fp, {r0, r1, r3, r8, fp, ip, sp}
     570:	3c193f13 	ldccc	15, cr3, [r9], {19}
     574:	0b000019 	bleq	5e0 <__code_start__-0x7a20>
     578:	0b0b000f 	bleq	2c05bc <__bss_end__+0x2b5fa4>
     57c:	00001349 	andeq	r1, r0, r9, asr #6
     580:	4900260c 	stmdbmi	r0, {r2, r3, r9, sl, sp}
     584:	0d000013 	stceq	0, cr0, [r0, #-76]	; 0xffffffb4
     588:	193f012e 	ldmdbne	pc!, {r1, r2, r3, r5, r8}	; <UNPREDICTABLE>
     58c:	0b3a0e03 	bleq	e83da0 <__bss_end__+0xe79788>
     590:	0b390b3b 	bleq	e43284 <__bss_end__+0xe38c6c>
     594:	13491927 	movtne	r1, #39207	; 0x9927
     598:	06120111 			; <UNDEFINED> instruction: 0x06120111
     59c:	42971840 	addsmi	r1, r7, #64, 16	; 0x400000
     5a0:	00130119 	andseq	r0, r3, r9, lsl r1
     5a4:	00050e00 	andeq	r0, r5, r0, lsl #28
     5a8:	0b3a0803 	bleq	e825bc <__bss_end__+0xe77fa4>
     5ac:	0b390b3b 	bleq	e432a0 <__bss_end__+0xe38c88>
     5b0:	18021349 	stmdane	r2, {r0, r3, r6, r8, r9, ip}
     5b4:	180f0000 	stmdane	pc, {}	; <UNPREDICTABLE>
     5b8:	10000000 	andne	r0, r0, r0
     5bc:	08030034 	stmdaeq	r3, {r2, r4, r5}
     5c0:	0b3b0b3a 	bleq	ec32b0 <__bss_end__+0xeb8c98>
     5c4:	13490b39 	movtne	r0, #39737	; 0x9b39
     5c8:	00001802 	andeq	r1, r0, r2, lsl #16
     5cc:	03003411 	movweq	r3, #1041	; 0x411
     5d0:	3b0b3a0e 	blcc	2cee10 <__bss_end__+0x2c47f8>
     5d4:	490b390b 	stmdbmi	fp, {r0, r1, r3, r8, fp, ip, sp}
     5d8:	00180213 	andseq	r0, r8, r3, lsl r2
     5dc:	00341200 	eorseq	r1, r4, r0, lsl #4
     5e0:	0b3a0803 	bleq	e825f4 <__bss_end__+0xe77fdc>
     5e4:	0b390b3b 	bleq	e432d8 <__bss_end__+0xe38cc0>
     5e8:	17021349 	strne	r1, [r2, -r9, asr #6]
     5ec:	001742b7 			; <UNDEFINED> instruction: 0x001742b7
     5f0:	82891300 	addhi	r1, r9, #0, 6
     5f4:	01110101 	tsteq	r1, r1, lsl #2
     5f8:	13011331 	movwne	r1, #4913	; 0x1331
     5fc:	8a140000 	bhi	500604 <__bss_end__+0x4f5fec>
     600:	02000182 	andeq	r0, r0, #-2147483616	; 0x80000020
     604:	18429118 	stmdane	r2, {r3, r4, r8, ip, pc}^
     608:	89150000 	ldmdbhi	r5, {}	; <UNPREDICTABLE>
     60c:	11010182 	smlabbne	r1, r2, r1, r0
     610:	16000001 	strne	r0, [r0], -r1
     614:	13490101 	movtne	r0, #37121	; 0x9101
     618:	00001301 	andeq	r1, r0, r1, lsl #6
     61c:	49002117 	stmdbmi	r0, {r0, r1, r2, r4, r8, sp}
     620:	00052f13 	andeq	r2, r5, r3, lsl pc
     624:	002e1800 	eoreq	r1, lr, r0, lsl #16
     628:	193c193f 	ldmdbne	ip!, {r0, r1, r2, r3, r4, r5, r8, fp, ip}
     62c:	0e030e6e 	cdpeq	14, 0, cr0, cr3, cr14, {3}
     630:	0b3b0b3a 	bleq	ec3320 <__bss_end__+0xeb8d08>
     634:	00000b39 	andeq	r0, r0, r9, lsr fp
     638:	01110100 	tsteq	r1, r0, lsl #2
     63c:	0b130e25 	bleq	4c3ed8 <__bss_end__+0x4b98c0>
     640:	0e1b0e03 	cdpeq	14, 1, cr0, cr11, cr3, {0}
     644:	06120111 			; <UNDEFINED> instruction: 0x06120111
     648:	00001710 	andeq	r1, r0, r0, lsl r7
     64c:	0b002402 	bleq	965c <delay_us+0x4>
     650:	030b3e0b 	movweq	r3, #48651	; 0xbe0b
     654:	03000008 	movweq	r0, #8
     658:	0b0b0024 	bleq	2c06f0 <__bss_end__+0x2b60d8>
     65c:	0e030b3e 	vmoveq.16	d3[0], r0
     660:	15040000 	strne	r0, [r4, #-0]
     664:	49192701 	ldmdbmi	r9, {r0, r8, r9, sl, sp}
     668:	00130113 	andseq	r0, r3, r3, lsl r1
     66c:	00050500 	andeq	r0, r5, r0, lsl #10
     670:	00001349 	andeq	r1, r0, r9, asr #6
     674:	03003406 	movweq	r3, #1030	; 0x406
     678:	3b0b3a0e 	blcc	2ceeb8 <__bss_end__+0x2c48a0>
     67c:	490b390b 	stmdbmi	fp, {r0, r1, r3, r8, fp, ip, sp}
     680:	3c193f13 	ldccc	15, cr3, [r9], {19}
     684:	07000019 	smladeq	r0, r9, r0, r0
     688:	0b0b000f 	bleq	2c06cc <__bss_end__+0x2b60b4>
     68c:	00001349 	andeq	r1, r0, r9, asr #6
     690:	49002608 	stmdbmi	r0, {r3, r9, sl, sp}
     694:	09000013 	stmdbeq	r0, {r0, r1, r4}
     698:	13470034 	movtne	r0, #28724	; 0x7034
     69c:	0b3b0b3a 	bleq	ec338c <__bss_end__+0xeb8d74>
     6a0:	18020b39 	stmdane	r2, {r0, r3, r4, r5, r8, r9, fp}
     6a4:	2e0a0000 	cdpcs	0, 0, cr0, cr10, cr0, {0}
     6a8:	03193f01 	tsteq	r9, #1, 30
     6ac:	3b0b3a0e 	blcc	2ceeec <__bss_end__+0x2c48d4>
     6b0:	270b390b 	strcs	r3, [fp, -fp, lsl #18]
     6b4:	11134919 	tstne	r3, r9, lsl r9
     6b8:	40061201 	andmi	r1, r6, r1, lsl #4
     6bc:	19429618 	stmdbne	r2, {r3, r4, r9, sl, ip, pc}^
     6c0:	050b0000 	streq	r0, [fp, #-0]
     6c4:	3a080300 	bcc	2012cc <__bss_end__+0x1f6cb4>
     6c8:	390b3b0b 	stmdbcc	fp, {r0, r1, r3, r8, r9, fp, ip, sp}
     6cc:	0213490b 	andseq	r4, r3, #180224	; 0x2c000
     6d0:	1742b717 	smlaldne	fp, r2, r7, r7
     6d4:	01000000 	mrseq	r0, (UNDEF: 0)
     6d8:	0e250111 	mcreq	1, 1, r0, cr5, cr1, {0}
     6dc:	0e030b13 	vmoveq.32	d3[0], r0
     6e0:	01110e1b 	tsteq	r1, fp, lsl lr
     6e4:	17100612 			; <UNDEFINED> instruction: 0x17100612
     6e8:	24020000 	strcs	r0, [r2], #-0
     6ec:	3e0b0b00 	vmlacc.f64	d0, d11, d0
     6f0:	0008030b 	andeq	r0, r8, fp, lsl #6
     6f4:	00240300 	eoreq	r0, r4, r0, lsl #6
     6f8:	0b3e0b0b 	bleq	f8332c <__bss_end__+0xf78d14>
     6fc:	00000e03 	andeq	r0, r0, r3, lsl #28
     700:	03001604 	movweq	r1, #1540	; 0x604
     704:	3b0b3a0e 	blcc	2cef44 <__bss_end__+0x2c492c>
     708:	490b390b 	stmdbmi	fp, {r0, r1, r3, r8, fp, ip, sp}
     70c:	05000013 	streq	r0, [r0, #-19]	; 0xffffffed
     710:	19270115 	stmdbne	r7!, {r0, r2, r4, r8}
     714:	13011349 	movwne	r1, #4937	; 0x1349
     718:	05060000 	streq	r0, [r6, #-0]
     71c:	00134900 	andseq	r4, r3, r0, lsl #18
     720:	00340700 	eorseq	r0, r4, r0, lsl #14
     724:	0b3a0e03 	bleq	e83f38 <__bss_end__+0xe79920>
     728:	0b390b3b 	bleq	e4341c <__bss_end__+0xe38e04>
     72c:	193f1349 	ldmdbne	pc!, {r0, r3, r6, r8, r9, ip}	; <UNPREDICTABLE>
     730:	0000193c 	andeq	r1, r0, ip, lsr r9
     734:	0b000f08 	bleq	435c <__code_start__-0x3ca4>
     738:	0013490b 	andseq	r4, r3, fp, lsl #18
     73c:	00260900 	eoreq	r0, r6, r0, lsl #18
     740:	00001349 	andeq	r1, r0, r9, asr #6
     744:	0301130a 	movweq	r1, #4874	; 0x130a
     748:	3a0b0b0e 	bcc	2c3388 <__bss_end__+0x2b8d70>
     74c:	010b3b0b 	tsteq	fp, fp, lsl #22
     750:	0b000013 	bleq	7a4 <__code_start__-0x785c>
     754:	0e03000d 	cdpeq	0, 0, cr0, cr3, cr13, {0}
     758:	0b381349 	bleq	e05484 <__bss_end__+0xdfae6c>
     75c:	00001934 	andeq	r1, r0, r4, lsr r9
     760:	0b000f0c 	bleq	4398 <__code_start__-0x3c68>
     764:	0d00000b 	stceq	0, cr0, [r0, #-44]	; 0xffffffd4
     768:	193f012e 	ldmdbne	pc!, {r1, r2, r3, r5, r8}	; <UNPREDICTABLE>
     76c:	0b3a0e03 	bleq	e83f80 <__bss_end__+0xe79968>
     770:	0b390b3b 	bleq	e43464 <__bss_end__+0xe38e4c>
     774:	13491927 	movtne	r1, #39207	; 0x9927
     778:	06120111 			; <UNDEFINED> instruction: 0x06120111
     77c:	42971840 	addsmi	r1, r7, #64, 16	; 0x400000
     780:	00130119 	andseq	r0, r3, r9, lsl r1
     784:	00050e00 	andeq	r0, r5, r0, lsl #28
     788:	0b3a0803 	bleq	e8279c <__bss_end__+0xe78184>
     78c:	0b390b3b 	bleq	e43480 <__bss_end__+0xe38e68>
     790:	17021349 	strne	r1, [r2, -r9, asr #6]
     794:	001742b7 			; <UNDEFINED> instruction: 0x001742b7
     798:	00050f00 	andeq	r0, r5, r0, lsl #30
     79c:	0b3a0e03 	bleq	e83fb0 <__bss_end__+0xe79998>
     7a0:	0b390b3b 	bleq	e43494 <__bss_end__+0xe38e7c>
     7a4:	18021349 	stmdane	r2, {r0, r3, r6, r8, r9, ip}
     7a8:	34100000 	ldrcc	r0, [r0], #-0
     7ac:	3a080300 	bcc	2013b4 <__bss_end__+0x1f6d9c>
     7b0:	390b3b0b 	stmdbcc	fp, {r0, r1, r3, r8, r9, fp, ip, sp}
     7b4:	0213490b 	andseq	r4, r3, #180224	; 0x2c000
     7b8:	1742b717 	smlaldne	fp, r2, r7, r7
     7bc:	34110000 	ldrcc	r0, [r1], #-0
     7c0:	3a0e0300 	bcc	3813c8 <__bss_end__+0x376db0>
     7c4:	390b3b0b 	stmdbcc	fp, {r0, r1, r3, r8, r9, fp, ip, sp}
     7c8:	0213490b 	andseq	r4, r3, #180224	; 0x2c000
     7cc:	1742b717 	smlaldne	fp, r2, r7, r7
     7d0:	34120000 	ldrcc	r0, [r2], #-0
     7d4:	490e0300 	stmdbmi	lr, {r8, r9}
     7d8:	02193413 	andseq	r3, r9, #318767104	; 0x13000000
     7dc:	13000018 	movwne	r0, #24
     7e0:	0111010b 	tsteq	r1, fp, lsl #2
     7e4:	00000612 	andeq	r0, r0, r2, lsl r6
     7e8:	03003414 	movweq	r3, #1044	; 0x414
     7ec:	3b0b3a08 	blcc	2cf014 <__bss_end__+0x2c49fc>
     7f0:	490b390b 	stmdbmi	fp, {r0, r1, r3, r8, fp, ip, sp}
     7f4:	00180213 	andseq	r0, r8, r3, lsl r2
     7f8:	00341500 	eorseq	r1, r4, r0, lsl #10
     7fc:	0b3a0e03 	bleq	e84010 <__bss_end__+0xe799f8>
     800:	0b390b3b 	bleq	e434f4 <__bss_end__+0xe38edc>
     804:	18021349 	stmdane	r2, {r0, r3, r6, r8, r9, ip}
     808:	0b160000 	bleq	580810 <__bss_end__+0x5761f8>
     80c:	12011101 	andne	r1, r1, #1073741824	; 0x40000000
     810:	00130106 	andseq	r0, r3, r6, lsl #2
     814:	00341700 	eorseq	r1, r4, r0, lsl #14
     818:	0b3a0803 	bleq	e8282c <__bss_end__+0xe78214>
     81c:	0b390b3b 	bleq	e43510 <__bss_end__+0xe38ef8>
     820:	00001349 	andeq	r1, r0, r9, asr #6
     824:	01828918 	orreq	r8, r2, r8, lsl r9
     828:	31011101 	tstcc	r1, r1, lsl #2
     82c:	00130113 	andseq	r0, r3, r3, lsl r1
     830:	828a1900 	addhi	r1, sl, #0, 18
     834:	18020001 	stmdane	r2, {r0}
     838:	00184291 	mulseq	r8, r1, r2
     83c:	82891a00 	addhi	r1, r9, #0, 20
     840:	01110001 	tsteq	r1, r1
     844:	00001331 	andeq	r1, r0, r1, lsr r3
     848:	0182891b 	orreq	r8, r2, fp, lsl r9
     84c:	01011101 	tsteq	r1, r1, lsl #2
     850:	1c000013 	stcne	0, cr0, [r0], {19}
     854:	13490101 	movtne	r0, #37121	; 0x9101
     858:	00001301 	andeq	r1, r0, r1, lsl #6
     85c:	4900211d 	stmdbmi	r0, {r0, r2, r3, r4, r8, sp}
     860:	000b2f13 	andeq	r2, fp, r3, lsl pc
     864:	012e1e00 			; <UNDEFINED> instruction: 0x012e1e00
     868:	0b3a0e03 	bleq	e8407c <__bss_end__+0xe79a64>
     86c:	0b390b3b 	bleq	e43560 <__bss_end__+0xe38f48>
     870:	13491927 	movtne	r1, #39207	; 0x9927
     874:	06120111 			; <UNDEFINED> instruction: 0x06120111
     878:	42971840 	addsmi	r1, r7, #64, 16	; 0x400000
     87c:	00130119 	andseq	r0, r3, r9, lsl r1
     880:	00051f00 	andeq	r1, r5, r0, lsl #30
     884:	0b3a0e03 	bleq	e84098 <__bss_end__+0xe79a80>
     888:	0b390b3b 	bleq	e4357c <__bss_end__+0xe38f64>
     88c:	17021349 	strne	r1, [r2, -r9, asr #6]
     890:	001742b7 			; <UNDEFINED> instruction: 0x001742b7
     894:	012e2000 			; <UNDEFINED> instruction: 0x012e2000
     898:	0b3a0803 	bleq	e828ac <__bss_end__+0xe78294>
     89c:	0b390b3b 	bleq	e43590 <__bss_end__+0xe38f78>
     8a0:	13491927 	movtne	r1, #39207	; 0x9927
     8a4:	06120111 			; <UNDEFINED> instruction: 0x06120111
     8a8:	42971840 	addsmi	r1, r7, #64, 16	; 0x400000
     8ac:	00130119 	andseq	r0, r3, r9, lsl r1
     8b0:	012e2100 			; <UNDEFINED> instruction: 0x012e2100
     8b4:	0e03193f 			; <UNDEFINED> instruction: 0x0e03193f
     8b8:	0b3b0b3a 	bleq	ec35a8 <__bss_end__+0xeb8f90>
     8bc:	19270b39 	stmdbne	r7!, {r0, r3, r4, r5, r8, r9, fp}
     8c0:	06120111 			; <UNDEFINED> instruction: 0x06120111
     8c4:	42971840 	addsmi	r1, r7, #64, 16	; 0x400000
     8c8:	00130119 	andseq	r0, r3, r9, lsl r1
     8cc:	002e2200 	eoreq	r2, lr, r0, lsl #4
     8d0:	193c193f 	ldmdbne	ip!, {r0, r1, r2, r3, r4, r5, r8, fp, ip}
     8d4:	0e030e6e 	cdpeq	14, 0, cr0, cr3, cr14, {3}
     8d8:	0b3b0b3a 	bleq	ec35c8 <__bss_end__+0xeb8fb0>
     8dc:	00000b39 	andeq	r0, r0, r9, lsr fp
     8e0:	01110100 	tsteq	r1, r0, lsl #2
     8e4:	0b130e25 	bleq	4c4180 <__bss_end__+0x4b9b68>
     8e8:	0e1b0e03 	cdpeq	14, 1, cr0, cr11, cr3, {0}
     8ec:	01111755 	tsteq	r1, r5, asr r7
     8f0:	00001710 	andeq	r1, r0, r0, lsl r7
     8f4:	0b002402 	bleq	9904 <uart_getc+0x14>
     8f8:	030b3e0b 	movweq	r3, #48651	; 0xbe0b
     8fc:	03000008 	movweq	r0, #8
     900:	0b0b0024 	bleq	2c0998 <__bss_end__+0x2b6380>
     904:	0e030b3e 	vmoveq.16	d3[0], r0
     908:	15040000 	strne	r0, [r4, #-0]
     90c:	49192701 	ldmdbmi	r9, {r0, r8, r9, sl, sp}
     910:	00130113 	andseq	r0, r3, r3, lsl r1
     914:	00050500 	andeq	r0, r5, r0, lsl #10
     918:	00001349 	andeq	r1, r0, r9, asr #6
     91c:	03003406 	movweq	r3, #1030	; 0x406
     920:	3b0b3a0e 	blcc	2cf160 <__bss_end__+0x2c4b48>
     924:	490b390b 	stmdbmi	fp, {r0, r1, r3, r8, fp, ip, sp}
     928:	3c193f13 	ldccc	15, cr3, [r9], {19}
     92c:	07000019 	smladeq	r0, r9, r0, r0
     930:	0b0b000f 	bleq	2c0974 <__bss_end__+0x2b635c>
     934:	00001349 	andeq	r1, r0, r9, asr #6
     938:	49002608 	stmdbmi	r0, {r3, r9, sl, sp}
     93c:	09000013 	stmdbeq	r0, {r0, r1, r4}
     940:	193f012e 	ldmdbne	pc!, {r1, r2, r3, r5, r8}	; <UNPREDICTABLE>
     944:	0b3a0e03 	bleq	e84158 <__bss_end__+0xe79b40>
     948:	0b390b3b 	bleq	e4363c <__bss_end__+0xe39024>
     94c:	01111927 	tsteq	r1, r7, lsr #18
     950:	18400612 	stmdane	r0, {r1, r4, r9, sl}^
     954:	01194297 			; <UNDEFINED> instruction: 0x01194297
     958:	0a000013 	beq	9ac <__code_start__-0x7654>
     95c:	08030034 	stmdaeq	r3, {r2, r4, r5}
     960:	0b3b0b3a 	bleq	ec3650 <__bss_end__+0xeb9038>
     964:	13490b39 	movtne	r0, #39737	; 0x9b39
     968:	42b71702 	adcsmi	r1, r7, #524288	; 0x80000
     96c:	0b000017 	bleq	9d0 <__code_start__-0x7630>
     970:	193f012e 	ldmdbne	pc!, {r1, r2, r3, r5, r8}	; <UNPREDICTABLE>
     974:	0b3a0e03 	bleq	e84188 <__bss_end__+0xe79b70>
     978:	0b390b3b 	bleq	e4366c <__bss_end__+0xe39054>
     97c:	01111927 	tsteq	r1, r7, lsr #18
     980:	18400612 	stmdane	r0, {r1, r4, r9, sl}^
     984:	00194297 	mulseq	r9, r7, r2
     988:	11010000 	mrsne	r0, (UNDEF: 1)
     98c:	130e2501 	movwne	r2, #58625	; 0xe501
     990:	1b0e030b 	blne	3815c4 <__bss_end__+0x376fac>
     994:	1201110e 	andne	r1, r1, #-2147483645	; 0x80000003
     998:	00171006 	andseq	r1, r7, r6
     99c:	00240200 	eoreq	r0, r4, r0, lsl #4
     9a0:	0b3e0b0b 	bleq	f835d4 <__bss_end__+0xf78fbc>
     9a4:	00000803 	andeq	r0, r0, r3, lsl #16
     9a8:	0b002403 	bleq	99bc <kmalloc_heap_end+0x4>
     9ac:	030b3e0b 	movweq	r3, #48651	; 0xbe0b
     9b0:	0400000e 	streq	r0, [r0], #-14
     9b4:	19270115 	stmdbne	r7!, {r0, r2, r4, r8}
     9b8:	13011349 	movwne	r1, #4937	; 0x1349
     9bc:	05050000 	streq	r0, [r5, #-0]
     9c0:	00134900 	andseq	r4, r3, r0, lsl #18
     9c4:	00340600 	eorseq	r0, r4, r0, lsl #12
     9c8:	0b3a0e03 	bleq	e841dc <__bss_end__+0xe79bc4>
     9cc:	0b390b3b 	bleq	e436c0 <__bss_end__+0xe390a8>
     9d0:	193f1349 	ldmdbne	pc!, {r0, r3, r6, r8, r9, ip}	; <UNPREDICTABLE>
     9d4:	0000193c 	andeq	r1, r0, ip, lsr r9
     9d8:	0b000f07 	bleq	45fc <__code_start__-0x3a04>
     9dc:	0013490b 	andseq	r4, r3, fp, lsl #18
     9e0:	00260800 	eoreq	r0, r6, r0, lsl #16
     9e4:	00001349 	andeq	r1, r0, r9, asr #6
     9e8:	3f012e09 	svccc	0x00012e09
     9ec:	3a0e0319 	bcc	381658 <__bss_end__+0x377040>
     9f0:	390b3b0b 	stmdbcc	fp, {r0, r1, r3, r8, r9, fp, ip, sp}
     9f4:	8719270b 	ldrhi	r2, [r9, -fp, lsl #14]
     9f8:	01111901 	tsteq	r1, r1, lsl #18
     9fc:	18400612 	stmdane	r0, {r1, r4, r9, sl}^
     a00:	01194297 			; <UNDEFINED> instruction: 0x01194297
     a04:	0a000013 	beq	a58 <__code_start__-0x75a8>
     a08:	01018289 	smlabbeq	r1, r9, r2, r8
     a0c:	13010111 	movwne	r0, #4369	; 0x1111
     a10:	8a0b0000 	bhi	2c0a18 <__bss_end__+0x2b6400>
     a14:	02000182 	andeq	r0, r0, #-2147483616	; 0x80000020
     a18:	18429118 	stmdane	r2, {r3, r4, r8, ip, pc}^
     a1c:	890c0000 	stmdbhi	ip, {}	; <UNPREDICTABLE>
     a20:	11000182 	smlabbne	r0, r2, r1, r0
     a24:	00133101 	andseq	r3, r3, r1, lsl #2
     a28:	82890d00 	addhi	r0, r9, #0, 26
     a2c:	01110101 	tsteq	r1, r1, lsl #2
     a30:	13011331 	movwne	r1, #4913	; 0x1331
     a34:	2e0e0000 	cdpcs	0, 0, cr0, cr14, cr0, {0}
     a38:	3c193f00 	ldccc	15, cr3, [r9], {-0}
     a3c:	030e6e19 	movweq	r6, #60953	; 0xee19
     a40:	3b0b3a0e 	blcc	2cf280 <__bss_end__+0x2c4c68>
     a44:	000b390b 	andeq	r3, fp, fp, lsl #18
     a48:	11010000 	mrsne	r0, (UNDEF: 1)
     a4c:	130e2501 	movwne	r2, #58625	; 0xe501
     a50:	1b0e030b 	blne	381684 <__bss_end__+0x37706c>
     a54:	1201110e 	andne	r1, r1, #-2147483645	; 0x80000003
     a58:	00171006 	andseq	r1, r7, r6
     a5c:	00240200 	eoreq	r0, r4, r0, lsl #4
     a60:	0b3e0b0b 	bleq	f83694 <__bss_end__+0xf7907c>
     a64:	00000803 	andeq	r0, r0, r3, lsl #16
     a68:	0b002403 	bleq	9a7c <kmalloc_init_set_start+0x94>
     a6c:	030b3e0b 	movweq	r3, #48651	; 0xbe0b
     a70:	0400000e 	streq	r0, [r0], #-14
     a74:	19270115 	stmdbne	r7!, {r0, r2, r4, r8}
     a78:	13011349 	movwne	r1, #4937	; 0x1349
     a7c:	05050000 	streq	r0, [r5, #-0]
     a80:	00134900 	andseq	r4, r3, r0, lsl #18
     a84:	00340600 	eorseq	r0, r4, r0, lsl #12
     a88:	0b3a0e03 	bleq	e8429c <__bss_end__+0xe79c84>
     a8c:	0b390b3b 	bleq	e43780 <__bss_end__+0xe39168>
     a90:	193f1349 	ldmdbne	pc!, {r0, r3, r6, r8, r9, ip}	; <UNPREDICTABLE>
     a94:	0000193c 	andeq	r1, r0, ip, lsr r9
     a98:	0b000f07 	bleq	46bc <__code_start__-0x3944>
     a9c:	0013490b 	andseq	r4, r3, fp, lsl #18
     aa0:	00260800 	eoreq	r0, r6, r0, lsl #16
     aa4:	00001349 	andeq	r1, r0, r9, asr #6
     aa8:	3f012e09 	svccc	0x00012e09
     aac:	3a0e0319 	bcc	381718 <__bss_end__+0x377100>
     ab0:	390b3b0b 	stmdbcc	fp, {r0, r1, r3, r8, r9, fp, ip, sp}
     ab4:	1201110b 	andne	r1, r1, #-1073741822	; 0xc0000002
     ab8:	97184006 	ldrls	r4, [r8, -r6]
     abc:	13011942 	movwne	r1, #6466	; 0x1942
     ac0:	2e0a0000 	cdpcs	0, 0, cr0, cr10, cr0, {0}
     ac4:	03193f00 	tsteq	r9, #0, 30
     ac8:	3b0b3a0e 	blcc	2cf308 <__bss_end__+0x2c4cf0>
     acc:	270b390b 	strcs	r3, [fp, -fp, lsl #18]
     ad0:	00193c19 	andseq	r3, r9, r9, lsl ip
     ad4:	00340b00 	eorseq	r0, r4, r0, lsl #22
     ad8:	0b3a0803 	bleq	e82aec <__bss_end__+0xe784d4>
     adc:	0b390b3b 	bleq	e437d0 <__bss_end__+0xe391b8>
     ae0:	17021349 	strne	r1, [r2, -r9, asr #6]
     ae4:	001742b7 			; <UNDEFINED> instruction: 0x001742b7
     ae8:	00340c00 	eorseq	r0, r4, r0, lsl #24
     aec:	0b3a0e03 	bleq	e84300 <__bss_end__+0xe79ce8>
     af0:	0b390b3b 	bleq	e437e4 <__bss_end__+0xe391cc>
     af4:	00001349 	andeq	r1, r0, r9, asr #6
     af8:	11010b0d 	tstne	r1, sp, lsl #22
     afc:	01061201 	tsteq	r6, r1, lsl #4
     b00:	0e000013 	mcreq	0, 0, r0, cr0, cr3, {0}
     b04:	08030034 	stmdaeq	r3, {r2, r4, r5}
     b08:	0b3b0b3a 	bleq	ec37f8 <__bss_end__+0xeb91e0>
     b0c:	13490b39 	movtne	r0, #39737	; 0x9b39
     b10:	00000b1c 	andeq	r0, r0, ip, lsl fp
     b14:	0182890f 	orreq	r8, r2, pc, lsl #18
     b18:	31011100 	mrscc	r1, (UNDEF: 17)
     b1c:	10000013 	andne	r0, r0, r3, lsl r0
     b20:	193f002e 	ldmdbne	pc!, {r1, r2, r3, r5}	; <UNPREDICTABLE>
     b24:	0e6e193c 			; <UNDEFINED> instruction: 0x0e6e193c
     b28:	0b3a0e03 	bleq	e8433c <__bss_end__+0xe79d24>
     b2c:	0b39053b 	bleq	e42020 <__bss_end__+0xe37a08>
     b30:	2e110000 	cdpcs	0, 1, cr0, cr1, cr0, {0}
     b34:	3c193f00 	ldccc	15, cr3, [r9], {-0}
     b38:	030e6e19 	movweq	r6, #60953	; 0xee19
     b3c:	3b0b3a0e 	blcc	2cf37c <__bss_end__+0x2c4d64>
     b40:	000b390b 	andeq	r3, fp, fp, lsl #18
     b44:	11010000 	mrsne	r0, (UNDEF: 1)
     b48:	130e2501 	movwne	r2, #58625	; 0xe501
     b4c:	1b0e030b 	blne	381780 <__bss_end__+0x377168>
     b50:	1201110e 	andne	r1, r1, #-2147483645	; 0x80000003
     b54:	00171006 	andseq	r1, r7, r6
     b58:	00240200 	eoreq	r0, r4, r0, lsl #4
     b5c:	0b3e0b0b 	bleq	f83790 <__bss_end__+0xf79178>
     b60:	00000803 	andeq	r0, r0, r3, lsl #16
     b64:	0b002403 	bleq	9b78 <kmalloc+0x4>
     b68:	030b3e0b 	movweq	r3, #48651	; 0xbe0b
     b6c:	0400000e 	streq	r0, [r0], #-14
     b70:	19270115 	stmdbne	r7!, {r0, r2, r4, r8}
     b74:	13011349 	movwne	r1, #4937	; 0x1349
     b78:	05050000 	streq	r0, [r5, #-0]
     b7c:	00134900 	andseq	r4, r3, r0, lsl #18
     b80:	00340600 	eorseq	r0, r4, r0, lsl #12
     b84:	0b3a0e03 	bleq	e84398 <__bss_end__+0xe79d80>
     b88:	0b390b3b 	bleq	e4387c <__bss_end__+0xe39264>
     b8c:	193f1349 	ldmdbne	pc!, {r0, r3, r6, r8, r9, ip}	; <UNPREDICTABLE>
     b90:	0000193c 	andeq	r1, r0, ip, lsr r9
     b94:	0b000f07 	bleq	47b8 <__code_start__-0x3848>
     b98:	0013490b 	andseq	r4, r3, fp, lsl #18
     b9c:	00260800 	eoreq	r0, r6, r0, lsl #16
     ba0:	00001349 	andeq	r1, r0, r9, asr #6
     ba4:	3f002e09 	svccc	0x00002e09
     ba8:	3a0e0319 	bcc	381814 <__bss_end__+0x3771fc>
     bac:	390b3b0b 	stmdbcc	fp, {r0, r1, r3, r8, r9, fp, ip, sp}
     bb0:	1119270b 	tstne	r9, fp, lsl #14
     bb4:	40061201 	andmi	r1, r6, r1, lsl #4
     bb8:	19429718 	stmdbne	r2, {r3, r4, r8, r9, sl, ip, pc}^
     bbc:	01000000 	mrseq	r0, (UNDEF: 0)
     bc0:	0e250111 	mcreq	1, 1, r0, cr5, cr1, {0}
     bc4:	0e030b13 	vmoveq.32	d3[0], r0
     bc8:	17550e1b 	smmlane	r5, fp, lr, r0
     bcc:	17100111 			; <UNDEFINED> instruction: 0x17100111
     bd0:	24020000 	strcs	r0, [r2], #-0
     bd4:	3e0b0b00 	vmlacc.f64	d0, d11, d0
     bd8:	0008030b 	andeq	r0, r8, fp, lsl #6
     bdc:	00260300 	eoreq	r0, r6, r0, lsl #6
     be0:	00001349 	andeq	r1, r0, r9, asr #6
     be4:	0b002404 	bleq	9bfc <kmalloc_aligned+0x24>
     be8:	030b3e0b 	movweq	r3, #48651	; 0xbe0b
     bec:	0500000e 	streq	r0, [r0, #-14]
     bf0:	19270115 	stmdbne	r7!, {r0, r2, r4, r8}
     bf4:	13011349 	movwne	r1, #4937	; 0x1349
     bf8:	05060000 	streq	r0, [r6, #-0]
     bfc:	00134900 	andseq	r4, r3, r0, lsl #18
     c00:	00340700 	eorseq	r0, r4, r0, lsl #14
     c04:	0b3a0e03 	bleq	e84418 <__bss_end__+0xe79e00>
     c08:	0b390b3b 	bleq	e438fc <__bss_end__+0xe392e4>
     c0c:	193f1349 	ldmdbne	pc!, {r0, r3, r6, r8, r9, ip}	; <UNPREDICTABLE>
     c10:	0000193c 	andeq	r1, r0, ip, lsr r9
     c14:	0b000f08 	bleq	483c <__code_start__-0x37c4>
     c18:	0013490b 	andseq	r4, r3, fp, lsl #18
     c1c:	00340900 	eorseq	r0, r4, r0, lsl #18
     c20:	0b3a0e03 	bleq	e84434 <__bss_end__+0xe79e1c>
     c24:	0b390b3b 	bleq	e43918 <__bss_end__+0xe39300>
     c28:	00001349 	andeq	r1, r0, r9, asr #6
     c2c:	3f012e0a 	svccc	0x00012e0a
     c30:	3a0e0319 	bcc	38189c <__bss_end__+0x377284>
     c34:	390b3b0b 	stmdbcc	fp, {r0, r1, r3, r8, r9, fp, ip, sp}
     c38:	8719270b 	ldrhi	r2, [r9, -fp, lsl #14]
     c3c:	01111901 	tsteq	r1, r1, lsl #18
     c40:	18400612 	stmdane	r0, {r1, r4, r9, sl}^
     c44:	01194297 			; <UNDEFINED> instruction: 0x01194297
     c48:	0b000013 	bleq	c9c <__code_start__-0x7364>
     c4c:	0e030034 	mcreq	0, 0, r0, cr3, cr4, {1}
     c50:	0b3b0b3a 	bleq	ec3940 <__bss_end__+0xeb9328>
     c54:	13490b39 	movtne	r0, #39737	; 0x9b39
     c58:	42b71702 	adcsmi	r1, r7, #524288	; 0x80000
     c5c:	0c000017 	stceq	0, cr0, [r0], {23}
     c60:	00018289 	andeq	r8, r1, r9, lsl #5
     c64:	13310111 	teqne	r1, #1073741828	; 0x40000004
     c68:	890d0000 	stmdbhi	sp, {}	; <UNPREDICTABLE>
     c6c:	11010182 	smlabbne	r1, r2, r1, r0
     c70:	01133101 	tsteq	r3, r1, lsl #2
     c74:	0e000013 	mcreq	0, 0, r0, cr0, cr3, {0}
     c78:	0001828a 	andeq	r8, r1, sl, lsl #5
     c7c:	42911802 	addsmi	r1, r1, #131072	; 0x20000
     c80:	0f000018 	svceq	0x00000018
     c84:	193f012e 	ldmdbne	pc!, {r1, r2, r3, r5, r8}	; <UNPREDICTABLE>
     c88:	0b3a0e03 	bleq	e8449c <__bss_end__+0xe79e84>
     c8c:	0b390b3b 	bleq	e43980 <__bss_end__+0xe39368>
     c90:	01111927 	tsteq	r1, r7, lsr #18
     c94:	18400612 	stmdane	r0, {r1, r4, r9, sl}^
     c98:	01194297 			; <UNDEFINED> instruction: 0x01194297
     c9c:	10000013 	andne	r0, r0, r3, lsl r0
     ca0:	193f012e 	ldmdbne	pc!, {r1, r2, r3, r5, r8}	; <UNPREDICTABLE>
     ca4:	0b3a0e03 	bleq	e844b8 <__bss_end__+0xe79ea0>
     ca8:	0b390b3b 	bleq	e4399c <__bss_end__+0xe39384>
     cac:	13491927 	movtne	r1, #39207	; 0x9927
     cb0:	06120111 			; <UNDEFINED> instruction: 0x06120111
     cb4:	42971840 	addsmi	r1, r7, #64, 16	; 0x400000
     cb8:	00130119 	andseq	r0, r3, r9, lsl r1
     cbc:	002e1100 	eoreq	r1, lr, r0, lsl #2
     cc0:	193c193f 	ldmdbne	ip!, {r0, r1, r2, r3, r4, r5, r8, fp, ip}
     cc4:	0e030e6e 	cdpeq	14, 0, cr0, cr3, cr14, {3}
     cc8:	053b0b3a 	ldreq	r0, [fp, #-2874]!	; 0xfffff4c6
     ccc:	00000b39 	andeq	r0, r0, r9, lsr fp
     cd0:	3f002e12 	svccc	0x00002e12
     cd4:	6e193c19 	mrcvs	12, 0, r3, cr9, cr9, {0}
     cd8:	3a0e030e 	bcc	381918 <__bss_end__+0x377300>
     cdc:	390b3b0b 	stmdbcc	fp, {r0, r1, r3, r8, r9, fp, ip, sp}
     ce0:	0000000b 	andeq	r0, r0, fp
     ce4:	25011101 	strcs	r1, [r1, #-257]	; 0xfffffeff
     ce8:	030b130e 	movweq	r1, #45838	; 0xb30e
     cec:	110e1b0e 	tstne	lr, lr, lsl #22
     cf0:	10061201 	andne	r1, r6, r1, lsl #4
     cf4:	02000017 	andeq	r0, r0, #23, 0
     cf8:	0b0b0024 	bleq	2c0d90 <__bss_end__+0x2b6778>
     cfc:	08030b3e 	stmdaeq	r3, {r1, r2, r3, r4, r5, r8, r9, fp}
     d00:	24030000 	strcs	r0, [r3], #-0
     d04:	3e0b0b00 	vmlacc.f64	d0, d11, d0
     d08:	000e030b 	andeq	r0, lr, fp, lsl #6
     d0c:	01150400 	tsteq	r5, r0, lsl #8
     d10:	13491927 	movtne	r1, #39207	; 0x9927
     d14:	00001301 	andeq	r1, r0, r1, lsl #6
     d18:	49000505 	stmdbmi	r0, {r0, r2, r8, sl}
     d1c:	06000013 			; <UNDEFINED> instruction: 0x06000013
     d20:	0e030034 	mcreq	0, 0, r0, cr3, cr4, {1}
     d24:	0b3b0b3a 	bleq	ec3a14 <__bss_end__+0xeb93fc>
     d28:	13490b39 	movtne	r0, #39737	; 0x9b39
     d2c:	193c193f 	ldmdbne	ip!, {r0, r1, r2, r3, r4, r5, r8, fp, ip}
     d30:	0f070000 	svceq	0x00070000
     d34:	490b0b00 	stmdbmi	fp, {r8, r9, fp}
     d38:	08000013 	stmdaeq	r0, {r0, r1, r4}
     d3c:	13490026 	movtne	r0, #36902	; 0x9026
     d40:	2e090000 	cdpcs	0, 0, cr0, cr9, cr0, {0}
     d44:	03193f01 	tsteq	r9, #1, 30
     d48:	3b0b3a0e 	blcc	2cf588 <__bss_end__+0x2c4f70>
     d4c:	270b390b 	strcs	r3, [fp, -fp, lsl #18]
     d50:	12011119 	andne	r1, r1, #1073741830	; 0x40000006
     d54:	97184006 	ldrls	r4, [r8, -r6]
     d58:	13011942 	movwne	r1, #6466	; 0x1942
     d5c:	050a0000 	streq	r0, [sl, #-0]
     d60:	3a080300 	bcc	201968 <__bss_end__+0x1f7350>
     d64:	390b3b0b 	stmdbcc	fp, {r0, r1, r3, r8, r9, fp, ip, sp}
     d68:	0213490b 	andseq	r4, r3, #180224	; 0x2c000
     d6c:	1742b717 	smlaldne	fp, r2, r7, r7
     d70:	890b0000 	stmdbhi	fp, {}	; <UNPREDICTABLE>
     d74:	11010182 	smlabbne	r1, r2, r1, r0
     d78:	00133101 	andseq	r3, r3, r1, lsl #2
     d7c:	828a0c00 	addhi	r0, sl, #0, 24
     d80:	18020001 	stmdane	r2, {r0}
     d84:	00184291 	mulseq	r8, r1, r2
     d88:	00340d00 	eorseq	r0, r4, r0, lsl #26
     d8c:	0b3a0803 	bleq	e82da0 <__bss_end__+0xe78788>
     d90:	0b390b3b 	bleq	e43a84 <__bss_end__+0xe3946c>
     d94:	17021349 	strne	r1, [r2, -r9, asr #6]
     d98:	001742b7 			; <UNDEFINED> instruction: 0x001742b7
     d9c:	010b0e00 	tsteq	fp, r0, lsl #28
     da0:	06120111 			; <UNDEFINED> instruction: 0x06120111
     da4:	00001301 	andeq	r1, r0, r1, lsl #6
     da8:	0182890f 	orreq	r8, r2, pc, lsl #18
     dac:	31011100 	mrscc	r1, (UNDEF: 17)
     db0:	10000013 	andne	r0, r0, r3, lsl r0
     db4:	193f012e 	ldmdbne	pc!, {r1, r2, r3, r5, r8}	; <UNPREDICTABLE>
     db8:	0b3a0e03 	bleq	e845cc <__bss_end__+0xe79fb4>
     dbc:	0b390b3b 	bleq	e43ab0 <__bss_end__+0xe39498>
     dc0:	13491927 	movtne	r1, #39207	; 0x9927
     dc4:	06120111 			; <UNDEFINED> instruction: 0x06120111
     dc8:	42971840 	addsmi	r1, r7, #64, 16	; 0x400000
     dcc:	00130119 	andseq	r0, r3, r9, lsl r1
     dd0:	002e1100 	eoreq	r1, lr, r0, lsl #2
     dd4:	193c193f 	ldmdbne	ip!, {r0, r1, r2, r3, r4, r5, r8, fp, ip}
     dd8:	0e030e6e 	cdpeq	14, 0, cr0, cr3, cr14, {3}
     ddc:	0b3b0b3a 	bleq	ec3acc <__bss_end__+0xeb94b4>
     de0:	00000b39 	andeq	r0, r0, r9, lsr fp
     de4:	01110100 	tsteq	r1, r0, lsl #2
     de8:	0b130e25 	bleq	4c4684 <__bss_end__+0x4ba06c>
     dec:	0e1b0e03 	cdpeq	14, 1, cr0, cr11, cr3, {0}
     df0:	06120111 			; <UNDEFINED> instruction: 0x06120111
     df4:	00001710 	andeq	r1, r0, r0, lsl r7
     df8:	0b002402 	bleq	9e08 <strcpy+0x4>
     dfc:	030b3e0b 	movweq	r3, #48651	; 0xbe0b
     e00:	03000008 	movweq	r0, #8
     e04:	0b0b0024 	bleq	2c0e9c <__bss_end__+0x2b6884>
     e08:	0e030b3e 	vmoveq.16	d3[0], r0
     e0c:	26040000 	strcs	r0, [r4], -r0
     e10:	00134900 	andseq	r4, r3, r0, lsl #18
     e14:	00160500 	andseq	r0, r6, r0, lsl #10
     e18:	0b3a0e03 	bleq	e8462c <__bss_end__+0xe7a014>
     e1c:	0b390b3b 	bleq	e43b10 <__bss_end__+0xe394f8>
     e20:	00001349 	andeq	r1, r0, r9, asr #6
     e24:	3e010406 	cdpcc	4, 0, cr0, cr1, cr6, {0}
     e28:	490b0b0b 	stmdbmi	fp, {r0, r1, r3, r8, r9, fp}
     e2c:	3b0b3a13 	blcc	2cf680 <__bss_end__+0x2c5068>
     e30:	010b390b 	tsteq	fp, fp, lsl #18
     e34:	07000013 	smladeq	r0, r3, r0, r0
     e38:	0e030028 	cdpeq	0, 0, cr0, cr3, cr8, {1}
     e3c:	00000b1c 	andeq	r0, r0, ip, lsl fp
     e40:	03003408 	movweq	r3, #1032	; 0x408
     e44:	3b0b3a0e 	blcc	2cf684 <__bss_end__+0x2c506c>
     e48:	490b390b 	stmdbmi	fp, {r0, r1, r3, r8, fp, ip, sp}
     e4c:	00061c13 	andeq	r1, r6, r3, lsl ip
     e50:	012e0900 			; <UNDEFINED> instruction: 0x012e0900
     e54:	0e03193f 			; <UNDEFINED> instruction: 0x0e03193f
     e58:	0b3b0b3a 	bleq	ec3b48 <__bss_end__+0xeb9530>
     e5c:	19270b39 	stmdbne	r7!, {r0, r3, r4, r5, r8, r9, fp}
     e60:	01111349 	tsteq	r1, r9, asr #6
     e64:	18400612 	stmdane	r0, {r1, r4, r9, sl}^
     e68:	01194297 			; <UNDEFINED> instruction: 0x01194297
     e6c:	0a000013 	beq	ec0 <__code_start__-0x7140>
     e70:	08030005 	stmdaeq	r3, {r0, r2}
     e74:	0b3b0b3a 	bleq	ec3b64 <__bss_end__+0xeb954c>
     e78:	13490b39 	movtne	r0, #39737	; 0x9b39
     e7c:	42b71702 	adcsmi	r1, r7, #524288	; 0x80000
     e80:	0b000017 	bleq	ee4 <__code_start__-0x711c>
     e84:	0e030034 	mcreq	0, 0, r0, cr3, cr4, {1}
     e88:	0b3b0b3a 	bleq	ec3b78 <__bss_end__+0xeb9560>
     e8c:	13490b39 	movtne	r0, #39737	; 0x9b39
     e90:	42b71702 	adcsmi	r1, r7, #524288	; 0x80000
     e94:	0c000017 	stceq	0, cr0, [r0], {23}
     e98:	08030034 	stmdaeq	r3, {r2, r4, r5}
     e9c:	0b3b0b3a 	bleq	ec3b8c <__bss_end__+0xeb9574>
     ea0:	13490b39 	movtne	r0, #39737	; 0x9b39
     ea4:	42b71702 	adcsmi	r1, r7, #524288	; 0x80000
     ea8:	0d000017 	stceq	0, cr0, [r0, #-92]	; 0xffffffa4
     eac:	01018289 	smlabbeq	r1, r9, r2, r8
     eb0:	13310111 	teqne	r1, #1073741828	; 0x40000004
     eb4:	8a0e0000 	bhi	380ebc <__bss_end__+0x3768a4>
     eb8:	02000182 	andeq	r0, r0, #-2147483616	; 0x80000020
     ebc:	18429118 	stmdane	r2, {r3, r4, r8, ip, pc}^
     ec0:	2e0f0000 	cdpcs	0, 0, cr0, cr15, cr0, {0}
     ec4:	03193f01 	tsteq	r9, #1, 30
     ec8:	3b0b3a0e 	blcc	2cf708 <__bss_end__+0x2c50f0>
     ecc:	270b390b 	strcs	r3, [fp, -fp, lsl #18]
     ed0:	12011119 	andne	r1, r1, #1073741830	; 0x40000006
     ed4:	97184006 	ldrls	r4, [r8, -r6]
     ed8:	13011942 	movwne	r1, #6466	; 0x1942
     edc:	89100000 	ldmdbhi	r0, {}	; <UNPREDICTABLE>
     ee0:	11010182 	smlabbne	r1, r2, r1, r0
     ee4:	01133101 	tsteq	r3, r1, lsl #2
     ee8:	11000013 	tstne	r0, r3, lsl r0
     eec:	00018289 	andeq	r8, r1, r9, lsl #5
     ef0:	13310111 	teqne	r1, #1073741828	; 0x40000004
     ef4:	05120000 	ldreq	r0, [r2, #-0]
     ef8:	3a0e0300 	bcc	381b00 <__bss_end__+0x3774e8>
     efc:	390b3b0b 	stmdbcc	fp, {r0, r1, r3, r8, r9, fp, ip, sp}
     f00:	0213490b 	andseq	r4, r3, #180224	; 0x2c000
     f04:	1742b717 	smlaldne	fp, r2, r7, r7
     f08:	2e130000 	cdpcs	0, 1, cr0, cr3, cr0, {0}
     f0c:	3a0e0301 	bcc	381b18 <__bss_end__+0x377500>
     f10:	390b3b0b 	stmdbcc	fp, {r0, r1, r3, r8, r9, fp, ip, sp}
     f14:	4919270b 	ldmdbmi	r9, {r0, r1, r3, r8, r9, sl, sp}
     f18:	010b2013 	tsteq	fp, r3, lsl r0
     f1c:	14000013 	strne	r0, [r0], #-19	; 0xffffffed
     f20:	08030005 	stmdaeq	r3, {r0, r2}
     f24:	0b3b0b3a 	bleq	ec3c14 <__bss_end__+0xeb95fc>
     f28:	13490b39 	movtne	r0, #39737	; 0x9b39
     f2c:	2e150000 	cdpcs	0, 1, cr0, cr5, cr0, {0}
     f30:	3c193f00 	ldccc	15, cr3, [r9], {-0}
     f34:	030e6e19 	movweq	r6, #60953	; 0xee19
     f38:	3b0b3a0e 	blcc	2cf778 <__bss_end__+0x2c5160>
     f3c:	000b390b 	andeq	r3, fp, fp, lsl #18
     f40:	11010000 	mrsne	r0, (UNDEF: 1)
     f44:	130e2501 	movwne	r2, #58625	; 0xe501
     f48:	1b0e030b 	blne	381b7c <__bss_end__+0x377564>
     f4c:	1201110e 	andne	r1, r1, #-2147483645	; 0x80000003
     f50:	00171006 	andseq	r1, r7, r6
     f54:	00240200 	eoreq	r0, r4, r0, lsl #4
     f58:	0b3e0b0b 	bleq	f83b8c <__bss_end__+0xf79574>
     f5c:	00000803 	andeq	r0, r0, r3, lsl #16
     f60:	0b002403 	bleq	9f74 <__code_end__+0x108>
     f64:	030b3e0b 	movweq	r3, #48651	; 0xbe0b
     f68:	0400000e 	streq	r0, [r0], #-14
     f6c:	13490035 	movtne	r0, #36917	; 0x9035
     f70:	16050000 	strne	r0, [r5], -r0
     f74:	3a0e0300 	bcc	381b7c <__bss_end__+0x377564>
     f78:	390b3b0b 	stmdbcc	fp, {r0, r1, r3, r8, r9, fp, ip, sp}
     f7c:	0013490b 	andseq	r4, r3, fp, lsl #18
     f80:	01040600 	tsteq	r4, r0, lsl #12
     f84:	0b0b0b3e 	bleq	2c3c84 <__bss_end__+0x2b966c>
     f88:	0b3a1349 	bleq	e85cb4 <__bss_end__+0xe7b69c>
     f8c:	0b390b3b 	bleq	e43c80 <__bss_end__+0xe39668>
     f90:	00001301 	andeq	r1, r0, r1, lsl #6
     f94:	03002807 	movweq	r2, #2055	; 0x807
     f98:	000b1c0e 	andeq	r1, fp, lr, lsl #24
     f9c:	01130800 	tsteq	r3, r0, lsl #16
     fa0:	0b0b0e03 	bleq	2c47b4 <__bss_end__+0x2ba19c>
     fa4:	0b3b0b3a 	bleq	ec3c94 <__bss_end__+0xeb967c>
     fa8:	13010b39 	movwne	r0, #6969	; 0x1b39
     fac:	0d090000 	stceq	0, cr0, [r9, #-0]
     fb0:	3a080300 	bcc	201bb8 <__bss_end__+0x1f75a0>
     fb4:	390b3b0b 	stmdbcc	fp, {r0, r1, r3, r8, r9, fp, ip, sp}
     fb8:	3813490b 	ldmdacc	r3, {r0, r1, r3, r8, fp, lr}
     fbc:	0a00000b 	beq	ff0 <__code_start__-0x7010>
     fc0:	0e03000d 	cdpeq	0, 0, cr0, cr3, cr13, {0}
     fc4:	0b3b0b3a 	bleq	ec3cb4 <__bss_end__+0xeb969c>
     fc8:	13490b39 	movtne	r0, #39737	; 0x9b39
     fcc:	00000b38 	andeq	r0, r0, r8, lsr fp
     fd0:	0300340b 	movweq	r3, #1035	; 0x40b
     fd4:	3b0b3a0e 	blcc	2cf814 <__bss_end__+0x2c51fc>
     fd8:	490b390b 	stmdbmi	fp, {r0, r1, r3, r8, fp, ip, sp}
     fdc:	00061c13 	andeq	r1, r6, r3, lsl ip
     fe0:	000f0c00 	andeq	r0, pc, r0, lsl #24
     fe4:	13490b0b 	movtne	r0, #39691	; 0x9b0b
     fe8:	260d0000 	strcs	r0, [sp], -r0
     fec:	00134900 	andseq	r4, r3, r0, lsl #18
     ff0:	012e0e00 			; <UNDEFINED> instruction: 0x012e0e00
     ff4:	0e03193f 			; <UNDEFINED> instruction: 0x0e03193f
     ff8:	0b3b0b3a 	bleq	ec3ce8 <__bss_end__+0xeb96d0>
     ffc:	19270b39 	stmdbne	r7!, {r0, r3, r4, r5, r8, r9, fp}
    1000:	06120111 			; <UNDEFINED> instruction: 0x06120111
    1004:	42971840 	addsmi	r1, r7, #64, 16	; 0x400000
    1008:	00130119 	andseq	r0, r3, r9, lsl r1
    100c:	82890f00 	addhi	r0, r9, #0, 30
    1010:	01110001 	tsteq	r1, r1
    1014:	00001331 	andeq	r1, r0, r1, lsr r3
    1018:	3f012e10 	svccc	0x00012e10
    101c:	3a0e0319 	bcc	381c88 <__bss_end__+0x377670>
    1020:	390b3b0b 	stmdbcc	fp, {r0, r1, r3, r8, r9, fp, ip, sp}
    1024:	4919270b 	ldmdbmi	r9, {r0, r1, r3, r8, r9, sl, sp}
    1028:	12011113 	andne	r1, r1, #-1073741820	; 0xc0000004
    102c:	97184006 	ldrls	r4, [r8, -r6]
    1030:	13011942 	movwne	r1, #6466	; 0x1942
    1034:	89110000 	ldmdbhi	r1, {}	; <UNPREDICTABLE>
    1038:	11010182 	smlabbne	r1, r2, r1, r0
    103c:	00133101 	andseq	r3, r3, r1, lsl #2
    1040:	828a1200 	addhi	r1, sl, #0, 4
    1044:	18020001 	stmdane	r2, {r0}
    1048:	00184291 	mulseq	r8, r1, r2
    104c:	00051300 	andeq	r1, r5, r0, lsl #6
    1050:	0b3a0803 	bleq	e83064 <__bss_end__+0xe78a4c>
    1054:	0b390b3b 	bleq	e43d48 <__bss_end__+0xe39730>
    1058:	17021349 	strne	r1, [r2, -r9, asr #6]
    105c:	001742b7 			; <UNDEFINED> instruction: 0x001742b7
    1060:	82891400 	addhi	r1, r9, #0, 8
    1064:	01110101 	tsteq	r1, r1, lsl #2
    1068:	13011331 	movwne	r1, #4913	; 0x1331
    106c:	34150000 	ldrcc	r0, [r5], #-0
    1070:	3a080300 	bcc	201c78 <__bss_end__+0x1f7660>
    1074:	390b3b0b 	stmdbcc	fp, {r0, r1, r3, r8, r9, fp, ip, sp}
    1078:	0213490b 	andseq	r4, r3, #180224	; 0x2c000
    107c:	1742b717 	smlaldne	fp, r2, r7, r7
    1080:	34160000 	ldrcc	r0, [r6], #-0
    1084:	3a0e0300 	bcc	381c8c <__bss_end__+0x377674>
    1088:	390b3b0b 	stmdbcc	fp, {r0, r1, r3, r8, r9, fp, ip, sp}
    108c:	1c13490b 			; <UNDEFINED> instruction: 0x1c13490b
    1090:	17000005 	strne	r0, [r0, -r5]
    1094:	0e03012e 	adfeqsp	f0, f3, #0.5
    1098:	0b3b0b3a 	bleq	ec3d88 <__bss_end__+0xeb9770>
    109c:	19270b39 	stmdbne	r7!, {r0, r3, r4, r5, r8, r9, fp}
    10a0:	06120111 			; <UNDEFINED> instruction: 0x06120111
    10a4:	42971840 	addsmi	r1, r7, #64, 16	; 0x400000
    10a8:	00130119 	andseq	r0, r3, r9, lsl r1
    10ac:	00051800 	andeq	r1, r5, r0, lsl #16
    10b0:	0b3a0e03 	bleq	e848c4 <__bss_end__+0xe7a2ac>
    10b4:	0b390b3b 	bleq	e43da8 <__bss_end__+0xe39790>
    10b8:	17021349 	strne	r1, [r2, -r9, asr #6]
    10bc:	001742b7 			; <UNDEFINED> instruction: 0x001742b7
    10c0:	00351900 	eorseq	r1, r5, r0, lsl #18
    10c4:	2e1a0000 	cdpcs	0, 1, cr0, cr10, cr0, {0}
    10c8:	3c193f00 	ldccc	15, cr3, [r9], {-0}
    10cc:	030e6e19 	movweq	r6, #60953	; 0xee19
    10d0:	3b0b3a0e 	blcc	2cf910 <__bss_end__+0x2c52f8>
    10d4:	000b390b 	andeq	r3, fp, fp, lsl #18
    10d8:	11010000 	mrsne	r0, (UNDEF: 1)
    10dc:	130e2501 	movwne	r2, #58625	; 0xe501
    10e0:	1b0e030b 	blne	381d14 <__bss_end__+0x3776fc>
    10e4:	1201110e 	andne	r1, r1, #-2147483645	; 0x80000003
    10e8:	00171006 	andseq	r1, r7, r6
    10ec:	00240200 	eoreq	r0, r4, r0, lsl #4
    10f0:	0b3e0b0b 	bleq	f83d24 <__bss_end__+0xf7970c>
    10f4:	00000803 	andeq	r0, r0, r3, lsl #16
    10f8:	0b002403 	bleq	a10c <__FUNCTION__.4034+0x124>
    10fc:	030b3e0b 	movweq	r3, #48651	; 0xbe0b
    1100:	0400000e 	streq	r0, [r0], #-14
    1104:	0e030016 	mcreq	0, 0, r0, cr3, cr6, {0}
    1108:	0b3b0b3a 	bleq	ec3df8 <__bss_end__+0xeb97e0>
    110c:	13490b39 	movtne	r0, #39737	; 0x9b39
    1110:	26050000 	strcs	r0, [r5], -r0
    1114:	00134900 	andseq	r4, r3, r0, lsl #18
    1118:	000f0600 	andeq	r0, pc, r0, lsl #12
    111c:	00000b0b 	andeq	r0, r0, fp, lsl #22
    1120:	3e010407 	cdpcc	4, 0, cr0, cr1, cr7, {0}
    1124:	490b0b0b 	stmdbmi	fp, {r0, r1, r3, r8, r9, fp}
    1128:	3b0b3a13 	blcc	2cf97c <__bss_end__+0x2c5364>
    112c:	010b390b 	tsteq	fp, fp, lsl #18
    1130:	08000013 	stmdaeq	r0, {r0, r1, r4}
    1134:	0e030028 	cdpeq	0, 0, cr0, cr3, cr8, {1}
    1138:	0000061c 	andeq	r0, r0, ip, lsl r6
    113c:	03003409 	movweq	r3, #1033	; 0x409
    1140:	3b0b3a0e 	blcc	2cf980 <__bss_end__+0x2c5368>
    1144:	490b390b 	stmdbmi	fp, {r0, r1, r3, r8, fp, ip, sp}
    1148:	3c193f13 	ldccc	15, cr3, [r9], {19}
    114c:	0a000019 	beq	11b8 <__code_start__-0x6e48>
    1150:	0e030034 	mcreq	0, 0, r0, cr3, cr4, {1}
    1154:	0b3b0b3a 	bleq	ec3e44 <__bss_end__+0xeb982c>
    1158:	13490b39 	movtne	r0, #39737	; 0x9b39
    115c:	00001802 	andeq	r1, r0, r2, lsl #16
    1160:	0b000f0b 	bleq	4d94 <__code_start__-0x326c>
    1164:	0013490b 	andseq	r4, r3, fp, lsl #18
    1168:	012e0c00 			; <UNDEFINED> instruction: 0x012e0c00
    116c:	0e03193f 			; <UNDEFINED> instruction: 0x0e03193f
    1170:	0b3b0b3a 	bleq	ec3e60 <__bss_end__+0xeb9848>
    1174:	19270b39 	stmdbne	r7!, {r0, r3, r4, r5, r8, r9, fp}
    1178:	06120111 			; <UNDEFINED> instruction: 0x06120111
    117c:	42971840 	addsmi	r1, r7, #64, 16	; 0x400000
    1180:	00130119 	andseq	r0, r3, r9, lsl r1
    1184:	00050d00 	andeq	r0, r5, r0, lsl #26
    1188:	0b3a0803 	bleq	e8319c <__bss_end__+0xe78b84>
    118c:	0b390b3b 	bleq	e43e80 <__bss_end__+0xe39868>
    1190:	17021349 	strne	r1, [r2, -r9, asr #6]
    1194:	001742b7 			; <UNDEFINED> instruction: 0x001742b7
    1198:	00340e00 	eorseq	r0, r4, r0, lsl #28
    119c:	13490e03 	movtne	r0, #40451	; 0x9e03
    11a0:	18021934 	stmdane	r2, {r2, r4, r5, r8, fp, ip}
    11a4:	890f0000 	stmdbhi	pc, {}	; <UNPREDICTABLE>
    11a8:	11010182 	smlabbne	r1, r2, r1, r0
    11ac:	01133101 	tsteq	r3, r1, lsl #2
    11b0:	10000013 	andne	r0, r0, r3, lsl r0
    11b4:	0001828a 	andeq	r8, r1, sl, lsl #5
    11b8:	42911802 	addsmi	r1, r1, #131072	; 0x20000
    11bc:	11000018 	tstne	r0, r8, lsl r0
    11c0:	00018289 	andeq	r8, r1, r9, lsl #5
    11c4:	13310111 	teqne	r1, #1073741828	; 0x40000004
    11c8:	01120000 	tsteq	r2, r0
    11cc:	01134901 	tsteq	r3, r1, lsl #18
    11d0:	13000013 	movwne	r0, #19
    11d4:	13490021 	movtne	r0, #36897	; 0x9021
    11d8:	00000b2f 	andeq	r0, r0, pc, lsr #22
    11dc:	3f002e14 	svccc	0x00002e14
    11e0:	3a0e0319 	bcc	381e4c <__bss_end__+0x377834>
    11e4:	390b3b0b 	stmdbcc	fp, {r0, r1, r3, r8, r9, fp, ip, sp}
    11e8:	1119270b 	tstne	r9, fp, lsl #14
    11ec:	40061201 	andmi	r1, r6, r1, lsl #4
    11f0:	19429718 	stmdbne	r2, {r3, r4, r8, r9, sl, ip, pc}^
    11f4:	05150000 	ldreq	r0, [r5, #-0]
    11f8:	3a080300 	bcc	201e00 <__bss_end__+0x1f77e8>
    11fc:	390b3b0b 	stmdbcc	fp, {r0, r1, r3, r8, r9, fp, ip, sp}
    1200:	0213490b 	andseq	r4, r3, #180224	; 0x2c000
    1204:	16000018 			; <UNDEFINED> instruction: 0x16000018
    1208:	193f012e 	ldmdbne	pc!, {r1, r2, r3, r5, r8}	; <UNPREDICTABLE>
    120c:	0b3a0e03 	bleq	e84a20 <__bss_end__+0xe7a408>
    1210:	0b390b3b 	bleq	e43f04 <__bss_end__+0xe398ec>
    1214:	13491927 	movtne	r1, #39207	; 0x9927
    1218:	06120111 			; <UNDEFINED> instruction: 0x06120111
    121c:	42971840 	addsmi	r1, r7, #64, 16	; 0x400000
    1220:	00130119 	andseq	r0, r3, r9, lsl r1
    1224:	00051700 	andeq	r1, r5, r0, lsl #14
    1228:	0b3a0e03 	bleq	e84a3c <__bss_end__+0xe7a424>
    122c:	0b390b3b 	bleq	e43f20 <__bss_end__+0xe39908>
    1230:	17021349 	strne	r1, [r2, -r9, asr #6]
    1234:	001742b7 			; <UNDEFINED> instruction: 0x001742b7
    1238:	00341800 	eorseq	r1, r4, r0, lsl #16
    123c:	0b3a0803 	bleq	e83250 <__bss_end__+0xe78c38>
    1240:	0b390b3b 	bleq	e43f34 <__bss_end__+0xe3991c>
    1244:	17021349 	strne	r1, [r2, -r9, asr #6]
    1248:	001742b7 			; <UNDEFINED> instruction: 0x001742b7
    124c:	011d1900 	tsteq	sp, r0, lsl #18
    1250:	01521331 	cmpeq	r2, r1, lsr r3
    1254:	110b42b8 			; <UNDEFINED> instruction: 0x110b42b8
    1258:	58061201 	stmdapl	r6, {r0, r9, ip}
    125c:	570b590b 	strpl	r5, [fp, -fp, lsl #18]
    1260:	0013010b 	andseq	r0, r3, fp, lsl #2
    1264:	00051a00 	andeq	r1, r5, r0, lsl #20
    1268:	17021331 	smladxne	r2, r1, r3, r1
    126c:	001742b7 			; <UNDEFINED> instruction: 0x001742b7
    1270:	011d1b00 	tsteq	sp, r0, lsl #22
    1274:	01521331 	cmpeq	r2, r1, lsr r3
    1278:	550b42b8 	strpl	r4, [fp, #-696]	; 0xfffffd48
    127c:	590b5817 	stmdbpl	fp, {r0, r1, r2, r4, fp, ip, lr}
    1280:	010b570b 	tsteq	fp, fp, lsl #14
    1284:	1c000013 	stcne	0, cr0, [r0], {19}
    1288:	1755010b 	ldrbne	r0, [r5, -fp, lsl #2]
    128c:	341d0000 	ldrcc	r0, [sp], #-0
    1290:	3a0e0300 	bcc	381e98 <__bss_end__+0x377880>
    1294:	390b3b0b 	stmdbcc	fp, {r0, r1, r3, r8, r9, fp, ip, sp}
    1298:	0213490b 	andseq	r4, r3, #180224	; 0x2c000
    129c:	1742b717 	smlaldne	fp, r2, r7, r7
    12a0:	0b1e0000 	bleq	7812a8 <__bss_end__+0x776c90>
    12a4:	00175500 	andseq	r5, r7, r0, lsl #10
    12a8:	002e1f00 	eoreq	r1, lr, r0, lsl #30
    12ac:	0e03193f 			; <UNDEFINED> instruction: 0x0e03193f
    12b0:	0b3b0b3a 	bleq	ec3fa0 <__bss_end__+0xeb9988>
    12b4:	19270b39 	stmdbne	r7!, {r0, r3, r4, r5, r8, r9, fp}
    12b8:	01111349 	tsteq	r1, r9, asr #6
    12bc:	18400612 	stmdane	r0, {r1, r4, r9, sl}^
    12c0:	00194297 	mulseq	r9, r7, r2
    12c4:	012e2000 			; <UNDEFINED> instruction: 0x012e2000
    12c8:	0b3a0e03 	bleq	e84adc <__bss_end__+0xe7a4c4>
    12cc:	0b390b3b 	bleq	e43fc0 <__bss_end__+0xe399a8>
    12d0:	13491927 	movtne	r1, #39207	; 0x9927
    12d4:	13010b20 	movwne	r0, #6944	; 0x1b20
    12d8:	05210000 	streq	r0, [r1, #-0]!
    12dc:	3a080300 	bcc	201ee4 <__bss_end__+0x1f78cc>
    12e0:	390b3b0b 	stmdbcc	fp, {r0, r1, r3, r8, r9, fp, ip, sp}
    12e4:	0013490b 	andseq	r4, r3, fp, lsl #18
    12e8:	002e2200 	eoreq	r2, lr, r0, lsl #4
    12ec:	193c193f 	ldmdbne	ip!, {r0, r1, r2, r3, r4, r5, r8, fp, ip}
    12f0:	0e030e6e 	cdpeq	14, 0, cr0, cr3, cr14, {3}
    12f4:	0b3b0b3a 	bleq	ec3fe4 <__bss_end__+0xeb99cc>
    12f8:	00000b39 	andeq	r0, r0, r9, lsr fp
    12fc:	01110100 	tsteq	r1, r0, lsl #2
    1300:	0b130e25 	bleq	4c4b9c <__bss_end__+0x4ba584>
    1304:	0e1b0e03 	cdpeq	14, 1, cr0, cr11, cr3, {0}
    1308:	06120111 			; <UNDEFINED> instruction: 0x06120111
    130c:	00001710 	andeq	r1, r0, r0, lsl r7
    1310:	0b002402 	bleq	a320 <__data_end__+0x110>
    1314:	030b3e0b 	movweq	r3, #48651	; 0xbe0b
    1318:	03000008 	movweq	r0, #8
    131c:	0b0b0024 	bleq	2c13b4 <__bss_end__+0x2b6d9c>
    1320:	0e030b3e 	vmoveq.16	d3[0], r0
    1324:	15040000 	strne	r0, [r4, #-0]
    1328:	49192701 	ldmdbmi	r9, {r0, r8, r9, sl, sp}
    132c:	00130113 	andseq	r0, r3, r3, lsl r1
    1330:	00050500 	andeq	r0, r5, r0, lsl #10
    1334:	00001349 	andeq	r1, r0, r9, asr #6
    1338:	03003406 	movweq	r3, #1030	; 0x406
    133c:	3b0b3a0e 	blcc	2cfb7c <__bss_end__+0x2c5564>
    1340:	490b390b 	stmdbmi	fp, {r0, r1, r3, r8, fp, ip, sp}
    1344:	3c193f13 	ldccc	15, cr3, [r9], {19}
    1348:	07000019 	smladeq	r0, r9, r0, r0
    134c:	0b0b000f 	bleq	2c1390 <__bss_end__+0x2b6d78>
    1350:	00001349 	andeq	r1, r0, r9, asr #6
    1354:	49002608 	stmdbmi	r0, {r3, r9, sl, sp}
    1358:	09000013 	stmdbeq	r0, {r0, r1, r4}
    135c:	13470034 	movtne	r0, #28724	; 0x7034
    1360:	0b3b0b3a 	bleq	ec4050 <__bss_end__+0xeb9a38>
    1364:	18020b39 	stmdane	r2, {r0, r3, r4, r5, r8, r9, fp}
    1368:	2e0a0000 	cdpcs	0, 0, cr0, cr10, cr0, {0}
    136c:	03193f01 	tsteq	r9, #1, 30
    1370:	3b0b3a0e 	blcc	2cfbb0 <__bss_end__+0x2c5598>
    1374:	270b390b 	strcs	r3, [fp, -fp, lsl #18]
    1378:	12011119 	andne	r1, r1, #1073741830	; 0x40000006
    137c:	97184006 	ldrls	r4, [r8, -r6]
    1380:	13011942 	movwne	r1, #6466	; 0x1942
    1384:	050b0000 	streq	r0, [fp, #-0]
    1388:	3a080300 	bcc	201f90 <__bss_end__+0x1f7978>
    138c:	390b3b0b 	stmdbcc	fp, {r0, r1, r3, r8, r9, fp, ip, sp}
    1390:	0213490b 	andseq	r4, r3, #180224	; 0x2c000
    1394:	0c000018 	stceq	0, cr0, [r0], {24}
    1398:	193f002e 	ldmdbne	pc!, {r1, r2, r3, r5}	; <UNPREDICTABLE>
    139c:	0b3a0e03 	bleq	e84bb0 <__bss_end__+0xe7a598>
    13a0:	0b390b3b 	bleq	e44094 <__bss_end__+0xe39a7c>
    13a4:	01111927 	tsteq	r1, r7, lsr #18
    13a8:	18400612 	stmdane	r0, {r1, r4, r9, sl}^
    13ac:	00194297 	mulseq	r9, r7, r2
    13b0:	012e0d00 			; <UNDEFINED> instruction: 0x012e0d00
    13b4:	0b3a0e03 	bleq	e84bc8 <__bss_end__+0xe7a5b0>
    13b8:	0b390b3b 	bleq	e440ac <__bss_end__+0xe39a94>
    13bc:	13491927 	movtne	r1, #39207	; 0x9927
    13c0:	06120111 			; <UNDEFINED> instruction: 0x06120111
    13c4:	42971840 	addsmi	r1, r7, #64, 16	; 0x400000
    13c8:	00130119 	andseq	r0, r3, r9, lsl r1
    13cc:	00050e00 	andeq	r0, r5, r0, lsl #28
    13d0:	0b3a0803 	bleq	e833e4 <__bss_end__+0xe78dcc>
    13d4:	0b390b3b 	bleq	e440c8 <__bss_end__+0xe39ab0>
    13d8:	17021349 	strne	r1, [r2, -r9, asr #6]
    13dc:	001742b7 			; <UNDEFINED> instruction: 0x001742b7
    13e0:	82890f00 	addhi	r0, r9, #0, 30
    13e4:	01110101 	tsteq	r1, r1, lsl #2
    13e8:	00001331 	andeq	r1, r0, r1, lsr r3
    13ec:	01828a10 	orreq	r8, r2, r0, lsl sl
    13f0:	91180200 	tstls	r8, r0, lsl #4
    13f4:	00001842 	andeq	r1, r0, r2, asr #16
    13f8:	3f002e11 	svccc	0x00002e11
    13fc:	6e193c19 	mrcvs	12, 0, r3, cr9, cr9, {0}
    1400:	3a0e030e 	bcc	382040 <__bss_end__+0x377a28>
    1404:	390b3b0b 	stmdbcc	fp, {r0, r1, r3, r8, r9, fp, ip, sp}
    1408:	0000000b 	andeq	r0, r0, fp
    140c:	25011101 	strcs	r1, [r1, #-257]	; 0xfffffeff
    1410:	030b130e 	movweq	r1, #45838	; 0xb30e
    1414:	110e1b0e 	tstne	lr, lr, lsl #22
    1418:	10061201 	andne	r1, r6, r1, lsl #4
    141c:	02000017 	andeq	r0, r0, #23, 0
    1420:	0b0b0024 	bleq	2c14b8 <__bss_end__+0x2b6ea0>
    1424:	08030b3e 	stmdaeq	r3, {r1, r2, r3, r4, r5, r8, r9, fp}
    1428:	24030000 	strcs	r0, [r3], #-0
    142c:	3e0b0b00 	vmlacc.f64	d0, d11, d0
    1430:	000e030b 	andeq	r0, lr, fp, lsl #6
    1434:	01150400 	tsteq	r5, r0, lsl #8
    1438:	13491927 	movtne	r1, #39207	; 0x9927
    143c:	00001301 	andeq	r1, r0, r1, lsl #6
    1440:	49000505 	stmdbmi	r0, {r0, r2, r8, sl}
    1444:	06000013 			; <UNDEFINED> instruction: 0x06000013
    1448:	0e030034 	mcreq	0, 0, r0, cr3, cr4, {1}
    144c:	0b3b0b3a 	bleq	ec413c <__bss_end__+0xeb9b24>
    1450:	13490b39 	movtne	r0, #39737	; 0x9b39
    1454:	193c193f 	ldmdbne	ip!, {r0, r1, r2, r3, r4, r5, r8, fp, ip}
    1458:	0f070000 	svceq	0x00070000
    145c:	490b0b00 	stmdbmi	fp, {r8, r9, fp}
    1460:	08000013 	stmdaeq	r0, {r0, r1, r4}
    1464:	13490026 	movtne	r0, #36902	; 0x9026
    1468:	2e090000 	cdpcs	0, 0, cr0, cr9, cr0, {0}
    146c:	03193f01 	tsteq	r9, #1, 30
    1470:	3b0b3a0e 	blcc	2cfcb0 <__bss_end__+0x2c5698>
    1474:	270b390b 	strcs	r3, [fp, -fp, lsl #18]
    1478:	11134919 	tstne	r3, r9, lsl r9
    147c:	40061201 	andmi	r1, r6, r1, lsl #4
    1480:	19429718 	stmdbne	r2, {r3, r4, r8, r9, sl, ip, pc}^
    1484:	00001301 	andeq	r1, r0, r1, lsl #6
    1488:	0300050a 	movweq	r0, #1290	; 0x50a
    148c:	3b0b3a0e 	blcc	2cfccc <__bss_end__+0x2c56b4>
    1490:	490b390b 	stmdbmi	fp, {r0, r1, r3, r8, fp, ip, sp}
    1494:	00180213 	andseq	r0, r8, r3, lsl r2
    1498:	00050b00 	andeq	r0, r5, r0, lsl #22
    149c:	0b3a0803 	bleq	e834b0 <__bss_end__+0xe78e98>
    14a0:	0b390b3b 	bleq	e44194 <__bss_end__+0xe39b7c>
    14a4:	17021349 	strne	r1, [r2, -r9, asr #6]
    14a8:	001742b7 			; <UNDEFINED> instruction: 0x001742b7
    14ac:	00340c00 	eorseq	r0, r4, r0, lsl #24
    14b0:	0b3a0803 	bleq	e834c4 <__bss_end__+0xe78eac>
    14b4:	0b390b3b 	bleq	e441a8 <__bss_end__+0xe39b90>
    14b8:	17021349 	strne	r1, [r2, -r9, asr #6]
    14bc:	001742b7 			; <UNDEFINED> instruction: 0x001742b7
    14c0:	11010000 	mrsne	r0, (UNDEF: 1)
    14c4:	130e2501 	movwne	r2, #58625	; 0xe501
    14c8:	1b0e030b 	blne	3820fc <__bss_end__+0x377ae4>
    14cc:	1201110e 	andne	r1, r1, #-2147483645	; 0x80000003
    14d0:	00171006 	andseq	r1, r7, r6
    14d4:	00240200 	eoreq	r0, r4, r0, lsl #4
    14d8:	0b3e0b0b 	bleq	f8410c <__bss_end__+0xf79af4>
    14dc:	00000803 	andeq	r0, r0, r3, lsl #16
    14e0:	0b002403 	bleq	a4f4 <__data_end__+0x2e4>
    14e4:	030b3e0b 	movweq	r3, #48651	; 0xbe0b
    14e8:	0400000e 	streq	r0, [r0], #-14
    14ec:	19270115 	stmdbne	r7!, {r0, r2, r4, r8}
    14f0:	13011349 	movwne	r1, #4937	; 0x1349
    14f4:	05050000 	streq	r0, [r5, #-0]
    14f8:	00134900 	andseq	r4, r3, r0, lsl #18
    14fc:	00340600 	eorseq	r0, r4, r0, lsl #12
    1500:	0b3a0e03 	bleq	e84d14 <__bss_end__+0xe7a6fc>
    1504:	0b390b3b 	bleq	e441f8 <__bss_end__+0xe39be0>
    1508:	193f1349 	ldmdbne	pc!, {r0, r3, r6, r8, r9, ip}	; <UNPREDICTABLE>
    150c:	0000193c 	andeq	r1, r0, ip, lsr r9
    1510:	0b000f07 	bleq	5134 <__code_start__-0x2ecc>
    1514:	0013490b 	andseq	r4, r3, fp, lsl #18
    1518:	00260800 	eoreq	r0, r6, r0, lsl #16
    151c:	00001349 	andeq	r1, r0, r9, asr #6
    1520:	3f012e09 	svccc	0x00012e09
    1524:	3a0e0319 	bcc	382190 <__bss_end__+0x377b78>
    1528:	390b3b0b 	stmdbcc	fp, {r0, r1, r3, r8, r9, fp, ip, sp}
    152c:	4919270b 	ldmdbmi	r9, {r0, r1, r3, r8, r9, sl, sp}
    1530:	12011113 	andne	r1, r1, #-1073741820	; 0xc0000004
    1534:	97184006 	ldrls	r4, [r8, -r6]
    1538:	00001942 	andeq	r1, r0, r2, asr #18
    153c:	0300050a 	movweq	r0, #1290	; 0x50a
    1540:	3b0b3a08 	blcc	2cfd68 <__bss_end__+0x2c5750>
    1544:	490b390b 	stmdbmi	fp, {r0, r1, r3, r8, fp, ip, sp}
    1548:	b7170213 			; <UNDEFINED> instruction: 0xb7170213
    154c:	00001742 	andeq	r1, r0, r2, asr #14
    1550:	01110100 	tsteq	r1, r0, lsl #2
    1554:	0b130e25 	bleq	4c4df0 <__bss_end__+0x4ba7d8>
    1558:	0e1b0e03 	cdpeq	14, 1, cr0, cr11, cr3, {0}
    155c:	06120111 			; <UNDEFINED> instruction: 0x06120111
    1560:	00001710 	andeq	r1, r0, r0, lsl r7
    1564:	0b002402 	bleq	a574 <__data_end__+0x364>
    1568:	030b3e0b 	movweq	r3, #48651	; 0xbe0b
    156c:	03000008 	movweq	r0, #8
    1570:	0b0b0024 	bleq	2c1608 <__bss_end__+0x2b6ff0>
    1574:	0e030b3e 	vmoveq.16	d3[0], r0
    1578:	15040000 	strne	r0, [r4, #-0]
    157c:	49192701 	ldmdbmi	r9, {r0, r8, r9, sl, sp}
    1580:	00130113 	andseq	r0, r3, r3, lsl r1
    1584:	00050500 	andeq	r0, r5, r0, lsl #10
    1588:	00001349 	andeq	r1, r0, r9, asr #6
    158c:	03003406 	movweq	r3, #1030	; 0x406
    1590:	3b0b3a0e 	blcc	2cfdd0 <__bss_end__+0x2c57b8>
    1594:	490b390b 	stmdbmi	fp, {r0, r1, r3, r8, fp, ip, sp}
    1598:	3c193f13 	ldccc	15, cr3, [r9], {19}
    159c:	07000019 	smladeq	r0, r9, r0, r0
    15a0:	0b0b000f 	bleq	2c15e4 <__bss_end__+0x2b6fcc>
    15a4:	00001349 	andeq	r1, r0, r9, asr #6
    15a8:	49002608 	stmdbmi	r0, {r3, r9, sl, sp}
    15ac:	09000013 	stmdbeq	r0, {r0, r1, r4}
    15b0:	193f012e 	ldmdbne	pc!, {r1, r2, r3, r5, r8}	; <UNPREDICTABLE>
    15b4:	0b3a0e03 	bleq	e84dc8 <__bss_end__+0xe7a7b0>
    15b8:	0b390b3b 	bleq	e442ac <__bss_end__+0xe39c94>
    15bc:	13491927 	movtne	r1, #39207	; 0x9927
    15c0:	06120111 			; <UNDEFINED> instruction: 0x06120111
    15c4:	42971840 	addsmi	r1, r7, #64, 16	; 0x400000
    15c8:	00130119 	andseq	r0, r3, r9, lsl r1
    15cc:	00050a00 	andeq	r0, r5, r0, lsl #20
    15d0:	0b3a0803 	bleq	e835e4 <__bss_end__+0xe78fcc>
    15d4:	0b390b3b 	bleq	e442c8 <__bss_end__+0xe39cb0>
    15d8:	18021349 	stmdane	r2, {r0, r3, r6, r8, r9, ip}
    15dc:	050b0000 	streq	r0, [fp, #-0]
    15e0:	3a080300 	bcc	2021e8 <__bss_end__+0x1f7bd0>
    15e4:	390b3b0b 	stmdbcc	fp, {r0, r1, r3, r8, r9, fp, ip, sp}
    15e8:	0213490b 	andseq	r4, r3, #180224	; 0x2c000
    15ec:	1742b717 	smlaldne	fp, r2, r7, r7
    15f0:	340c0000 	strcc	r0, [ip], #-0
    15f4:	3a080300 	bcc	2021fc <__bss_end__+0x1f7be4>
    15f8:	390b3b0b 	stmdbcc	fp, {r0, r1, r3, r8, r9, fp, ip, sp}
    15fc:	0213490b 	andseq	r4, r3, #180224	; 0x2c000
    1600:	1742b717 	smlaldne	fp, r2, r7, r7
    1604:	01000000 	mrseq	r0, (UNDEF: 0)
    1608:	0e250111 	mcreq	1, 1, r0, cr5, cr1, {0}
    160c:	0e030b13 	vmoveq.32	d3[0], r0
    1610:	17550e1b 	smmlane	r5, fp, lr, r0
    1614:	17100111 			; <UNDEFINED> instruction: 0x17100111
    1618:	24020000 	strcs	r0, [r2], #-0
    161c:	3e0b0b00 	vmlacc.f64	d0, d11, d0
    1620:	0008030b 	andeq	r0, r8, fp, lsl #6
    1624:	00160300 	andseq	r0, r6, r0, lsl #6
    1628:	0b3a0e03 	bleq	e84e3c <__bss_end__+0xe7a824>
    162c:	0b390b3b 	bleq	e44320 <__bss_end__+0xe39d08>
    1630:	00001349 	andeq	r1, r0, r9, asr #6
    1634:	0b002404 	bleq	a64c <__bss_end__+0x34>
    1638:	030b3e0b 	movweq	r3, #48651	; 0xbe0b
    163c:	0500000e 	streq	r0, [r0, #-14]
    1640:	13490026 	movtne	r0, #36902	; 0x9026
    1644:	15060000 	strne	r0, [r6, #-0]
    1648:	49192701 	ldmdbmi	r9, {r0, r8, r9, sl, sp}
    164c:	00130113 	andseq	r0, r3, r3, lsl r1
    1650:	00050700 	andeq	r0, r5, r0, lsl #14
    1654:	00001349 	andeq	r1, r0, r9, asr #6
    1658:	03003408 	movweq	r3, #1032	; 0x408
    165c:	3b0b3a0e 	blcc	2cfe9c <__bss_end__+0x2c5884>
    1660:	490b390b 	stmdbmi	fp, {r0, r1, r3, r8, fp, ip, sp}
    1664:	3c193f13 	ldccc	15, cr3, [r9], {19}
    1668:	09000019 	stmdbeq	r0, {r0, r3, r4}
    166c:	0b0b000f 	bleq	2c16b0 <__bss_end__+0x2b7098>
    1670:	00001349 	andeq	r1, r0, r9, asr #6
    1674:	3f012e0a 	svccc	0x00012e0a
    1678:	3a0e0319 	bcc	3822e4 <__bss_end__+0x377ccc>
    167c:	390b3b0b 	stmdbcc	fp, {r0, r1, r3, r8, r9, fp, ip, sp}
    1680:	4919270b 	ldmdbmi	r9, {r0, r1, r3, r8, r9, sl, sp}
    1684:	12011113 	andne	r1, r1, #-1073741820	; 0xc0000004
    1688:	97184006 	ldrls	r4, [r8, -r6]
    168c:	13011942 	movwne	r1, #6466	; 0x1942
    1690:	050b0000 	streq	r0, [fp, #-0]
    1694:	3a080300 	bcc	20229c <__bss_end__+0x1f7c84>
    1698:	390b3b0b 	stmdbcc	fp, {r0, r1, r3, r8, r9, fp, ip, sp}
    169c:	0213490b 	andseq	r4, r3, #180224	; 0x2c000
    16a0:	1742b717 	smlaldne	fp, r2, r7, r7
    16a4:	340c0000 	strcc	r0, [ip], #-0
    16a8:	3a080300 	bcc	2022b0 <__bss_end__+0x1f7c98>
    16ac:	390b3b0b 	stmdbcc	fp, {r0, r1, r3, r8, r9, fp, ip, sp}
    16b0:	0213490b 	andseq	r4, r3, #180224	; 0x2c000
    16b4:	1742b717 	smlaldne	fp, r2, r7, r7
    16b8:	01000000 	mrseq	r0, (UNDEF: 0)
    16bc:	0e250111 	mcreq	1, 1, r0, cr5, cr1, {0}
    16c0:	0e030b13 	vmoveq.32	d3[0], r0
    16c4:	01110e1b 	tsteq	r1, fp, lsl lr
    16c8:	17100612 			; <UNDEFINED> instruction: 0x17100612
    16cc:	24020000 	strcs	r0, [r2], #-0
    16d0:	3e0b0b00 	vmlacc.f64	d0, d11, d0
    16d4:	0008030b 	andeq	r0, r8, fp, lsl #6
    16d8:	00240300 	eoreq	r0, r4, r0, lsl #6
    16dc:	0b3e0b0b 	bleq	f84310 <__bss_end__+0xf79cf8>
    16e0:	00000e03 	andeq	r0, r0, r3, lsl #28
    16e4:	27011504 	strcs	r1, [r1, -r4, lsl #10]
    16e8:	01134919 	tsteq	r3, r9, lsl r9
    16ec:	05000013 	streq	r0, [r0, #-19]	; 0xffffffed
    16f0:	13490005 	movtne	r0, #36869	; 0x9005
    16f4:	34060000 	strcc	r0, [r6], #-0
    16f8:	3a0e0300 	bcc	382300 <__bss_end__+0x377ce8>
    16fc:	390b3b0b 	stmdbcc	fp, {r0, r1, r3, r8, r9, fp, ip, sp}
    1700:	3f13490b 	svccc	0x0013490b
    1704:	00193c19 	andseq	r3, r9, r9, lsl ip
    1708:	000f0700 	andeq	r0, pc, r0, lsl #14
    170c:	13490b0b 	movtne	r0, #39691	; 0x9b0b
    1710:	26080000 	strcs	r0, [r8], -r0
    1714:	00134900 	andseq	r4, r3, r0, lsl #18
    1718:	002e0900 	eoreq	r0, lr, r0, lsl #18
    171c:	0e03193f 			; <UNDEFINED> instruction: 0x0e03193f
    1720:	0b3b0b3a 	bleq	ec4410 <__bss_end__+0xeb9df8>
    1724:	19270b39 	stmdbne	r7!, {r0, r3, r4, r5, r8, r9, fp}
    1728:	06120111 			; <UNDEFINED> instruction: 0x06120111
    172c:	42971840 	addsmi	r1, r7, #64, 16	; 0x400000
    1730:	00000019 	andeq	r0, r0, r9, lsl r0

Disassembly of section .debug_loc:

00000000 <.debug_loc>:
       0:	00000000 	andeq	r0, r0, r0
       4:	0000050c 	andeq	r0, r0, ip, lsl #10
       8:	00000514 	andeq	r0, r0, r4, lsl r5
       c:	14500001 	ldrbne	r0, [r0], #-1
      10:	54000005 	strpl	r0, [r0], #-5
      14:	01000005 	tsteq	r0, r5
      18:	00005600 	andeq	r5, r0, r0, lsl #12
      1c:	00000000 	andeq	r0, r0, r0
      20:	00020000 	andeq	r0, r2, r0
      24:	050c0000 	streq	r0, [ip, #-0]
      28:	05140000 	ldreq	r0, [r4, #-0]
      2c:	00020000 	andeq	r0, r2, r0
      30:	05149f30 	ldreq	r9, [r4, #-3888]	; 0xfffff0d0
      34:	05540000 	ldrbeq	r0, [r4, #-0]
      38:	00010000 	andeq	r0, r1, r0
      3c:	00000055 	andeq	r0, r0, r5, asr r0
	...
      48:	00051400 	andeq	r1, r5, r0, lsl #8
      4c:	00051800 	andeq	r1, r5, r0, lsl #16
      50:	54000100 	strpl	r0, [r0], #-256	; 0xffffff00
      54:	00000524 	andeq	r0, r0, r4, lsr #10
      58:	00000544 	andeq	r0, r0, r4, asr #10
      5c:	00540001 	subseq	r0, r4, r1
	...
      74:	4b000000 	blmi	7c <__code_start__-0x7f84>
      78:	01000000 	mrseq	r0, (UNDEF: 0)
      7c:	004b5000 	subeq	r5, fp, r0
      80:	01b80000 			; <UNDEFINED> instruction: 0x01b80000
      84:	00010000 	andeq	r0, r1, r0
      88:	0001b855 	andeq	fp, r1, r5, asr r8
      8c:	0001db00 	andeq	sp, r1, r0, lsl #22
      90:	50000100 	andpl	r0, r0, r0, lsl #2
      94:	000001db 	ldrdeq	r0, [r0], -fp
      98:	00000358 	andeq	r0, r0, r8, asr r3
      9c:	58550001 	ldmdapl	r5, {r0}^
      a0:	7f000003 	svcvc	0x00000003
      a4:	01000003 	tsteq	r0, r3
      a8:	037f5000 	cmneq	pc, #0, 0
      ac:	04ec0000 	strbteq	r0, [ip], #0
      b0:	00010000 	andeq	r0, r1, r0
      b4:	00000055 	andeq	r0, r0, r5, asr r0
	...
      d0:	00004b00 	andeq	r4, r0, r0, lsl #22
      d4:	51000100 	mrspl	r0, (UNDEF: 16)
      d8:	0000004b 	andeq	r0, r0, fp, asr #32
      dc:	000001b8 			; <UNDEFINED> instruction: 0x000001b8
      e0:	b8560001 	ldmdalt	r6, {r0}^
      e4:	d8000001 	stmdale	r0, {r0}
      e8:	01000001 	tsteq	r0, r1
      ec:	01d85100 	bicseq	r5, r8, r0, lsl #2
      f0:	03480000 	movteq	r0, #32768	; 0x8000
      f4:	00010000 	andeq	r0, r1, r0
      f8:	00034856 	andeq	r4, r3, r6, asr r8
      fc:	00035800 	andeq	r5, r3, r0, lsl #16
     100:	f3000400 	vshl.u8	d0, d0, d0
     104:	589f5101 	ldmpl	pc, {r0, r8, ip, lr}	; <UNPREDICTABLE>
     108:	7c000003 	stcvc	0, cr0, [r0], {3}
     10c:	01000003 	tsteq	r0, r3
     110:	037c5100 	cmneq	ip, #0
     114:	037f0000 	cmneq	pc, #0, 0
     118:	00030000 	andeq	r0, r3, r0
     11c:	7f9f0271 	svcvc	0x009f0271
     120:	ec000003 	stc	0, cr0, [r0], {3}
     124:	03000004 	movweq	r0, #4
     128:	9f027600 	svcls	0x00027600
	...
     144:	00000048 	andeq	r0, r0, r8, asr #32
     148:	48520001 	ldmdami	r2, {r0}^
     14c:	b8000000 	stmdalt	r0, {}	; <UNPREDICTABLE>
     150:	04000001 	streq	r0, [r0], #-1
     154:	5201f300 	andpl	pc, r1, #0, 6
     158:	0001b89f 	muleq	r1, pc, r8	; <UNPREDICTABLE>
     15c:	0001d400 	andeq	sp, r1, r0, lsl #8
     160:	52000100 	andpl	r0, r0, #0
     164:	000001d4 	ldrdeq	r0, [r0], -r4
     168:	00000358 	andeq	r0, r0, r8, asr r3
     16c:	01f30004 	mvnseq	r0, r4
     170:	03589f52 	cmpeq	r8, #328	; 0x148
     174:	03780000 	cmneq	r8, #0, 0
     178:	00010000 	andeq	r0, r1, r0
     17c:	00037852 	andeq	r7, r3, r2, asr r8
     180:	0004ec00 	andeq	lr, r4, r0, lsl #24
     184:	f3000400 	vshl.u8	d0, d0, d0
     188:	009f5201 	addseq	r5, pc, r1, lsl #4
	...
     194:	84000000 	strhi	r0, [r0], #-0
     198:	98000006 	stmdals	r0, {r1, r2}
     19c:	01000006 	tsteq	r0, r6
     1a0:	06985000 	ldreq	r5, [r8], r0
     1a4:	06ac0000 	strteq	r0, [ip], r0
     1a8:	00040000 	andeq	r0, r4, r0
     1ac:	9f5001f3 	svcls	0x005001f3
	...
     1bc:	00000684 	andeq	r0, r0, r4, lsl #13
     1c0:	00000694 	muleq	r0, r4, r6
     1c4:	94510001 	ldrbls	r0, [r1], #-1
     1c8:	ac000006 	stcge	0, cr0, [r0], {6}
     1cc:	04000006 	streq	r0, [r0], #-6
     1d0:	5101f300 	mrspl	pc, SP_irq	; <UNPREDICTABLE>
     1d4:	0000009f 	muleq	r0, pc, r0	; <UNPREDICTABLE>
	...
     1e0:	00068400 	andeq	r8, r6, r0, lsl #8
     1e4:	0006a400 	andeq	sl, r6, r0, lsl #8
     1e8:	53000100 	movwpl	r0, #256	; 0x100
     1ec:	000006a4 	andeq	r0, r0, r4, lsr #13
     1f0:	000006ac 	andeq	r0, r0, ip, lsr #13
     1f4:	09700002 	ldmdbeq	r0!, {r1}^
	...
     204:	000006f0 	strdeq	r0, [r0], -r0	; <UNPREDICTABLE>
     208:	000006fb 	strdeq	r0, [r0], -fp
     20c:	fb500001 	blx	140021a <__bss_end__+0x13f5c02>
     210:	00000006 	andeq	r0, r0, r6
     214:	04000007 	streq	r0, [r0], #-7
     218:	5001f300 	andpl	pc, r1, r0, lsl #6
     21c:	0000009f 	muleq	r0, pc, r0	; <UNPREDICTABLE>
	...
     228:	0006ac00 	andeq	sl, r6, r0, lsl #24
     22c:	0006c000 	andeq	ip, r6, r0
     230:	50000100 	andpl	r0, r0, r0, lsl #2
     234:	000006c0 	andeq	r0, r0, r0, asr #13
     238:	000006f0 	strdeq	r0, [r0], -r0	; <UNPREDICTABLE>
     23c:	00560001 	subseq	r0, r6, r1
	...
     248:	ac000000 	stcge	0, cr0, [r0], {-0}
     24c:	c0000006 	andgt	r0, r0, r6
     250:	01000006 	tsteq	r0, r6
     254:	06c05100 	strbeq	r5, [r0], r0, lsl #2
     258:	06f00000 	ldrbteq	r0, [r0], r0
     25c:	00010000 	andeq	r0, r1, r0
     260:	00000055 	andeq	r0, r0, r5, asr r0
     264:	00000000 	andeq	r0, r0, r0
     268:	00000200 	andeq	r0, r0, r0, lsl #4
     26c:	0006bc00 	andeq	fp, r6, r0, lsl #24
     270:	0006c000 	andeq	ip, r6, r0
     274:	30000200 	andcc	r0, r0, r0, lsl #4
     278:	0006c09f 	muleq	r6, pc, r0	; <UNPREDICTABLE>
     27c:	0006f000 	andeq	pc, r6, r0
     280:	54000100 	strpl	r0, [r0], #-256	; 0xffffff00
	...
     290:	0000064c 	andeq	r0, r0, ip, asr #12
     294:	00000664 	andeq	r0, r0, r4, ror #12
     298:	64500001 	ldrbvs	r0, [r0], #-1
     29c:	84000006 	strhi	r0, [r0], #-6
     2a0:	04000006 	streq	r0, [r0], #-6
     2a4:	5001f300 	andpl	pc, r1, r0, lsl #6
     2a8:	0000009f 	muleq	r0, pc, r0	; <UNPREDICTABLE>
	...
     2b4:	00064c00 	andeq	r4, r6, r0, lsl #24
     2b8:	00066000 	andeq	r6, r6, r0
     2bc:	51000100 	mrspl	r0, (UNDEF: 16)
     2c0:	00000660 	andeq	r0, r0, r0, ror #12
     2c4:	00000684 	andeq	r0, r0, r4, lsl #13
     2c8:	01f30004 	mvnseq	r0, r4
     2cc:	00009f51 	andeq	r9, r0, r1, asr pc
	...
     2d8:	064c0000 	strbeq	r0, [ip], -r0
     2dc:	06670000 	strbteq	r0, [r7], -r0
     2e0:	00010000 	andeq	r0, r1, r0
     2e4:	00066752 	andeq	r6, r6, r2, asr r7
     2e8:	00068400 	andeq	r8, r6, r0, lsl #8
     2ec:	f3000400 	vshl.u8	d0, d0, d0
     2f0:	009f5201 	addseq	r5, pc, r1, lsl #4
	...
     2fc:	4c000000 	stcmi	0, cr0, [r0], {-0}
     300:	67000006 	strvs	r0, [r0, -r6]
     304:	01000006 	tsteq	r0, r6
     308:	06675300 	strbteq	r5, [r7], -r0, lsl #6
     30c:	06840000 	streq	r0, [r4], r0
     310:	00040000 	andeq	r0, r4, r0
     314:	9f5301f3 	svcls	0x005301f3
	...
     320:	065c0000 	ldrbeq	r0, [ip], -r0
     324:	06800000 	streq	r0, [r0], r0
     328:	00010000 	andeq	r0, r1, r0
     32c:	00000055 	andeq	r0, r0, r5, asr r0
	...
     338:	00065c00 	andeq	r5, r6, r0, lsl #24
     33c:	00066700 	andeq	r6, r6, r0, lsl #14
     340:	52000100 	andpl	r0, r0, #0
     344:	00000667 	andeq	r0, r0, r7, ror #12
     348:	00000680 	andeq	r0, r0, r0, lsl #13
     34c:	01f30004 	mvnseq	r0, r4
     350:	00009f52 	andeq	r9, r0, r2, asr pc
	...
     35c:	0000065c 	andeq	r0, r0, ip, asr r6
     360:	00000680 	andeq	r0, r0, r0, lsl #13
     364:	00560001 	subseq	r0, r6, r1
	...
     370:	00065c00 	andeq	r5, r6, r0, lsl #24
     374:	00068000 	andeq	r8, r6, r0
     378:	54000100 	strpl	r0, [r0], #-256	; 0xffffff00
	...
     388:	00000608 	andeq	r0, r0, r8, lsl #12
     38c:	00000620 	andeq	r0, r0, r0, lsr #12
     390:	20500001 	subscs	r0, r0, r1
     394:	4c000006 	stcmi	0, cr0, [r0], {6}
     398:	04000006 	streq	r0, [r0], #-6
     39c:	5001f300 	andpl	pc, r1, r0, lsl #6
     3a0:	0000009f 	muleq	r0, pc, r0	; <UNPREDICTABLE>
	...
     3ac:	00060800 	andeq	r0, r6, r0, lsl #16
     3b0:	00062300 	andeq	r2, r6, r0, lsl #6
     3b4:	51000100 	mrspl	r0, (UNDEF: 16)
     3b8:	00000623 	andeq	r0, r0, r3, lsr #12
     3bc:	0000064c 	andeq	r0, r0, ip, asr #12
     3c0:	00550001 	subseq	r0, r5, r1
	...
     3cc:	28000000 	stmdacs	r0, {}	; <UNPREDICTABLE>
     3d0:	33000006 	movwcc	r0, #6
     3d4:	01000006 	tsteq	r0, r6
     3d8:	06335000 	ldrteq	r5, [r3], -r0
     3dc:	064c0000 	strbeq	r0, [ip], -r0
     3e0:	00010000 	andeq	r0, r1, r0
     3e4:	00000054 	andeq	r0, r0, r4, asr r0
     3e8:	00000000 	andeq	r0, r0, r0
     3ec:	1c000000 	stcne	0, cr0, [r0], {-0}
     3f0:	4c000006 	stcmi	0, cr0, [r0], {6}
     3f4:	01000006 	tsteq	r0, r6
     3f8:	00005700 	andeq	r5, r0, r0, lsl #14
	...
     404:	07000000 	streq	r0, [r0, -r0]
     408:	070c0000 	streq	r0, [ip, -r0]
     40c:	00010000 	andeq	r0, r1, r0
     410:	00070c50 	andeq	r0, r7, r0, asr ip
     414:	0007a800 	andeq	sl, r7, r0, lsl #16
     418:	56000100 	strpl	r0, [r0], -r0, lsl #2
	...
     424:	00000002 	andeq	r0, r0, r2
     428:	00000708 	andeq	r0, r0, r8, lsl #14
     42c:	0000070c 	andeq	r0, r0, ip, lsl #14
     430:	9f300002 	svcls	0x00300002
     434:	0000070c 	andeq	r0, r0, ip, lsl #14
     438:	000007a8 	andeq	r0, r0, r8, lsr #15
     43c:	00540001 	subseq	r0, r4, r1
	...
     448:	00072c00 	andeq	r2, r7, r0, lsl #24
     44c:	00075000 	andeq	r5, r7, r0
     450:	57000100 	strpl	r0, [r0, -r0, lsl #2]
	...
     45c:	072c0000 	streq	r0, [ip, -r0]!
     460:	07370000 	ldreq	r0, [r7, -r0]!
     464:	00020000 	andeq	r0, r2, r0
     468:	00000973 	andeq	r0, r0, r3, ror r9
	...
     474:	0000072c 	andeq	r0, r0, ip, lsr #14
     478:	00000750 	andeq	r0, r0, r0, asr r7
     47c:	00580001 	subseq	r0, r8, r1
	...
     488:	00072c00 	andeq	r2, r7, r0, lsl #24
     48c:	00075000 	andeq	r5, r7, r0
     490:	55000100 	strpl	r0, [r0, #-256]	; 0xffffff00
	...
     4a0:	0000075c 	andeq	r0, r0, ip, asr r7
     4a4:	0000076c 	andeq	r0, r0, ip, ror #14
     4a8:	6c530001 	mrrcvs	0, 0, r0, r3, cr1
     4ac:	74000007 	strvc	r0, [r0], #-7
     4b0:	08000007 	stmdaeq	r0, {r0, r1, r2}
     4b4:	94007600 	strls	r7, [r0], #-1536	; 0xfffffa00
     4b8:	1aff0801 	bne	fffc24c4 <__bss_end__+0xfffb7eac>
     4bc:	0000009f 	muleq	r0, pc, r0	; <UNPREDICTABLE>
     4c0:	00000000 	andeq	r0, r0, r0
     4c4:	00000200 	andeq	r0, r0, r0, lsl #4
     4c8:	00075c00 	andeq	r5, r7, r0, lsl #24
     4cc:	00076c00 	andeq	r6, r7, r0, lsl #24
     4d0:	53000100 	movwpl	r0, #256	; 0x100
     4d4:	0000076c 	andeq	r0, r0, ip, ror #14
     4d8:	00000774 	andeq	r0, r0, r4, ror r7
     4dc:	00760008 	rsbseq	r0, r6, r8
     4e0:	ff080194 			; <UNDEFINED> instruction: 0xff080194
     4e4:	00009f1a 	andeq	r9, r0, sl, lsl pc
     4e8:	00000000 	andeq	r0, r0, r0
     4ec:	00040000 	andeq	r0, r4, r0
     4f0:	0000075c 	andeq	r0, r0, ip, asr r7
     4f4:	00000794 	muleq	r0, r4, r7
     4f8:	b80a0004 	stmdalt	sl, {r2}
     4fc:	00009f88 	andeq	r9, r0, r8, lsl #31
     500:	00000000 	andeq	r0, r0, r0
     504:	00040000 	andeq	r0, r4, r0
     508:	075c0000 	ldrbeq	r0, [ip, -r0]
     50c:	076c0000 	strbeq	r0, [ip, -r0]!
     510:	00010000 	andeq	r0, r1, r0
     514:	00076c53 	andeq	r6, r7, r3, asr ip
     518:	00077400 	andeq	r7, r7, r0, lsl #8
     51c:	76000800 	strvc	r0, [r0], -r0, lsl #16
     520:	08019400 	stmdaeq	r1, {sl, ip, pc}
     524:	009f1aff 			; <UNDEFINED> instruction: 0x009f1aff
     528:	00000000 	andeq	r0, r0, r0
     52c:	01000000 	mrseq	r0, (UNDEF: 0)
     530:	00076000 	andeq	r6, r7, r0
     534:	00079b00 	andeq	r9, r7, r0, lsl #22
     538:	51000100 	mrspl	r0, (UNDEF: 16)
	...
     544:	07600000 	strbeq	r0, [r0, -r0]!
     548:	07940000 	ldreq	r0, [r4, r0]
     54c:	00010000 	andeq	r0, r1, r0
     550:	00000051 	andeq	r0, r0, r1, asr r0
     554:	00000000 	andeq	r0, r0, r0
     558:	00000300 	andeq	r0, r0, r0, lsl #6
     55c:	00076000 	andeq	r6, r7, r0
     560:	00076c00 	andeq	r6, r7, r0, lsl #24
     564:	53000100 	movwpl	r0, #256	; 0x100
     568:	0000076c 	andeq	r0, r0, ip, ror #14
     56c:	00000774 	andeq	r0, r0, r4, ror r7
     570:	00760008 	rsbseq	r0, r6, r8
     574:	ff080194 			; <UNDEFINED> instruction: 0xff080194
     578:	00009f1a 	andeq	r9, r0, sl, lsl pc
     57c:	00000000 	andeq	r0, r0, r0
     580:	00020000 	andeq	r0, r2, r0
     584:	00000774 	andeq	r0, r0, r4, ror r7
     588:	00000794 	muleq	r0, r4, r7
     58c:	b80a0004 	stmdalt	sl, {r2}
     590:	00009f88 	andeq	r9, r0, r8, lsl #31
     594:	00000000 	andeq	r0, r0, r0
     598:	00020000 	andeq	r0, r2, r0
     59c:	00000774 	andeq	r0, r0, r4, ror r7
     5a0:	00000794 	muleq	r0, r4, r7
     5a4:	00510001 	subseq	r0, r1, r1
	...
     5b0:	00078400 	andeq	r8, r7, r0, lsl #8
     5b4:	00078800 	andeq	r8, r7, r0, lsl #16
     5b8:	53000100 	movwpl	r0, #256	; 0x100
	...
     5d0:	000002e0 	andeq	r0, r0, r0, ror #5
     5d4:	e0500001 	subs	r0, r0, r1
     5d8:	04000002 	streq	r0, [r0], #-2
     5dc:	04000003 	streq	r0, [r0], #-3
     5e0:	5001f300 	andpl	pc, r1, r0, lsl #6
     5e4:	0003049f 	muleq	r3, pc, r4	; <UNPREDICTABLE>
     5e8:	0005e000 	andeq	lr, r5, r0
     5ec:	50000100 	andpl	r0, r0, r0, lsl #2
     5f0:	000005e0 	andeq	r0, r0, r0, ror #11
     5f4:	00000608 	andeq	r0, r0, r8, lsl #12
     5f8:	01f30004 	mvnseq	r0, r4
     5fc:	00009f50 	andeq	r9, r0, r0, asr pc
	...
     610:	02bc0000 	adcseq	r0, ip, #0, 0
     614:	00010000 	andeq	r0, r1, r0
     618:	0002bc51 	andeq	fp, r2, r1, asr ip
     61c:	00030400 	andeq	r0, r3, r0, lsl #8
     620:	f3000400 	vshl.u8	d0, d0, d0
     624:	049f5101 	ldreq	r5, [pc], #257	; 62c <__code_start__-0x79d4>
     628:	b8000003 	stmdalt	r0, {r0, r1}
     62c:	01000005 	tsteq	r0, r5
     630:	05b85100 	ldreq	r5, [r8, #256]!	; 0x100
     634:	06080000 	streq	r0, [r8], -r0
     638:	00040000 	andeq	r0, r4, r0
     63c:	9f5101f3 	svcls	0x005101f3
	...
     648:	00000002 	andeq	r0, r0, r2
     64c:	00000000 	andeq	r0, r0, r0
     650:	00000060 	andeq	r0, r0, r0, rrx
     654:	00710006 	rsbseq	r0, r1, r6
     658:	9f1a8008 	svcls	0x001a8008
     65c:	00000304 	andeq	r0, r0, r4, lsl #6
     660:	00000364 	andeq	r0, r0, r4, ror #6
     664:	00710006 	rsbseq	r0, r1, r6
     668:	9f1a8008 	svcls	0x001a8008
	...
     674:	00000002 	andeq	r0, r0, r2
     678:	00000000 	andeq	r0, r0, r0
     67c:	00000060 	andeq	r0, r0, r0, rrx
     680:	04500001 	ldrbeq	r0, [r0], #-1
     684:	64000003 	strvs	r0, [r0], #-3
     688:	01000003 	tsteq	r0, r3
     68c:	00005000 	andeq	r5, r0, r0
     690:	00000000 	andeq	r0, r0, r0
     694:	00010000 	andeq	r0, r1, r0
     698:	00000008 	andeq	r0, r0, r8
     69c:	00000030 	andeq	r0, r0, r0, lsr r0
     6a0:	00500001 	subseq	r0, r0, r1
     6a4:	00000000 	andeq	r0, r0, r0
     6a8:	03000000 	movweq	r0, #0
     6ac:	00000800 	andeq	r0, r0, r0, lsl #16
     6b0:	00003000 	andeq	r3, r0, r0
     6b4:	0a000400 	beq	16bc <__code_start__-0x6944>
     6b8:	009f0230 	addseq	r0, pc, r0, lsr r2	; <UNPREDICTABLE>
     6bc:	00000000 	andeq	r0, r0, r0
     6c0:	03000000 	movweq	r0, #0
     6c4:	00000800 	andeq	r0, r0, r0, lsl #16
     6c8:	00003000 	andeq	r3, r0, r0
     6cc:	50000100 	andpl	r0, r0, r0, lsl #2
	...
     6d8:	000c0001 	andeq	r0, ip, r1
     6dc:	00340000 	eorseq	r0, r4, r0
     6e0:	00010000 	andeq	r0, r1, r0
     6e4:	00000052 	andeq	r0, r0, r2, asr r0
     6e8:	00000000 	andeq	r0, r0, r0
     6ec:	0c000000 	stceq	0, cr0, [r0], {-0}
     6f0:	30000000 	andcc	r0, r0, r0
     6f4:	01000000 	mrseq	r0, (UNDEF: 0)
     6f8:	00005200 	andeq	r5, r0, r0, lsl #4
     6fc:	00000000 	andeq	r0, r0, r0
     700:	00030000 	andeq	r0, r3, r0
     704:	0000000c 	andeq	r0, r0, ip
     708:	00000020 	andeq	r0, r0, r0, lsr #32
     70c:	00500001 	subseq	r0, r0, r1
     710:	00000000 	andeq	r0, r0, r0
     714:	02000000 	andeq	r0, r0, #0, 0
     718:	00002000 	andeq	r2, r0, r0
     71c:	00003000 	andeq	r3, r0, r0
     720:	0a000400 	beq	1728 <__code_start__-0x68d8>
     724:	009f0230 	addseq	r0, pc, r0, lsr r2	; <UNPREDICTABLE>
     728:	00000000 	andeq	r0, r0, r0
     72c:	02000000 	andeq	r0, r0, #0, 0
     730:	00002000 	andeq	r2, r0, r0
     734:	00003000 	andeq	r3, r0, r0
     738:	52000100 	andpl	r0, r0, #0
	...
     744:	00240000 	eoreq	r0, r4, r0
     748:	00280000 	eoreq	r0, r8, r0
     74c:	00010000 	andeq	r0, r1, r0
     750:	00000053 	andeq	r0, r0, r3, asr r0
     754:	00000000 	andeq	r0, r0, r0
     758:	30000200 	andcc	r0, r0, r0, lsl #4
     75c:	60000000 	andvs	r0, r0, r0
     760:	01000000 	mrseq	r0, (UNDEF: 0)
     764:	00005000 	andeq	r5, r0, r0
     768:	00000000 	andeq	r0, r0, r0
     76c:	00040000 	andeq	r0, r4, r0
     770:	00000030 	andeq	r0, r0, r0, lsr r0
     774:	00000060 	andeq	r0, r0, r0, rrx
     778:	300a0004 	andcc	r0, sl, r4
     77c:	00009f02 	andeq	r9, r0, r2, lsl #30
     780:	00000000 	andeq	r0, r0, r0
     784:	00040000 	andeq	r0, r4, r0
     788:	00000030 	andeq	r0, r0, r0, lsr r0
     78c:	00000060 	andeq	r0, r0, r0, rrx
     790:	00500001 	subseq	r0, r0, r1
     794:	00000000 	andeq	r0, r0, r0
     798:	01000000 	mrseq	r0, (UNDEF: 0)
     79c:	00003400 	andeq	r3, r0, r0, lsl #8
     7a0:	00006000 	andeq	r6, r0, r0
     7a4:	52000100 	andpl	r0, r0, #0
	...
     7b0:	00340000 	eorseq	r0, r4, r0
     7b4:	00600000 	rsbeq	r0, r0, r0
     7b8:	00010000 	andeq	r0, r1, r0
     7bc:	00000052 	andeq	r0, r0, r2, asr r0
     7c0:	00000000 	andeq	r0, r0, r0
     7c4:	34000300 	strcc	r0, [r0], #-768	; 0xfffffd00
     7c8:	48000000 	stmdami	r0, {}	; <UNPREDICTABLE>
     7cc:	01000000 	mrseq	r0, (UNDEF: 0)
     7d0:	00005000 	andeq	r5, r0, r0
     7d4:	00000000 	andeq	r0, r0, r0
     7d8:	00020000 	andeq	r0, r2, r0
     7dc:	00000048 	andeq	r0, r0, r8, asr #32
     7e0:	00000060 	andeq	r0, r0, r0, rrx
     7e4:	300a0004 	andcc	r0, sl, r4
     7e8:	00009f02 	andeq	r9, r0, r2, lsl #30
     7ec:	00000000 	andeq	r0, r0, r0
     7f0:	00020000 	andeq	r0, r2, r0
     7f4:	00000048 	andeq	r0, r0, r8, asr #32
     7f8:	00000060 	andeq	r0, r0, r0, rrx
     7fc:	00520001 	subseq	r0, r2, r1
	...
     808:	00005400 	andeq	r5, r0, r0, lsl #8
     80c:	00005800 	andeq	r5, r0, r0, lsl #16
     810:	53000100 	movwpl	r0, #256	; 0x100
	...
     81c:	03040002 	movweq	r0, #16386	; 0x4002
     820:	03300000 	teqeq	r0, #0, 0
     824:	00010000 	andeq	r0, r1, r0
     828:	00000050 	andeq	r0, r0, r0, asr r0
     82c:	00000000 	andeq	r0, r0, r0
     830:	04000400 	streq	r0, [r0], #-1024	; 0xfffffc00
     834:	30000003 	andcc	r0, r0, r3
     838:	03000003 	movweq	r0, #3
     83c:	9faf0800 	svcls	0x00af0800
	...
     848:	03040004 	movweq	r0, #16388	; 0x4004
     84c:	03300000 	teqeq	r0, #0, 0
     850:	00010000 	andeq	r0, r1, r0
     854:	00000050 	andeq	r0, r0, r0, asr r0
     858:	00000000 	andeq	r0, r0, r0
     85c:	08000100 	stmdaeq	r0, {r8}
     860:	34000003 	strcc	r0, [r0], #-3
     864:	01000003 	tsteq	r0, r3
     868:	00005200 	andeq	r5, r0, r0, lsl #4
	...
     874:	00000308 	andeq	r0, r0, r8, lsl #6
     878:	00000330 	andeq	r0, r0, r0, lsr r3
     87c:	00520001 	subseq	r0, r2, r1
     880:	00000000 	andeq	r0, r0, r0
     884:	03000000 	movweq	r0, #0
     888:	00030800 	andeq	r0, r3, r0, lsl #16
     88c:	00031c00 	andeq	r1, r3, r0, lsl #24
     890:	50000100 	andpl	r0, r0, r0, lsl #2
	...
     89c:	031c0002 	tsteq	ip, #2, 0
     8a0:	03300000 	teqeq	r0, #0, 0
     8a4:	00030000 	andeq	r0, r3, r0
     8a8:	009faf08 	addseq	sl, pc, r8, lsl #30
     8ac:	00000000 	andeq	r0, r0, r0
     8b0:	02000000 	andeq	r0, r0, #0, 0
     8b4:	00031c00 	andeq	r1, r3, r0, lsl #24
     8b8:	00033000 	andeq	r3, r3, r0
     8bc:	52000100 	andpl	r0, r0, #0
	...
     8c8:	03240000 			; <UNDEFINED> instruction: 0x03240000
     8cc:	03280000 			; <UNDEFINED> instruction: 0x03280000
     8d0:	00010000 	andeq	r0, r1, r0
     8d4:	00000053 	andeq	r0, r0, r3, asr r0
     8d8:	00000000 	andeq	r0, r0, r0
     8dc:	30000200 	andcc	r0, r0, r0, lsl #4
     8e0:	64000003 	strvs	r0, [r0], #-3
     8e4:	01000003 	tsteq	r0, r3
     8e8:	00005000 	andeq	r5, r0, r0
     8ec:	00000000 	andeq	r0, r0, r0
     8f0:	00040000 	andeq	r0, r4, r0
     8f4:	00000330 	andeq	r0, r0, r0, lsr r3
     8f8:	00000364 	andeq	r0, r0, r4, ror #6
     8fc:	300a0004 	andcc	r0, sl, r4
     900:	00009f02 	andeq	r9, r0, r2, lsl #30
     904:	00000000 	andeq	r0, r0, r0
     908:	00040000 	andeq	r0, r4, r0
     90c:	00000330 	andeq	r0, r0, r0, lsr r3
     910:	00000364 	andeq	r0, r0, r4, ror #6
     914:	00500001 	subseq	r0, r0, r1
     918:	00000000 	andeq	r0, r0, r0
     91c:	01000000 	mrseq	r0, (UNDEF: 0)
     920:	00033400 	andeq	r3, r3, r0, lsl #8
     924:	00036400 	andeq	r6, r3, r0, lsl #8
     928:	52000100 	andpl	r0, r0, #0
	...
     934:	03340000 	teqeq	r4, #0, 0
     938:	03640000 	cmneq	r4, #0, 0
     93c:	00010000 	andeq	r0, r1, r0
     940:	00000052 	andeq	r0, r0, r2, asr r0
     944:	00000000 	andeq	r0, r0, r0
     948:	34000300 	strcc	r0, [r0], #-768	; 0xfffffd00
     94c:	48000003 	stmdami	r0, {r0, r1}
     950:	01000003 	tsteq	r0, r3
     954:	00005000 	andeq	r5, r0, r0
     958:	00000000 	andeq	r0, r0, r0
     95c:	00020000 	andeq	r0, r2, r0
     960:	00000348 	andeq	r0, r0, r8, asr #6
     964:	00000364 	andeq	r0, r0, r4, ror #6
     968:	300a0004 	andcc	r0, sl, r4
     96c:	00009f02 	andeq	r9, r0, r2, lsl #30
     970:	00000000 	andeq	r0, r0, r0
     974:	00020000 	andeq	r0, r2, r0
     978:	00000348 	andeq	r0, r0, r8, asr #6
     97c:	00000364 	andeq	r0, r0, r4, ror #6
     980:	00520001 	subseq	r0, r2, r1
	...
     98c:	00035400 	andeq	r5, r3, r0, lsl #8
     990:	00035800 	andeq	r5, r3, r0, lsl #16
     994:	53000100 	movwpl	r0, #256	; 0x100
	...
     9a0:	00000002 	andeq	r0, r0, r2
     9a4:	00000060 	andeq	r0, r0, r0, rrx
     9a8:	000000c0 	andeq	r0, r0, r0, asr #1
     9ac:	00710006 	rsbseq	r0, r1, r6
     9b0:	9f1a4008 	svcls	0x001a4008
     9b4:	00000364 	andeq	r0, r0, r4, ror #6
     9b8:	000003c4 	andeq	r0, r0, r4, asr #7
     9bc:	00710006 	rsbseq	r0, r1, r6
     9c0:	9f1a4008 	svcls	0x001a4008
	...
     9cc:	00000002 	andeq	r0, r0, r2
     9d0:	00000060 	andeq	r0, r0, r0, rrx
     9d4:	000000c0 	andeq	r0, r0, r0, asr #1
     9d8:	64500001 	ldrbvs	r0, [r0], #-1
     9dc:	c4000003 	strgt	r0, [r0], #-3
     9e0:	01000003 	tsteq	r0, r3
     9e4:	00005000 	andeq	r5, r0, r0
     9e8:	00000000 	andeq	r0, r0, r0
     9ec:	00010000 	andeq	r0, r1, r0
     9f0:	00000068 	andeq	r0, r0, r8, rrx
     9f4:	00000090 	muleq	r0, r0, r0
     9f8:	00500001 	subseq	r0, r0, r1
     9fc:	00000000 	andeq	r0, r0, r0
     a00:	03000000 	movweq	r0, #0
     a04:	00006800 	andeq	r6, r0, r0, lsl #16
     a08:	00009000 	andeq	r9, r0, r0
     a0c:	0a000400 	beq	1a14 <__code_start__-0x65ec>
     a10:	009f0230 	addseq	r0, pc, r0, lsr r2	; <UNPREDICTABLE>
     a14:	00000000 	andeq	r0, r0, r0
     a18:	03000000 	movweq	r0, #0
     a1c:	00006800 	andeq	r6, r0, r0, lsl #16
     a20:	00009000 	andeq	r9, r0, r0
     a24:	50000100 	andpl	r0, r0, r0, lsl #2
	...
     a30:	006c0001 	rsbeq	r0, ip, r1
     a34:	00940000 	addseq	r0, r4, r0
     a38:	00010000 	andeq	r0, r1, r0
     a3c:	00000052 	andeq	r0, r0, r2, asr r0
     a40:	00000000 	andeq	r0, r0, r0
     a44:	6c000000 	stcvs	0, cr0, [r0], {-0}
     a48:	90000000 	andls	r0, r0, r0
     a4c:	01000000 	mrseq	r0, (UNDEF: 0)
     a50:	00005200 	andeq	r5, r0, r0, lsl #4
     a54:	00000000 	andeq	r0, r0, r0
     a58:	00030000 	andeq	r0, r3, r0
     a5c:	0000006c 	andeq	r0, r0, ip, rrx
     a60:	00000080 	andeq	r0, r0, r0, lsl #1
     a64:	00500001 	subseq	r0, r0, r1
     a68:	00000000 	andeq	r0, r0, r0
     a6c:	02000000 	andeq	r0, r0, #0, 0
     a70:	00008000 	andeq	r8, r0, r0
     a74:	00009000 	andeq	r9, r0, r0
     a78:	0a000400 	beq	1a80 <__code_start__-0x6580>
     a7c:	009f0230 	addseq	r0, pc, r0, lsr r2	; <UNPREDICTABLE>
     a80:	00000000 	andeq	r0, r0, r0
     a84:	02000000 	andeq	r0, r0, #0, 0
     a88:	00008000 	andeq	r8, r0, r0
     a8c:	00009000 	andeq	r9, r0, r0
     a90:	52000100 	andpl	r0, r0, #0
	...
     a9c:	00840000 	addeq	r0, r4, r0
     aa0:	00880000 	addeq	r0, r8, r0
     aa4:	00010000 	andeq	r0, r1, r0
     aa8:	00000053 	andeq	r0, r0, r3, asr r0
     aac:	00000000 	andeq	r0, r0, r0
     ab0:	90000200 	andls	r0, r0, r0, lsl #4
     ab4:	c0000000 	andgt	r0, r0, r0
     ab8:	01000000 	mrseq	r0, (UNDEF: 0)
     abc:	00005000 	andeq	r5, r0, r0
     ac0:	00000000 	andeq	r0, r0, r0
     ac4:	00040000 	andeq	r0, r4, r0
     ac8:	00000090 	muleq	r0, r0, r0
     acc:	000000c0 	andeq	r0, r0, r0, asr #1
     ad0:	300a0004 	andcc	r0, sl, r4
     ad4:	00009f02 	andeq	r9, r0, r2, lsl #30
     ad8:	00000000 	andeq	r0, r0, r0
     adc:	00040000 	andeq	r0, r4, r0
     ae0:	00000090 	muleq	r0, r0, r0
     ae4:	000000c0 	andeq	r0, r0, r0, asr #1
     ae8:	00500001 	subseq	r0, r0, r1
     aec:	00000000 	andeq	r0, r0, r0
     af0:	01000000 	mrseq	r0, (UNDEF: 0)
     af4:	00009400 	andeq	r9, r0, r0, lsl #8
     af8:	0000c000 	andeq	ip, r0, r0
     afc:	52000100 	andpl	r0, r0, #0
	...
     b08:	00940000 	addseq	r0, r4, r0
     b0c:	00c00000 	sbceq	r0, r0, r0
     b10:	00010000 	andeq	r0, r1, r0
     b14:	00000052 	andeq	r0, r0, r2, asr r0
     b18:	00000000 	andeq	r0, r0, r0
     b1c:	94000300 	strls	r0, [r0], #-768	; 0xfffffd00
     b20:	a8000000 	stmdage	r0, {}	; <UNPREDICTABLE>
     b24:	01000000 	mrseq	r0, (UNDEF: 0)
     b28:	00005000 	andeq	r5, r0, r0
     b2c:	00000000 	andeq	r0, r0, r0
     b30:	00020000 	andeq	r0, r2, r0
     b34:	000000a8 	andeq	r0, r0, r8, lsr #1
     b38:	000000c0 	andeq	r0, r0, r0, asr #1
     b3c:	300a0004 	andcc	r0, sl, r4
     b40:	00009f02 	andeq	r9, r0, r2, lsl #30
     b44:	00000000 	andeq	r0, r0, r0
     b48:	00020000 	andeq	r0, r2, r0
     b4c:	000000a8 	andeq	r0, r0, r8, lsr #1
     b50:	000000c0 	andeq	r0, r0, r0, asr #1
     b54:	00520001 	subseq	r0, r2, r1
	...
     b60:	0000b400 	andeq	fp, r0, r0, lsl #8
     b64:	0000b800 	andeq	fp, r0, r0, lsl #16
     b68:	53000100 	movwpl	r0, #256	; 0x100
	...
     b74:	03640002 	cmneq	r4, #2, 0
     b78:	03900000 	orrseq	r0, r0, #0, 0
     b7c:	00010000 	andeq	r0, r1, r0
     b80:	00000050 	andeq	r0, r0, r0, asr r0
     b84:	00000000 	andeq	r0, r0, r0
     b88:	64000400 	strvs	r0, [r0], #-1024	; 0xfffffc00
     b8c:	90000003 	andls	r0, r0, r3
     b90:	03000003 	movweq	r0, #3
     b94:	9faf0800 	svcls	0x00af0800
	...
     ba0:	03640004 	cmneq	r4, #4, 0
     ba4:	03900000 	orrseq	r0, r0, #0, 0
     ba8:	00010000 	andeq	r0, r1, r0
     bac:	00000050 	andeq	r0, r0, r0, asr r0
     bb0:	00000000 	andeq	r0, r0, r0
     bb4:	68000100 	stmdavs	r0, {r8}
     bb8:	94000003 	strls	r0, [r0], #-3
     bbc:	01000003 	tsteq	r0, r3
     bc0:	00005200 	andeq	r5, r0, r0, lsl #4
	...
     bcc:	00000368 	andeq	r0, r0, r8, ror #6
     bd0:	00000390 	muleq	r0, r0, r3
     bd4:	00520001 	subseq	r0, r2, r1
     bd8:	00000000 	andeq	r0, r0, r0
     bdc:	03000000 	movweq	r0, #0
     be0:	00036800 	andeq	r6, r3, r0, lsl #16
     be4:	00037c00 	andeq	r7, r3, r0, lsl #24
     be8:	50000100 	andpl	r0, r0, r0, lsl #2
	...
     bf4:	037c0002 	cmneq	ip, #2, 0
     bf8:	03900000 	orrseq	r0, r0, #0, 0
     bfc:	00030000 	andeq	r0, r3, r0
     c00:	009faf08 	addseq	sl, pc, r8, lsl #30
     c04:	00000000 	andeq	r0, r0, r0
     c08:	02000000 	andeq	r0, r0, #0, 0
     c0c:	00037c00 	andeq	r7, r3, r0, lsl #24
     c10:	00039000 	andeq	r9, r3, r0
     c14:	52000100 	andpl	r0, r0, #0
	...
     c20:	03840000 	orreq	r0, r4, #0, 0
     c24:	03880000 	orreq	r0, r8, #0, 0
     c28:	00010000 	andeq	r0, r1, r0
     c2c:	00000053 	andeq	r0, r0, r3, asr r0
     c30:	00000000 	andeq	r0, r0, r0
     c34:	90000200 	andls	r0, r0, r0, lsl #4
     c38:	c4000003 	strgt	r0, [r0], #-3
     c3c:	01000003 	tsteq	r0, r3
     c40:	00005000 	andeq	r5, r0, r0
     c44:	00000000 	andeq	r0, r0, r0
     c48:	00040000 	andeq	r0, r4, r0
     c4c:	00000390 	muleq	r0, r0, r3
     c50:	000003c4 	andeq	r0, r0, r4, asr #7
     c54:	300a0004 	andcc	r0, sl, r4
     c58:	00009f02 	andeq	r9, r0, r2, lsl #30
     c5c:	00000000 	andeq	r0, r0, r0
     c60:	00040000 	andeq	r0, r4, r0
     c64:	00000390 	muleq	r0, r0, r3
     c68:	000003c4 	andeq	r0, r0, r4, asr #7
     c6c:	00500001 	subseq	r0, r0, r1
     c70:	00000000 	andeq	r0, r0, r0
     c74:	01000000 	mrseq	r0, (UNDEF: 0)
     c78:	00039400 	andeq	r9, r3, r0, lsl #8
     c7c:	0003c400 	andeq	ip, r3, r0, lsl #8
     c80:	52000100 	andpl	r0, r0, #0
	...
     c8c:	03940000 	orrseq	r0, r4, #0, 0
     c90:	03c40000 	biceq	r0, r4, #0, 0
     c94:	00010000 	andeq	r0, r1, r0
     c98:	00000052 	andeq	r0, r0, r2, asr r0
     c9c:	00000000 	andeq	r0, r0, r0
     ca0:	94000300 	strls	r0, [r0], #-768	; 0xfffffd00
     ca4:	a8000003 	stmdage	r0, {r0, r1}
     ca8:	01000003 	tsteq	r0, r3
     cac:	00005000 	andeq	r5, r0, r0
     cb0:	00000000 	andeq	r0, r0, r0
     cb4:	00020000 	andeq	r0, r2, r0
     cb8:	000003a8 	andeq	r0, r0, r8, lsr #7
     cbc:	000003c4 	andeq	r0, r0, r4, asr #7
     cc0:	300a0004 	andcc	r0, sl, r4
     cc4:	00009f02 	andeq	r9, r0, r2, lsl #30
     cc8:	00000000 	andeq	r0, r0, r0
     ccc:	00020000 	andeq	r0, r2, r0
     cd0:	000003a8 	andeq	r0, r0, r8, lsr #7
     cd4:	000003c4 	andeq	r0, r0, r4, asr #7
     cd8:	00520001 	subseq	r0, r2, r1
	...
     ce4:	0003b400 	andeq	fp, r3, r0, lsl #8
     ce8:	0003b800 	andeq	fp, r3, r0, lsl #16
     cec:	53000100 	movwpl	r0, #256	; 0x100
	...
     cf8:	00000002 	andeq	r0, r0, r2
     cfc:	000000c0 	andeq	r0, r0, r0, asr #1
     d00:	00000120 	andeq	r0, r0, r0, lsr #2
     d04:	00710006 	rsbseq	r0, r1, r6
     d08:	9f1a2008 	svcls	0x001a2008
     d0c:	000003c4 	andeq	r0, r0, r4, asr #7
     d10:	00000424 	andeq	r0, r0, r4, lsr #8
     d14:	00710006 	rsbseq	r0, r1, r6
     d18:	9f1a2008 	svcls	0x001a2008
	...
     d24:	00000002 	andeq	r0, r0, r2
     d28:	000000c0 	andeq	r0, r0, r0, asr #1
     d2c:	00000120 	andeq	r0, r0, r0, lsr #2
     d30:	c4500001 	ldrbgt	r0, [r0], #-1
     d34:	24000003 	strcs	r0, [r0], #-3
     d38:	01000004 	tsteq	r0, r4
     d3c:	00005000 	andeq	r5, r0, r0
     d40:	00000000 	andeq	r0, r0, r0
     d44:	00010000 	andeq	r0, r1, r0
     d48:	000000c8 	andeq	r0, r0, r8, asr #1
     d4c:	000000f0 	strdeq	r0, [r0], -r0	; <UNPREDICTABLE>
     d50:	00500001 	subseq	r0, r0, r1
     d54:	00000000 	andeq	r0, r0, r0
     d58:	03000000 	movweq	r0, #0
     d5c:	0000c800 	andeq	ip, r0, r0, lsl #16
     d60:	0000f000 	andeq	pc, r0, r0
     d64:	0a000400 	beq	1d6c <__code_start__-0x6294>
     d68:	009f0230 	addseq	r0, pc, r0, lsr r2	; <UNPREDICTABLE>
     d6c:	00000000 	andeq	r0, r0, r0
     d70:	03000000 	movweq	r0, #0
     d74:	0000c800 	andeq	ip, r0, r0, lsl #16
     d78:	0000f000 	andeq	pc, r0, r0
     d7c:	50000100 	andpl	r0, r0, r0, lsl #2
	...
     d88:	00cc0001 	sbceq	r0, ip, r1
     d8c:	00f40000 	rscseq	r0, r4, r0
     d90:	00010000 	andeq	r0, r1, r0
     d94:	00000052 	andeq	r0, r0, r2, asr r0
     d98:	00000000 	andeq	r0, r0, r0
     d9c:	cc000000 	stcgt	0, cr0, [r0], {-0}
     da0:	f0000000 			; <UNDEFINED> instruction: 0xf0000000
     da4:	01000000 	mrseq	r0, (UNDEF: 0)
     da8:	00005200 	andeq	r5, r0, r0, lsl #4
     dac:	00000000 	andeq	r0, r0, r0
     db0:	00030000 	andeq	r0, r3, r0
     db4:	000000cc 	andeq	r0, r0, ip, asr #1
     db8:	000000e0 	andeq	r0, r0, r0, ror #1
     dbc:	00500001 	subseq	r0, r0, r1
     dc0:	00000000 	andeq	r0, r0, r0
     dc4:	02000000 	andeq	r0, r0, #0, 0
     dc8:	0000e000 	andeq	lr, r0, r0
     dcc:	0000f000 	andeq	pc, r0, r0
     dd0:	0a000400 	beq	1dd8 <__code_start__-0x6228>
     dd4:	009f0230 	addseq	r0, pc, r0, lsr r2	; <UNPREDICTABLE>
     dd8:	00000000 	andeq	r0, r0, r0
     ddc:	02000000 	andeq	r0, r0, #0, 0
     de0:	0000e000 	andeq	lr, r0, r0
     de4:	0000f000 	andeq	pc, r0, r0
     de8:	52000100 	andpl	r0, r0, #0
	...
     df4:	00e40000 	rsceq	r0, r4, r0
     df8:	00e80000 	rsceq	r0, r8, r0
     dfc:	00010000 	andeq	r0, r1, r0
     e00:	00000053 	andeq	r0, r0, r3, asr r0
     e04:	00000000 	andeq	r0, r0, r0
     e08:	f0000200 			; <UNDEFINED> instruction: 0xf0000200
     e0c:	20000000 	andcs	r0, r0, r0
     e10:	01000001 	tsteq	r0, r1
     e14:	00005000 	andeq	r5, r0, r0
     e18:	00000000 	andeq	r0, r0, r0
     e1c:	00040000 	andeq	r0, r4, r0
     e20:	000000f0 	strdeq	r0, [r0], -r0	; <UNPREDICTABLE>
     e24:	00000120 	andeq	r0, r0, r0, lsr #2
     e28:	300a0004 	andcc	r0, sl, r4
     e2c:	00009f02 	andeq	r9, r0, r2, lsl #30
     e30:	00000000 	andeq	r0, r0, r0
     e34:	00040000 	andeq	r0, r4, r0
     e38:	000000f0 	strdeq	r0, [r0], -r0	; <UNPREDICTABLE>
     e3c:	00000120 	andeq	r0, r0, r0, lsr #2
     e40:	00500001 	subseq	r0, r0, r1
     e44:	00000000 	andeq	r0, r0, r0
     e48:	01000000 	mrseq	r0, (UNDEF: 0)
     e4c:	0000f400 	andeq	pc, r0, r0, lsl #8
     e50:	00012000 	andeq	r2, r1, r0
     e54:	52000100 	andpl	r0, r0, #0
	...
     e60:	00f40000 	rscseq	r0, r4, r0
     e64:	01200000 			; <UNDEFINED> instruction: 0x01200000
     e68:	00010000 	andeq	r0, r1, r0
     e6c:	00000052 	andeq	r0, r0, r2, asr r0
     e70:	00000000 	andeq	r0, r0, r0
     e74:	f4000300 	vst2.8	{d0-d3}, [r0], r0
     e78:	08000000 	stmdaeq	r0, {}	; <UNPREDICTABLE>
     e7c:	01000001 	tsteq	r0, r1
     e80:	00005000 	andeq	r5, r0, r0
     e84:	00000000 	andeq	r0, r0, r0
     e88:	00020000 	andeq	r0, r2, r0
     e8c:	00000108 	andeq	r0, r0, r8, lsl #2
     e90:	00000120 	andeq	r0, r0, r0, lsr #2
     e94:	300a0004 	andcc	r0, sl, r4
     e98:	00009f02 	andeq	r9, r0, r2, lsl #30
     e9c:	00000000 	andeq	r0, r0, r0
     ea0:	00020000 	andeq	r0, r2, r0
     ea4:	00000108 	andeq	r0, r0, r8, lsl #2
     ea8:	00000120 	andeq	r0, r0, r0, lsr #2
     eac:	00520001 	subseq	r0, r2, r1
	...
     eb8:	00011400 	andeq	r1, r1, r0, lsl #8
     ebc:	00011800 	andeq	r1, r1, r0, lsl #16
     ec0:	53000100 	movwpl	r0, #256	; 0x100
	...
     ecc:	03c40002 	biceq	r0, r4, #2, 0
     ed0:	03f00000 	mvnseq	r0, #0, 0
     ed4:	00010000 	andeq	r0, r1, r0
     ed8:	00000050 	andeq	r0, r0, r0, asr r0
     edc:	00000000 	andeq	r0, r0, r0
     ee0:	c4000400 	strgt	r0, [r0], #-1024	; 0xfffffc00
     ee4:	f0000003 			; <UNDEFINED> instruction: 0xf0000003
     ee8:	03000003 	movweq	r0, #3
     eec:	9faf0800 	svcls	0x00af0800
	...
     ef8:	03c40004 	biceq	r0, r4, #4, 0
     efc:	03f00000 	mvnseq	r0, #0, 0
     f00:	00010000 	andeq	r0, r1, r0
     f04:	00000050 	andeq	r0, r0, r0, asr r0
     f08:	00000000 	andeq	r0, r0, r0
     f0c:	c8000100 	stmdagt	r0, {r8}
     f10:	f4000003 	vst4.8	{d0-d3}, [r0], r3
     f14:	01000003 	tsteq	r0, r3
     f18:	00005200 	andeq	r5, r0, r0, lsl #4
	...
     f24:	000003c8 	andeq	r0, r0, r8, asr #7
     f28:	000003f0 	strdeq	r0, [r0], -r0	; <UNPREDICTABLE>
     f2c:	00520001 	subseq	r0, r2, r1
     f30:	00000000 	andeq	r0, r0, r0
     f34:	03000000 	movweq	r0, #0
     f38:	0003c800 	andeq	ip, r3, r0, lsl #16
     f3c:	0003dc00 	andeq	sp, r3, r0, lsl #24
     f40:	50000100 	andpl	r0, r0, r0, lsl #2
	...
     f4c:	03dc0002 	bicseq	r0, ip, #2, 0
     f50:	03f00000 	mvnseq	r0, #0, 0
     f54:	00030000 	andeq	r0, r3, r0
     f58:	009faf08 	addseq	sl, pc, r8, lsl #30
     f5c:	00000000 	andeq	r0, r0, r0
     f60:	02000000 	andeq	r0, r0, #0, 0
     f64:	0003dc00 	andeq	sp, r3, r0, lsl #24
     f68:	0003f000 	andeq	pc, r3, r0
     f6c:	52000100 	andpl	r0, r0, #0
	...
     f78:	03e40000 	mvneq	r0, #0, 0
     f7c:	03e80000 	mvneq	r0, #0, 0
     f80:	00010000 	andeq	r0, r1, r0
     f84:	00000053 	andeq	r0, r0, r3, asr r0
     f88:	00000000 	andeq	r0, r0, r0
     f8c:	f0000200 			; <UNDEFINED> instruction: 0xf0000200
     f90:	24000003 	strcs	r0, [r0], #-3
     f94:	01000004 	tsteq	r0, r4
     f98:	00005000 	andeq	r5, r0, r0
     f9c:	00000000 	andeq	r0, r0, r0
     fa0:	00040000 	andeq	r0, r4, r0
     fa4:	000003f0 	strdeq	r0, [r0], -r0	; <UNPREDICTABLE>
     fa8:	00000424 	andeq	r0, r0, r4, lsr #8
     fac:	300a0004 	andcc	r0, sl, r4
     fb0:	00009f02 	andeq	r9, r0, r2, lsl #30
     fb4:	00000000 	andeq	r0, r0, r0
     fb8:	00040000 	andeq	r0, r4, r0
     fbc:	000003f0 	strdeq	r0, [r0], -r0	; <UNPREDICTABLE>
     fc0:	00000424 	andeq	r0, r0, r4, lsr #8
     fc4:	00500001 	subseq	r0, r0, r1
     fc8:	00000000 	andeq	r0, r0, r0
     fcc:	01000000 	mrseq	r0, (UNDEF: 0)
     fd0:	0003f400 	andeq	pc, r3, r0, lsl #8
     fd4:	00042400 	andeq	r2, r4, r0, lsl #8
     fd8:	52000100 	andpl	r0, r0, #0
	...
     fe4:	03f40000 	mvnseq	r0, #0, 0
     fe8:	04240000 	strteq	r0, [r4], #-0
     fec:	00010000 	andeq	r0, r1, r0
     ff0:	00000052 	andeq	r0, r0, r2, asr r0
     ff4:	00000000 	andeq	r0, r0, r0
     ff8:	f4000300 	vst2.8	{d0-d3}, [r0], r0
     ffc:	08000003 	stmdaeq	r0, {r0, r1}
    1000:	01000004 	tsteq	r0, r4
    1004:	00005000 	andeq	r5, r0, r0
    1008:	00000000 	andeq	r0, r0, r0
    100c:	00020000 	andeq	r0, r2, r0
    1010:	00000408 	andeq	r0, r0, r8, lsl #8
    1014:	00000424 	andeq	r0, r0, r4, lsr #8
    1018:	300a0004 	andcc	r0, sl, r4
    101c:	00009f02 	andeq	r9, r0, r2, lsl #30
    1020:	00000000 	andeq	r0, r0, r0
    1024:	00020000 	andeq	r0, r2, r0
    1028:	00000408 	andeq	r0, r0, r8, lsl #8
    102c:	00000424 	andeq	r0, r0, r4, lsr #8
    1030:	00520001 	subseq	r0, r2, r1
	...
    103c:	00041400 	andeq	r1, r4, r0, lsl #8
    1040:	00041800 	andeq	r1, r4, r0, lsl #16
    1044:	53000100 	movwpl	r0, #256	; 0x100
	...
    1050:	00000002 	andeq	r0, r0, r2
    1054:	00000120 	andeq	r0, r0, r0, lsr #2
    1058:	00000180 	andeq	r0, r0, r0, lsl #3
    105c:	00710005 	rsbseq	r0, r1, r5
    1060:	249f1a40 	ldrcs	r1, [pc], #2624	; 1068 <__code_start__-0x6f98>
    1064:	84000004 	strhi	r0, [r0], #-4
    1068:	05000004 	streq	r0, [r0, #-4]
    106c:	40007100 	andmi	r7, r0, r0, lsl #2
    1070:	00009f1a 	andeq	r9, r0, sl, lsl pc
    1074:	00000000 	andeq	r0, r0, r0
    1078:	00020000 	andeq	r0, r2, r0
    107c:	01200000 			; <UNDEFINED> instruction: 0x01200000
    1080:	01800000 	orreq	r0, r0, r0
    1084:	00010000 	andeq	r0, r1, r0
    1088:	00042450 	andeq	r2, r4, r0, asr r4
    108c:	00048400 	andeq	r8, r4, r0, lsl #8
    1090:	50000100 	andpl	r0, r0, r0, lsl #2
	...
    109c:	01280001 			; <UNDEFINED> instruction: 0x01280001
    10a0:	01500000 	cmpeq	r0, r0
    10a4:	00010000 	andeq	r0, r1, r0
    10a8:	00000050 	andeq	r0, r0, r0, asr r0
    10ac:	00000000 	andeq	r0, r0, r0
    10b0:	28000300 	stmdacs	r0, {r8, r9}
    10b4:	50000001 	andpl	r0, r0, r1
    10b8:	04000001 	streq	r0, [r0], #-1
    10bc:	02300a00 	eorseq	r0, r0, #0, 20
    10c0:	0000009f 	muleq	r0, pc, r0	; <UNPREDICTABLE>
    10c4:	00000000 	andeq	r0, r0, r0
    10c8:	28000300 	stmdacs	r0, {r8, r9}
    10cc:	50000001 	andpl	r0, r0, r1
    10d0:	01000001 	tsteq	r0, r1
    10d4:	00005000 	andeq	r5, r0, r0
    10d8:	00000000 	andeq	r0, r0, r0
    10dc:	00010000 	andeq	r0, r1, r0
    10e0:	0000012c 	andeq	r0, r0, ip, lsr #2
    10e4:	00000154 	andeq	r0, r0, r4, asr r1
    10e8:	00520001 	subseq	r0, r2, r1
	...
    10f4:	00012c00 	andeq	r2, r1, r0, lsl #24
    10f8:	00015000 	andeq	r5, r1, r0
    10fc:	52000100 	andpl	r0, r0, #0
	...
    1108:	012c0003 			; <UNDEFINED> instruction: 0x012c0003
    110c:	01400000 	mrseq	r0, (UNDEF: 64)
    1110:	00010000 	andeq	r0, r1, r0
    1114:	00000050 	andeq	r0, r0, r0, asr r0
    1118:	00000000 	andeq	r0, r0, r0
    111c:	40000200 	andmi	r0, r0, r0, lsl #4
    1120:	50000001 	andpl	r0, r0, r1
    1124:	04000001 	streq	r0, [r0], #-1
    1128:	02300a00 	eorseq	r0, r0, #0, 20
    112c:	0000009f 	muleq	r0, pc, r0	; <UNPREDICTABLE>
    1130:	00000000 	andeq	r0, r0, r0
    1134:	40000200 	andmi	r0, r0, r0, lsl #4
    1138:	50000001 	andpl	r0, r0, r1
    113c:	01000001 	tsteq	r0, r1
    1140:	00005200 	andeq	r5, r0, r0, lsl #4
	...
    114c:	00000144 	andeq	r0, r0, r4, asr #2
    1150:	00000148 	andeq	r0, r0, r8, asr #2
    1154:	00530001 	subseq	r0, r3, r1
    1158:	00000000 	andeq	r0, r0, r0
    115c:	02000000 	andeq	r0, r0, #0, 0
    1160:	00015000 	andeq	r5, r1, r0
    1164:	00018000 	andeq	r8, r1, r0
    1168:	50000100 	andpl	r0, r0, r0, lsl #2
	...
    1174:	01500004 	cmpeq	r0, r4
    1178:	01800000 	orreq	r0, r0, r0
    117c:	00040000 	andeq	r0, r4, r0
    1180:	9f02300a 	svcls	0x0002300a
	...
    118c:	01500004 	cmpeq	r0, r4
    1190:	01800000 	orreq	r0, r0, r0
    1194:	00010000 	andeq	r0, r1, r0
    1198:	00000050 	andeq	r0, r0, r0, asr r0
    119c:	00000000 	andeq	r0, r0, r0
    11a0:	54000100 	strpl	r0, [r0], #-256	; 0xffffff00
    11a4:	80000001 	andhi	r0, r0, r1
    11a8:	01000001 	tsteq	r0, r1
    11ac:	00005200 	andeq	r5, r0, r0, lsl #4
	...
    11b8:	00000154 	andeq	r0, r0, r4, asr r1
    11bc:	00000180 	andeq	r0, r0, r0, lsl #3
    11c0:	00520001 	subseq	r0, r2, r1
    11c4:	00000000 	andeq	r0, r0, r0
    11c8:	03000000 	movweq	r0, #0
    11cc:	00015400 	andeq	r5, r1, r0, lsl #8
    11d0:	00016800 	andeq	r6, r1, r0, lsl #16
    11d4:	50000100 	andpl	r0, r0, r0, lsl #2
	...
    11e0:	01680002 	cmneq	r8, r2
    11e4:	01800000 	orreq	r0, r0, r0
    11e8:	00040000 	andeq	r0, r4, r0
    11ec:	9f02300a 	svcls	0x0002300a
	...
    11f8:	01680002 	cmneq	r8, r2
    11fc:	01800000 	orreq	r0, r0, r0
    1200:	00010000 	andeq	r0, r1, r0
    1204:	00000052 	andeq	r0, r0, r2, asr r0
    1208:	00000000 	andeq	r0, r0, r0
    120c:	74000000 	strvc	r0, [r0], #-0
    1210:	78000001 	stmdavc	r0, {r0}
    1214:	01000001 	tsteq	r0, r1
    1218:	00005300 	andeq	r5, r0, r0, lsl #6
    121c:	00000000 	andeq	r0, r0, r0
    1220:	00020000 	andeq	r0, r2, r0
    1224:	00000424 	andeq	r0, r0, r4, lsr #8
    1228:	00000450 	andeq	r0, r0, r0, asr r4
    122c:	00500001 	subseq	r0, r0, r1
    1230:	00000000 	andeq	r0, r0, r0
    1234:	04000000 	streq	r0, [r0], #-0
    1238:	00042400 	andeq	r2, r4, r0, lsl #8
    123c:	00045000 	andeq	r5, r4, r0
    1240:	08000300 	stmdaeq	r0, {r8, r9}
    1244:	00009faf 	andeq	r9, r0, pc, lsr #31
    1248:	00000000 	andeq	r0, r0, r0
    124c:	00040000 	andeq	r0, r4, r0
    1250:	00000424 	andeq	r0, r0, r4, lsr #8
    1254:	00000450 	andeq	r0, r0, r0, asr r4
    1258:	00500001 	subseq	r0, r0, r1
    125c:	00000000 	andeq	r0, r0, r0
    1260:	01000000 	mrseq	r0, (UNDEF: 0)
    1264:	00042800 	andeq	r2, r4, r0, lsl #16
    1268:	00045400 	andeq	r5, r4, r0, lsl #8
    126c:	52000100 	andpl	r0, r0, #0
	...
    1278:	04280000 	strteq	r0, [r8], #-0
    127c:	04500000 	ldrbeq	r0, [r0], #-0
    1280:	00010000 	andeq	r0, r1, r0
    1284:	00000052 	andeq	r0, r0, r2, asr r0
    1288:	00000000 	andeq	r0, r0, r0
    128c:	28000300 	stmdacs	r0, {r8, r9}
    1290:	3c000004 	stccc	0, cr0, [r0], {4}
    1294:	01000004 	tsteq	r0, r4
    1298:	00005000 	andeq	r5, r0, r0
    129c:	00000000 	andeq	r0, r0, r0
    12a0:	00020000 	andeq	r0, r2, r0
    12a4:	0000043c 	andeq	r0, r0, ip, lsr r4
    12a8:	00000450 	andeq	r0, r0, r0, asr r4
    12ac:	af080003 	svcge	0x00080003
    12b0:	0000009f 	muleq	r0, pc, r0	; <UNPREDICTABLE>
    12b4:	00000000 	andeq	r0, r0, r0
    12b8:	3c000200 	sfmcc	f0, 4, [r0], {-0}
    12bc:	50000004 	andpl	r0, r0, r4
    12c0:	01000004 	tsteq	r0, r4
    12c4:	00005200 	andeq	r5, r0, r0, lsl #4
	...
    12d0:	00000444 	andeq	r0, r0, r4, asr #8
    12d4:	00000448 	andeq	r0, r0, r8, asr #8
    12d8:	00530001 	subseq	r0, r3, r1
    12dc:	00000000 	andeq	r0, r0, r0
    12e0:	02000000 	andeq	r0, r0, #0, 0
    12e4:	00045000 	andeq	r5, r4, r0
    12e8:	00048400 	andeq	r8, r4, r0, lsl #8
    12ec:	50000100 	andpl	r0, r0, r0, lsl #2
	...
    12f8:	04500004 	ldrbeq	r0, [r0], #-4
    12fc:	04840000 	streq	r0, [r4], #0
    1300:	00040000 	andeq	r0, r4, r0
    1304:	9f02300a 	svcls	0x0002300a
	...
    1310:	04500004 	ldrbeq	r0, [r0], #-4
    1314:	04840000 	streq	r0, [r4], #0
    1318:	00010000 	andeq	r0, r1, r0
    131c:	00000050 	andeq	r0, r0, r0, asr r0
    1320:	00000000 	andeq	r0, r0, r0
    1324:	54000100 	strpl	r0, [r0], #-256	; 0xffffff00
    1328:	84000004 	strhi	r0, [r0], #-4
    132c:	01000004 	tsteq	r0, r4
    1330:	00005200 	andeq	r5, r0, r0, lsl #4
	...
    133c:	00000454 	andeq	r0, r0, r4, asr r4
    1340:	00000484 	andeq	r0, r0, r4, lsl #9
    1344:	00520001 	subseq	r0, r2, r1
    1348:	00000000 	andeq	r0, r0, r0
    134c:	03000000 	movweq	r0, #0
    1350:	00045400 	andeq	r5, r4, r0, lsl #8
    1354:	00046800 	andeq	r6, r4, r0, lsl #16
    1358:	50000100 	andpl	r0, r0, r0, lsl #2
	...
    1364:	04680002 	strbteq	r0, [r8], #-2
    1368:	04840000 	streq	r0, [r4], #0
    136c:	00040000 	andeq	r0, r4, r0
    1370:	9f02300a 	svcls	0x0002300a
	...
    137c:	04680002 	strbteq	r0, [r8], #-2
    1380:	04840000 	streq	r0, [r4], #0
    1384:	00010000 	andeq	r0, r1, r0
    1388:	00000052 	andeq	r0, r0, r2, asr r0
    138c:	00000000 	andeq	r0, r0, r0
    1390:	74000000 	strvc	r0, [r0], #-0
    1394:	78000004 	stmdavc	r0, {r2}
    1398:	01000004 	tsteq	r0, r4
    139c:	00005300 	andeq	r5, r0, r0, lsl #6
    13a0:	00000000 	andeq	r0, r0, r0
    13a4:	00020000 	andeq	r0, r2, r0
    13a8:	01800000 	orreq	r0, r0, r0
    13ac:	01e00000 	mvneq	r0, r0
    13b0:	00050000 	andeq	r0, r5, r0
    13b4:	1a380071 	bne	e01580 <__bss_end__+0xdf6f68>
    13b8:	0004849f 	muleq	r4, pc, r4	; <UNPREDICTABLE>
    13bc:	0004e400 	andeq	lr, r4, r0, lsl #8
    13c0:	71000500 	tstvc	r0, r0, lsl #10
    13c4:	9f1a3800 	svcls	0x001a3800
	...
    13d0:	00000002 	andeq	r0, r0, r2
    13d4:	00000180 	andeq	r0, r0, r0, lsl #3
    13d8:	000001e0 	andeq	r0, r0, r0, ror #3
    13dc:	84500001 	ldrbhi	r0, [r0], #-1
    13e0:	e4000004 	str	r0, [r0], #-4
    13e4:	01000004 	tsteq	r0, r4
    13e8:	00005000 	andeq	r5, r0, r0
    13ec:	00000000 	andeq	r0, r0, r0
    13f0:	00010000 	andeq	r0, r1, r0
    13f4:	00000188 	andeq	r0, r0, r8, lsl #3
    13f8:	000001b0 			; <UNDEFINED> instruction: 0x000001b0
    13fc:	00500001 	subseq	r0, r0, r1
    1400:	00000000 	andeq	r0, r0, r0
    1404:	03000000 	movweq	r0, #0
    1408:	00018800 	andeq	r8, r1, r0, lsl #16
    140c:	0001b000 	andeq	fp, r1, r0
    1410:	0a000400 	beq	2418 <__code_start__-0x5be8>
    1414:	009f0230 	addseq	r0, pc, r0, lsr r2	; <UNPREDICTABLE>
    1418:	00000000 	andeq	r0, r0, r0
    141c:	03000000 	movweq	r0, #0
    1420:	00018800 	andeq	r8, r1, r0, lsl #16
    1424:	0001b000 	andeq	fp, r1, r0
    1428:	50000100 	andpl	r0, r0, r0, lsl #2
	...
    1434:	018c0001 	orreq	r0, ip, r1
    1438:	01b40000 			; <UNDEFINED> instruction: 0x01b40000
    143c:	00010000 	andeq	r0, r1, r0
    1440:	00000052 	andeq	r0, r0, r2, asr r0
    1444:	00000000 	andeq	r0, r0, r0
    1448:	8c000000 	stchi	0, cr0, [r0], {-0}
    144c:	b0000001 	andlt	r0, r0, r1
    1450:	01000001 	tsteq	r0, r1
    1454:	00005200 	andeq	r5, r0, r0, lsl #4
    1458:	00000000 	andeq	r0, r0, r0
    145c:	00030000 	andeq	r0, r3, r0
    1460:	0000018c 	andeq	r0, r0, ip, lsl #3
    1464:	000001a0 	andeq	r0, r0, r0, lsr #3
    1468:	00500001 	subseq	r0, r0, r1
    146c:	00000000 	andeq	r0, r0, r0
    1470:	02000000 	andeq	r0, r0, #0, 0
    1474:	0001a000 	andeq	sl, r1, r0
    1478:	0001b000 	andeq	fp, r1, r0
    147c:	0a000400 	beq	2484 <__code_start__-0x5b7c>
    1480:	009f0230 	addseq	r0, pc, r0, lsr r2	; <UNPREDICTABLE>
    1484:	00000000 	andeq	r0, r0, r0
    1488:	02000000 	andeq	r0, r0, #0, 0
    148c:	0001a000 	andeq	sl, r1, r0
    1490:	0001b000 	andeq	fp, r1, r0
    1494:	52000100 	andpl	r0, r0, #0
	...
    14a0:	01a40000 			; <UNDEFINED> instruction: 0x01a40000
    14a4:	01a80000 			; <UNDEFINED> instruction: 0x01a80000
    14a8:	00010000 	andeq	r0, r1, r0
    14ac:	00000053 	andeq	r0, r0, r3, asr r0
    14b0:	00000000 	andeq	r0, r0, r0
    14b4:	b0000200 	andlt	r0, r0, r0, lsl #4
    14b8:	e0000001 	and	r0, r0, r1
    14bc:	01000001 	tsteq	r0, r1
    14c0:	00005000 	andeq	r5, r0, r0
    14c4:	00000000 	andeq	r0, r0, r0
    14c8:	00040000 	andeq	r0, r4, r0
    14cc:	000001b0 			; <UNDEFINED> instruction: 0x000001b0
    14d0:	000001e0 	andeq	r0, r0, r0, ror #3
    14d4:	300a0004 	andcc	r0, sl, r4
    14d8:	00009f02 	andeq	r9, r0, r2, lsl #30
    14dc:	00000000 	andeq	r0, r0, r0
    14e0:	00040000 	andeq	r0, r4, r0
    14e4:	000001b0 			; <UNDEFINED> instruction: 0x000001b0
    14e8:	000001e0 	andeq	r0, r0, r0, ror #3
    14ec:	00500001 	subseq	r0, r0, r1
    14f0:	00000000 	andeq	r0, r0, r0
    14f4:	01000000 	mrseq	r0, (UNDEF: 0)
    14f8:	0001b400 	andeq	fp, r1, r0, lsl #8
    14fc:	0001e000 	andeq	lr, r1, r0
    1500:	52000100 	andpl	r0, r0, #0
	...
    150c:	01b40000 			; <UNDEFINED> instruction: 0x01b40000
    1510:	01e00000 	mvneq	r0, r0
    1514:	00010000 	andeq	r0, r1, r0
    1518:	00000052 	andeq	r0, r0, r2, asr r0
    151c:	00000000 	andeq	r0, r0, r0
    1520:	b4000300 	strlt	r0, [r0], #-768	; 0xfffffd00
    1524:	c8000001 	stmdagt	r0, {r0}
    1528:	01000001 	tsteq	r0, r1
    152c:	00005000 	andeq	r5, r0, r0
    1530:	00000000 	andeq	r0, r0, r0
    1534:	00020000 	andeq	r0, r2, r0
    1538:	000001c8 	andeq	r0, r0, r8, asr #3
    153c:	000001e0 	andeq	r0, r0, r0, ror #3
    1540:	300a0004 	andcc	r0, sl, r4
    1544:	00009f02 	andeq	r9, r0, r2, lsl #30
    1548:	00000000 	andeq	r0, r0, r0
    154c:	00020000 	andeq	r0, r2, r0
    1550:	000001c8 	andeq	r0, r0, r8, asr #3
    1554:	000001e0 	andeq	r0, r0, r0, ror #3
    1558:	00520001 	subseq	r0, r2, r1
	...
    1564:	0001d400 	andeq	sp, r1, r0, lsl #8
    1568:	0001d800 	andeq	sp, r1, r0, lsl #16
    156c:	53000100 	movwpl	r0, #256	; 0x100
	...
    1578:	04840002 	streq	r0, [r4], #2
    157c:	04b00000 	ldrteq	r0, [r0], #0
    1580:	00010000 	andeq	r0, r1, r0
    1584:	00000050 	andeq	r0, r0, r0, asr r0
    1588:	00000000 	andeq	r0, r0, r0
    158c:	84000400 	strhi	r0, [r0], #-1024	; 0xfffffc00
    1590:	b0000004 	andlt	r0, r0, r4
    1594:	03000004 	movweq	r0, #4
    1598:	9faf0800 	svcls	0x00af0800
	...
    15a4:	04840004 	streq	r0, [r4], #4
    15a8:	04b00000 	ldrteq	r0, [r0], #0
    15ac:	00010000 	andeq	r0, r1, r0
    15b0:	00000050 	andeq	r0, r0, r0, asr r0
    15b4:	00000000 	andeq	r0, r0, r0
    15b8:	88000100 	stmdahi	r0, {r8}
    15bc:	b4000004 	strlt	r0, [r0], #-4
    15c0:	01000004 	tsteq	r0, r4
    15c4:	00005200 	andeq	r5, r0, r0, lsl #4
	...
    15d0:	00000488 	andeq	r0, r0, r8, lsl #9
    15d4:	000004b0 			; <UNDEFINED> instruction: 0x000004b0
    15d8:	00520001 	subseq	r0, r2, r1
    15dc:	00000000 	andeq	r0, r0, r0
    15e0:	03000000 	movweq	r0, #0
    15e4:	00048800 	andeq	r8, r4, r0, lsl #16
    15e8:	00049c00 	andeq	r9, r4, r0, lsl #24
    15ec:	50000100 	andpl	r0, r0, r0, lsl #2
	...
    15f8:	049c0002 	ldreq	r0, [ip], #2
    15fc:	04b00000 	ldrteq	r0, [r0], #0
    1600:	00030000 	andeq	r0, r3, r0
    1604:	009faf08 	addseq	sl, pc, r8, lsl #30
    1608:	00000000 	andeq	r0, r0, r0
    160c:	02000000 	andeq	r0, r0, #0, 0
    1610:	00049c00 	andeq	r9, r4, r0, lsl #24
    1614:	0004b000 	andeq	fp, r4, r0
    1618:	52000100 	andpl	r0, r0, #0
	...
    1624:	04a40000 	strteq	r0, [r4], #0
    1628:	04a80000 	strteq	r0, [r8], #0
    162c:	00010000 	andeq	r0, r1, r0
    1630:	00000053 	andeq	r0, r0, r3, asr r0
    1634:	00000000 	andeq	r0, r0, r0
    1638:	b0000200 	andlt	r0, r0, r0, lsl #4
    163c:	e4000004 	str	r0, [r0], #-4
    1640:	01000004 	tsteq	r0, r4
    1644:	00005000 	andeq	r5, r0, r0
    1648:	00000000 	andeq	r0, r0, r0
    164c:	00040000 	andeq	r0, r4, r0
    1650:	000004b0 			; <UNDEFINED> instruction: 0x000004b0
    1654:	000004e4 	andeq	r0, r0, r4, ror #9
    1658:	300a0004 	andcc	r0, sl, r4
    165c:	00009f02 	andeq	r9, r0, r2, lsl #30
    1660:	00000000 	andeq	r0, r0, r0
    1664:	00040000 	andeq	r0, r4, r0
    1668:	000004b0 			; <UNDEFINED> instruction: 0x000004b0
    166c:	000004e4 	andeq	r0, r0, r4, ror #9
    1670:	00500001 	subseq	r0, r0, r1
    1674:	00000000 	andeq	r0, r0, r0
    1678:	01000000 	mrseq	r0, (UNDEF: 0)
    167c:	0004b400 	andeq	fp, r4, r0, lsl #8
    1680:	0004e400 	andeq	lr, r4, r0, lsl #8
    1684:	52000100 	andpl	r0, r0, #0
	...
    1690:	04b40000 	ldrteq	r0, [r4], #0
    1694:	04e40000 	strbteq	r0, [r4], #0
    1698:	00010000 	andeq	r0, r1, r0
    169c:	00000052 	andeq	r0, r0, r2, asr r0
    16a0:	00000000 	andeq	r0, r0, r0
    16a4:	b4000300 	strlt	r0, [r0], #-768	; 0xfffffd00
    16a8:	c8000004 	stmdagt	r0, {r2}
    16ac:	01000004 	tsteq	r0, r4
    16b0:	00005000 	andeq	r5, r0, r0
    16b4:	00000000 	andeq	r0, r0, r0
    16b8:	00020000 	andeq	r0, r2, r0
    16bc:	000004c8 	andeq	r0, r0, r8, asr #9
    16c0:	000004e4 	andeq	r0, r0, r4, ror #9
    16c4:	300a0004 	andcc	r0, sl, r4
    16c8:	00009f02 	andeq	r9, r0, r2, lsl #30
    16cc:	00000000 	andeq	r0, r0, r0
    16d0:	00020000 	andeq	r0, r2, r0
    16d4:	000004c8 	andeq	r0, r0, r8, asr #9
    16d8:	000004e4 	andeq	r0, r0, r4, ror #9
    16dc:	00520001 	subseq	r0, r2, r1
	...
    16e8:	0004d400 	andeq	sp, r4, r0, lsl #8
    16ec:	0004d800 	andeq	sp, r4, r0, lsl #16
    16f0:	53000100 	movwpl	r0, #256	; 0x100
	...
    16fc:	00000002 	andeq	r0, r0, r2
    1700:	000001e0 	andeq	r0, r0, r0, ror #3
    1704:	00000240 	andeq	r0, r0, r0, asr #4
    1708:	00710005 	rsbseq	r0, r1, r5
    170c:	e49f1a34 	ldr	r1, [pc], #2612	; 1714 <__code_start__-0x68ec>
    1710:	44000004 	strmi	r0, [r0], #-4
    1714:	05000005 	streq	r0, [r0, #-5]
    1718:	34007100 	strcc	r7, [r0], #-256	; 0xffffff00
    171c:	00009f1a 	andeq	r9, r0, sl, lsl pc
    1720:	00000000 	andeq	r0, r0, r0
    1724:	00020000 	andeq	r0, r2, r0
    1728:	01e00000 	mvneq	r0, r0
    172c:	02400000 	subeq	r0, r0, #0, 0
    1730:	00010000 	andeq	r0, r1, r0
    1734:	0004e450 	andeq	lr, r4, r0, asr r4
    1738:	00054400 	andeq	r4, r5, r0, lsl #8
    173c:	50000100 	andpl	r0, r0, r0, lsl #2
	...
    1748:	01e80001 	mvneq	r0, r1
    174c:	02100000 	andseq	r0, r0, #0, 0
    1750:	00010000 	andeq	r0, r1, r0
    1754:	00000050 	andeq	r0, r0, r0, asr r0
    1758:	00000000 	andeq	r0, r0, r0
    175c:	e8000300 	stmda	r0, {r8, r9}
    1760:	10000001 	andne	r0, r0, r1
    1764:	04000002 	streq	r0, [r0], #-2
    1768:	02300a00 	eorseq	r0, r0, #0, 20
    176c:	0000009f 	muleq	r0, pc, r0	; <UNPREDICTABLE>
    1770:	00000000 	andeq	r0, r0, r0
    1774:	e8000300 	stmda	r0, {r8, r9}
    1778:	10000001 	andne	r0, r0, r1
    177c:	01000002 	tsteq	r0, r2
    1780:	00005000 	andeq	r5, r0, r0
    1784:	00000000 	andeq	r0, r0, r0
    1788:	00010000 	andeq	r0, r1, r0
    178c:	000001ec 	andeq	r0, r0, ip, ror #3
    1790:	00000214 	andeq	r0, r0, r4, lsl r2
    1794:	00520001 	subseq	r0, r2, r1
	...
    17a0:	0001ec00 	andeq	lr, r1, r0, lsl #24
    17a4:	00021000 	andeq	r1, r2, r0
    17a8:	52000100 	andpl	r0, r0, #0
	...
    17b4:	01ec0003 	mvneq	r0, r3
    17b8:	02000000 	andeq	r0, r0, #0, 0
    17bc:	00010000 	andeq	r0, r1, r0
    17c0:	00000050 	andeq	r0, r0, r0, asr r0
    17c4:	00000000 	andeq	r0, r0, r0
    17c8:	00000200 	andeq	r0, r0, r0, lsl #4
    17cc:	10000002 	andne	r0, r0, r2
    17d0:	04000002 	streq	r0, [r0], #-2
    17d4:	02300a00 	eorseq	r0, r0, #0, 20
    17d8:	0000009f 	muleq	r0, pc, r0	; <UNPREDICTABLE>
    17dc:	00000000 	andeq	r0, r0, r0
    17e0:	00000200 	andeq	r0, r0, r0, lsl #4
    17e4:	10000002 	andne	r0, r0, r2
    17e8:	01000002 	tsteq	r0, r2
    17ec:	00005200 	andeq	r5, r0, r0, lsl #4
	...
    17f8:	00000204 	andeq	r0, r0, r4, lsl #4
    17fc:	00000208 	andeq	r0, r0, r8, lsl #4
    1800:	00530001 	subseq	r0, r3, r1
    1804:	00000000 	andeq	r0, r0, r0
    1808:	02000000 	andeq	r0, r0, #0, 0
    180c:	00021000 	andeq	r1, r2, r0
    1810:	00024000 	andeq	r4, r2, r0
    1814:	50000100 	andpl	r0, r0, r0, lsl #2
	...
    1820:	02100004 	andseq	r0, r0, #4, 0
    1824:	02400000 	subeq	r0, r0, #0, 0
    1828:	00040000 	andeq	r0, r4, r0
    182c:	9f02300a 	svcls	0x0002300a
	...
    1838:	02100004 	andseq	r0, r0, #4, 0
    183c:	02400000 	subeq	r0, r0, #0, 0
    1840:	00010000 	andeq	r0, r1, r0
    1844:	00000050 	andeq	r0, r0, r0, asr r0
    1848:	00000000 	andeq	r0, r0, r0
    184c:	14000100 	strne	r0, [r0], #-256	; 0xffffff00
    1850:	40000002 	andmi	r0, r0, r2
    1854:	01000002 	tsteq	r0, r2
    1858:	00005200 	andeq	r5, r0, r0, lsl #4
	...
    1864:	00000214 	andeq	r0, r0, r4, lsl r2
    1868:	00000240 	andeq	r0, r0, r0, asr #4
    186c:	00520001 	subseq	r0, r2, r1
    1870:	00000000 	andeq	r0, r0, r0
    1874:	03000000 	movweq	r0, #0
    1878:	00021400 	andeq	r1, r2, r0, lsl #8
    187c:	00022800 	andeq	r2, r2, r0, lsl #16
    1880:	50000100 	andpl	r0, r0, r0, lsl #2
	...
    188c:	02280002 	eoreq	r0, r8, #2, 0
    1890:	02400000 	subeq	r0, r0, #0, 0
    1894:	00040000 	andeq	r0, r4, r0
    1898:	9f02300a 	svcls	0x0002300a
	...
    18a4:	02280002 	eoreq	r0, r8, #2, 0
    18a8:	02400000 	subeq	r0, r0, #0, 0
    18ac:	00010000 	andeq	r0, r1, r0
    18b0:	00000052 	andeq	r0, r0, r2, asr r0
    18b4:	00000000 	andeq	r0, r0, r0
    18b8:	34000000 	strcc	r0, [r0], #-0
    18bc:	38000002 	stmdacc	r0, {r1}
    18c0:	01000002 	tsteq	r0, r2
    18c4:	00005300 	andeq	r5, r0, r0, lsl #6
    18c8:	00000000 	andeq	r0, r0, r0
    18cc:	00020000 	andeq	r0, r2, r0
    18d0:	000004e4 	andeq	r0, r0, r4, ror #9
    18d4:	00000510 	andeq	r0, r0, r0, lsl r5
    18d8:	00500001 	subseq	r0, r0, r1
    18dc:	00000000 	andeq	r0, r0, r0
    18e0:	04000000 	streq	r0, [r0], #-0
    18e4:	0004e400 	andeq	lr, r4, r0, lsl #8
    18e8:	00051000 	andeq	r1, r5, r0
    18ec:	08000300 	stmdaeq	r0, {r8, r9}
    18f0:	00009faf 	andeq	r9, r0, pc, lsr #31
    18f4:	00000000 	andeq	r0, r0, r0
    18f8:	00040000 	andeq	r0, r4, r0
    18fc:	000004e4 	andeq	r0, r0, r4, ror #9
    1900:	00000510 	andeq	r0, r0, r0, lsl r5
    1904:	00500001 	subseq	r0, r0, r1
    1908:	00000000 	andeq	r0, r0, r0
    190c:	01000000 	mrseq	r0, (UNDEF: 0)
    1910:	0004e800 	andeq	lr, r4, r0, lsl #16
    1914:	00051400 	andeq	r1, r5, r0, lsl #8
    1918:	52000100 	andpl	r0, r0, #0
	...
    1924:	04e80000 	strbteq	r0, [r8], #0
    1928:	05100000 	ldreq	r0, [r0, #-0]
    192c:	00010000 	andeq	r0, r1, r0
    1930:	00000052 	andeq	r0, r0, r2, asr r0
    1934:	00000000 	andeq	r0, r0, r0
    1938:	e8000300 	stmda	r0, {r8, r9}
    193c:	fc000004 	stc2	0, cr0, [r0], {4}
    1940:	01000004 	tsteq	r0, r4
    1944:	00005000 	andeq	r5, r0, r0
    1948:	00000000 	andeq	r0, r0, r0
    194c:	00020000 	andeq	r0, r2, r0
    1950:	000004fc 	strdeq	r0, [r0], -ip
    1954:	00000510 	andeq	r0, r0, r0, lsl r5
    1958:	af080003 	svcge	0x00080003
    195c:	0000009f 	muleq	r0, pc, r0	; <UNPREDICTABLE>
    1960:	00000000 	andeq	r0, r0, r0
    1964:	fc000200 	stc2	2, cr0, [r0], {-0}
    1968:	10000004 	andne	r0, r0, r4
    196c:	01000005 	tsteq	r0, r5
    1970:	00005200 	andeq	r5, r0, r0, lsl #4
	...
    197c:	00000504 	andeq	r0, r0, r4, lsl #10
    1980:	00000508 	andeq	r0, r0, r8, lsl #10
    1984:	00530001 	subseq	r0, r3, r1
    1988:	00000000 	andeq	r0, r0, r0
    198c:	02000000 	andeq	r0, r0, #0, 0
    1990:	00051000 	andeq	r1, r5, r0
    1994:	00054400 	andeq	r4, r5, r0, lsl #8
    1998:	50000100 	andpl	r0, r0, r0, lsl #2
	...
    19a4:	05100004 	ldreq	r0, [r0, #-4]
    19a8:	05440000 	strbeq	r0, [r4, #-0]
    19ac:	00040000 	andeq	r0, r4, r0
    19b0:	9f02300a 	svcls	0x0002300a
	...
    19bc:	05100004 	ldreq	r0, [r0, #-4]
    19c0:	05440000 	strbeq	r0, [r4, #-0]
    19c4:	00010000 	andeq	r0, r1, r0
    19c8:	00000050 	andeq	r0, r0, r0, asr r0
    19cc:	00000000 	andeq	r0, r0, r0
    19d0:	14000100 	strne	r0, [r0], #-256	; 0xffffff00
    19d4:	44000005 	strmi	r0, [r0], #-5
    19d8:	01000005 	tsteq	r0, r5
    19dc:	00005200 	andeq	r5, r0, r0, lsl #4
	...
    19e8:	00000514 	andeq	r0, r0, r4, lsl r5
    19ec:	00000544 	andeq	r0, r0, r4, asr #10
    19f0:	00520001 	subseq	r0, r2, r1
    19f4:	00000000 	andeq	r0, r0, r0
    19f8:	03000000 	movweq	r0, #0
    19fc:	00051400 	andeq	r1, r5, r0, lsl #8
    1a00:	00052800 	andeq	r2, r5, r0, lsl #16
    1a04:	50000100 	andpl	r0, r0, r0, lsl #2
	...
    1a10:	05280002 	streq	r0, [r8, #-2]!
    1a14:	05440000 	strbeq	r0, [r4, #-0]
    1a18:	00040000 	andeq	r0, r4, r0
    1a1c:	9f02300a 	svcls	0x0002300a
	...
    1a28:	05280002 	streq	r0, [r8, #-2]!
    1a2c:	05440000 	strbeq	r0, [r4, #-0]
    1a30:	00010000 	andeq	r0, r1, r0
    1a34:	00000052 	andeq	r0, r0, r2, asr r0
    1a38:	00000000 	andeq	r0, r0, r0
    1a3c:	34000000 	strcc	r0, [r0], #-0
    1a40:	38000005 	stmdacc	r0, {r0, r2}
    1a44:	01000005 	tsteq	r0, r5
    1a48:	00005300 	andeq	r5, r0, r0, lsl #6
    1a4c:	00000000 	andeq	r0, r0, r0
    1a50:	00020000 	andeq	r0, r2, r0
    1a54:	02400000 	subeq	r0, r0, #0, 0
    1a58:	02a00000 	adceq	r0, r0, #0, 0
    1a5c:	00050000 	andeq	r0, r5, r0
    1a60:	1a320071 	bne	c81c2c <__bss_end__+0xc77614>
    1a64:	0005449f 	muleq	r5, pc, r4	; <UNPREDICTABLE>
    1a68:	0005a400 	andeq	sl, r5, r0, lsl #8
    1a6c:	71000500 	tstvc	r0, r0, lsl #10
    1a70:	9f1a3200 	svcls	0x001a3200
	...
    1a7c:	00000002 	andeq	r0, r0, r2
    1a80:	00000240 	andeq	r0, r0, r0, asr #4
    1a84:	000002a0 	andeq	r0, r0, r0, lsr #5
    1a88:	44500001 	ldrbmi	r0, [r0], #-1
    1a8c:	a4000005 	strge	r0, [r0], #-5
    1a90:	01000005 	tsteq	r0, r5
    1a94:	00005000 	andeq	r5, r0, r0
    1a98:	00000000 	andeq	r0, r0, r0
    1a9c:	00010000 	andeq	r0, r1, r0
    1aa0:	00000248 	andeq	r0, r0, r8, asr #4
    1aa4:	00000270 	andeq	r0, r0, r0, ror r2
    1aa8:	00500001 	subseq	r0, r0, r1
    1aac:	00000000 	andeq	r0, r0, r0
    1ab0:	03000000 	movweq	r0, #0
    1ab4:	00024800 	andeq	r4, r2, r0, lsl #16
    1ab8:	00027000 	andeq	r7, r2, r0
    1abc:	0a000400 	beq	2ac4 <__code_start__-0x553c>
    1ac0:	009f0230 	addseq	r0, pc, r0, lsr r2	; <UNPREDICTABLE>
    1ac4:	00000000 	andeq	r0, r0, r0
    1ac8:	03000000 	movweq	r0, #0
    1acc:	00024800 	andeq	r4, r2, r0, lsl #16
    1ad0:	00027000 	andeq	r7, r2, r0
    1ad4:	50000100 	andpl	r0, r0, r0, lsl #2
	...
    1ae0:	024c0001 	subeq	r0, ip, #1, 0
    1ae4:	02740000 	rsbseq	r0, r4, #0, 0
    1ae8:	00010000 	andeq	r0, r1, r0
    1aec:	00000052 	andeq	r0, r0, r2, asr r0
    1af0:	00000000 	andeq	r0, r0, r0
    1af4:	4c000000 	stcmi	0, cr0, [r0], {-0}
    1af8:	70000002 	andvc	r0, r0, r2
    1afc:	01000002 	tsteq	r0, r2
    1b00:	00005200 	andeq	r5, r0, r0, lsl #4
    1b04:	00000000 	andeq	r0, r0, r0
    1b08:	00030000 	andeq	r0, r3, r0
    1b0c:	0000024c 	andeq	r0, r0, ip, asr #4
    1b10:	00000260 	andeq	r0, r0, r0, ror #4
    1b14:	00500001 	subseq	r0, r0, r1
    1b18:	00000000 	andeq	r0, r0, r0
    1b1c:	02000000 	andeq	r0, r0, #0, 0
    1b20:	00026000 	andeq	r6, r2, r0
    1b24:	00027000 	andeq	r7, r2, r0
    1b28:	0a000400 	beq	2b30 <__code_start__-0x54d0>
    1b2c:	009f0230 	addseq	r0, pc, r0, lsr r2	; <UNPREDICTABLE>
    1b30:	00000000 	andeq	r0, r0, r0
    1b34:	02000000 	andeq	r0, r0, #0, 0
    1b38:	00026000 	andeq	r6, r2, r0
    1b3c:	00027000 	andeq	r7, r2, r0
    1b40:	52000100 	andpl	r0, r0, #0
	...
    1b4c:	02640000 	rsbeq	r0, r4, #0, 0
    1b50:	02680000 	rsbeq	r0, r8, #0, 0
    1b54:	00010000 	andeq	r0, r1, r0
    1b58:	00000053 	andeq	r0, r0, r3, asr r0
    1b5c:	00000000 	andeq	r0, r0, r0
    1b60:	70000200 	andvc	r0, r0, r0, lsl #4
    1b64:	a0000002 	andge	r0, r0, r2
    1b68:	01000002 	tsteq	r0, r2
    1b6c:	00005000 	andeq	r5, r0, r0
    1b70:	00000000 	andeq	r0, r0, r0
    1b74:	00040000 	andeq	r0, r4, r0
    1b78:	00000270 	andeq	r0, r0, r0, ror r2
    1b7c:	000002a0 	andeq	r0, r0, r0, lsr #5
    1b80:	300a0004 	andcc	r0, sl, r4
    1b84:	00009f02 	andeq	r9, r0, r2, lsl #30
    1b88:	00000000 	andeq	r0, r0, r0
    1b8c:	00040000 	andeq	r0, r4, r0
    1b90:	00000270 	andeq	r0, r0, r0, ror r2
    1b94:	000002a0 	andeq	r0, r0, r0, lsr #5
    1b98:	00500001 	subseq	r0, r0, r1
    1b9c:	00000000 	andeq	r0, r0, r0
    1ba0:	01000000 	mrseq	r0, (UNDEF: 0)
    1ba4:	00027400 	andeq	r7, r2, r0, lsl #8
    1ba8:	0002a000 	andeq	sl, r2, r0
    1bac:	52000100 	andpl	r0, r0, #0
	...
    1bb8:	02740000 	rsbseq	r0, r4, #0, 0
    1bbc:	02a00000 	adceq	r0, r0, #0, 0
    1bc0:	00010000 	andeq	r0, r1, r0
    1bc4:	00000052 	andeq	r0, r0, r2, asr r0
    1bc8:	00000000 	andeq	r0, r0, r0
    1bcc:	74000300 	strvc	r0, [r0], #-768	; 0xfffffd00
    1bd0:	88000002 	stmdahi	r0, {r1}
    1bd4:	01000002 	tsteq	r0, r2
    1bd8:	00005000 	andeq	r5, r0, r0
    1bdc:	00000000 	andeq	r0, r0, r0
    1be0:	00020000 	andeq	r0, r2, r0
    1be4:	00000288 	andeq	r0, r0, r8, lsl #5
    1be8:	000002a0 	andeq	r0, r0, r0, lsr #5
    1bec:	300a0004 	andcc	r0, sl, r4
    1bf0:	00009f02 	andeq	r9, r0, r2, lsl #30
    1bf4:	00000000 	andeq	r0, r0, r0
    1bf8:	00020000 	andeq	r0, r2, r0
    1bfc:	00000288 	andeq	r0, r0, r8, lsl #5
    1c00:	000002a0 	andeq	r0, r0, r0, lsr #5
    1c04:	00520001 	subseq	r0, r2, r1
	...
    1c10:	00029400 	andeq	r9, r2, r0, lsl #8
    1c14:	00029800 	andeq	r9, r2, r0, lsl #16
    1c18:	53000100 	movwpl	r0, #256	; 0x100
	...
    1c24:	05440002 	strbeq	r0, [r4, #-2]
    1c28:	05700000 	ldrbeq	r0, [r0, #-0]!
    1c2c:	00010000 	andeq	r0, r1, r0
    1c30:	00000050 	andeq	r0, r0, r0, asr r0
    1c34:	00000000 	andeq	r0, r0, r0
    1c38:	44000400 	strmi	r0, [r0], #-1024	; 0xfffffc00
    1c3c:	70000005 	andvc	r0, r0, r5
    1c40:	03000005 	movweq	r0, #5
    1c44:	9faf0800 	svcls	0x00af0800
	...
    1c50:	05440004 	strbeq	r0, [r4, #-4]
    1c54:	05700000 	ldrbeq	r0, [r0, #-0]!
    1c58:	00010000 	andeq	r0, r1, r0
    1c5c:	00000050 	andeq	r0, r0, r0, asr r0
    1c60:	00000000 	andeq	r0, r0, r0
    1c64:	48000100 	stmdami	r0, {r8}
    1c68:	74000005 	strvc	r0, [r0], #-5
    1c6c:	01000005 	tsteq	r0, r5
    1c70:	00005200 	andeq	r5, r0, r0, lsl #4
	...
    1c7c:	00000548 	andeq	r0, r0, r8, asr #10
    1c80:	00000570 	andeq	r0, r0, r0, ror r5
    1c84:	00520001 	subseq	r0, r2, r1
    1c88:	00000000 	andeq	r0, r0, r0
    1c8c:	03000000 	movweq	r0, #0
    1c90:	00054800 	andeq	r4, r5, r0, lsl #16
    1c94:	00055c00 	andeq	r5, r5, r0, lsl #24
    1c98:	50000100 	andpl	r0, r0, r0, lsl #2
	...
    1ca4:	055c0002 	ldrbeq	r0, [ip, #-2]
    1ca8:	05700000 	ldrbeq	r0, [r0, #-0]!
    1cac:	00030000 	andeq	r0, r3, r0
    1cb0:	009faf08 	addseq	sl, pc, r8, lsl #30
    1cb4:	00000000 	andeq	r0, r0, r0
    1cb8:	02000000 	andeq	r0, r0, #0, 0
    1cbc:	00055c00 	andeq	r5, r5, r0, lsl #24
    1cc0:	00057000 	andeq	r7, r5, r0
    1cc4:	52000100 	andpl	r0, r0, #0
	...
    1cd0:	05640000 	strbeq	r0, [r4, #-0]!
    1cd4:	05680000 	strbeq	r0, [r8, #-0]!
    1cd8:	00010000 	andeq	r0, r1, r0
    1cdc:	00000053 	andeq	r0, r0, r3, asr r0
    1ce0:	00000000 	andeq	r0, r0, r0
    1ce4:	70000200 	andvc	r0, r0, r0, lsl #4
    1ce8:	a4000005 	strge	r0, [r0], #-5
    1cec:	01000005 	tsteq	r0, r5
    1cf0:	00005000 	andeq	r5, r0, r0
    1cf4:	00000000 	andeq	r0, r0, r0
    1cf8:	00040000 	andeq	r0, r4, r0
    1cfc:	00000570 	andeq	r0, r0, r0, ror r5
    1d00:	000005a4 	andeq	r0, r0, r4, lsr #11
    1d04:	300a0004 	andcc	r0, sl, r4
    1d08:	00009f02 	andeq	r9, r0, r2, lsl #30
    1d0c:	00000000 	andeq	r0, r0, r0
    1d10:	00040000 	andeq	r0, r4, r0
    1d14:	00000570 	andeq	r0, r0, r0, ror r5
    1d18:	000005a4 	andeq	r0, r0, r4, lsr #11
    1d1c:	00500001 	subseq	r0, r0, r1
    1d20:	00000000 	andeq	r0, r0, r0
    1d24:	01000000 	mrseq	r0, (UNDEF: 0)
    1d28:	00057400 	andeq	r7, r5, r0, lsl #8
    1d2c:	0005a400 	andeq	sl, r5, r0, lsl #8
    1d30:	52000100 	andpl	r0, r0, #0
	...
    1d3c:	05740000 	ldrbeq	r0, [r4, #-0]!
    1d40:	05a40000 	streq	r0, [r4, #0]!
    1d44:	00010000 	andeq	r0, r1, r0
    1d48:	00000052 	andeq	r0, r0, r2, asr r0
    1d4c:	00000000 	andeq	r0, r0, r0
    1d50:	74000300 	strvc	r0, [r0], #-768	; 0xfffffd00
    1d54:	88000005 	stmdahi	r0, {r0, r2}
    1d58:	01000005 	tsteq	r0, r5
    1d5c:	00005000 	andeq	r5, r0, r0
    1d60:	00000000 	andeq	r0, r0, r0
    1d64:	00020000 	andeq	r0, r2, r0
    1d68:	00000588 	andeq	r0, r0, r8, lsl #11
    1d6c:	000005a4 	andeq	r0, r0, r4, lsr #11
    1d70:	300a0004 	andcc	r0, sl, r4
    1d74:	00009f02 	andeq	r9, r0, r2, lsl #30
    1d78:	00000000 	andeq	r0, r0, r0
    1d7c:	00020000 	andeq	r0, r2, r0
    1d80:	00000588 	andeq	r0, r0, r8, lsl #11
    1d84:	000005a4 	andeq	r0, r0, r4, lsr #11
    1d88:	00520001 	subseq	r0, r2, r1
	...
    1d94:	00059400 	andeq	r9, r5, r0, lsl #8
    1d98:	00059800 	andeq	r9, r5, r0, lsl #16
    1d9c:	53000100 	movwpl	r0, #256	; 0x100
	...
    1da8:	00000002 	andeq	r0, r0, r2
    1dac:	000002a0 	andeq	r0, r0, r0, lsr #5
    1db0:	000002bc 			; <UNDEFINED> instruction: 0x000002bc
    1db4:	00710005 	rsbseq	r0, r1, r5
    1db8:	a49f1a31 	ldrge	r1, [pc], #2609	; 1dc0 <__code_start__-0x6240>
    1dbc:	b8000005 	stmdalt	r0, {r0, r2}
    1dc0:	05000005 	streq	r0, [r0, #-5]
    1dc4:	31007100 	mrscc	r7, (UNDEF: 16)
    1dc8:	00009f1a 	andeq	r9, r0, sl, lsl pc
    1dcc:	00000000 	andeq	r0, r0, r0
    1dd0:	00020000 	andeq	r0, r2, r0
    1dd4:	00000000 	andeq	r0, r0, r0
    1dd8:	02a00000 	adceq	r0, r0, #0, 0
    1ddc:	02e00000 	rsceq	r0, r0, #0, 0
    1de0:	00010000 	andeq	r0, r1, r0
    1de4:	0002e050 	andeq	lr, r2, r0, asr r0
    1de8:	00030400 	andeq	r0, r3, r0, lsl #8
    1dec:	f3000400 	vshl.u8	d0, d0, d0
    1df0:	a49f5001 	ldrge	r5, [pc], #1	; 1df8 <__code_start__-0x6208>
    1df4:	e0000005 	and	r0, r0, r5
    1df8:	01000005 	tsteq	r0, r5
    1dfc:	05e05000 	strbeq	r5, [r0, #0]!
    1e00:	06080000 	streq	r0, [r8], -r0
    1e04:	00040000 	andeq	r0, r4, r0
    1e08:	9f5001f3 	svcls	0x005001f3
	...
    1e14:	02a80001 	adceq	r0, r8, #1, 0
    1e18:	02d00000 	sbcseq	r0, r0, #0, 0
    1e1c:	00010000 	andeq	r0, r1, r0
    1e20:	00000050 	andeq	r0, r0, r0, asr r0
    1e24:	00000000 	andeq	r0, r0, r0
    1e28:	a8000300 	stmdage	r0, {r8, r9}
    1e2c:	d0000002 	andle	r0, r0, r2
    1e30:	04000002 	streq	r0, [r0], #-2
    1e34:	02300a00 	eorseq	r0, r0, #0, 20
    1e38:	0000009f 	muleq	r0, pc, r0	; <UNPREDICTABLE>
    1e3c:	00000000 	andeq	r0, r0, r0
    1e40:	a8000300 	stmdage	r0, {r8, r9}
    1e44:	d0000002 	andle	r0, r0, r2
    1e48:	01000002 	tsteq	r0, r2
    1e4c:	00005000 	andeq	r5, r0, r0
    1e50:	00000000 	andeq	r0, r0, r0
    1e54:	00010000 	andeq	r0, r1, r0
    1e58:	000002ac 	andeq	r0, r0, ip, lsr #5
    1e5c:	000002d4 	ldrdeq	r0, [r0], -r4
    1e60:	00520001 	subseq	r0, r2, r1
	...
    1e6c:	0002ac00 	andeq	sl, r2, r0, lsl #24
    1e70:	0002d000 	andeq	sp, r2, r0
    1e74:	52000100 	andpl	r0, r0, #0
	...
    1e80:	02ac0003 	adceq	r0, ip, #3, 0
    1e84:	02c00000 	sbceq	r0, r0, #0, 0
    1e88:	00010000 	andeq	r0, r1, r0
    1e8c:	00000050 	andeq	r0, r0, r0, asr r0
    1e90:	00000000 	andeq	r0, r0, r0
    1e94:	c0000200 	andgt	r0, r0, r0, lsl #4
    1e98:	d0000002 	andle	r0, r0, r2
    1e9c:	04000002 	streq	r0, [r0], #-2
    1ea0:	02300a00 	eorseq	r0, r0, #0, 20
    1ea4:	0000009f 	muleq	r0, pc, r0	; <UNPREDICTABLE>
    1ea8:	00000000 	andeq	r0, r0, r0
    1eac:	c0000200 	andgt	r0, r0, r0, lsl #4
    1eb0:	d0000002 	andle	r0, r0, r2
    1eb4:	01000002 	tsteq	r0, r2
    1eb8:	00005200 	andeq	r5, r0, r0, lsl #4
	...
    1ec4:	000002c4 	andeq	r0, r0, r4, asr #5
    1ec8:	000002c8 	andeq	r0, r0, r8, asr #5
    1ecc:	00530001 	subseq	r0, r3, r1
    1ed0:	00000000 	andeq	r0, r0, r0
    1ed4:	02000000 	andeq	r0, r0, #0, 0
    1ed8:	d0000000 	andle	r0, r0, r0
    1edc:	e0000002 	and	r0, r0, r2
    1ee0:	01000002 	tsteq	r0, r2
    1ee4:	02e05000 	rsceq	r5, r0, #0, 0
    1ee8:	03040000 	movweq	r0, #16384	; 0x4000
    1eec:	00040000 	andeq	r0, r4, r0
    1ef0:	9f5001f3 	svcls	0x005001f3
	...
    1efc:	02d00004 	sbcseq	r0, r0, #4, 0
    1f00:	03040000 	movweq	r0, #16384	; 0x4000
    1f04:	00040000 	andeq	r0, r4, r0
    1f08:	9f02300a 	svcls	0x0002300a
	...
    1f14:	00000004 	andeq	r0, r0, r4
    1f18:	000002d0 	ldrdeq	r0, [r0], -r0	; <UNPREDICTABLE>
    1f1c:	000002e0 	andeq	r0, r0, r0, ror #5
    1f20:	e0500001 	subs	r0, r0, r1
    1f24:	04000002 	streq	r0, [r0], #-2
    1f28:	04000003 	streq	r0, [r0], #-3
    1f2c:	5001f300 	andpl	pc, r1, r0, lsl #6
    1f30:	0000009f 	muleq	r0, pc, r0	; <UNPREDICTABLE>
    1f34:	00000000 	andeq	r0, r0, r0
    1f38:	d4000100 	strle	r0, [r0], #-256	; 0xffffff00
    1f3c:	04000002 	streq	r0, [r0], #-2
    1f40:	01000003 	tsteq	r0, r3
    1f44:	00005200 	andeq	r5, r0, r0, lsl #4
	...
    1f50:	000002d4 	ldrdeq	r0, [r0], -r4
    1f54:	00000304 	andeq	r0, r0, r4, lsl #6
    1f58:	00520001 	subseq	r0, r2, r1
    1f5c:	00000000 	andeq	r0, r0, r0
    1f60:	03000000 	movweq	r0, #0
    1f64:	d4000000 	strle	r0, [r0], #-0
    1f68:	e0000002 	and	r0, r0, r2
    1f6c:	01000002 	tsteq	r0, r2
    1f70:	02e05000 	rsceq	r5, r0, #0, 0
    1f74:	02e80000 	rsceq	r0, r8, #0, 0
    1f78:	00040000 	andeq	r0, r4, r0
    1f7c:	9f5001f3 	svcls	0x005001f3
	...
    1f88:	02e80002 	rsceq	r0, r8, #2, 0
    1f8c:	03040000 	movweq	r0, #16384	; 0x4000
    1f90:	00040000 	andeq	r0, r4, r0
    1f94:	9f02300a 	svcls	0x0002300a
	...
    1fa0:	02e80002 	rsceq	r0, r8, #2, 0
    1fa4:	03040000 	movweq	r0, #16384	; 0x4000
    1fa8:	00010000 	andeq	r0, r1, r0
    1fac:	00000052 	andeq	r0, r0, r2, asr r0
    1fb0:	00000000 	andeq	r0, r0, r0
    1fb4:	f4000000 	vst4.8	{d0-d3}, [r0], r0
    1fb8:	f8000002 			; <UNDEFINED> instruction: 0xf8000002
    1fbc:	01000002 	tsteq	r0, r2
    1fc0:	00005300 	andeq	r5, r0, r0, lsl #6
    1fc4:	00000000 	andeq	r0, r0, r0
    1fc8:	00020000 	andeq	r0, r2, r0
    1fcc:	000005a4 	andeq	r0, r0, r4, lsr #11
    1fd0:	000005d0 	ldrdeq	r0, [r0], -r0	; <UNPREDICTABLE>
    1fd4:	00500001 	subseq	r0, r0, r1
    1fd8:	00000000 	andeq	r0, r0, r0
    1fdc:	04000000 	streq	r0, [r0], #-0
    1fe0:	0005a400 	andeq	sl, r5, r0, lsl #8
    1fe4:	0005d000 	andeq	sp, r5, r0
    1fe8:	08000300 	stmdaeq	r0, {r8, r9}
    1fec:	00009faf 	andeq	r9, r0, pc, lsr #31
    1ff0:	00000000 	andeq	r0, r0, r0
    1ff4:	00040000 	andeq	r0, r4, r0
    1ff8:	000005a4 	andeq	r0, r0, r4, lsr #11
    1ffc:	000005d0 	ldrdeq	r0, [r0], -r0	; <UNPREDICTABLE>
    2000:	00500001 	subseq	r0, r0, r1
    2004:	00000000 	andeq	r0, r0, r0
    2008:	01000000 	mrseq	r0, (UNDEF: 0)
    200c:	0005a800 	andeq	sl, r5, r0, lsl #16
    2010:	0005d400 	andeq	sp, r5, r0, lsl #8
    2014:	52000100 	andpl	r0, r0, #0
	...
    2020:	05a80000 	streq	r0, [r8, #0]!
    2024:	05d00000 	ldrbeq	r0, [r0]
    2028:	00010000 	andeq	r0, r1, r0
    202c:	00000052 	andeq	r0, r0, r2, asr r0
    2030:	00000000 	andeq	r0, r0, r0
    2034:	a8000300 	stmdage	r0, {r8, r9}
    2038:	bc000005 	stclt	0, cr0, [r0], {5}
    203c:	01000005 	tsteq	r0, r5
    2040:	00005000 	andeq	r5, r0, r0
    2044:	00000000 	andeq	r0, r0, r0
    2048:	00020000 	andeq	r0, r2, r0
    204c:	000005bc 			; <UNDEFINED> instruction: 0x000005bc
    2050:	000005d0 	ldrdeq	r0, [r0], -r0	; <UNPREDICTABLE>
    2054:	af080003 	svcge	0x00080003
    2058:	0000009f 	muleq	r0, pc, r0	; <UNPREDICTABLE>
    205c:	00000000 	andeq	r0, r0, r0
    2060:	bc000200 	sfmlt	f0, 4, [r0], {-0}
    2064:	d0000005 	andle	r0, r0, r5
    2068:	01000005 	tsteq	r0, r5
    206c:	00005200 	andeq	r5, r0, r0, lsl #4
	...
    2078:	000005c4 	andeq	r0, r0, r4, asr #11
    207c:	000005c8 	andeq	r0, r0, r8, asr #11
    2080:	00530001 	subseq	r0, r3, r1
    2084:	00000000 	andeq	r0, r0, r0
    2088:	02000000 	andeq	r0, r0, #0, 0
    208c:	d0000000 	andle	r0, r0, r0
    2090:	e0000005 	and	r0, r0, r5
    2094:	01000005 	tsteq	r0, r5
    2098:	05e05000 	strbeq	r5, [r0, #0]!
    209c:	06080000 	streq	r0, [r8], -r0
    20a0:	00040000 	andeq	r0, r4, r0
    20a4:	9f5001f3 	svcls	0x005001f3
	...
    20b0:	00000004 	andeq	r0, r0, r4
    20b4:	000005d0 	ldrdeq	r0, [r0], -r0	; <UNPREDICTABLE>
    20b8:	000005e0 	andeq	r0, r0, r0, ror #11
    20bc:	e0500001 	subs	r0, r0, r1
    20c0:	08000005 	stmdaeq	r0, {r0, r2}
    20c4:	04000006 	streq	r0, [r0], #-6
    20c8:	5001f300 	andpl	pc, r1, r0, lsl #6
    20cc:	0000009f 	muleq	r0, pc, r0	; <UNPREDICTABLE>
    20d0:	00000000 	andeq	r0, r0, r0
    20d4:	d4000100 	strle	r0, [r0], #-256	; 0xffffff00
    20d8:	08000005 	stmdaeq	r0, {r0, r2}
    20dc:	01000006 	tsteq	r0, r6
    20e0:	00005200 	andeq	r5, r0, r0, lsl #4
	...
    20ec:	000005d4 	ldrdeq	r0, [r0], -r4
    20f0:	00000608 	andeq	r0, r0, r8, lsl #12
    20f4:	00520001 	subseq	r0, r2, r1
    20f8:	00000000 	andeq	r0, r0, r0
    20fc:	03000000 	movweq	r0, #0
    2100:	d4000000 	strle	r0, [r0], #-0
    2104:	e0000005 	and	r0, r0, r5
    2108:	01000005 	tsteq	r0, r5
    210c:	05e05000 	strbeq	r5, [r0, #0]!
    2110:	05e80000 	strbeq	r0, [r8, #0]!
    2114:	00040000 	andeq	r0, r4, r0
    2118:	9f5001f3 	svcls	0x005001f3
	...
    2124:	05e80002 	strbeq	r0, [r8, #2]!
    2128:	06080000 	streq	r0, [r8], -r0
    212c:	00010000 	andeq	r0, r1, r0
    2130:	00000052 	andeq	r0, r0, r2, asr r0
    2134:	00000000 	andeq	r0, r0, r0
    2138:	f4000000 	vst4.8	{d0-d3}, [r0], r0
    213c:	f8000005 			; <UNDEFINED> instruction: 0xf8000005
    2140:	01000005 	tsteq	r0, r5
    2144:	00005300 	andeq	r5, r0, r0, lsl #6
	...
    2154:	00040000 	andeq	r0, r4, r0
    2158:	00010000 	andeq	r0, r1, r0
    215c:	00000452 	andeq	r0, r0, r2, asr r4
    2160:	00001800 	andeq	r1, r0, r0, lsl #16
    2164:	f3000400 	vshl.u8	d0, d0, d0
    2168:	009f5201 	addseq	r5, pc, r1, lsl #4
    216c:	00000000 	andeq	r0, r0, r0
    2170:	02000000 	andeq	r0, r0, #0, 0
    2174:	01010000 	mrseq	r0, (UNDEF: 1)
    2178:	00000000 	andeq	r0, r0, r0
    217c:	08000000 	stmdaeq	r0, {}	; <UNPREDICTABLE>
    2180:	01000000 	mrseq	r0, (UNDEF: 0)
    2184:	00085000 	andeq	r5, r8, r0
    2188:	00100000 	andseq	r0, r0, r0
    218c:	00010000 	andeq	r0, r1, r0
    2190:	00001053 	andeq	r1, r0, r3, asr r0
    2194:	00001400 	andeq	r1, r0, r0, lsl #8
    2198:	73000300 	movwvc	r0, #768	; 0x300
    219c:	00149f01 	andseq	r9, r4, r1, lsl #30
    21a0:	00180000 	andseq	r0, r8, r0
    21a4:	00010000 	andeq	r0, r1, r0
    21a8:	00000053 	andeq	r0, r0, r3, asr r0
    21ac:	00000000 	andeq	r0, r0, r0
    21b0:	04000000 	streq	r0, [r0], #-0
    21b4:	18000000 	stmdane	r0, {}	; <UNPREDICTABLE>
    21b8:	01000000 	mrseq	r0, (UNDEF: 0)
    21bc:	00005200 	andeq	r5, r0, r0, lsl #4
	...
    21cc:	0000002c 	andeq	r0, r0, ip, lsr #32
    21d0:	00000038 	andeq	r0, r0, r8, lsr r0
    21d4:	38500001 	ldmdacc	r0, {r0}^
    21d8:	48000000 	stmdami	r0, {}	; <UNPREDICTABLE>
    21dc:	01000000 	mrseq	r0, (UNDEF: 0)
    21e0:	00485400 	subeq	r5, r8, r0, lsl #8
    21e4:	00580000 	subseq	r0, r8, r0
    21e8:	00010000 	andeq	r0, r1, r0
    21ec:	00000050 	andeq	r0, r0, r0, asr r0
    21f0:	00000000 	andeq	r0, r0, r0
    21f4:	01010000 	mrseq	r0, (UNDEF: 1)
    21f8:	00000000 	andeq	r0, r0, r0
    21fc:	00000800 	andeq	r0, r0, r0, lsl #16
    2200:	50000100 	andpl	r0, r0, r0, lsl #2
    2204:	00000008 	andeq	r0, r0, r8
    2208:	00000034 	andeq	r0, r0, r4, lsr r0
    220c:	00540001 	subseq	r0, r4, r1
	...
    221c:	00028800 	andeq	r8, r2, r0, lsl #16
    2220:	0002b800 	andeq	fp, r2, r0, lsl #16
    2224:	50000100 	andpl	r0, r0, r0, lsl #2
    2228:	000002b8 			; <UNDEFINED> instruction: 0x000002b8
    222c:	00000704 	andeq	r0, r0, r4, lsl #14
    2230:	04590001 	ldrbeq	r0, [r9], #-1
    2234:	40000007 	andmi	r0, r0, r7
    2238:	04000007 	streq	r0, [r0], #-7
    223c:	5001f300 	andpl	pc, r1, r0, lsl #6
    2240:	0000009f 	muleq	r0, pc, r0	; <UNPREDICTABLE>
	...
    224c:	88000000 	stmdahi	r0, {}	; <UNPREDICTABLE>
    2250:	a0000002 	andge	r0, r0, r2
    2254:	01000002 	tsteq	r0, r2
    2258:	02a05100 	adceq	r5, r0, #0
    225c:	02b80000 	adcseq	r0, r8, #0, 0
    2260:	00030000 	andeq	r0, r3, r0
    2264:	b89f0171 	ldmlt	pc, {r0, r4, r5, r6, r8}	; <UNPREDICTABLE>
    2268:	40000002 	andmi	r0, r0, r2
    226c:	04000007 	streq	r0, [r0], #-7
    2270:	5101f300 	mrspl	pc, SP_irq	; <UNPREDICTABLE>
    2274:	0000009f 	muleq	r0, pc, r0	; <UNPREDICTABLE>
	...
    2288:	00028800 	andeq	r8, r2, r0, lsl #16
    228c:	0002b800 	andeq	fp, r2, r0, lsl #16
    2290:	52000100 	andpl	r0, r0, #0
    2294:	000002b8 			; <UNDEFINED> instruction: 0x000002b8
    2298:	000003ec 	andeq	r0, r0, ip, ror #7
    229c:	ec560001 	mrrc	0, 0, r0, r6, cr1
    22a0:	b8000003 	stmdalt	r0, {r0, r1}
    22a4:	01000004 	tsteq	r0, r4
    22a8:	04b85b00 	ldrteq	r5, [r8], #2816	; 0xb00
    22ac:	04d80000 	ldrbeq	r0, [r8], #0
    22b0:	00010000 	andeq	r0, r1, r0
    22b4:	0004d856 	andeq	sp, r4, r6, asr r8
    22b8:	00055c00 	andeq	r5, r5, r0, lsl #24
    22bc:	5b000100 	blpl	26c4 <__code_start__-0x593c>
    22c0:	0000055c 	andeq	r0, r0, ip, asr r5
    22c4:	00000704 	andeq	r0, r0, r4, lsl #14
    22c8:	00560001 	subseq	r0, r6, r1
    22cc:	00000000 	andeq	r0, r0, r0
    22d0:	01000000 	mrseq	r0, (UNDEF: 0)
    22d4:	00000000 	andeq	r0, r0, r0
    22d8:	01010000 	mrseq	r0, (UNDEF: 1)
    22dc:	00000000 	andeq	r0, r0, r0
    22e0:	02020000 	andeq	r0, r2, #0, 0
    22e4:	9c000000 	stcls	0, cr0, [r0], {-0}
    22e8:	b8000002 	stmdalt	r0, {r1}
    22ec:	01000002 	tsteq	r0, r2
    22f0:	02b85000 	adcseq	r5, r8, #0, 0
    22f4:	02bc0000 	adcseq	r0, ip, #0, 0
    22f8:	00010000 	andeq	r0, r1, r0
    22fc:	0002bc54 	andeq	fp, r2, r4, asr ip
    2300:	0002c000 	andeq	ip, r2, r0
    2304:	74000300 	strvc	r0, [r0], #-768	; 0xfffffd00
    2308:	02c09f01 	sbceq	r9, r0, #1, 30
    230c:	02e40000 	rsceq	r0, r4, #0, 0
    2310:	00010000 	andeq	r0, r1, r0
    2314:	0002e454 	andeq	lr, r2, r4, asr r4
    2318:	0002e800 	andeq	lr, r2, r0, lsl #16
    231c:	74000300 	strvc	r0, [r0], #-768	; 0xfffffd00
    2320:	02e89f01 	rsceq	r9, r8, #1, 30
    2324:	06d40000 	ldrbeq	r0, [r4], r0
    2328:	00010000 	andeq	r0, r1, r0
    232c:	0006d454 	andeq	sp, r6, r4, asr r4
    2330:	0006d800 	andeq	sp, r6, r0, lsl #16
    2334:	74000300 	strvc	r0, [r0], #-768	; 0xfffffd00
    2338:	06d89f01 	ldrbeq	r9, [r8], r1, lsl #30
    233c:	06f00000 	ldrbteq	r0, [r0], r0
    2340:	00010000 	andeq	r0, r1, r0
    2344:	0006f054 	andeq	pc, r6, r4, asr r0	; <UNPREDICTABLE>
    2348:	0006f800 	andeq	pc, r6, r0, lsl #16
    234c:	74000300 	strvc	r0, [r0], #-768	; 0xfffffd00
    2350:	06f89f01 	ldrbteq	r9, [r8], r1, lsl #30
    2354:	07040000 	streq	r0, [r4, -r0]
    2358:	00010000 	andeq	r0, r1, r0
    235c:	00000054 	andeq	r0, r0, r4, asr r0
	...
    2368:	0002a400 	andeq	sl, r2, r0, lsl #8
    236c:	00070400 	andeq	r0, r7, r0, lsl #8
    2370:	58000100 	stmdapl	r0, {r8}
    2374:	00000704 	andeq	r0, r0, r4, lsl #14
    2378:	00000740 	andeq	r0, r0, r0, asr #14
    237c:	01f3000a 	mvnseq	r0, sl
    2380:	5001f351 	andpl	pc, r1, r1, asr r3	; <UNPREDICTABLE>
    2384:	9f1c3122 	svcls	0x001c3122
	...
    2390:	00000001 	andeq	r0, r0, r1
    2394:	04080000 	streq	r0, [r8], #-0
    2398:	04740000 	ldrbteq	r0, [r4], #-0
    239c:	00010000 	andeq	r0, r1, r0
    23a0:	0004d857 	andeq	sp, r4, r7, asr r8
    23a4:	0004fc00 	andeq	pc, r4, r0, lsl #24
    23a8:	57000100 	strpl	r0, [r0, -r0, lsl #2]
    23ac:	00000540 	andeq	r0, r0, r0, asr #10
    23b0:	0000055c 	andeq	r0, r0, ip, asr r5
    23b4:	00570001 	subseq	r0, r7, r1
    23b8:	00000000 	andeq	r0, r0, r0
    23bc:	02000000 	andeq	r0, r0, #0, 0
    23c0:	08000000 	stmdaeq	r0, {}	; <UNPREDICTABLE>
    23c4:	b8000004 	stmdalt	r0, {r2}
    23c8:	01000004 	tsteq	r0, r4
    23cc:	04d85a00 	ldrbeq	r5, [r8], #2560	; 0xa00
    23d0:	055c0000 	ldrbeq	r0, [ip, #-0]
    23d4:	00010000 	andeq	r0, r1, r0
    23d8:	0000005a 	andeq	r0, r0, sl, asr r0
    23dc:	00000000 	andeq	r0, r0, r0
    23e0:	00000100 	andeq	r0, r0, r0, lsl #2
    23e4:	0002ac00 	andeq	sl, r2, r0, lsl #24
    23e8:	0002b800 	andeq	fp, r2, r0, lsl #16
    23ec:	52000100 	andpl	r0, r0, #0
    23f0:	000002b8 			; <UNDEFINED> instruction: 0x000002b8
    23f4:	00000740 	andeq	r0, r0, r0, asr #14
    23f8:	c8910003 	ldmgt	r1, {r0, r1}
    23fc:	0000007d 	andeq	r0, r0, sp, ror r0
	...
    240c:	01010000 	mrseq	r0, (UNDEF: 1)
	...
    2418:	74000000 	strvc	r0, [r0], #-0
    241c:	8c000004 	stchi	0, cr0, [r0], {4}
    2420:	01000004 	tsteq	r0, r4
    2424:	048c5000 	streq	r5, [ip], #0
    2428:	04b80000 	ldrteq	r0, [r8], #0
    242c:	00010000 	andeq	r0, r1, r0
    2430:	0004fc57 	andeq	pc, r4, r7, asr ip	; <UNPREDICTABLE>
    2434:	00051400 	andeq	r1, r5, r0, lsl #8
    2438:	50000100 	andpl	r0, r0, r0, lsl #2
    243c:	00000514 	andeq	r0, r0, r4, lsl r5
    2440:	00000540 	andeq	r0, r0, r0, asr #10
    2444:	a4570001 	ldrbge	r0, [r7], #-1
    2448:	a4000005 	strge	r0, [r0], #-5
    244c:	01000005 	tsteq	r0, r5
    2450:	05a45000 	streq	r5, [r4, #0]!
    2454:	05ac0000 	streq	r0, [ip, #0]!
    2458:	00010000 	andeq	r0, r1, r0
    245c:	0005dc57 	andeq	sp, r5, r7, asr ip
    2460:	0005e000 	andeq	lr, r5, r0
    2464:	50000100 	andpl	r0, r0, r0, lsl #2
    2468:	00000610 	andeq	r0, r0, r0, lsl r6
    246c:	00000614 	andeq	r0, r0, r4, lsl r6
    2470:	44500001 	ldrbmi	r0, [r0], #-1
    2474:	48000006 	stmdami	r0, {r1, r2}
    2478:	01000006 	tsteq	r0, r6
    247c:	068c5000 	streq	r5, [ip], r0
    2480:	06900000 	ldreq	r0, [r0], r0
    2484:	00010000 	andeq	r0, r1, r0
    2488:	0006d050 	andeq	sp, r6, r0, asr r0
    248c:	0006f000 	andeq	pc, r6, r0
    2490:	57000100 	strpl	r0, [r0, -r0, lsl #2]
	...
    249c:	00000002 	andeq	r0, r0, r2
    24a0:	02f40000 	rscseq	r0, r4, #0, 0
    24a4:	02f80000 	rscseq	r0, r8, #0, 0
    24a8:	00020000 	andeq	r0, r2, r0
    24ac:	02f89f30 	rscseq	r9, r8, #48, 30	; 0xc0
    24b0:	03140000 	tsteq	r4, #0, 0
    24b4:	00010000 	andeq	r0, r1, r0
    24b8:	00031c55 	andeq	r1, r3, r5, asr ip
    24bc:	0006f000 	andeq	pc, r6, r0
    24c0:	55000100 	strpl	r0, [r0, #-256]	; 0xffffff00
	...
    24cc:	00000001 	andeq	r0, r0, r1
    24d0:	00000000 	andeq	r0, r0, r0
    24d4:	03b80000 			; <UNDEFINED> instruction: 0x03b80000
    24d8:	04540000 	ldrbeq	r0, [r4], #-0
    24dc:	00010000 	andeq	r0, r1, r0
    24e0:	00045456 	andeq	r5, r4, r6, asr r4
    24e4:	0004b800 	andeq	fp, r4, r0, lsl #16
    24e8:	7b000300 	blvc	30f0 <__code_start__-0x4f10>
    24ec:	04b89f7e 	ldrteq	r9, [r8], #3966	; 0xf7e
    24f0:	04dc0000 	ldrbeq	r0, [ip], #0
    24f4:	00010000 	andeq	r0, r1, r0
    24f8:	0004dc56 	andeq	sp, r4, r6, asr ip
    24fc:	00054000 	andeq	r4, r5, r0
    2500:	7b000300 	blvc	3108 <__code_start__-0x4ef8>
    2504:	05409f7e 	strbeq	r9, [r0, #-3966]	; 0xfffff082
    2508:	055c0000 	ldrbeq	r0, [ip, #-0]
    250c:	00010000 	andeq	r0, r1, r0
    2510:	00000056 	andeq	r0, r0, r6, asr r0
	...
    251c:	70000000 	andvc	r0, r0, r0
    2520:	94000000 	strls	r0, [r0], #-0
    2524:	01000000 	mrseq	r0, (UNDEF: 0)
    2528:	00945000 	addseq	r5, r4, r0
    252c:	00fc0000 	rscseq	r0, ip, r0
    2530:	00030000 	andeq	r0, r3, r0
    2534:	fc9f0270 	ldc2	2, cr0, [pc], {112}	; 0x70
    2538:	24000000 	strcs	r0, [r0], #-0
    253c:	04000002 	streq	r0, [r0], #-2
    2540:	5001f300 	andpl	pc, r1, r0, lsl #6
    2544:	0000009f 	muleq	r0, pc, r0	; <UNPREDICTABLE>
	...
    255c:	00007000 	andeq	r7, r0, r0
    2560:	0000e000 	andeq	lr, r0, r0
    2564:	51000100 	mrspl	r0, (UNDEF: 16)
    2568:	000000e0 	andeq	r0, r0, r0, ror #1
    256c:	00000154 	andeq	r0, r0, r4, asr r1
    2570:	54550001 	ldrbpl	r0, [r5], #-1
    2574:	58000001 	stmdapl	r0, {r0}
    2578:	01000001 	tsteq	r0, r1
    257c:	01585100 	cmpeq	r8, r0, lsl #2
    2580:	01b00000 	movseq	r0, r0
    2584:	00010000 	andeq	r0, r1, r0
    2588:	0001b055 	andeq	fp, r1, r5, asr r0
    258c:	0001c000 	andeq	ip, r1, r0
    2590:	51000100 	mrspl	r0, (UNDEF: 16)
    2594:	000001c0 	andeq	r0, r0, r0, asr #3
    2598:	000001e4 	andeq	r0, r0, r4, ror #3
    259c:	e4550001 	ldrb	r0, [r5], #-1
    25a0:	f8000001 			; <UNDEFINED> instruction: 0xf8000001
    25a4:	01000001 	tsteq	r0, r1
    25a8:	01f85100 	mvnseq	r5, r0, lsl #2
    25ac:	02240000 	eoreq	r0, r4, #0, 0
    25b0:	00010000 	andeq	r0, r1, r0
    25b4:	00000055 	andeq	r0, r0, r5, asr r0
	...
    25c0:	00007000 	andeq	r7, r0, r0
    25c4:	00008400 	andeq	r8, r0, r0, lsl #8
    25c8:	52000100 	andpl	r0, r0, #0
    25cc:	00000084 	andeq	r0, r0, r4, lsl #1
    25d0:	00000224 	andeq	r0, r0, r4, lsr #4
    25d4:	00540001 	subseq	r0, r4, r1
	...
    25e4:	00000001 	andeq	r0, r0, r1
    25e8:	70000000 	andvc	r0, r0, r0
    25ec:	f4000000 	vst4.8	{d0-d3}, [r0], r0
    25f0:	01000000 	mrseq	r0, (UNDEF: 0)
    25f4:	014c5300 	mrseq	r5, SPSR_mon
    25f8:	01800000 	orreq	r0, r0, r0
    25fc:	00010000 	andeq	r0, r1, r0
    2600:	00018053 	andeq	r8, r1, r3, asr r0
    2604:	00018c00 	andeq	r8, r1, r0, lsl #24
    2608:	f3000400 	vshl.u8	d0, d0, d0
    260c:	b09f5301 	addslt	r5, pc, r1, lsl #6
    2610:	e8000001 	stmda	r0, {r0}
    2614:	01000001 	tsteq	r0, r1
    2618:	01e85300 	mvneq	r5, r0, lsl #6
    261c:	01ff0000 	mvnseq	r0, r0
    2620:	00010000 	andeq	r0, r1, r0
    2624:	0001ff5c 	andeq	pc, r1, ip, asr pc	; <UNPREDICTABLE>
    2628:	00022400 	andeq	r2, r2, r0, lsl #8
    262c:	f3000400 	vshl.u8	d0, d0, d0
    2630:	009f5301 	addseq	r5, pc, r1, lsl #6
	...
    2640:	00007000 	andeq	r7, r0, r0
    2644:	00008c00 	andeq	r8, r0, r0, lsl #24
    2648:	91000200 	mrsls	r0, R8_usr
    264c:	00008c00 	andeq	r8, r0, r0, lsl #24
    2650:	00019300 	andeq	r9, r1, r0, lsl #6
    2654:	52000100 	andpl	r0, r0, #0
    2658:	000001b0 			; <UNDEFINED> instruction: 0x000001b0
    265c:	000001f4 	strdeq	r0, [r0], -r4
    2660:	00520001 	subseq	r0, r2, r1
    2664:	00000000 	andeq	r0, r0, r0
    2668:	01000000 	mrseq	r0, (UNDEF: 0)
    266c:	01010000 	mrseq	r0, (UNDEF: 1)
	...
    2678:	01010101 	tsteq	r1, r1, lsl #2
    267c:	01010000 	mrseq	r0, (UNDEF: 1)
	...
    2688:	8c000000 	stchi	0, cr0, [r0], {-0}
    268c:	fc000000 	stc2	0, cr0, [r0], {-0}
    2690:	04000000 	streq	r0, [r0], #-0
    2694:	7fa09100 	svcvc	0x00a09100
    2698:	0000fc9f 	muleq	r0, pc, ip	; <UNPREDICTABLE>
    269c:	00013c00 	andeq	r3, r1, r0, lsl #24
    26a0:	50000100 	andpl	r0, r0, r0, lsl #2
    26a4:	0000013c 	andeq	r0, r0, ip, lsr r1
    26a8:	00000148 	andeq	r0, r0, r8, asr #2
    26ac:	02710003 	rsbseq	r0, r1, #3, 0
    26b0:	0001489f 	muleq	r1, pc, r8	; <UNPREDICTABLE>
    26b4:	00014c00 	andeq	r4, r1, r0, lsl #24
    26b8:	50000100 	andpl	r0, r0, r0, lsl #2
    26bc:	0000014c 	andeq	r0, r0, ip, asr #2
    26c0:	00000158 	andeq	r0, r0, r8, asr r1
    26c4:	a0910004 	addsge	r0, r1, r4
    26c8:	01589f7f 	cmpeq	r8, pc, ror pc
    26cc:	016c0000 	cmneq	ip, r0
    26d0:	00010000 	andeq	r0, r1, r0
    26d4:	00016c51 	andeq	r6, r1, r1, asr ip
    26d8:	00017800 	andeq	r7, r1, r0, lsl #16
    26dc:	71000300 	mrsvc	r0, LR_irq
    26e0:	01789f7f 	cmneq	r8, pc, ror pc
    26e4:	01840000 	orreq	r0, r4, r0
    26e8:	00030000 	andeq	r0, r3, r0
    26ec:	849f0171 	ldrhi	r0, [pc], #369	; 26f4 <__code_start__-0x590c>
    26f0:	93000001 	movwls	r0, #1
    26f4:	01000001 	tsteq	r0, r1
    26f8:	01b05000 	movseq	r5, r0
    26fc:	01b00000 	movseq	r0, r0
    2700:	00040000 	andeq	r0, r4, r0
    2704:	9f7fa091 	svcls	0x007fa091
    2708:	000001b0 			; <UNDEFINED> instruction: 0x000001b0
    270c:	000001b8 			; <UNDEFINED> instruction: 0x000001b8
    2710:	a1910004 	orrsge	r0, r1, r4
    2714:	01b89f7f 			; <UNDEFINED> instruction: 0x01b89f7f
    2718:	01bc0000 			; <UNDEFINED> instruction: 0x01bc0000
    271c:	00010000 	andeq	r0, r1, r0
    2720:	0001bc50 	andeq	fp, r1, r0, asr ip
    2724:	0001c000 	andeq	ip, r1, r0
    2728:	91000400 	tstls	r0, r0, lsl #8
    272c:	c09f7fa0 	addsgt	r7, pc, r0, lsr #31
    2730:	d4000001 	strle	r0, [r0], #-1
    2734:	01000001 	tsteq	r0, r1
    2738:	01d45000 	bicseq	r5, r4, r0
    273c:	01e40000 	mvneq	r0, r0
    2740:	00030000 	andeq	r0, r3, r0
    2744:	e49f7f70 	ldr	r7, [pc], #3952	; 274c <__code_start__-0x58b4>
    2748:	24000001 	strcs	r0, [r0], #-1
    274c:	04000002 	streq	r0, [r0], #-2
    2750:	7fa09100 	svcvc	0x00a09100
    2754:	0000009f 	muleq	r0, pc, r0	; <UNPREDICTABLE>
	...
    2760:	00000101 	andeq	r0, r0, r1, lsl #2
	...
    2770:	00009000 	andeq	r9, r0, r0
    2774:	0000dc00 	andeq	sp, r0, r0, lsl #24
    2778:	5c000100 	stfpls	f0, [r0], {-0}
    277c:	000000dc 	ldrdeq	r0, [r0], -ip
    2780:	000000f4 	strdeq	r0, [r0], -r4
    2784:	f4530001 			; <UNDEFINED> instruction: 0xf4530001
    2788:	4c000000 	stcmi	0, cr0, [r0], {-0}
    278c:	01000001 	tsteq	r0, r1
    2790:	014c5c00 	cmpeq	ip, r0, lsl #24
    2794:	01580000 	cmpeq	r8, r0
    2798:	00010000 	andeq	r0, r1, r0
    279c:	00015853 	andeq	r5, r1, r3, asr r8
    27a0:	00017400 	andeq	r7, r1, r0, lsl #8
    27a4:	5c000100 	stfpls	f0, [r0], {-0}
    27a8:	000001b0 			; <UNDEFINED> instruction: 0x000001b0
    27ac:	000001c0 	andeq	r0, r0, r0, asr #3
    27b0:	c0530001 	subsgt	r0, r3, r1
    27b4:	dc000001 	stcle	0, cr0, [r0], {1}
    27b8:	01000001 	tsteq	r0, r1
    27bc:	01e45c00 	mvneq	r5, r0, lsl #24
    27c0:	01e80000 	mvneq	r0, r0
    27c4:	00010000 	andeq	r0, r1, r0
    27c8:	0001e853 	andeq	lr, r1, r3, asr r8
    27cc:	0001ff00 	andeq	pc, r1, r0, lsl #30
    27d0:	5c000100 	stfpls	f0, [r0], {-0}
    27d4:	000001ff 	strdeq	r0, [r0], -pc	; <UNPREDICTABLE>
    27d8:	00000224 	andeq	r0, r0, r4, lsr #4
    27dc:	01f30004 	mvnseq	r0, r4
    27e0:	00009f53 	andeq	r9, r0, r3, asr pc
    27e4:	00000000 	andeq	r0, r0, r0
    27e8:	01010000 	mrseq	r0, (UNDEF: 1)
    27ec:	00000001 	andeq	r0, r0, r1
    27f0:	00dc0000 	sbcseq	r0, ip, r0
    27f4:	00f00000 	rscseq	r0, r0, r0
    27f8:	00020000 	andeq	r0, r2, r0
    27fc:	00f09f30 	rscseq	r9, r0, r0, lsr pc
    2800:	00f80000 	rscseq	r0, r8, r0
    2804:	00020000 	andeq	r0, r2, r0
    2808:	00fc9f31 	rscseq	r9, ip, r1, lsr pc
    280c:	014c0000 	mrseq	r0, (UNDEF: 76)
    2810:	00010000 	andeq	r0, r1, r0
    2814:	00014c56 	andeq	r4, r1, r6, asr ip
    2818:	00015400 	andeq	r5, r1, r0, lsl #8
    281c:	30000200 	andcc	r0, r0, r0, lsl #4
    2820:	0000009f 	muleq	r0, pc, r0	; <UNPREDICTABLE>
	...
    282c:	00000101 	andeq	r0, r0, r1, lsl #2
    2830:	38000101 	stmdacc	r0, {r0, r8}
    2834:	54000000 	strpl	r0, [r0], #-0
    2838:	01000000 	mrseq	r0, (UNDEF: 0)
    283c:	00545000 	subseq	r5, r4, r0
    2840:	00580000 	subseq	r0, r8, r0
    2844:	00010000 	andeq	r0, r1, r0
    2848:	00005852 	andeq	r5, r0, r2, asr r8
    284c:	00006000 	andeq	r6, r0, r0
    2850:	72000300 	andvc	r0, r0, #0, 6
    2854:	00609f01 	rsbeq	r9, r0, r1, lsl #30
    2858:	00640000 	rsbeq	r0, r4, r0
    285c:	00010000 	andeq	r0, r1, r0
    2860:	00006452 	andeq	r6, r0, r2, asr r4
    2864:	00007000 	andeq	r7, r0, r0
    2868:	72000300 	andvc	r0, r0, #0, 6
    286c:	00009f01 	andeq	r9, r0, r1, lsl #30
	...
    2878:	00380000 	eorseq	r0, r8, r0
    287c:	00500000 	subseq	r0, r0, r0
    2880:	00010000 	andeq	r0, r1, r0
    2884:	00005051 	andeq	r5, r0, r1, asr r0
    2888:	00007000 	andeq	r7, r0, r0
    288c:	f3000400 	vshl.u8	d0, d0, d0
    2890:	009f5101 	addseq	r5, pc, r1, lsl #2
	...
    28a0:	38000101 	stmdacc	r0, {r0, r8}
    28a4:	50000000 	andpl	r0, r0, r0
    28a8:	01000000 	mrseq	r0, (UNDEF: 0)
    28ac:	00505200 	subseq	r5, r0, r0, lsl #4
    28b0:	005c0000 	subseq	r0, ip, r0
    28b4:	00010000 	andeq	r0, r1, r0
    28b8:	00005c51 	andeq	r5, r0, r1, asr ip
    28bc:	00006000 	andeq	r6, r0, r0
    28c0:	71000300 	mrsvc	r0, LR_irq
    28c4:	00609f01 	rsbeq	r9, r0, r1, lsl #30
    28c8:	00700000 	rsbseq	r0, r0, r0
    28cc:	00010000 	andeq	r0, r1, r0
    28d0:	00000051 	andeq	r0, r0, r1, asr r0
	...
    28dc:	00003800 	andeq	r3, r0, r0, lsl #16
    28e0:	00004c00 	andeq	r4, r0, r0, lsl #24
    28e4:	53000100 	movwpl	r0, #256	; 0x100
    28e8:	0000004c 	andeq	r0, r0, ip, asr #32
    28ec:	00000068 	andeq	r0, r0, r8, rrx
    28f0:	00530001 	subseq	r0, r3, r1
	...
    2900:	40000000 	andmi	r0, r0, r0
    2904:	48000000 	stmdami	r0, {}	; <UNPREDICTABLE>
    2908:	01000000 	mrseq	r0, (UNDEF: 0)
    290c:	00485c00 	subeq	r5, r8, r0, lsl #24
    2910:	004c0000 	subeq	r0, ip, r0
    2914:	00080000 	andeq	r0, r8, r0
    2918:	00730072 	rsbseq	r0, r3, r2, ror r0
    291c:	9f01231c 	svcls	0x0001231c
    2920:	0000004c 	andeq	r0, r0, ip, asr #32
    2924:	00000054 	andeq	r0, r0, r4, asr r0
    2928:	00720009 	rsbseq	r0, r2, r9
    292c:	1c5301f3 	ldfnee	f0, [r3], {243}	; 0xf3
    2930:	549f0123 	ldrpl	r0, [pc], #291	; 2938 <__code_start__-0x56c8>
    2934:	70000000 	andvc	r0, r0, r0
    2938:	0a000000 	beq	2940 <__code_start__-0x56c0>
    293c:	5201f300 	andpl	pc, r1, #0, 6
    2940:	1c5301f3 	ldfnee	f0, [r3], {243}	; 0xf3
    2944:	009f0123 	addseq	r0, pc, r3, lsr #2
    2948:	00000000 	andeq	r0, r0, r0
    294c:	01000000 	mrseq	r0, (UNDEF: 0)
    2950:	00004c00 	andeq	r4, r0, r0, lsl #24
    2954:	00007000 	andeq	r7, r0, r0
    2958:	50000100 	andpl	r0, r0, r0, lsl #2
	...
    2964:	00010100 	andeq	r0, r1, r0, lsl #2
    2968:	00140000 	andseq	r0, r4, r0
    296c:	001c0000 	andseq	r0, ip, r0
    2970:	00010000 	andeq	r0, r1, r0
    2974:	00001c50 	andeq	r1, r0, r0, asr ip
    2978:	00002400 	andeq	r2, r0, r0, lsl #8
    297c:	70000300 	andvc	r0, r0, r0, lsl #6
    2980:	00249f01 	eoreq	r9, r4, r1, lsl #30
    2984:	00380000 	eorseq	r0, r8, r0
    2988:	00010000 	andeq	r0, r1, r0
    298c:	00000050 	andeq	r0, r0, r0, asr r0
	...
    2998:	00001400 	andeq	r1, r0, r0, lsl #8
    299c:	00001800 	andeq	r1, r0, r0, lsl #16
    29a0:	51000100 	mrspl	r0, (UNDEF: 16)
    29a4:	00000018 	andeq	r0, r0, r8, lsl r0
    29a8:	00000038 	andeq	r0, r0, r8, lsr r0
    29ac:	01f30004 	mvnseq	r0, r4
    29b0:	00009f51 	andeq	r9, r0, r1, asr pc
	...
    29bc:	00000018 	andeq	r0, r0, r8, lsl r0
    29c0:	00000038 	andeq	r0, r0, r8, lsr r0
    29c4:	00510001 	subseq	r0, r1, r1
	...
    29d8:	00000400 	andeq	r0, r0, r0, lsl #8
    29dc:	50000100 	andpl	r0, r0, r0, lsl #2
    29e0:	00000004 	andeq	r0, r0, r4
    29e4:	0000000c 	andeq	r0, r0, ip
    29e8:	30700003 	rsbscc	r0, r0, r3
    29ec:	00000c9f 	muleq	r0, pc, ip	; <UNPREDICTABLE>
    29f0:	00001400 	andeq	r1, r0, r0, lsl #8
    29f4:	f3000400 	vshl.u8	d0, d0, d0
    29f8:	009f5001 	addseq	r5, pc, r1
	...
    2a04:	24000000 	strcs	r0, [r0], #-0
    2a08:	68000002 	stmdavs	r0, {r1}
    2a0c:	01000002 	tsteq	r0, r2
    2a10:	02685000 	rsbeq	r5, r8, #0, 0
    2a14:	02880000 	addeq	r0, r8, #0, 0
    2a18:	00040000 	andeq	r0, r4, r0
    2a1c:	9f5001f3 	svcls	0x005001f3
	...
    2a2c:	00000224 	andeq	r0, r0, r4, lsr #4
    2a30:	00000264 	andeq	r0, r0, r4, ror #4
    2a34:	64510001 	ldrbvs	r0, [r1], #-1
    2a38:	88000002 	stmdahi	r0, {r1}
    2a3c:	04000002 	streq	r0, [r0], #-2
    2a40:	5101f300 	mrspl	pc, SP_irq	; <UNPREDICTABLE>
    2a44:	0000009f 	muleq	r0, pc, r0	; <UNPREDICTABLE>
    2a48:	00000000 	andeq	r0, r0, r0
    2a4c:	01010000 	mrseq	r0, (UNDEF: 1)
    2a50:	30000000 	andcc	r0, r0, r0
    2a54:	30000095 	mulcc	r0, r5, r0
    2a58:	01000095 	swpeq	r0, r5, [r0]	; <UNPREDICTABLE>
    2a5c:	95305300 	ldrls	r5, [r0, #-768]!	; 0xfffffd00
    2a60:	95340000 	ldrls	r0, [r4, #-0]!
    2a64:	00070000 	andeq	r0, r7, r0
    2a68:	ff0b0073 			; <UNDEFINED> instruction: 0xff0b0073
    2a6c:	349f1aef 	ldrcc	r1, [pc], #2799	; 2a74 <__code_start__-0x558c>
    2a70:	3c000095 	stccc	0, cr0, [r0], {149}	; 0x95
    2a74:	01000095 	swpeq	r0, r5, [r0]	; <UNPREDICTABLE>
    2a78:	00005300 	andeq	r5, r0, r0, lsl #6
    2a7c:	00000000 	andeq	r0, r0, r0
    2a80:	01000000 	mrseq	r0, (UNDEF: 0)
    2a84:	00000001 	andeq	r0, r0, r1
    2a88:	00009520 	andeq	r9, r0, r0, lsr #10
    2a8c:	00009520 	andeq	r9, r0, r0, lsr #10
    2a90:	20530001 	subscs	r0, r3, r1
    2a94:	24000095 	strcs	r0, [r0], #-149	; 0xffffff6b
    2a98:	07000095 			; <UNDEFINED> instruction: 0x07000095
    2a9c:	0a007300 	beq	1f6a4 <__bss_end__+0x1508c>
    2aa0:	9f211000 	svcls	0x00211000
    2aa4:	00009524 	andeq	r9, r0, r4, lsr #10
    2aa8:	0000952c 	andeq	r9, r0, ip, lsr #10
    2aac:	00530001 	subseq	r0, r3, r1
	...
    2ab8:	00000101 	andeq	r0, r0, r1, lsl #2
    2abc:	00000c00 	andeq	r0, r0, r0, lsl #24
    2ac0:	00001400 	andeq	r1, r0, r0, lsl #8
    2ac4:	53000100 	movwpl	r0, #256	; 0x100
    2ac8:	00000014 	andeq	r0, r0, r4, lsl r0
    2acc:	0000001c 	andeq	r0, r0, ip, lsl r0
    2ad0:	04730003 	ldrbteq	r0, [r3], #-3
    2ad4:	00001c9f 	muleq	r0, pc, ip	; <UNPREDICTABLE>
    2ad8:	00002300 	andeq	r2, r0, r0, lsl #6
    2adc:	53000100 	movwpl	r0, #256	; 0x100
	...
    2ae8:	95f40001 	ldrbls	r0, [r4, #1]!
    2aec:	96100000 	ldrls	r0, [r0], -r0
    2af0:	00060000 	andeq	r0, r6, r0
    2af4:	10001c0c 	andne	r1, r0, ip, lsl #24
    2af8:	00009f20 	andeq	r9, r0, r0, lsr #30
    2afc:	00000000 	andeq	r0, r0, r0
    2b00:	00020000 	andeq	r0, r2, r0
    2b04:	000095f4 	strdeq	r9, [r0], -r4
    2b08:	00009610 	andeq	r9, r0, r0, lsl r6
    2b0c:	240c0006 	strcs	r0, [ip], #-6
    2b10:	9f201000 	svcls	0x00201000
	...
    2b1c:	95f40003 	ldrbls	r0, [r4, #3]!
    2b20:	96100000 	ldrls	r0, [r0], -r0
    2b24:	00050000 	andeq	r0, r5, r0
    2b28:	2447b408 	strbcs	fp, [r7], #-1032	; 0xfffffbf8
    2b2c:	0000009f 	muleq	r0, pc, r0	; <UNPREDICTABLE>
    2b30:	00000000 	andeq	r0, r0, r0
    2b34:	f4000400 	vst3.8	{d0-d2}, [r0], r0
    2b38:	10000095 	mulne	r0, r5, r0
    2b3c:	03000096 	movweq	r0, #150	; 0x96
    2b40:	9f200800 	svcls	0x00200800
	...
    2b4c:	00000002 	andeq	r0, r0, r2
    2b50:	95c00000 	strbls	r0, [r0]
    2b54:	95c40000 	strbls	r0, [r4]
    2b58:	00020000 	andeq	r0, r2, r0
    2b5c:	95c49f30 	strbls	r9, [r4, #3888]	; 0xf30
    2b60:	95c80000 	strbls	r0, [r8]
    2b64:	00010000 	andeq	r0, r1, r0
    2b68:	0095cc53 	addseq	ip, r5, r3, asr ip
    2b6c:	0095d400 	addseq	sp, r5, r0, lsl #8
    2b70:	53000100 	movwpl	r0, #256	; 0x100
	...
    2b7c:	00000002 	andeq	r0, r0, r2
    2b80:	000095a8 	andeq	r9, r0, r8, lsr #11
    2b84:	000095ac 	andeq	r9, r0, ip, lsr #11
    2b88:	9f300002 	svcls	0x00300002
    2b8c:	000095ac 	andeq	r9, r0, ip, lsr #11
    2b90:	000095b0 			; <UNDEFINED> instruction: 0x000095b0
    2b94:	00500001 	subseq	r0, r0, r1
	...
    2ba0:	6c000000 	stcvs	0, cr0, [r0], {-0}
    2ba4:	78000000 	stmdavc	r0, {}	; <UNPREDICTABLE>
    2ba8:	01000000 	mrseq	r0, (UNDEF: 0)
    2bac:	00785000 	rsbseq	r5, r8, r0
    2bb0:	00840000 	addeq	r0, r4, r0
    2bb4:	00040000 	andeq	r0, r4, r0
    2bb8:	9f5001f3 	svcls	0x005001f3
	...
    2bc8:	00000054 	andeq	r0, r0, r4, asr r0
    2bcc:	00000060 	andeq	r0, r0, r0, rrx
    2bd0:	60500001 	subsvs	r0, r0, r1
    2bd4:	6c000000 	stcvs	0, cr0, [r0], {-0}
    2bd8:	04000000 	streq	r0, [r0], #-0
    2bdc:	5001f300 	andpl	pc, r1, r0, lsl #6
    2be0:	0000009f 	muleq	r0, pc, r0	; <UNPREDICTABLE>
	...
    2bec:	00003000 	andeq	r3, r0, r0
    2bf0:	00003b00 	andeq	r3, r0, r0, lsl #22
    2bf4:	50000100 	andpl	r0, r0, r0, lsl #2
    2bf8:	0000003b 	andeq	r0, r0, fp, lsr r0
    2bfc:	00000054 	andeq	r0, r0, r4, asr r0
    2c00:	00550001 	subseq	r0, r5, r1
	...
    2c0c:	00004000 	andeq	r4, r0, r0
    2c10:	00005400 	andeq	r5, r0, r0, lsl #8
    2c14:	54000100 	strpl	r0, [r0], #-256	; 0xffffff00
	...
    2c20:	00440000 	subeq	r0, r4, r0
    2c24:	00480000 	subeq	r0, r8, r0
    2c28:	00010000 	andeq	r0, r1, r0
    2c2c:	00000050 	andeq	r0, r0, r0, asr r0
	...
    2c38:	00002400 	andeq	r2, r0, r0, lsl #8
    2c3c:	00002700 	andeq	r2, r0, r0, lsl #14
    2c40:	50000100 	andpl	r0, r0, r0, lsl #2
    2c44:	00000027 	andeq	r0, r0, r7, lsr #32
    2c48:	00000030 	andeq	r0, r0, r0, lsr r0
    2c4c:	00540001 	subseq	r0, r4, r1
	...
    2c5c:	e8000000 	stmda	r0, {}	; <UNPREDICTABLE>
    2c60:	00000000 	andeq	r0, r0, r0
    2c64:	01000001 	tsteq	r0, r1
    2c68:	01005000 	mrseq	r5, (UNDEF: 0)
    2c6c:	01100000 	tsteq	r0, r0
    2c70:	00040000 	andeq	r0, r4, r0
    2c74:	9f5001f3 	svcls	0x005001f3
    2c78:	00000110 	andeq	r0, r0, r0, lsl r1
    2c7c:	00000114 	andeq	r0, r0, r4, lsl r1
    2c80:	14500001 	ldrbne	r0, [r0], #-1
    2c84:	1c000001 	stcne	0, cr0, [r0], {1}
    2c88:	04000001 	streq	r0, [r0], #-1
    2c8c:	5001f300 	andpl	pc, r1, r0, lsl #6
    2c90:	0000009f 	muleq	r0, pc, r0	; <UNPREDICTABLE>
    2c94:	00000000 	andeq	r0, r0, r0
    2c98:	00000100 	andeq	r0, r0, r0, lsl #2
    2c9c:	f4000000 	vst4.8	{d0-d3}, [r0], r0
    2ca0:	00000000 	andeq	r0, r0, r0
    2ca4:	0b000001 	bleq	2cb0 <__code_start__-0x5350>
    2ca8:	35007000 	strcc	r7, [r0, #-0]
    2cac:	80b42325 	adcshi	r2, r4, r5, lsr #6
    2cb0:	9f028180 	svcls	0x00028180
    2cb4:	00000100 	andeq	r0, r0, r0, lsl #2
    2cb8:	00000103 	andeq	r0, r0, r3, lsl #2
    2cbc:	03500001 	cmpeq	r0, #1, 0
    2cc0:	10000001 	andne	r0, r0, r1
    2cc4:	0c000001 	stceq	0, cr0, [r0], {1}
    2cc8:	5001f300 	andpl	pc, r1, r0, lsl #6
    2ccc:	b4232535 	strtlt	r2, [r3], #-1333	; 0xfffffacb
    2cd0:	02818080 	addeq	r8, r1, #128, 0	; 0x80
    2cd4:	0000009f 	muleq	r0, pc, r0	; <UNPREDICTABLE>
    2cd8:	00000000 	andeq	r0, r0, r0
    2cdc:	f8000000 			; <UNDEFINED> instruction: 0xf8000000
    2ce0:	10000000 	andne	r0, r0, r0
    2ce4:	01000001 	tsteq	r0, r1
    2ce8:	00005400 	andeq	r5, r0, r0, lsl #8
	...
    2cf8:	00cc0000 	sbceq	r0, ip, r0
    2cfc:	00db0000 	sbcseq	r0, fp, r0
    2d00:	00010000 	andeq	r0, r1, r0
    2d04:	0000db50 	andeq	sp, r0, r0, asr fp
    2d08:	0000e000 	andeq	lr, r0, r0
    2d0c:	f3000400 	vshl.u8	d0, d0, d0
    2d10:	e09f5001 	adds	r5, pc, r1
    2d14:	e3000000 	movw	r0, #0
    2d18:	01000000 	mrseq	r0, (UNDEF: 0)
    2d1c:	00e35000 	rsceq	r5, r3, r0
    2d20:	00e80000 	rsceq	r0, r8, r0
    2d24:	00040000 	andeq	r0, r4, r0
    2d28:	9f5001f3 	svcls	0x005001f3
	...
    2d3c:	000000cc 	andeq	r0, r0, ip, asr #1
    2d40:	000000db 	ldrdeq	r0, [r0], -fp
    2d44:	db510001 	blle	1442d50 <__bss_end__+0x1438738>
    2d48:	e0000000 	and	r0, r0, r0
    2d4c:	04000000 	streq	r0, [r0], #-0
    2d50:	5101f300 	mrspl	pc, SP_irq	; <UNPREDICTABLE>
    2d54:	0000e09f 	muleq	r0, pc, r0	; <UNPREDICTABLE>
    2d58:	0000e300 	andeq	lr, r0, r0, lsl #6
    2d5c:	51000100 	mrspl	r0, (UNDEF: 16)
    2d60:	000000e3 	andeq	r0, r0, r3, ror #1
    2d64:	000000e8 	andeq	r0, r0, r8, ror #1
    2d68:	01f30004 	mvnseq	r0, r4
    2d6c:	00009f51 	andeq	r9, r0, r1, asr pc
	...
    2d78:	00bc0000 	adcseq	r0, ip, r0
    2d7c:	00c70000 	sbceq	r0, r7, r0
    2d80:	00010000 	andeq	r0, r1, r0
    2d84:	0000c750 	andeq	ip, r0, r0, asr r7
    2d88:	0000cc00 	andeq	ip, r0, r0, lsl #24
    2d8c:	f3000400 	vshl.u8	d0, d0, d0
    2d90:	009f5001 	addseq	r5, pc, r1
	...
    2d9c:	98000000 	stmdals	r0, {}	; <UNPREDICTABLE>
    2da0:	b0000000 	andlt	r0, r0, r0
    2da4:	01000000 	mrseq	r0, (UNDEF: 0)
    2da8:	00b05000 	adcseq	r5, r0, r0
    2dac:	00bc0000 	adcseq	r0, ip, r0
    2db0:	00040000 	andeq	r0, r4, r0
    2db4:	9f5001f3 	svcls	0x005001f3
	...
    2dc4:	00000074 	andeq	r0, r0, r4, ror r0
    2dc8:	0000008c 	andeq	r0, r0, ip, lsl #1
    2dcc:	8c500001 	mrrchi	0, 0, r0, r0, cr1	; <UNPREDICTABLE>
    2dd0:	98000000 	stmdals	r0, {}	; <UNPREDICTABLE>
    2dd4:	04000000 	streq	r0, [r0], #-0
    2dd8:	5001f300 	andpl	pc, r1, r0, lsl #6
    2ddc:	0000009f 	muleq	r0, pc, r0	; <UNPREDICTABLE>
	...
    2de8:	00006400 	andeq	r6, r0, r0, lsl #8
    2dec:	00006f00 	andeq	r6, r0, r0, lsl #30
    2df0:	50000100 	andpl	r0, r0, r0, lsl #2
    2df4:	0000006f 	andeq	r0, r0, pc, rrx
    2df8:	00000074 	andeq	r0, r0, r4, ror r0
    2dfc:	01f30004 	mvnseq	r0, r4
    2e00:	00009f50 	andeq	r9, r0, r0, asr pc
	...
    2e10:	00380000 	eorseq	r0, r8, r0
    2e14:	00010000 	andeq	r0, r1, r0
    2e18:	00003850 	andeq	r3, r0, r0, asr r8
    2e1c:	00006400 	andeq	r6, r0, r0, lsl #8
    2e20:	f3000400 	vshl.u8	d0, d0, d0
    2e24:	009f5001 	addseq	r5, pc, r1
	...
    2e34:	47000000 	strmi	r0, [r0, -r0]
    2e38:	01000000 	mrseq	r0, (UNDEF: 0)
    2e3c:	00475100 	subeq	r5, r7, r0, lsl #2
    2e40:	00640000 	rsbeq	r0, r4, r0
    2e44:	00040000 	andeq	r0, r4, r0
    2e48:	9f5101f3 	svcls	0x005101f3
	...
    2e54:	00340000 	eorseq	r0, r4, r0
    2e58:	00640000 	rsbeq	r0, r4, r0
    2e5c:	00010000 	andeq	r0, r1, r0
    2e60:	00000054 	andeq	r0, r0, r4, asr r0
    2e64:	00000000 	andeq	r0, r0, r0
    2e68:	40000000 	andmi	r0, r0, r0
    2e6c:	64000000 	strvs	r0, [r0], #-0
    2e70:	01000000 	mrseq	r0, (UNDEF: 0)
    2e74:	00005600 	andeq	r5, r0, r0, lsl #12
	...
    2e80:	00010100 	andeq	r0, r1, r0, lsl #2
    2e84:	00480000 	subeq	r0, r8, r0
    2e88:	00500000 	subseq	r0, r0, r0
    2e8c:	00010000 	andeq	r0, r1, r0
    2e90:	00005050 	andeq	r5, r0, r0, asr r0
    2e94:	00005000 	andeq	r5, r0, r0
    2e98:	51000100 	mrspl	r0, (UNDEF: 16)
    2e9c:	00000050 	andeq	r0, r0, r0, asr r0
    2ea0:	00000054 	andeq	r0, r0, r4, asr r0
    2ea4:	00750009 	rsbseq	r0, r5, r9
    2ea8:	71240074 			; <UNDEFINED> instruction: 0x71240074
    2eac:	549f2100 	ldrpl	r2, [pc], #256	; 2eb4 <__code_start__-0x514c>
    2eb0:	5b000000 	blpl	2eb8 <__code_start__-0x5148>
    2eb4:	01000000 	mrseq	r0, (UNDEF: 0)
    2eb8:	00005100 	andeq	r5, r0, r0, lsl #2
	...
    2ec4:	01580000 	cmpeq	r8, r0
    2ec8:	01630000 	cmneq	r3, r0
    2ecc:	00010000 	andeq	r0, r1, r0
    2ed0:	00016350 	andeq	r6, r1, r0, asr r3
    2ed4:	00018800 	andeq	r8, r1, r0, lsl #16
    2ed8:	54000100 	strpl	r0, [r0], #-256	; 0xffffff00
	...
    2ee4:	01480000 	mrseq	r0, (UNDEF: 72)
    2ee8:	01580000 	cmpeq	r8, r0
    2eec:	00010000 	andeq	r0, r1, r0
    2ef0:	00000054 	andeq	r0, r0, r4, asr r0
	...
    2f00:	00000f00 	andeq	r0, r0, r0, lsl #30
    2f04:	50000100 	andpl	r0, r0, r0, lsl #2
    2f08:	0000000f 	andeq	r0, r0, pc
    2f0c:	00000020 	andeq	r0, r0, r0, lsr #32
    2f10:	00540001 	subseq	r0, r4, r1
	...
    2f20:	0f000000 	svceq	0x00000000
    2f24:	01000000 	mrseq	r0, (UNDEF: 0)
    2f28:	000f5100 	andeq	r5, pc, r0, lsl #2
    2f2c:	00200000 	eoreq	r0, r0, r0
    2f30:	00010000 	andeq	r0, r1, r0
    2f34:	00000055 	andeq	r0, r0, r5, asr r0
	...
    2f40:	00002000 	andeq	r2, r0, r0
    2f44:	00002f00 	andeq	r2, r0, r0, lsl #30
    2f48:	50000100 	andpl	r0, r0, r0, lsl #2
    2f4c:	0000002f 	andeq	r0, r0, pc, lsr #32
    2f50:	00000040 	andeq	r0, r0, r0, asr #32
    2f54:	00540001 	subseq	r0, r4, r1
	...
    2f60:	20000000 	andcs	r0, r0, r0
    2f64:	2f000000 	svccs	0x00000000
    2f68:	01000000 	mrseq	r0, (UNDEF: 0)
    2f6c:	002f5100 	eoreq	r5, pc, r0, lsl #2
    2f70:	00400000 	subeq	r0, r0, r0
    2f74:	00010000 	andeq	r0, r1, r0
    2f78:	00000055 	andeq	r0, r0, r5, asr r0
	...
    2f84:	50000000 	andpl	r0, r0, r0
    2f88:	98000003 	stmdals	r0, {r0, r1}
    2f8c:	01000003 	tsteq	r0, r3
    2f90:	03985000 	orrseq	r5, r8, #0, 0
    2f94:	039b0000 	orrseq	r0, fp, #0, 0
    2f98:	00020000 	andeq	r0, r2, r0
    2f9c:	039b6891 	orrseq	r6, fp, #9502720	; 0x910000
    2fa0:	03b00000 	movseq	r0, #0, 0
    2fa4:	00040000 	andeq	r0, r4, r0
    2fa8:	9f5001f3 	svcls	0x005001f3
	...
    2fc8:	00000220 	andeq	r0, r0, r0, lsr #4
    2fcc:	0000027b 	andeq	r0, r0, fp, ror r2
    2fd0:	7b500001 	blvc	1402fdc <__bss_end__+0x13f89c4>
    2fd4:	84000002 	strhi	r0, [r0], #-2
    2fd8:	04000002 	streq	r0, [r0], #-2
    2fdc:	5001f300 	andpl	pc, r1, r0, lsl #6
    2fe0:	0002849f 	muleq	r2, pc, r4	; <UNPREDICTABLE>
    2fe4:	00029c00 	andeq	r9, r2, r0, lsl #24
    2fe8:	50000100 	andpl	r0, r0, r0, lsl #2
    2fec:	0000029c 	muleq	r0, ip, r2
    2ff0:	000002a4 	andeq	r0, r0, r4, lsr #5
    2ff4:	01f30004 	mvnseq	r0, r4
    2ff8:	02a49f50 	adceq	r9, r4, #80, 30	; 0x140
    2ffc:	02a70000 	adceq	r0, r7, #0, 0
    3000:	00010000 	andeq	r0, r1, r0
    3004:	0002a750 	andeq	sl, r2, r0, asr r7
    3008:	0002c800 	andeq	ip, r2, r0, lsl #16
    300c:	f3000400 	vshl.u8	d0, d0, d0
    3010:	c89f5001 	ldmgt	pc, {r0, ip, lr}	; <UNPREDICTABLE>
    3014:	e0000002 	and	r0, r0, r2
    3018:	01000002 	tsteq	r0, r2
    301c:	02e05000 	rsceq	r5, r0, #0, 0
    3020:	02e80000 	rsceq	r0, r8, #0, 0
    3024:	00040000 	andeq	r0, r4, r0
    3028:	9f5001f3 	svcls	0x005001f3
    302c:	000002e8 	andeq	r0, r0, r8, ror #5
    3030:	000002eb 	andeq	r0, r0, fp, ror #5
    3034:	eb500001 	bl	1403040 <__bss_end__+0x13f8a28>
    3038:	38000002 	stmdacc	r0, {r1}
    303c:	04000003 	streq	r0, [r0], #-3
    3040:	5001f300 	andpl	pc, r1, r0, lsl #6
    3044:	0000009f 	muleq	r0, pc, r0	; <UNPREDICTABLE>
	...
    3060:	00022000 	andeq	r2, r2, r0
    3064:	00024400 	andeq	r4, r2, r0, lsl #8
    3068:	51000100 	mrspl	r0, (UNDEF: 16)
    306c:	00000244 	andeq	r0, r0, r4, asr #4
    3070:	00000268 	andeq	r0, r0, r8, ror #4
    3074:	68510001 	ldmdavs	r1, {r0}^
    3078:	7b000002 	blvc	3088 <__code_start__-0x4f78>
    307c:	03000002 	movweq	r0, #2
    3080:	9f017100 	svcls	0x00017100
    3084:	0000027b 	andeq	r0, r0, fp, ror r2
    3088:	00000284 	andeq	r0, r0, r4, lsl #5
    308c:	f3380017 	vqadd.u64	d0, d8, d7
    3090:	01f35101 	mvnseq	r5, r1, lsl #2
    3094:	244b4051 	strbcs	r4, [fp], #-81	; 0xffffffaf
    3098:	00080c22 	andeq	r0, r8, r2, lsr #24
    309c:	282d8000 	stmdacs	sp!, {pc}
    30a0:	13160001 	tstne	r6, #1, 0
    30a4:	0002849f 	muleq	r2, pc, r4	; <UNPREDICTABLE>
    30a8:	00029800 	andeq	r9, r2, r0, lsl #16
    30ac:	51000100 	mrspl	r0, (UNDEF: 16)
    30b0:	00000298 	muleq	r0, r8, r2
    30b4:	000002a4 	andeq	r0, r0, r4, lsr #5
    30b8:	01f30004 	mvnseq	r0, r4
    30bc:	02a49f51 	adceq	r9, r4, #324	; 0x144
    30c0:	02a70000 	adceq	r0, r7, #0, 0
    30c4:	00010000 	andeq	r0, r1, r0
    30c8:	0002a751 	andeq	sl, r2, r1, asr r7
    30cc:	0002c800 	andeq	ip, r2, r0, lsl #16
    30d0:	f3000400 	vshl.u8	d0, d0, d0
    30d4:	c89f5101 	ldmgt	pc, {r0, r8, ip, lr}	; <UNPREDICTABLE>
    30d8:	dc000002 	stcle	0, cr0, [r0], {2}
    30dc:	01000002 	tsteq	r0, r2
    30e0:	02dc5100 	sbcseq	r5, ip, #0
    30e4:	03380000 	teqeq	r8, #0, 0
    30e8:	00170000 	andseq	r0, r7, r0
    30ec:	5101f338 	tstpl	r1, r8, lsr r3	; <UNPREDICTABLE>
    30f0:	405101f3 	ldrshmi	r0, [r1], #-19	; 0xffffffed
    30f4:	0c22244b 	cfstrseq	mvf2, [r2], #-300	; 0xfffffed4
    30f8:	80000008 	andhi	r0, r0, r8
    30fc:	0001282d 	andeq	r2, r1, sp, lsr #16
    3100:	009f1316 	addseq	r1, pc, r6, lsl r3	; <UNPREDICTABLE>
	...
    3114:	4c000000 	stcmi	0, cr0, [r0], {-0}
    3118:	5c000002 	stcpl	0, cr0, [r0], {2}
    311c:	01000002 	tsteq	r0, r2
    3120:	025c5200 	subseq	r5, ip, #0, 4
    3124:	02640000 	rsbeq	r0, r4, #0, 0
    3128:	00050000 	andeq	r0, r5, r0
    312c:	00a20803 	adceq	r0, r2, r3, lsl #16
    3130:	00026400 	andeq	r6, r2, r0, lsl #8
    3134:	00027b00 	andeq	r7, r2, r0, lsl #22
    3138:	53000100 	movwpl	r0, #256	; 0x100
    313c:	000002c8 	andeq	r0, r0, r8, asr #5
    3140:	000002d8 	ldrdeq	r0, [r0], -r8
    3144:	d8520001 	ldmdale	r2, {r0}^
    3148:	e3000002 	movw	r0, #2
    314c:	05000002 	streq	r0, [r0, #-2]
    3150:	a2080300 	andge	r0, r8, #0, 6
    3154:	02e80000 	rsceq	r0, r8, #0, 0
    3158:	02eb0000 	rsceq	r0, fp, #0, 0
    315c:	00010000 	andeq	r0, r1, r0
    3160:	00000053 	andeq	r0, r0, r3, asr r0
    3164:	00000000 	andeq	r0, r0, r0
    3168:	30000400 	andcc	r0, r0, r0, lsl #8
    316c:	34000002 	strcc	r0, [r0], #-2
    3170:	01000002 	tsteq	r0, r2
    3174:	00005100 	andeq	r5, r0, r0, lsl #2
    3178:	00000000 	andeq	r0, r0, r0
    317c:	00020000 	andeq	r0, r2, r0
    3180:	0000023c 	andeq	r0, r0, ip, lsr r2
    3184:	00000244 	andeq	r0, r0, r4, asr #4
    3188:	9f380002 	svcls	0x00380002
	...
    3194:	023c0002 	eorseq	r0, ip, #2, 0
    3198:	02440000 	subeq	r0, r4, #0, 0
    319c:	00010000 	andeq	r0, r1, r0
    31a0:	00000051 	andeq	r0, r0, r1, asr r0
    31a4:	00000000 	andeq	r0, r0, r0
    31a8:	00000100 	andeq	r0, r0, r0, lsl #2
    31ac:	4c000000 	stcmi	0, cr0, [r0], {-0}
    31b0:	64000002 	strvs	r0, [r0], #-2
    31b4:	01000002 	tsteq	r0, r2
    31b8:	02c85100 	sbceq	r5, r8, #0
    31bc:	02dc0000 	sbcseq	r0, ip, #0, 0
    31c0:	00010000 	andeq	r0, r1, r0
    31c4:	0002dc51 	andeq	sp, r2, r1, asr ip
    31c8:	0002e800 	andeq	lr, r2, r0, lsl #16
    31cc:	38001700 	stmdacc	r0, {r8, r9, sl, ip}
    31d0:	f35101f3 	vbsl	q8, <illegal reg q8.5>, <illegal reg q9.5>
    31d4:	4b405101 	blmi	10175e0 <__bss_end__+0x100cfc8>
    31d8:	080c2224 	stmdaeq	ip, {r2, r5, r9, sp}
    31dc:	2d800000 	stccs	0, cr0, [r0]
    31e0:	16000128 	strne	r0, [r0], -r8, lsr #2
    31e4:	00009f13 	andeq	r9, r0, r3, lsl pc
    31e8:	00000000 	andeq	r0, r0, r0
    31ec:	00010000 	andeq	r0, r1, r0
    31f0:	00000000 	andeq	r0, r0, r0
    31f4:	024c0000 	subeq	r0, ip, #0, 0
    31f8:	025c0000 	subseq	r0, ip, #0, 0
    31fc:	00010000 	andeq	r0, r1, r0
    3200:	00025c52 	andeq	r5, r2, r2, asr ip
    3204:	00026400 	andeq	r6, r2, r0, lsl #8
    3208:	03000500 	movweq	r0, #1280	; 0x500
    320c:	0000a208 	andeq	sl, r0, r8, lsl #4
    3210:	000002c8 	andeq	r0, r0, r8, asr #5
    3214:	000002d8 	ldrdeq	r0, [r0], -r8
    3218:	d8520001 	ldmdale	r2, {r0}^
    321c:	e3000002 	movw	r0, #2
    3220:	05000002 	streq	r0, [r0, #-2]
    3224:	a2080300 	andge	r0, r8, #0, 6
	...
    3230:	00040000 	andeq	r0, r4, r0
    3234:	0000024c 	andeq	r0, r0, ip, asr #4
    3238:	00000250 	andeq	r0, r0, r0, asr r2
    323c:	00510001 	subseq	r0, r1, r1
    3240:	00000000 	andeq	r0, r0, r0
    3244:	03000000 	movweq	r0, #0
    3248:	00026400 	andeq	r6, r2, r0, lsl #8
    324c:	00026800 	andeq	r6, r2, r0, lsl #16
    3250:	51000100 	mrspl	r0, (UNDEF: 16)
	...
    325c:	02640003 	rsbeq	r0, r4, #3, 0
    3260:	02680000 	rsbeq	r0, r8, #0, 0
    3264:	00010000 	andeq	r0, r1, r0
    3268:	00000053 	andeq	r0, r0, r3, asr r0
	...
    3278:	0001bc00 	andeq	fp, r1, r0, lsl #24
    327c:	0001d300 	andeq	sp, r1, r0, lsl #6
    3280:	50000100 	andpl	r0, r0, r0, lsl #2
    3284:	000001d3 	ldrdeq	r0, [r0], -r3
    3288:	000001f0 	strdeq	r0, [r0], -r0	; <UNPREDICTABLE>
    328c:	f0540001 			; <UNDEFINED> instruction: 0xf0540001
    3290:	08000001 	stmdaeq	r0, {r0}
    3294:	01000002 	tsteq	r0, r2
    3298:	02085000 	andeq	r5, r8, #0, 0
    329c:	02200000 	eoreq	r0, r0, #0, 0
    32a0:	00010000 	andeq	r0, r1, r0
    32a4:	00000054 	andeq	r0, r0, r4, asr r0
	...
    32b0:	0001d800 	andeq	sp, r1, r0, lsl #16
    32b4:	0001e300 	andeq	lr, r1, r0, lsl #6
    32b8:	50000100 	andpl	r0, r0, r0, lsl #2
    32bc:	000001e3 	andeq	r0, r0, r3, ror #3
    32c0:	000001f0 	strdeq	r0, [r0], -r0	; <UNPREDICTABLE>
    32c4:	00550001 	subseq	r0, r5, r1
	...
    32dc:	24000000 	strcs	r0, [r0], #-0
    32e0:	38000001 	stmdacc	r0, {r0}
    32e4:	01000001 	tsteq	r0, r1
    32e8:	01385000 	teqeq	r8, r0
    32ec:	013c0000 	teqeq	ip, r0
    32f0:	00030000 	andeq	r0, r3, r0
    32f4:	3c9f7970 			; <UNDEFINED> instruction: 0x3c9f7970
    32f8:	60000001 	andvs	r0, r0, r1
    32fc:	01000001 	tsteq	r0, r1
    3300:	01605300 	cmneq	r0, r0, lsl #6
    3304:	01780000 	cmneq	r8, r0
    3308:	00010000 	andeq	r0, r1, r0
    330c:	00017850 	andeq	r7, r1, r0, asr r8
    3310:	00018000 	andeq	r8, r1, r0
    3314:	f3000400 	vshl.u8	d0, d0, d0
    3318:	809f5001 	addshi	r5, pc, r1
    331c:	90000001 	andls	r0, r0, r1
    3320:	01000001 	tsteq	r0, r1
    3324:	01905300 	orrseq	r5, r0, r0, lsl #6
    3328:	019f0000 	orrseq	r0, pc, r0
    332c:	00020000 	andeq	r0, r2, r0
    3330:	019f6891 			; <UNDEFINED> instruction: 0x019f6891
    3334:	01bc0000 			; <UNDEFINED> instruction: 0x01bc0000
    3338:	00090000 	andeq	r0, r9, r0
    333c:	235001f3 	cmpcs	r0, #-1073741764	; 0xc000003c
    3340:	1af80907 	bne	ffe05764 <__bss_end__+0xffdfb14c>
    3344:	0000009f 	muleq	r0, pc, r0	; <UNPREDICTABLE>
	...
    3350:	44000000 	strmi	r0, [r0], #-0
    3354:	60000001 	andvs	r0, r0, r1
    3358:	01000001 	tsteq	r0, r1
    335c:	01805000 	orreq	r5, r0, r0
    3360:	019c0000 	orrseq	r0, ip, r0
    3364:	00010000 	andeq	r0, r1, r0
    3368:	00019c50 	andeq	r9, r1, r0, asr ip
    336c:	00019f00 	andeq	r9, r1, r0, lsl #30
    3370:	03000500 	movweq	r0, #1280	; 0x500
    3374:	0000a208 	andeq	sl, r0, r8, lsl #4
	...
    3380:	01340003 	teqeq	r4, r3
    3384:	013c0000 	teqeq	ip, r0
    3388:	00020000 	andeq	r0, r2, r0
    338c:	00009f38 	andeq	r9, r0, r8, lsr pc
    3390:	00000000 	andeq	r0, r0, r0
    3394:	00030000 	andeq	r0, r3, r0
    3398:	01340000 	teqeq	r4, r0
    339c:	01380000 	teqeq	r8, r0
    33a0:	00010000 	andeq	r0, r1, r0
    33a4:	00013850 	andeq	r3, r1, r0, asr r8
    33a8:	00013c00 	andeq	r3, r1, r0, lsl #24
    33ac:	70000300 	andvc	r0, r0, r0, lsl #6
    33b0:	00009f79 	andeq	r9, r0, r9, ror pc
	...
    33c8:	00000030 	andeq	r0, r0, r0, lsr r0
    33cc:	00000060 	andeq	r0, r0, r0, rrx
    33d0:	60500001 	subsvs	r0, r0, r1
    33d4:	6c000000 	stcvs	0, cr0, [r0], {-0}
    33d8:	05000000 	streq	r0, [r0, #-0]
    33dc:	a2080300 	andge	r0, r8, #0, 6
    33e0:	006c0000 	rsbeq	r0, ip, r0
    33e4:	00840000 	addeq	r0, r4, r0
    33e8:	00010000 	andeq	r0, r1, r0
    33ec:	00008450 	andeq	r8, r0, r0, asr r4
    33f0:	00008c00 	andeq	r8, r0, r0, lsl #24
    33f4:	f3000400 	vshl.u8	d0, d0, d0
    33f8:	8c9f5001 	ldchi	0, cr5, [pc], {1}
    33fc:	ac000000 	stcge	0, cr0, [r0], {-0}
    3400:	01000000 	mrseq	r0, (UNDEF: 0)
    3404:	00ac5000 	adceq	r5, ip, r0
    3408:	00af0000 	adceq	r0, pc, r0
    340c:	00020000 	andeq	r0, r2, r0
    3410:	00af6891 	umlaleq	r6, pc, r1, r8	; <UNPREDICTABLE>
    3414:	00cc0000 	sbceq	r0, ip, r0
    3418:	00040000 	andeq	r0, r4, r0
    341c:	9f5001f3 	svcls	0x005001f3
	...
    3430:	00000030 	andeq	r0, r0, r0, lsr r0
    3434:	00000080 	andeq	r0, r0, r0, lsl #1
    3438:	80510001 	subshi	r0, r1, r1
    343c:	8c000000 	stchi	0, cr0, [r0], {-0}
    3440:	04000000 	streq	r0, [r0], #-0
    3444:	5101f300 	mrspl	pc, SP_irq	; <UNPREDICTABLE>
    3448:	00008c9f 	muleq	r0, pc, ip	; <UNPREDICTABLE>
    344c:	0000a800 	andeq	sl, r0, r0, lsl #16
    3450:	51000100 	mrspl	r0, (UNDEF: 16)
    3454:	000000a8 	andeq	r0, r0, r8, lsr #1
    3458:	000000cc 	andeq	r0, r0, ip, asr #1
    345c:	01f30004 	mvnseq	r0, r4
    3460:	00009f51 	andeq	r9, r0, r1, asr pc
    3464:	00000000 	andeq	r0, r0, r0
    3468:	00010000 	andeq	r0, r1, r0
	...
    3478:	00000038 	andeq	r0, r0, r8, lsr r0
    347c:	00000060 	andeq	r0, r0, r0, rrx
    3480:	60500001 	subsvs	r0, r0, r1
    3484:	6c000000 	stcvs	0, cr0, [r0], {-0}
    3488:	05000000 	streq	r0, [r0, #-0]
    348c:	a2080300 	andge	r0, r8, #0, 6
    3490:	006c0000 	rsbeq	r0, ip, r0
    3494:	00840000 	addeq	r0, r4, r0
    3498:	00010000 	andeq	r0, r1, r0
    349c:	00008450 	andeq	r8, r0, r0, asr r4
    34a0:	00008c00 	andeq	r8, r0, r0, lsl #24
    34a4:	f3000400 	vshl.u8	d0, d0, d0
    34a8:	8c9f5001 	ldchi	0, cr5, [pc], {1}
    34ac:	ac000000 	stcge	0, cr0, [r0], {-0}
    34b0:	01000000 	mrseq	r0, (UNDEF: 0)
    34b4:	00ac5000 	adceq	r5, ip, r0
    34b8:	00af0000 	adceq	r0, pc, r0
    34bc:	00020000 	andeq	r0, r2, r0
    34c0:	00af6891 	umlaleq	r6, pc, r1, r8	; <UNPREDICTABLE>
    34c4:	00cc0000 	sbceq	r0, ip, r0
    34c8:	00040000 	andeq	r0, r4, r0
    34cc:	9f5001f3 	svcls	0x005001f3
	...
    34e0:	0000000b 	andeq	r0, r0, fp
    34e4:	0b500001 	bleq	14034f0 <__bss_end__+0x13f8ed8>
    34e8:	14000000 	strne	r0, [r0], #-0
    34ec:	01000000 	mrseq	r0, (UNDEF: 0)
    34f0:	00005400 	andeq	r5, r0, r0, lsl #8
	...
    3500:	001c0000 	andseq	r0, ip, r0
    3504:	00010000 	andeq	r0, r1, r0
    3508:	00001c51 	andeq	r1, r0, r1, asr ip
    350c:	00003400 	andeq	r3, r0, r0, lsl #8
    3510:	f3000400 	vshl.u8	d0, d0, d0
    3514:	009f5101 	addseq	r5, pc, r1, lsl #2
    3518:	00000000 	andeq	r0, r0, r0
    351c:	02000000 	andeq	r0, r0, #0, 0
    3520:	00000000 	andeq	r0, r0, r0
    3524:	00000101 	andeq	r0, r0, r1, lsl #2
    3528:	00000000 	andeq	r0, r0, r0
    352c:	00000400 	andeq	r0, r0, r0, lsl #8
    3530:	50000100 	andpl	r0, r0, r0, lsl #2
    3534:	00000004 	andeq	r0, r0, r4
    3538:	0000001c 	andeq	r0, r0, ip, lsl r0
    353c:	1c520001 	mrrcne	0, 0, r0, r2, cr1
    3540:	24000000 	strcs	r0, [r0], #-0
    3544:	01000000 	mrseq	r0, (UNDEF: 0)
    3548:	00245300 	eoreq	r5, r4, r0, lsl #6
    354c:	00280000 	eoreq	r0, r8, r0
    3550:	00030000 	andeq	r0, r3, r0
    3554:	289f0173 	ldmcs	pc, {r0, r1, r4, r5, r6, r8}	; <UNPREDICTABLE>
    3558:	34000000 	strcc	r0, [r0], #-0
    355c:	01000000 	mrseq	r0, (UNDEF: 0)
    3560:	00005300 	andeq	r5, r0, r0, lsl #6
    3564:	00000000 	andeq	r0, r0, r0
    3568:	00030000 	andeq	r0, r3, r0
    356c:	00000000 	andeq	r0, r0, r0
    3570:	00240000 	eoreq	r0, r4, r0
    3574:	00010000 	andeq	r0, r1, r0
    3578:	00002451 	andeq	r2, r0, r1, asr r4
    357c:	00003400 	andeq	r3, r0, r0, lsl #8
    3580:	71000300 	mrsvc	r0, LR_irq
    3584:	00009f7f 	andeq	r9, r0, pc, ror pc
	...
    3590:	00100000 	andseq	r0, r0, r0
    3594:	001c0000 	andseq	r0, ip, r0
    3598:	00010000 	andeq	r0, r1, r0
    359c:	0000245c 	andeq	r2, r0, ip, asr r4
    35a0:	00003400 	andeq	r3, r0, r0, lsl #8
    35a4:	52000100 	andpl	r0, r0, #0
	...
    35b8:	00000018 	andeq	r0, r0, r8, lsl r0
    35bc:	18500001 	ldmdane	r0, {r0}^
    35c0:	24000000 	strcs	r0, [r0], #-0
    35c4:	01000000 	mrseq	r0, (UNDEF: 0)
    35c8:	00005000 	andeq	r5, r0, r0
	...
    35d8:	001c0000 	andseq	r0, ip, r0
    35dc:	00010000 	andeq	r0, r1, r0
    35e0:	00001c51 	andeq	r1, r0, r1, asr ip
    35e4:	00002c00 	andeq	r2, r0, r0, lsl #24
    35e8:	51000100 	mrspl	r0, (UNDEF: 16)
	...
    35fc:	00040000 	andeq	r0, r4, r0
    3600:	00010000 	andeq	r0, r1, r0
    3604:	00000451 	andeq	r0, r0, r1, asr r4
    3608:	00000c00 	andeq	r0, r0, r0, lsl #24
    360c:	51000100 	mrspl	r0, (UNDEF: 16)
    3610:	0000000c 	andeq	r0, r0, ip
    3614:	00000020 	andeq	r0, r0, r0, lsr #32
    3618:	7f710003 	svcvc	0x00710003
    361c:	0000009f 	muleq	r0, pc, r0	; <UNPREDICTABLE>
    3620:	00000000 	andeq	r0, r0, r0
    3624:	00000200 	andeq	r0, r0, r0, lsl #4
    3628:	00000000 	andeq	r0, r0, r0
    362c:	04000000 	streq	r0, [r0], #-0
    3630:	01000000 	mrseq	r0, (UNDEF: 0)
    3634:	00045000 	andeq	r5, r4, r0
    3638:	00140000 	andseq	r0, r4, r0
    363c:	00010000 	andeq	r0, r1, r0
    3640:	0000145c 	andeq	r1, r0, ip, asr r4
    3644:	00002000 	andeq	r2, r0, r0
    3648:	7c000300 	stcvc	3, cr0, [r0], {-0}
    364c:	00009f7f 	andeq	r9, r0, pc, ror pc
    3650:	00000000 	andeq	r0, r0, r0
    3654:	03000000 	movweq	r0, #0
    3658:	9e240003 	cdpls	0, 2, cr0, cr4, cr3, {0}
    365c:	9e240000 	cdpls	0, 2, cr0, cr4, cr0, {0}
    3660:	00010000 	andeq	r0, r1, r0
    3664:	009e2450 	addseq	r2, lr, r0, asr r4
    3668:	009e5000 	addseq	r5, lr, r0
    366c:	f3000400 	vshl.u8	d0, d0, d0
    3670:	009f5001 	addseq	r5, pc, r1
	...
    367c:	24000303 	strcs	r0, [r0], #-771	; 0xfffffcfd
    3680:	2400009e 	strcs	r0, [r0], #-158	; 0xffffff62
    3684:	0100009e 	swpeq	r0, lr, [r0]	; <UNPREDICTABLE>
    3688:	9e245100 	suflss	f5, f4, f0
    368c:	9e500000 	cdpls	0, 5, cr0, cr0, cr0, {0}
    3690:	00040000 	andeq	r0, r4, r0
    3694:	9f5101f3 	svcls	0x005101f3
	...
    36a0:	00030300 	andeq	r0, r3, r0, lsl #6
    36a4:	9e240000 	cdpls	0, 2, cr0, cr4, cr0, {0}
    36a8:	9e240000 	cdpls	0, 2, cr0, cr4, cr0, {0}
    36ac:	00010000 	andeq	r0, r1, r0
    36b0:	009e2452 	addseq	r2, lr, r2, asr r4
    36b4:	009e2c00 	addseq	r2, lr, r0, lsl #24
    36b8:	52000100 	andpl	r0, r0, #0
    36bc:	00009e2c 	andeq	r9, r0, ip, lsr #28
    36c0:	00009e50 	andeq	r9, r0, r0, asr lr
    36c4:	01720003 	cmneq	r2, r3
    36c8:	0000009f 	muleq	r0, pc, r0	; <UNPREDICTABLE>
    36cc:	00000000 	andeq	r0, r0, r0
    36d0:	01010200 	mrseq	r0, R9_usr
    36d4:	00000000 	andeq	r0, r0, r0
    36d8:	009e2400 	addseq	r2, lr, r0, lsl #8
    36dc:	009e3000 	addseq	r3, lr, r0
    36e0:	50000100 	andpl	r0, r0, r0, lsl #2
    36e4:	00009e30 	andeq	r9, r0, r0, lsr lr
    36e8:	00009e34 	andeq	r9, r0, r4, lsr lr
    36ec:	01700003 	cmneq	r0, r3
    36f0:	009e349f 	umullseq	r3, lr, pc, r4	; <UNPREDICTABLE>
    36f4:	009e4400 	addseq	r4, lr, r0, lsl #8
    36f8:	50000100 	andpl	r0, r0, r0, lsl #2
    36fc:	00009e48 	andeq	r9, r0, r8, asr #28
    3700:	00009e4c 	andeq	r9, r0, ip, asr #28
    3704:	00500001 	subseq	r0, r0, r1
    3708:	00000000 	andeq	r0, r0, r0
    370c:	02000000 	andeq	r0, r0, #0, 0
    3710:	00000000 	andeq	r0, r0, r0
    3714:	009e2400 	addseq	r2, lr, r0, lsl #8
    3718:	009e3400 	addseq	r3, lr, r0, lsl #8
    371c:	51000100 	mrspl	r0, (UNDEF: 16)
    3720:	00009e34 	andeq	r9, r0, r4, lsr lr
    3724:	00009e38 	andeq	r9, r0, r8, lsr lr
    3728:	01710003 	cmneq	r1, r3
    372c:	009e389f 	umullseq	r3, lr, pc, r8	; <UNPREDICTABLE>
    3730:	009e5000 	addseq	r5, lr, r0
    3734:	51000100 	mrspl	r0, (UNDEF: 16)
	...

Disassembly of section .debug_aranges:

00000000 <.debug_aranges>:
   0:	0000001c 	andeq	r0, r0, ip, lsl r0
   4:	00000002 	andeq	r0, r0, r2
   8:	00040000 	andeq	r0, r4, r0
   c:	00000000 	andeq	r0, r0, r0
  10:	00008038 	andeq	r8, r0, r8, lsr r0
  14:	00000554 	andeq	r0, r0, r4, asr r5
	...
  20:	0000001c 	andeq	r0, r0, ip, lsl r0
  24:	0abe0002 	beq	fef80034 <__bss_end__+0xfef75a1c>
  28:	00040000 	andeq	r0, r4, r0
  2c:	00000000 	andeq	r0, r0, r0
  30:	00008590 	muleq	r0, r0, r5
  34:	000007a8 	andeq	r0, r0, r8, lsr #15
	...
  40:	0000001c 	andeq	r0, r0, ip, lsl r0
  44:	33320002 	teqcc	r2, #2, 0
  48:	00040000 	andeq	r0, r4, r0
  4c:	00000000 	andeq	r0, r0, r0
  50:	00008d38 	andeq	r8, r0, r8, lsr sp
  54:	00000018 	andeq	r0, r0, r8, lsl r0
	...
  60:	0000001c 	andeq	r0, r0, ip, lsl r0
  64:	34700002 	ldrbtcc	r0, [r0], #-2
  68:	00040000 	andeq	r0, r4, r0
  6c:	00000000 	andeq	r0, r0, r0
  70:	00008d50 	andeq	r8, r0, r0, asr sp
  74:	00000058 	andeq	r0, r0, r8, asr r0
	...
  80:	0000001c 	andeq	r0, r0, ip, lsl r0
  84:	36110002 	ldrcc	r0, [r1], -r2
  88:	00040000 	andeq	r0, r4, r0
  8c:	00000000 	andeq	r0, r0, r0
  90:	00008da8 	andeq	r8, r0, r8, lsr #27
  94:	00000034 	andeq	r0, r0, r4, lsr r0
	...
  a0:	0000001c 	andeq	r0, r0, ip, lsl r0
  a4:	37080002 	strcc	r0, [r8, -r2]
  a8:	00040000 	andeq	r0, r4, r0
  ac:	00000000 	andeq	r0, r0, r0
  b0:	00008ddc 	ldrdeq	r8, [r0], -ip
  b4:	00000740 	andeq	r0, r0, r0, asr #14
	...
  c0:	0000001c 	andeq	r0, r0, ip, lsl r0
  c4:	41e30002 	mvnmi	r0, r2
  c8:	00040000 	andeq	r0, r4, r0
  cc:	00000000 	andeq	r0, r0, r0
  d0:	0000951c 	andeq	r9, r0, ip, lsl r5
  d4:	00000020 	andeq	r0, r0, r0, lsr #32
	...
  e0:	0000001c 	andeq	r0, r0, ip, lsl r0
  e4:	42f10002 	rscsmi	r0, r1, #2, 0
  e8:	00040000 	andeq	r0, r4, r0
  ec:	00000000 	andeq	r0, r0, r0
  f0:	0000953c 	andeq	r9, r0, ip, lsr r5
  f4:	0000002c 	andeq	r0, r0, ip, lsr #32
	...
 100:	0000001c 	andeq	r0, r0, ip, lsl r0
 104:	44240002 	strtmi	r0, [r4], #-2
 108:	00040000 	andeq	r0, r4, r0
 10c:	00000000 	andeq	r0, r0, r0
 110:	00009568 	andeq	r9, r0, r8, ror #10
 114:	0000003c 	andeq	r0, r0, ip, lsr r0
	...
 120:	0000001c 	andeq	r0, r0, ip, lsl r0
 124:	45b10002 	ldrmi	r0, [r1, #2]!
 128:	00040000 	andeq	r0, r4, r0
 12c:	00000000 	andeq	r0, r0, r0
 130:	000095a4 	andeq	r9, r0, r4, lsr #11
 134:	00000004 	andeq	r0, r0, r4
	...
 140:	0000001c 	andeq	r0, r0, ip, lsl r0
 144:	46830002 	strmi	r0, [r3], r2
 148:	00040000 	andeq	r0, r4, r0
 14c:	00000000 	andeq	r0, r0, r0
 150:	000095a8 	andeq	r9, r0, r8, lsr #11
 154:	00000080 	andeq	r0, r0, r0, lsl #1
	...
 160:	0000001c 	andeq	r0, r0, ip, lsl r0
 164:	48bd0002 	ldmfdmi	sp!, {r1}
 168:	00040000 	andeq	r0, r4, r0
 16c:	00000000 	andeq	r0, r0, r0
 170:	00009628 	andeq	r9, r0, r8, lsr #12
 174:	00000084 	andeq	r0, r0, r4, lsl #1
	...
 180:	0000001c 	andeq	r0, r0, ip, lsl r0
 184:	4b0e0002 	blmi	380194 <__bss_end__+0x375b7c>
 188:	00040000 	andeq	r0, r4, r0
 18c:	00000000 	andeq	r0, r0, r0
 190:	000096ac 	andeq	r9, r0, ip, lsr #13
 194:	0000011c 	andeq	r0, r0, ip, lsl r1
	...
 1a0:	0000001c 	andeq	r0, r0, ip, lsl r0
 1a4:	4eb70002 	cdpmi	0, 11, cr0, cr7, cr2, {0}
 1a8:	00040000 	andeq	r0, r4, r0
 1ac:	00000000 	andeq	r0, r0, r0
 1b0:	000097c8 	andeq	r9, r0, r8, asr #15
 1b4:	000001f0 	strdeq	r0, [r0], -r0	; <UNPREDICTABLE>
	...
 1c0:	0000001c 	andeq	r0, r0, ip, lsl r0
 1c4:	54880002 	strpl	r0, [r8], #2
 1c8:	00040000 	andeq	r0, r4, r0
 1cc:	00000000 	andeq	r0, r0, r0
 1d0:	000099b8 			; <UNDEFINED> instruction: 0x000099b8
 1d4:	000003b0 			; <UNDEFINED> instruction: 0x000003b0
	...
 1e0:	0000001c 	andeq	r0, r0, ip, lsl r0
 1e4:	5d750002 	ldclpl	0, cr0, [r5, #-8]!
 1e8:	00040000 	andeq	r0, r4, r0
 1ec:	00000000 	andeq	r0, r0, r0
 1f0:	00009d68 	andeq	r9, r0, r8, ror #26
 1f4:	0000003c 	andeq	r0, r0, ip, lsr r0
	...
 200:	0000001c 	andeq	r0, r0, ip, lsl r0
 204:	5ec20002 	cdppl	0, 12, cr0, cr2, cr2, {0}
 208:	00040000 	andeq	r0, r4, r0
 20c:	00000000 	andeq	r0, r0, r0
 210:	00009da4 	andeq	r9, r0, r4, lsr #27
 214:	00000034 	andeq	r0, r0, r4, lsr r0
	...
 220:	0000001c 	andeq	r0, r0, ip, lsl r0
 224:	5ffd0002 	svcpl	0x00fd0002
 228:	00040000 	andeq	r0, r4, r0
 22c:	00000000 	andeq	r0, r0, r0
 230:	00009dd8 	ldrdeq	r9, [r0], -r8
 234:	0000002c 	andeq	r0, r0, ip, lsr #32
	...
 240:	0000001c 	andeq	r0, r0, ip, lsl r0
 244:	60f80002 	rscsvs	r0, r8, r2
 248:	00040000 	andeq	r0, r4, r0
 24c:	00000000 	andeq	r0, r0, r0
 250:	00009e04 	andeq	r9, r0, r4, lsl #28
 254:	00000020 	andeq	r0, r0, r0, lsr #32
	...
 260:	0000001c 	andeq	r0, r0, ip, lsl r0
 264:	620b0002 	andvs	r0, fp, #2, 0
 268:	00040000 	andeq	r0, r4, r0
 26c:	00000000 	andeq	r0, r0, r0
 270:	00009e24 	andeq	r9, r0, r4, lsr #28
 274:	0000002c 	andeq	r0, r0, ip, lsr #32
	...
 280:	0000001c 	andeq	r0, r0, ip, lsl r0
 284:	635d0002 	cmpvs	sp, #2, 0
 288:	00040000 	andeq	r0, r4, r0
 28c:	00000000 	andeq	r0, r0, r0
 290:	00009e50 	andeq	r9, r0, r0, asr lr
 294:	00000004 	andeq	r0, r0, r4
	...

Disassembly of section .debug_line:

00000000 <.debug_line>:
       0:	000001b5 			; <UNDEFINED> instruction: 0x000001b5
       4:	009f0003 	addseq	r0, pc, r3
       8:	01020000 	mrseq	r0, (UNDEF: 2)
       c:	000d0efb 	strdeq	r0, [sp], -fp
      10:	01010101 	tsteq	r1, r1, lsl #2
      14:	01000000 	mrseq	r0, (UNDEF: 0)
      18:	2f010000 	svccs	0x00010000
      1c:	72657355 	rsbvc	r7, r5, #1409286145	; 0x54000001
      20:	72742f73 	rsbsvc	r2, r4, #460	; 0x1cc
      24:	65747369 	ldrbvs	r7, [r4, #-873]!	; 0xfffffc97
      28:	6c6f6e6e 	stclvs	14, cr6, [pc], #-440	; fffffe78 <__bss_end__+0xffff5860>
      2c:	6e616d6c 	cdpvs	13, 6, cr6, cr1, cr12, {3}
      30:	636f442f 	cmnvs	pc, #788529152	; 0x2f000000
      34:	6e656d75 	mcrvs	13, 3, r6, cr5, cr5, {3}
      38:	532f7374 			; <UNDEFINED> instruction: 0x532f7374
      3c:	6e697270 	mcrvs	2, 3, r7, cr9, cr0, {3}
      40:	75515f67 	ldrbvc	r5, [r1, #-3943]	; 0xfffff099
      44:	65747261 	ldrbvs	r7, [r4, #-609]!	; 0xfffffd9f
      48:	30325f72 	eorscc	r5, r2, r2, ror pc
      4c:	432f3232 			; <UNDEFINED> instruction: 0x432f3232
      50:	30343253 	eorscc	r3, r4, r3, asr r2
      54:	732d584c 			; <UNDEFINED> instruction: 0x732d584c
      58:	32327270 	eorscc	r7, r2, #112, 4
      5c:	62696c2f 	rsbvs	r6, r9, #12032	; 0x2f00
      60:	692f6970 	stmdbvs	pc!, {r4, r5, r6, r8, fp, sp, lr}	; <UNPREDICTABLE>
      64:	756c636e 	strbvc	r6, [ip, #-878]!	; 0xfffffc92
      68:	00006564 	andeq	r6, r0, r4, ror #10
      6c:	656e2d32 	strbvs	r2, [lr, #-3378]!	; 0xfffff2ce
      70:	7869706f 	stmdavc	r9!, {r0, r1, r2, r3, r5, r6, ip, sp, lr}^
      74:	0000632e 	andeq	r6, r0, lr, lsr #6
      78:	70720000 	rsbsvc	r0, r2, r0
      7c:	00682e69 	rsbeq	r2, r8, r9, ror #28
      80:	57000001 	strpl	r0, [r0, -r1]
      84:	31383253 	teqcc	r8, r3, asr r2
      88:	682e4232 	stmdavs	lr!, {r1, r4, r5, r9, lr}
      8c:	00000000 	andeq	r0, r0, r0
      90:	6f697067 	svcvs	0x00697067
      94:	0100682e 	tsteq	r0, lr, lsr #16
      98:	656e0000 	strbvs	r0, [lr, #-0]!
      9c:	7869706f 	stmdavc	r9!, {r0, r1, r2, r3, r5, r6, ip, sp, lr}^
      a0:	682e6c65 	stmdavs	lr!, {r0, r2, r5, r6, sl, fp, sp, lr}
      a4:	00000000 	andeq	r0, r0, r0
      a8:	00330500 	eorseq	r0, r3, r0, lsl #10
      ac:	80380205 	eorshi	r0, r8, r5, lsl #4
      b0:	0c030000 	stceq	0, cr0, [r3], {-0}
      b4:	05010601 	streq	r0, [r1, #-1537]	; 0xfffff9ff
      b8:	05830602 	streq	r0, [r3, #1538]	; 0x602
      bc:	05010605 	streq	r0, [r1, #-1541]	; 0xfffff9fb
      c0:	14030609 	strne	r0, [r3], #-1545	; 0xfffff9f7
      c4:	061a054a 	ldreq	r0, [sl], -sl, asr #10
      c8:	2e0c0501 	cfsh32cs	mvfx0, mvfx12, #1
      cc:	03060905 	movweq	r0, #26885	; 0x6905
      d0:	1c054a14 			; <UNDEFINED> instruction: 0x1c054a14
      d4:	0c050106 	stfeqs	f0, [r5], {6}
      d8:	0603052e 	streq	r0, [r3], -lr, lsr #10
      dc:	06ba064b 	ldrteq	r0, [sl], fp, asr #12
      e0:	bcbbbb2f 	fldmiaxlt	fp!, {d11-d33}	;@ Deprecated
      e4:	bcbbbbbb 	fldmiaxlt	fp!, {d11-d103}	;@ Deprecated
      e8:	bcbbbbbb 	fldmiaxlt	fp!, {d11-d103}	;@ Deprecated
      ec:	03bbbbbb 			; <UNDEFINED> instruction: 0x03bbbbbb
      f0:	1305d646 	movwne	sp, #22086	; 0x5646
      f4:	03050106 	movweq	r0, #20742	; 0x5106
      f8:	062eba2e 	strteq	fp, [lr], -lr, lsr #20
      fc:	0613052f 	ldreq	r0, [r3], -pc, lsr #10
     100:	2e030501 	cfsh32cs	mvfx0, mvfx3, #1
     104:	bcbbbb06 	vldmialt	fp!, {d11-d13}
     108:	bcbbbbbb 	fldmiaxlt	fp!, {d11-d103}	;@ Deprecated
     10c:	bcbbbbbb 	fldmiaxlt	fp!, {d11-d103}	;@ Deprecated
     110:	05bbbbbb 	ldreq	fp, [fp, #3003]!	; 0xbbb
     114:	ba2a0305 	blt	a80d30 <__bss_end__+0xa76718>
     118:	4b060105 	blmi	180534 <__bss_end__+0x175f1c>
     11c:	03060305 	movweq	r0, #25349	; 0x6305
     120:	13054a57 	movwne	r4, #23127	; 0x5a57
     124:	03050106 	movweq	r0, #20742	; 0x5106
     128:	062ed62e 	strteq	sp, [lr], -lr, lsr #12
     12c:	bcbbbb2f 	fldmiaxlt	fp!, {d11-d33}	;@ Deprecated
     130:	bcbbbbbb 	fldmiaxlt	fp!, {d11-d103}	;@ Deprecated
     134:	bcbbbbbb 	fldmiaxlt	fp!, {d11-d103}	;@ Deprecated
     138:	05bbbbbb 	ldreq	fp, [fp, #3003]!	; 0xbbb
     13c:	d6190314 			; <UNDEFINED> instruction: 0xd6190314
     140:	2f2f0505 	svccs	0x002f0505
     144:	0f05134f 	svceq	0x0005134f
     148:	05050106 	streq	r0, [r5, #-262]	; 0xfffffefa
     14c:	09058506 	stmdbeq	r5, {r1, r2, r8, sl, pc}
     150:	060d0501 	streq	r0, [sp], -r1, lsl #10
     154:	2e050501 	cfsh32cs	mvfx0, mvfx5, #1
     158:	02001f05 	andeq	r1, r0, #5, 30
     15c:	2e060204 	cdpcs	2, 0, cr0, cr6, cr4, {0}
     160:	02002005 	andeq	r2, r0, #5, 0
     164:	01060204 	tsteq	r6, r4, lsl #4
     168:	02001405 	andeq	r1, r0, #83886080	; 0x5000000
     16c:	2e060104 	adfcss	f0, f6, f4
     170:	02000505 	andeq	r0, r0, #20971520	; 0x1400000
     174:	01060104 	tsteq	r6, r4, lsl #2
     178:	054c1105 	strbeq	r1, [ip, #-261]	; 0xfffffefb
     17c:	04020018 	streq	r0, [r2], #-24	; 0xffffffe8
     180:	052e0601 	streq	r0, [lr, #-1537]!	; 0xfffff9ff
     184:	04020009 	streq	r0, [r2], #-9
     188:	05010601 	streq	r0, [r1, #-1537]	; 0xfffff9ff
     18c:	0402000d 	streq	r0, [r2], #-13
     190:	054b0603 	strbeq	r0, [fp, #-1539]	; 0xfffff9fd
     194:	04020025 	streq	r0, [r2], #-37	; 0xffffffdb
     198:	26058103 	strcs	r8, [r5], -r3, lsl #2
     19c:	03040200 	movweq	r0, #16896	; 0x4200
     1a0:	02000106 	andeq	r0, r0, #-2147483647	; 0x80000001
     1a4:	002e0304 	eoreq	r0, lr, r4, lsl #6
     1a8:	2e030402 	cdpcs	4, 0, cr0, cr3, cr2, {0}
     1ac:	16060505 	strne	r0, [r6], -r5, lsl #10
     1b0:	4b060105 	blmi	1805cc <__bss_end__+0x175fb4>
     1b4:	01000402 	tsteq	r0, r2, lsl #8
     1b8:	000f2601 	andeq	r2, pc, r1, lsl #12
     1bc:	08000300 	stmdaeq	r0, {r8, r9}
     1c0:	02000001 	andeq	r0, r0, #1, 0
     1c4:	0d0efb01 	vstreq	d15, [lr, #-4]
     1c8:	01010100 	mrseq	r0, (UNDEF: 17)
     1cc:	00000001 	andeq	r0, r0, r1
     1d0:	01000001 	tsteq	r0, r1
     1d4:	7273752f 	rsbsvc	r7, r3, #197132288	; 0xbc00000
     1d8:	636f6c2f 	cmnvs	pc, #12032	; 0x2f00
     1dc:	432f6c61 			; <UNDEFINED> instruction: 0x432f6c61
     1e0:	616c6c65 	cmnvs	ip, r5, ror #24
     1e4:	72612f72 	rsbvc	r2, r1, #456	; 0x1c8
     1e8:	6f6e2d6d 	svcvs	0x006e2d6d
     1ec:	652d656e 	strvs	r6, [sp, #-1390]!	; 0xfffffa92
     1f0:	2d696261 	sfmcs	f6, 2, [r9, #-388]!	; 0xfffffe7c
     1f4:	74736574 	ldrbtvc	r6, [r3], #-1396	; 0xfffffa8c
     1f8:	322d392f 	eorcc	r3, sp, #770048	; 0xbc000
     1fc:	71393130 	teqvc	r9, r0, lsr r1
     200:	73632d34 	cmnvc	r3, #52, 26	; 0xd00
     204:	65373031 	ldrvs	r3, [r7, #-49]!	; 0xffffffcf
     208:	62696c2f 	rsbvs	r6, r9, #12032	; 0x2f00
     20c:	6363672f 	cmnvs	r3, #12320768	; 0xbc0000
     210:	6d72612f 	ldfvse	f6, [r2, #-188]!	; 0xffffff44
     214:	6e6f6e2d 	cdpvs	14, 6, cr6, cr15, cr13, {1}
     218:	61652d65 	cmnvs	r5, r5, ror #26
     21c:	392f6962 	stmdbcc	pc!, {r1, r5, r6, r8, fp, sp, lr}	; <UNPREDICTABLE>
     220:	312e322e 			; <UNDEFINED> instruction: 0x312e322e
     224:	636e692f 	cmnvs	lr, #770048	; 0xbc000
     228:	6564756c 	strbvs	r7, [r4, #-1388]!	; 0xfffffa94
     22c:	73552f00 	cmpvc	r5, #0, 30
     230:	2f737265 	svccs	0x00737265
     234:	73697274 	cmnvc	r9, #116, 4	; 0x40000007
     238:	6e6e6574 	mcrvs	5, 3, r6, cr14, cr4, {3}
     23c:	6d6c6c6f 	stclvs	12, cr6, [ip, #-444]!	; 0xfffffe44
     240:	442f6e61 	strtmi	r6, [pc], #-3681	; 248 <__code_start__-0x7db8>
     244:	6d75636f 	ldclvs	3, cr6, [r5, #-444]!	; 0xfffffe44
     248:	73746e65 	cmnvc	r4, #1616	; 0x650
     24c:	7270532f 	rsbsvc	r5, r0, #-1140850688	; 0xbc000000
     250:	5f676e69 	svcpl	0x00676e69
     254:	72617551 	rsbvc	r7, r1, #339738624	; 0x14400000
     258:	5f726574 	svcpl	0x00726574
     25c:	32323032 	eorscc	r3, r2, #50, 0	; 0x32
     260:	3253432f 	subscc	r4, r3, #-1140850688	; 0xbc000000
     264:	584c3034 	stmdapl	ip, {r2, r4, r5, ip, sp}^
     268:	7270732d 	rsbsvc	r7, r0, #-1275068416	; 0xb4000000
     26c:	6c2f3232 	sfmvs	f3, 4, [pc], #-200	; 1ac <__code_start__-0x7e54>
     270:	69706269 	ldmdbvs	r0!, {r0, r3, r5, r6, r9, sp, lr}^
     274:	636e692f 	cmnvs	lr, #770048	; 0xbc000
     278:	6564756c 	strbvs	r7, [r4, #-1388]!	; 0xfffffa94
     27c:	53570000 	cmppl	r7, #0, 0
     280:	32313832 	eorscc	r3, r1, #3276800	; 0x320000
     284:	00682e42 	rsbeq	r2, r8, r2, asr #28
     288:	6e000000 	cdpvs	0, 0, cr0, cr0, cr0, {0}
     28c:	69706f65 	ldmdbvs	r0!, {r0, r2, r5, r6, r8, r9, sl, fp, sp, lr}^
     290:	2e6c6578 	mcrcs	5, 3, r6, cr12, cr8, {3}
     294:	00000063 	andeq	r0, r0, r3, rrx
     298:	64747300 	ldrbtvs	r7, [r4], #-768	; 0xfffffd00
     29c:	2d746e69 	ldclcs	14, cr6, [r4, #-420]!	; 0xfffffe5c
     2a0:	2e636367 	cdpcs	3, 6, cr6, cr3, cr7, {3}
     2a4:	00010068 	andeq	r0, r1, r8, rrx
     2a8:	69707200 	ldmdbvs	r0!, {r9, ip, sp, lr}^
     2ac:	0200682e 	andeq	r6, r0, #3014656	; 0x2e0000
     2b0:	656e0000 	strbvs	r0, [lr, #-0]!
     2b4:	7869706f 	stmdavc	r9!, {r0, r1, r2, r3, r5, r6, ip, sp, lr}^
     2b8:	682e6c65 	stmdavs	lr!, {r0, r2, r5, r6, sl, fp, sp, lr}
     2bc:	00000000 	andeq	r0, r0, r0
     2c0:	6f697067 	svcvs	0x00697067
     2c4:	0200682e 	andeq	r6, r0, #3014656	; 0x2e0000
     2c8:	05000000 	streq	r0, [r0, #-0]
     2cc:	02050034 	andeq	r0, r5, #52, 0	; 0x34
     2d0:	00008590 	muleq	r0, r0, r5
     2d4:	0101e503 	tsteq	r1, r3, lsl #10
     2d8:	05140205 	ldreq	r0, [r4, #-517]	; 0xfffffdfb
     2dc:	016f0314 	cmneq	pc, r4, lsl r3	; <UNPREDICTABLE>
     2e0:	05130205 	ldreq	r0, [r3, #-517]	; 0xfffffdfb
     2e4:	05010605 	streq	r0, [r1, #-1541]	; 0xfffff9fb
     2e8:	054b0603 	strbeq	r0, [fp, #-1539]	; 0xfffff9fd
     2ec:	015f0314 	cmpeq	pc, r4, lsl r3	; <UNPREDICTABLE>
     2f0:	05130205 	ldreq	r0, [r3, #-517]	; 0xfffffdfb
     2f4:	016c0314 	cmneq	ip, r4, lsl r3
     2f8:	05140205 	ldreq	r0, [r4, #-517]	; 0xfffffdfb
     2fc:	2e010113 	mcrcs	1, 0, r0, cr1, cr3, {0}
     300:	02050106 	andeq	r0, r5, #-2147483647	; 0x80000001
     304:	14051306 	strne	r1, [r5], #-774	; 0xfffffcfa
     308:	05015503 	streq	r5, [r1, #-1283]	; 0xfffffafd
     30c:	04051302 	streq	r1, [r5], #-770	; 0xfffffcfe
     310:	05050106 	streq	r0, [r5, #-262]	; 0xfffffefa
     314:	35053006 	strcc	r3, [r5, #-6]
     318:	26050106 	strcs	r0, [r5], -r6, lsl #2
     31c:	02054a4a 	andeq	r4, r5, #303104	; 0x4a000
     320:	01290306 			; <UNDEFINED> instruction: 0x01290306
     324:	60031405 	andvs	r1, r3, r5, lsl #8
     328:	13020501 	movwne	r0, #9473	; 0x2501
     32c:	03051313 	movweq	r1, #21267	; 0x5313
     330:	11070513 	tstne	r7, r3, lsl r5
     334:	01010805 	tsteq	r1, r5, lsl #16
     338:	0619052e 	ldreq	r0, [r9], -lr, lsr #10
     33c:	2e070501 	cfsh32cs	mvfx0, mvfx7, #1
     340:	0603054a 	streq	r0, [r3], -sl, asr #10
     344:	0100ce03 	tsteq	r0, r3, lsl #28
     348:	6b031405 	blvs	c5364 <__bss_end__+0xbad4c>
     34c:	13020501 	movwne	r0, #9473	; 0x2501
     350:	69031405 	stmdbvs	r3, {r0, r2, sl, ip}
     354:	14020501 	strne	r0, [r2], #-1281	; 0xfffffaff
     358:	01011305 	tsteq	r1, r5, lsl #6
     35c:	0501062e 	streq	r0, [r1, #-1582]	; 0xfffff9d2
     360:	05130602 	ldreq	r0, [r3, #-1538]	; 0xfffff9fe
     364:	01500314 	cmpeq	r0, r4, lsl r3
     368:	05130205 	ldreq	r0, [r3, #-517]	; 0xfffffdfb
     36c:	05010604 	streq	r0, [r1, #-1540]	; 0xfffff9fc
     370:	05300605 	ldreq	r0, [r0, #-1541]!	; 0xfffff9fb
     374:	05010635 	streq	r0, [r1, #-1589]	; 0xfffff9cb
     378:	054a4a26 	strbeq	r4, [sl, #-2598]	; 0xfffff5da
     37c:	2e030602 	cfmadd32cs	mvax0, mvfx0, mvfx3, mvfx2
     380:	03140501 	tsteq	r4, #4194304	; 0x400000
     384:	02050156 	andeq	r0, r5, #-2147483627	; 0x80000015
     388:	054b1313 	strbeq	r1, [fp, #-787]	; 0xfffffced
     38c:	07051303 	streq	r1, [r5, -r3, lsl #6]
     390:	01080511 	tsteq	r8, r1, lsl r5
     394:	19052e01 	stmdbne	r5, {r0, r9, sl, fp, sp}
     398:	07050106 	streq	r0, [r5, -r6, lsl #2]
     39c:	02054a2e 	andeq	r4, r5, #188416	; 0x2e000
     3a0:	00dd0306 	sbcseq	r0, sp, r6, lsl #6
     3a4:	03140501 	tsteq	r4, #4194304	; 0x400000
     3a8:	0205016e 	andeq	r0, r5, #-2147483621	; 0x8000001b
     3ac:	06050513 			; <UNDEFINED> instruction: 0x06050513
     3b0:	06030501 	streq	r0, [r3], -r1, lsl #10
     3b4:	0314054b 	tsteq	r4, #314572800	; 0x12c00000
     3b8:	0205015f 	andeq	r0, r5, #-1073741801	; 0xc0000017
     3bc:	03140513 	tsteq	r4, #79691776	; 0x4c00000
     3c0:	0205016c 	andeq	r0, r5, #27
     3c4:	01130514 	tsteq	r3, r4, lsl r5
     3c8:	01062e01 	tsteq	r6, r1, lsl #28
     3cc:	13060205 	movwne	r0, #25093	; 0x6205
     3d0:	55031405 	strpl	r1, [r3, #-1029]	; 0xfffffbfb
     3d4:	13020501 	movwne	r0, #9473	; 0x2501
     3d8:	01060405 	tsteq	r6, r5, lsl #8
     3dc:	30060505 	andcc	r0, r6, r5, lsl #10
     3e0:	01063505 	tsteq	r6, r5, lsl #10
     3e4:	4a4a2605 	bmi	1289c00 <__bss_end__+0x127f5e8>
     3e8:	03060205 	movweq	r0, #25093	; 0x6205
     3ec:	14050129 	strne	r0, [r5], #-297	; 0xfffffed7
     3f0:	05016003 	streq	r6, [r1, #-3]
     3f4:	13131302 	tstne	r3, #134217728	; 0x8000000
     3f8:	05130305 	ldreq	r0, [r3, #-773]	; 0xfffffcfb
     3fc:	08051107 	stmdaeq	r5, {r0, r1, r2, r8, ip}
     400:	052e0101 	streq	r0, [lr, #-257]!	; 0xfffffeff
     404:	05010619 	streq	r0, [r1, #-1561]	; 0xfffff9e7
     408:	054a2e07 	strbeq	r2, [sl, #-3591]	; 0xfffff1f9
     40c:	ce030603 	cfmadd32gt	mvax0, mvfx0, mvfx3, mvfx3
     410:	14050100 	strne	r0, [r5], #-256	; 0xffffff00
     414:	05016b03 	streq	r6, [r1, #-2819]	; 0xfffff4fd
     418:	14051302 	strne	r1, [r5], #-770	; 0xfffffcfe
     41c:	05016903 	streq	r6, [r1, #-2307]	; 0xfffff6fd
     420:	13051402 	movwne	r1, #21506	; 0x5402
     424:	062e0101 	strteq	r0, [lr], -r1, lsl #2
     428:	06020501 	streq	r0, [r2], -r1, lsl #10
     42c:	03140513 	tsteq	r4, #79691776	; 0x4c00000
     430:	02050150 	andeq	r0, r5, #20
     434:	06040513 			; <UNDEFINED> instruction: 0x06040513
     438:	06050501 	streq	r0, [r5], -r1, lsl #10
     43c:	06350530 			; <UNDEFINED> instruction: 0x06350530
     440:	4a260501 	bmi	98184c <__bss_end__+0x977234>
     444:	0602054a 	streq	r0, [r2], -sl, asr #10
     448:	05012e03 	streq	r2, [r1, #-3587]	; 0xfffff1fd
     44c:	01560314 	cmpeq	r6, r4, lsl r3
     450:	13130205 	tstne	r3, #1342177280	; 0x50000000
     454:	1303054b 	movwne	r0, #13643	; 0x354b
     458:	05110705 	ldreq	r0, [r1, #-1797]	; 0xfffff8fb
     45c:	2e010108 	adfcss	f0, f1, #0.0
     460:	01061905 	tsteq	r6, r5, lsl #18
     464:	4a2e0705 	bmi	b82080 <__bss_end__+0xb77a68>
     468:	03060205 	movweq	r0, #25093	; 0x6205
     46c:	050100de 	streq	r0, [r1, #-222]	; 0xffffff22
     470:	016d0314 	cmneq	sp, r4, lsl r3
     474:	05130205 	ldreq	r0, [r3, #-517]	; 0xfffffdfb
     478:	05010605 	streq	r0, [r1, #-1541]	; 0xfffff9fb
     47c:	054b0603 	strbeq	r0, [fp, #-1539]	; 0xfffff9fd
     480:	015f0314 	cmpeq	pc, r4, lsl r3	; <UNPREDICTABLE>
     484:	05130205 	ldreq	r0, [r3, #-517]	; 0xfffffdfb
     488:	016c0314 	cmneq	ip, r4, lsl r3
     48c:	05140205 	ldreq	r0, [r4, #-517]	; 0xfffffdfb
     490:	2e010113 	mcrcs	1, 0, r0, cr1, cr3, {0}
     494:	02050106 	andeq	r0, r5, #-2147483647	; 0x80000001
     498:	14051306 	strne	r1, [r5], #-774	; 0xfffffcfa
     49c:	05015503 	streq	r5, [r1, #-1283]	; 0xfffffafd
     4a0:	04051302 	streq	r1, [r5], #-770	; 0xfffffcfe
     4a4:	05050106 	streq	r0, [r5, #-262]	; 0xfffffefa
     4a8:	35053006 	strcc	r3, [r5, #-6]
     4ac:	26050106 	strcs	r0, [r5], -r6, lsl #2
     4b0:	02054a4a 	andeq	r4, r5, #303104	; 0x4a000
     4b4:	01290306 			; <UNDEFINED> instruction: 0x01290306
     4b8:	60031405 	andvs	r1, r3, r5, lsl #8
     4bc:	13020501 	movwne	r0, #9473	; 0x2501
     4c0:	03051313 	movweq	r1, #21267	; 0x5313
     4c4:	11070513 	tstne	r7, r3, lsl r5
     4c8:	01010805 	tsteq	r1, r5, lsl #16
     4cc:	0619052e 	ldreq	r0, [r9], -lr, lsr #10
     4d0:	2e070501 	cfsh32cs	mvfx0, mvfx7, #1
     4d4:	0603054a 	streq	r0, [r3], -sl, asr #10
     4d8:	0100ce03 	tsteq	r0, r3, lsl #28
     4dc:	6b031405 	blvs	c54f8 <__bss_end__+0xbaee0>
     4e0:	13020501 	movwne	r0, #9473	; 0x2501
     4e4:	69031405 	stmdbvs	r3, {r0, r2, sl, ip}
     4e8:	14020501 	strne	r0, [r2], #-1281	; 0xfffffaff
     4ec:	01011305 	tsteq	r1, r5, lsl #6
     4f0:	0501062e 	streq	r0, [r1, #-1582]	; 0xfffff9d2
     4f4:	05130602 	ldreq	r0, [r3, #-1538]	; 0xfffff9fe
     4f8:	01500314 	cmpeq	r0, r4, lsl r3
     4fc:	05130205 	ldreq	r0, [r3, #-517]	; 0xfffffdfb
     500:	05010604 	streq	r0, [r1, #-1540]	; 0xfffff9fc
     504:	05300605 	ldreq	r0, [r0, #-1541]!	; 0xfffff9fb
     508:	05010635 	streq	r0, [r1, #-1589]	; 0xfffff9cb
     50c:	054a4a26 	strbeq	r4, [sl, #-2598]	; 0xfffff5da
     510:	2e030602 	cfmadd32cs	mvax0, mvfx0, mvfx3, mvfx2
     514:	03140501 	tsteq	r4, #4194304	; 0x400000
     518:	02050156 	andeq	r0, r5, #-2147483627	; 0x80000015
     51c:	054b1313 	strbeq	r1, [fp, #-787]	; 0xfffffced
     520:	07051303 	streq	r1, [r5, -r3, lsl #6]
     524:	01080511 	tsteq	r8, r1, lsl r5
     528:	19052e01 	stmdbne	r5, {r0, r9, sl, fp, sp}
     52c:	07050106 	streq	r0, [r5, -r6, lsl #2]
     530:	02054a2e 	andeq	r4, r5, #188416	; 0x2e000
     534:	00df0306 	sbcseq	r0, pc, r6, lsl #6
     538:	03140501 	tsteq	r4, #4194304	; 0x400000
     53c:	0205016c 	andeq	r0, r5, #27
     540:	06050513 			; <UNDEFINED> instruction: 0x06050513
     544:	06030501 	streq	r0, [r3], -r1, lsl #10
     548:	0314054b 	tsteq	r4, #314572800	; 0x12c00000
     54c:	0205015f 	andeq	r0, r5, #-1073741801	; 0xc0000017
     550:	03140513 	tsteq	r4, #79691776	; 0x4c00000
     554:	0205016c 	andeq	r0, r5, #27
     558:	01130514 	tsteq	r3, r4, lsl r5
     55c:	01062e01 	tsteq	r6, r1, lsl #28
     560:	13060205 	movwne	r0, #25093	; 0x6205
     564:	55031405 	strpl	r1, [r3, #-1029]	; 0xfffffbfb
     568:	13020501 	movwne	r0, #9473	; 0x2501
     56c:	01060405 	tsteq	r6, r5, lsl #8
     570:	30060505 	andcc	r0, r6, r5, lsl #10
     574:	01063505 	tsteq	r6, r5, lsl #10
     578:	4a4a2605 	bmi	1289d94 <__bss_end__+0x127f77c>
     57c:	03060205 	movweq	r0, #25093	; 0x6205
     580:	14050129 	strne	r0, [r5], #-297	; 0xfffffed7
     584:	05016003 	streq	r6, [r1, #-3]
     588:	13131302 	tstne	r3, #134217728	; 0x8000000
     58c:	05130305 	ldreq	r0, [r3, #-773]	; 0xfffffcfb
     590:	08051107 	stmdaeq	r5, {r0, r1, r2, r8, ip}
     594:	052e0101 	streq	r0, [lr, #-257]!	; 0xfffffeff
     598:	05010619 	streq	r0, [r1, #-1561]	; 0xfffff9e7
     59c:	054a2e07 	strbeq	r2, [sl, #-3591]	; 0xfffff1f9
     5a0:	ce030603 	cfmadd32gt	mvax0, mvfx0, mvfx3, mvfx3
     5a4:	14050100 	strne	r0, [r5], #-256	; 0xffffff00
     5a8:	05016b03 	streq	r6, [r1, #-2819]	; 0xfffff4fd
     5ac:	14051302 	strne	r1, [r5], #-770	; 0xfffffcfe
     5b0:	05016903 	streq	r6, [r1, #-2307]	; 0xfffff6fd
     5b4:	13051402 	movwne	r1, #21506	; 0x5402
     5b8:	062e0101 	strteq	r0, [lr], -r1, lsl #2
     5bc:	06020501 	streq	r0, [r2], -r1, lsl #10
     5c0:	03140513 	tsteq	r4, #79691776	; 0x4c00000
     5c4:	02050150 	andeq	r0, r5, #20
     5c8:	06040513 			; <UNDEFINED> instruction: 0x06040513
     5cc:	06050501 	streq	r0, [r5], -r1, lsl #10
     5d0:	06350530 			; <UNDEFINED> instruction: 0x06350530
     5d4:	4a260501 	bmi	9819e0 <__bss_end__+0x9773c8>
     5d8:	0602054a 	streq	r0, [r2], -sl, asr #10
     5dc:	05012e03 	streq	r2, [r1, #-3587]	; 0xfffff1fd
     5e0:	01560314 	cmpeq	r6, r4, lsl r3
     5e4:	13130205 	tstne	r3, #1342177280	; 0x50000000
     5e8:	1303054b 	movwne	r0, #13643	; 0x354b
     5ec:	05110705 	ldreq	r0, [r1, #-1797]	; 0xfffff8fb
     5f0:	2e010108 	adfcss	f0, f1, #0.0
     5f4:	01061905 	tsteq	r6, r5, lsl #18
     5f8:	4a2e0705 	bmi	b82214 <__bss_end__+0xb77bfc>
     5fc:	03060205 	movweq	r0, #25093	; 0x6205
     600:	050100e0 	streq	r0, [r1, #-224]	; 0xffffff20
     604:	016b0314 	cmneq	fp, r4, lsl r3
     608:	05130205 	ldreq	r0, [r3, #-517]	; 0xfffffdfb
     60c:	05010605 	streq	r0, [r1, #-1541]	; 0xfffff9fb
     610:	054b0603 	strbeq	r0, [fp, #-1539]	; 0xfffff9fd
     614:	015f0314 	cmpeq	pc, r4, lsl r3	; <UNPREDICTABLE>
     618:	05130205 	ldreq	r0, [r3, #-517]	; 0xfffffdfb
     61c:	016c0314 	cmneq	ip, r4, lsl r3
     620:	05140205 	ldreq	r0, [r4, #-517]	; 0xfffffdfb
     624:	2e010113 	mcrcs	1, 0, r0, cr1, cr3, {0}
     628:	02050106 	andeq	r0, r5, #-2147483647	; 0x80000001
     62c:	14051306 	strne	r1, [r5], #-774	; 0xfffffcfa
     630:	05015503 	streq	r5, [r1, #-1283]	; 0xfffffafd
     634:	04051302 	streq	r1, [r5], #-770	; 0xfffffcfe
     638:	05050106 	streq	r0, [r5, #-262]	; 0xfffffefa
     63c:	35053006 	strcc	r3, [r5, #-6]
     640:	26050106 	strcs	r0, [r5], -r6, lsl #2
     644:	02054a4a 	andeq	r4, r5, #303104	; 0x4a000
     648:	01290306 			; <UNDEFINED> instruction: 0x01290306
     64c:	60031405 	andvs	r1, r3, r5, lsl #8
     650:	13020501 	movwne	r0, #9473	; 0x2501
     654:	03051313 	movweq	r1, #21267	; 0x5313
     658:	11070513 	tstne	r7, r3, lsl r5
     65c:	01010805 	tsteq	r1, r5, lsl #16
     660:	0619052e 	ldreq	r0, [r9], -lr, lsr #10
     664:	2e070501 	cfsh32cs	mvfx0, mvfx7, #1
     668:	0603054a 	streq	r0, [r3], -sl, asr #10
     66c:	0100ce03 	tsteq	r0, r3, lsl #28
     670:	6b031405 	blvs	c568c <__bss_end__+0xbb074>
     674:	13020501 	movwne	r0, #9473	; 0x2501
     678:	69031405 	stmdbvs	r3, {r0, r2, sl, ip}
     67c:	14020501 	strne	r0, [r2], #-1281	; 0xfffffaff
     680:	01011305 	tsteq	r1, r5, lsl #6
     684:	0501062e 	streq	r0, [r1, #-1582]	; 0xfffff9d2
     688:	05130602 	ldreq	r0, [r3, #-1538]	; 0xfffff9fe
     68c:	01500314 	cmpeq	r0, r4, lsl r3
     690:	05130205 	ldreq	r0, [r3, #-517]	; 0xfffffdfb
     694:	05010604 	streq	r0, [r1, #-1540]	; 0xfffff9fc
     698:	05300605 	ldreq	r0, [r0, #-1541]!	; 0xfffff9fb
     69c:	05010635 	streq	r0, [r1, #-1589]	; 0xfffff9cb
     6a0:	054a4a26 	strbeq	r4, [sl, #-2598]	; 0xfffff5da
     6a4:	2e030602 	cfmadd32cs	mvax0, mvfx0, mvfx3, mvfx2
     6a8:	03140501 	tsteq	r4, #4194304	; 0x400000
     6ac:	02050156 	andeq	r0, r5, #-2147483627	; 0x80000015
     6b0:	054b1313 	strbeq	r1, [fp, #-787]	; 0xfffffced
     6b4:	07051303 	streq	r1, [r5, -r3, lsl #6]
     6b8:	01080511 	tsteq	r8, r1, lsl r5
     6bc:	19052e01 	stmdbne	r5, {r0, r9, sl, fp, sp}
     6c0:	07050106 	streq	r0, [r5, -r6, lsl #2]
     6c4:	02054a2e 	andeq	r4, r5, #188416	; 0x2e000
     6c8:	00e10306 	rsceq	r0, r1, r6, lsl #6
     6cc:	03140501 	tsteq	r4, #4194304	; 0x400000
     6d0:	0205016a 	andeq	r0, r5, #-2147483622	; 0x8000001a
     6d4:	06050513 			; <UNDEFINED> instruction: 0x06050513
     6d8:	06030501 	streq	r0, [r3], -r1, lsl #10
     6dc:	0314054b 	tsteq	r4, #314572800	; 0x12c00000
     6e0:	0205015f 	andeq	r0, r5, #-1073741801	; 0xc0000017
     6e4:	03140513 	tsteq	r4, #79691776	; 0x4c00000
     6e8:	0205016c 	andeq	r0, r5, #27
     6ec:	01130514 	tsteq	r3, r4, lsl r5
     6f0:	01062e01 	tsteq	r6, r1, lsl #28
     6f4:	13060205 	movwne	r0, #25093	; 0x6205
     6f8:	55031405 	strpl	r1, [r3, #-1029]	; 0xfffffbfb
     6fc:	13020501 	movwne	r0, #9473	; 0x2501
     700:	01060405 	tsteq	r6, r5, lsl #8
     704:	30060505 	andcc	r0, r6, r5, lsl #10
     708:	01063505 	tsteq	r6, r5, lsl #10
     70c:	4a4a2605 	bmi	1289f28 <__bss_end__+0x127f910>
     710:	03060205 	movweq	r0, #25093	; 0x6205
     714:	14050129 	strne	r0, [r5], #-297	; 0xfffffed7
     718:	05016003 	streq	r6, [r1, #-3]
     71c:	13131302 	tstne	r3, #134217728	; 0x8000000
     720:	05130305 	ldreq	r0, [r3, #-773]	; 0xfffffcfb
     724:	08051107 	stmdaeq	r5, {r0, r1, r2, r8, ip}
     728:	052e0101 	streq	r0, [lr, #-257]!	; 0xfffffeff
     72c:	05010619 	streq	r0, [r1, #-1561]	; 0xfffff9e7
     730:	054a2e07 	strbeq	r2, [sl, #-3591]	; 0xfffff1f9
     734:	ce030603 	cfmadd32gt	mvax0, mvfx0, mvfx3, mvfx3
     738:	14050100 	strne	r0, [r5], #-256	; 0xffffff00
     73c:	05016b03 	streq	r6, [r1, #-2819]	; 0xfffff4fd
     740:	14051302 	strne	r1, [r5], #-770	; 0xfffffcfe
     744:	05016903 	streq	r6, [r1, #-2307]	; 0xfffff6fd
     748:	13051402 	movwne	r1, #21506	; 0x5402
     74c:	062e0101 	strteq	r0, [lr], -r1, lsl #2
     750:	06020501 	streq	r0, [r2], -r1, lsl #10
     754:	03140513 	tsteq	r4, #79691776	; 0x4c00000
     758:	02050150 	andeq	r0, r5, #20
     75c:	06040513 			; <UNDEFINED> instruction: 0x06040513
     760:	06050501 	streq	r0, [r5], -r1, lsl #10
     764:	06350530 			; <UNDEFINED> instruction: 0x06350530
     768:	4a260501 	bmi	981b74 <__bss_end__+0x97755c>
     76c:	0602054a 	streq	r0, [r2], -sl, asr #10
     770:	05012e03 	streq	r2, [r1, #-3587]	; 0xfffff1fd
     774:	01560314 	cmpeq	r6, r4, lsl r3
     778:	13130205 	tstne	r3, #1342177280	; 0x50000000
     77c:	1303054b 	movwne	r0, #13643	; 0x354b
     780:	05110705 	ldreq	r0, [r1, #-1797]	; 0xfffff8fb
     784:	2e010108 	adfcss	f0, f1, #0.0
     788:	01061905 	tsteq	r6, r5, lsl #18
     78c:	4a2e0705 	bmi	b823a8 <__bss_end__+0xb77d90>
     790:	03060205 	movweq	r0, #25093	; 0x6205
     794:	050100e2 	streq	r0, [r1, #-226]	; 0xffffff1e
     798:	01690314 	cmneq	r9, r4, lsl r3
     79c:	05130205 	ldreq	r0, [r3, #-517]	; 0xfffffdfb
     7a0:	05010605 	streq	r0, [r1, #-1541]	; 0xfffff9fb
     7a4:	054b0603 	strbeq	r0, [fp, #-1539]	; 0xfffff9fd
     7a8:	015f0314 	cmpeq	pc, r4, lsl r3	; <UNPREDICTABLE>
     7ac:	05130205 	ldreq	r0, [r3, #-517]	; 0xfffffdfb
     7b0:	016c0314 	cmneq	ip, r4, lsl r3
     7b4:	05140205 	ldreq	r0, [r4, #-517]	; 0xfffffdfb
     7b8:	2e010113 	mcrcs	1, 0, r0, cr1, cr3, {0}
     7bc:	02050106 	andeq	r0, r5, #-2147483647	; 0x80000001
     7c0:	14051306 	strne	r1, [r5], #-774	; 0xfffffcfa
     7c4:	05015503 	streq	r5, [r1, #-1283]	; 0xfffffafd
     7c8:	04051302 	streq	r1, [r5], #-770	; 0xfffffcfe
     7cc:	05050106 	streq	r0, [r5, #-262]	; 0xfffffefa
     7d0:	35053006 	strcc	r3, [r5, #-6]
     7d4:	26050106 	strcs	r0, [r5], -r6, lsl #2
     7d8:	02054a4a 	andeq	r4, r5, #303104	; 0x4a000
     7dc:	01290306 			; <UNDEFINED> instruction: 0x01290306
     7e0:	60031405 	andvs	r1, r3, r5, lsl #8
     7e4:	13020501 	movwne	r0, #9473	; 0x2501
     7e8:	03051313 	movweq	r1, #21267	; 0x5313
     7ec:	11070513 	tstne	r7, r3, lsl r5
     7f0:	01010805 	tsteq	r1, r5, lsl #16
     7f4:	0619052e 	ldreq	r0, [r9], -lr, lsr #10
     7f8:	2e070501 	cfsh32cs	mvfx0, mvfx7, #1
     7fc:	0603054a 	streq	r0, [r3], -sl, asr #10
     800:	0100ce03 	tsteq	r0, r3, lsl #28
     804:	6b031405 	blvs	c5820 <__bss_end__+0xbb208>
     808:	13020501 	movwne	r0, #9473	; 0x2501
     80c:	69031405 	stmdbvs	r3, {r0, r2, sl, ip}
     810:	14020501 	strne	r0, [r2], #-1281	; 0xfffffaff
     814:	01011305 	tsteq	r1, r5, lsl #6
     818:	0501062e 	streq	r0, [r1, #-1582]	; 0xfffff9d2
     81c:	05130602 	ldreq	r0, [r3, #-1538]	; 0xfffff9fe
     820:	01500314 	cmpeq	r0, r4, lsl r3
     824:	05130205 	ldreq	r0, [r3, #-517]	; 0xfffffdfb
     828:	05010604 	streq	r0, [r1, #-1540]	; 0xfffff9fc
     82c:	05300605 	ldreq	r0, [r0, #-1541]!	; 0xfffff9fb
     830:	05010635 	streq	r0, [r1, #-1589]	; 0xfffff9cb
     834:	054a4a26 	strbeq	r4, [sl, #-2598]	; 0xfffff5da
     838:	2e030602 	cfmadd32cs	mvax0, mvfx0, mvfx3, mvfx2
     83c:	03140501 	tsteq	r4, #4194304	; 0x400000
     840:	02050156 	andeq	r0, r5, #-2147483627	; 0x80000015
     844:	054b1313 	strbeq	r1, [fp, #-787]	; 0xfffffced
     848:	07051303 	streq	r1, [r5, -r3, lsl #6]
     84c:	01080511 	tsteq	r8, r1, lsl r5
     850:	19052e01 	stmdbne	r5, {r0, r9, sl, fp, sp}
     854:	07050106 	streq	r0, [r5, -r6, lsl #2]
     858:	02054a2e 	andeq	r4, r5, #188416	; 0x2e000
     85c:	00e30306 	rsceq	r0, r3, r6, lsl #6
     860:	03140501 	tsteq	r4, #4194304	; 0x400000
     864:	02050168 	andeq	r0, r5, #26
     868:	06050513 			; <UNDEFINED> instruction: 0x06050513
     86c:	06030501 	streq	r0, [r3], -r1, lsl #10
     870:	0314054b 	tsteq	r4, #314572800	; 0x12c00000
     874:	0205015f 	andeq	r0, r5, #-1073741801	; 0xc0000017
     878:	03140513 	tsteq	r4, #79691776	; 0x4c00000
     87c:	0205016c 	andeq	r0, r5, #27
     880:	01130514 	tsteq	r3, r4, lsl r5
     884:	01062e01 	tsteq	r6, r1, lsl #28
     888:	13060205 	movwne	r0, #25093	; 0x6205
     88c:	55031405 	strpl	r1, [r3, #-1029]	; 0xfffffbfb
     890:	13020501 	movwne	r0, #9473	; 0x2501
     894:	01060405 	tsteq	r6, r5, lsl #8
     898:	30060505 	andcc	r0, r6, r5, lsl #10
     89c:	01063505 	tsteq	r6, r5, lsl #10
     8a0:	2e4a2605 	cdpcs	6, 4, cr2, cr10, cr5, {0}
     8a4:	0602052e 	streq	r0, [r2], -lr, lsr #10
     8a8:	05012903 	streq	r2, [r1, #-2307]	; 0xfffff6fd
     8ac:	01600314 	cmneq	r0, r4, lsl r3
     8b0:	13130205 	tstne	r3, #1342177280	; 0x50000000
     8b4:	13030513 	movwne	r0, #13587	; 0x3513
     8b8:	05110705 	ldreq	r0, [r1, #-1797]	; 0xfffff8fb
     8bc:	2e010108 	adfcss	f0, f1, #0.0
     8c0:	01061905 	tsteq	r6, r5, lsl #18
     8c4:	4a2e0705 	bmi	b824e0 <__bss_end__+0xb77ec8>
     8c8:	03060305 	movweq	r0, #25349	; 0x6305
     8cc:	050100ce 	streq	r0, [r1, #-206]	; 0xffffff32
     8d0:	016b0314 	cmneq	fp, r4, lsl r3
     8d4:	05130205 	ldreq	r0, [r3, #-517]	; 0xfffffdfb
     8d8:	01690314 	cmneq	r9, r4, lsl r3
     8dc:	05140205 	ldreq	r0, [r4, #-517]	; 0xfffffdfb
     8e0:	2e010113 	mcrcs	1, 0, r0, cr1, cr3, {0}
     8e4:	02050106 	andeq	r0, r5, #-2147483647	; 0x80000001
     8e8:	14051306 	strne	r1, [r5], #-774	; 0xfffffcfa
     8ec:	05015003 	streq	r5, [r1, #-3]
     8f0:	04051302 	streq	r1, [r5], #-770	; 0xfffffcfe
     8f4:	05050106 	streq	r0, [r5, #-262]	; 0xfffffefa
     8f8:	35053006 	strcc	r3, [r5, #-6]
     8fc:	26050106 	strcs	r0, [r5], -r6, lsl #2
     900:	02054a4a 	andeq	r4, r5, #303104	; 0x4a000
     904:	012e0306 			; <UNDEFINED> instruction: 0x012e0306
     908:	56031405 	strpl	r1, [r3], -r5, lsl #8
     90c:	13020501 	movwne	r0, #9473	; 0x2501
     910:	03054b13 	movweq	r4, #23315	; 0x5b13
     914:	11070513 	tstne	r7, r3, lsl r5
     918:	01010805 	tsteq	r1, r5, lsl #16
     91c:	0619052e 	ldreq	r0, [r9], -lr, lsr #10
     920:	2e070501 	cfsh32cs	mvfx0, mvfx7, #1
     924:	06030566 	streq	r0, [r3], -r6, ror #10
     928:	0100d003 	tsteq	r0, r3
     92c:	61031405 	tstvs	r3, r5, lsl #8
     930:	13020501 	movwne	r0, #9473	; 0x2501
     934:	67031405 	strvs	r1, [r3, -r5, lsl #8]
     938:	14020501 	strne	r0, [r2], #-1281	; 0xfffffaff
     93c:	01011305 	tsteq	r1, r5, lsl #6
     940:	0501062e 	streq	r0, [r1, #-1582]	; 0xfffff9d2
     944:	05130602 	ldreq	r0, [r3, #-1538]	; 0xfffff9fe
     948:	01550314 	cmpeq	r5, r4, lsl r3
     94c:	05130205 	ldreq	r0, [r3, #-517]	; 0xfffffdfb
     950:	05010604 	streq	r0, [r1, #-1540]	; 0xfffff9fc
     954:	05300605 	ldreq	r0, [r0, #-1541]!	; 0xfffff9fb
     958:	05010635 	streq	r0, [r1, #-1589]	; 0xfffff9cb
     95c:	054a4a26 	strbeq	r4, [sl, #-2598]	; 0xfffff5da
     960:	29030602 	stmdbcs	r3, {r1, r9, sl}
     964:	03140501 	tsteq	r4, #4194304	; 0x400000
     968:	02050160 	andeq	r0, r5, #24
     96c:	052f1313 	streq	r1, [pc, #-787]!	; 661 <__code_start__-0x799f>
     970:	07051303 	streq	r1, [r5, -r3, lsl #6]
     974:	01080511 	tsteq	r8, r1, lsl r5
     978:	19052e01 	stmdbne	r5, {r0, r9, sl, fp, sp}
     97c:	07050106 	streq	r0, [r5, -r6, lsl #2]
     980:	03054a2e 	movweq	r4, #23086	; 0x5a2e
     984:	00d10306 	sbcseq	r0, r1, r6, lsl #6
     988:	03140501 	tsteq	r4, #4194304	; 0x400000
     98c:	02050168 	andeq	r0, r5, #26
     990:	03140513 	tsteq	r4, #79691776	; 0x4c00000
     994:	02050169 	andeq	r0, r5, #1073741850	; 0x4000001a
     998:	01130514 	tsteq	r3, r4, lsl r5
     99c:	01062e01 	tsteq	r6, r1, lsl #28
     9a0:	13060205 	movwne	r0, #25093	; 0x6205
     9a4:	50031405 	andpl	r1, r3, r5, lsl #8
     9a8:	13020501 	movwne	r0, #9473	; 0x2501
     9ac:	01060405 	tsteq	r6, r5, lsl #8
     9b0:	30060505 	andcc	r0, r6, r5, lsl #10
     9b4:	01063505 	tsteq	r6, r5, lsl #10
     9b8:	4a4a2605 	bmi	128a1d4 <__bss_end__+0x127fbbc>
     9bc:	03060205 	movweq	r0, #25093	; 0x6205
     9c0:	1405012e 	strne	r0, [r5], #-302	; 0xfffffed2
     9c4:	05015603 	streq	r5, [r1, #-1539]	; 0xfffff9fd
     9c8:	4b131302 	blmi	4c55d8 <__bss_end__+0x4bafc0>
     9cc:	05130305 	ldreq	r0, [r3, #-773]	; 0xfffffcfb
     9d0:	08051107 	stmdaeq	r5, {r0, r1, r2, r8, ip}
     9d4:	052e0101 	streq	r0, [lr, #-257]!	; 0xfffffeff
     9d8:	05010619 	streq	r0, [r1, #-1561]	; 0xfffff9e7
     9dc:	05662e07 	strbeq	r2, [r6, #-3591]!	; 0xfffff1f9
     9e0:	d0030603 	andle	r0, r3, r3, lsl #12
     9e4:	14050100 	strne	r0, [r5], #-256	; 0xffffff00
     9e8:	05016103 	streq	r6, [r1, #-259]	; 0xfffffefd
     9ec:	14051302 	strne	r1, [r5], #-770	; 0xfffffcfe
     9f0:	05016703 	streq	r6, [r1, #-1795]	; 0xfffff8fd
     9f4:	13051402 	movwne	r1, #21506	; 0x5402
     9f8:	062e0101 	strteq	r0, [lr], -r1, lsl #2
     9fc:	06020501 	streq	r0, [r2], -r1, lsl #10
     a00:	03140513 	tsteq	r4, #79691776	; 0x4c00000
     a04:	02050155 	andeq	r0, r5, #1073741845	; 0x40000015
     a08:	06040513 			; <UNDEFINED> instruction: 0x06040513
     a0c:	06050501 	streq	r0, [r5], -r1, lsl #10
     a10:	06350530 			; <UNDEFINED> instruction: 0x06350530
     a14:	4a260501 	bmi	981e20 <__bss_end__+0x977808>
     a18:	0602054a 	streq	r0, [r2], -sl, asr #10
     a1c:	05012903 	streq	r2, [r1, #-2307]	; 0xfffff6fd
     a20:	01600314 	cmneq	r0, r4, lsl r3
     a24:	13130205 	tstne	r3, #1342177280	; 0x50000000
     a28:	1303052f 	movwne	r0, #13615	; 0x352f
     a2c:	05110705 	ldreq	r0, [r1, #-1797]	; 0xfffff8fb
     a30:	2e010108 	adfcss	f0, f1, #0.0
     a34:	01061905 	tsteq	r6, r5, lsl #18
     a38:	4a2e0705 	bmi	b82654 <__bss_end__+0xb7803c>
     a3c:	03060305 	movweq	r0, #25349	; 0x6305
     a40:	050100d1 	streq	r0, [r1, #-209]	; 0xffffff2f
     a44:	01680314 	cmneq	r8, r4, lsl r3
     a48:	05130205 	ldreq	r0, [r3, #-517]	; 0xfffffdfb
     a4c:	01690314 	cmneq	r9, r4, lsl r3
     a50:	05140205 	ldreq	r0, [r4, #-517]	; 0xfffffdfb
     a54:	2e010113 	mcrcs	1, 0, r0, cr1, cr3, {0}
     a58:	02050106 	andeq	r0, r5, #-2147483647	; 0x80000001
     a5c:	14051306 	strne	r1, [r5], #-774	; 0xfffffcfa
     a60:	05015003 	streq	r5, [r1, #-3]
     a64:	04051302 	streq	r1, [r5], #-770	; 0xfffffcfe
     a68:	05050106 	streq	r0, [r5, #-262]	; 0xfffffefa
     a6c:	35053006 	strcc	r3, [r5, #-6]
     a70:	26050106 	strcs	r0, [r5], -r6, lsl #2
     a74:	02054a4a 	andeq	r4, r5, #303104	; 0x4a000
     a78:	012e0306 			; <UNDEFINED> instruction: 0x012e0306
     a7c:	56031405 	strpl	r1, [r3], -r5, lsl #8
     a80:	13020501 	movwne	r0, #9473	; 0x2501
     a84:	03054b13 	movweq	r4, #23315	; 0x5b13
     a88:	11070513 	tstne	r7, r3, lsl r5
     a8c:	01010805 	tsteq	r1, r5, lsl #16
     a90:	0619052e 	ldreq	r0, [r9], -lr, lsr #10
     a94:	2e070501 	cfsh32cs	mvfx0, mvfx7, #1
     a98:	06030566 	streq	r0, [r3], -r6, ror #10
     a9c:	0100d003 	tsteq	r0, r3
     aa0:	61031405 	tstvs	r3, r5, lsl #8
     aa4:	13020501 	movwne	r0, #9473	; 0x2501
     aa8:	67031405 	strvs	r1, [r3, -r5, lsl #8]
     aac:	14020501 	strne	r0, [r2], #-1281	; 0xfffffaff
     ab0:	01011305 	tsteq	r1, r5, lsl #6
     ab4:	0501062e 	streq	r0, [r1, #-1582]	; 0xfffff9d2
     ab8:	05130602 	ldreq	r0, [r3, #-1538]	; 0xfffff9fe
     abc:	01550314 	cmpeq	r5, r4, lsl r3
     ac0:	05130205 	ldreq	r0, [r3, #-517]	; 0xfffffdfb
     ac4:	05010604 	streq	r0, [r1, #-1540]	; 0xfffff9fc
     ac8:	05300605 	ldreq	r0, [r0, #-1541]!	; 0xfffff9fb
     acc:	05010635 	streq	r0, [r1, #-1589]	; 0xfffff9cb
     ad0:	054a4a26 	strbeq	r4, [sl, #-2598]	; 0xfffff5da
     ad4:	29030602 	stmdbcs	r3, {r1, r9, sl}
     ad8:	03140501 	tsteq	r4, #4194304	; 0x400000
     adc:	02050160 	andeq	r0, r5, #24
     ae0:	052f1313 	streq	r1, [pc, #-787]!	; 7d5 <__code_start__-0x782b>
     ae4:	07051303 	streq	r1, [r5, -r3, lsl #6]
     ae8:	01080511 	tsteq	r8, r1, lsl r5
     aec:	19052e01 	stmdbne	r5, {r0, r9, sl, fp, sp}
     af0:	07050106 	streq	r0, [r5, -r6, lsl #2]
     af4:	03054a2e 	movweq	r4, #23086	; 0x5a2e
     af8:	00d10306 	sbcseq	r0, r1, r6, lsl #6
     afc:	03140501 	tsteq	r4, #4194304	; 0x400000
     b00:	02050168 	andeq	r0, r5, #26
     b04:	03140513 	tsteq	r4, #79691776	; 0x4c00000
     b08:	02050169 	andeq	r0, r5, #1073741850	; 0x4000001a
     b0c:	01130514 	tsteq	r3, r4, lsl r5
     b10:	01062e01 	tsteq	r6, r1, lsl #28
     b14:	13060205 	movwne	r0, #25093	; 0x6205
     b18:	50031405 	andpl	r1, r3, r5, lsl #8
     b1c:	13020501 	movwne	r0, #9473	; 0x2501
     b20:	01060405 	tsteq	r6, r5, lsl #8
     b24:	30060505 	andcc	r0, r6, r5, lsl #10
     b28:	01063505 	tsteq	r6, r5, lsl #10
     b2c:	4a4a2605 	bmi	128a348 <__bss_end__+0x127fd30>
     b30:	03060205 	movweq	r0, #25093	; 0x6205
     b34:	1405012e 	strne	r0, [r5], #-302	; 0xfffffed2
     b38:	05015603 	streq	r5, [r1, #-1539]	; 0xfffff9fd
     b3c:	4b131302 	blmi	4c574c <__bss_end__+0x4bb134>
     b40:	05130305 	ldreq	r0, [r3, #-773]	; 0xfffffcfb
     b44:	08051107 	stmdaeq	r5, {r0, r1, r2, r8, ip}
     b48:	052e0101 	streq	r0, [lr, #-257]!	; 0xfffffeff
     b4c:	05010619 	streq	r0, [r1, #-1561]	; 0xfffff9e7
     b50:	05662e07 	strbeq	r2, [r6, #-3591]!	; 0xfffff1f9
     b54:	d0030603 	andle	r0, r3, r3, lsl #12
     b58:	14050100 	strne	r0, [r5], #-256	; 0xffffff00
     b5c:	05016103 	streq	r6, [r1, #-259]	; 0xfffffefd
     b60:	14051302 	strne	r1, [r5], #-770	; 0xfffffcfe
     b64:	05016703 	streq	r6, [r1, #-1795]	; 0xfffff8fd
     b68:	13051402 	movwne	r1, #21506	; 0x5402
     b6c:	062e0101 	strteq	r0, [lr], -r1, lsl #2
     b70:	06020501 	streq	r0, [r2], -r1, lsl #10
     b74:	03140513 	tsteq	r4, #79691776	; 0x4c00000
     b78:	02050155 	andeq	r0, r5, #1073741845	; 0x40000015
     b7c:	06040513 			; <UNDEFINED> instruction: 0x06040513
     b80:	06050501 	streq	r0, [r5], -r1, lsl #10
     b84:	06350530 			; <UNDEFINED> instruction: 0x06350530
     b88:	4a260501 	bmi	981f94 <__bss_end__+0x97797c>
     b8c:	0602054a 	streq	r0, [r2], -sl, asr #10
     b90:	05012903 	streq	r2, [r1, #-2307]	; 0xfffff6fd
     b94:	01600314 	cmneq	r0, r4, lsl r3
     b98:	13130205 	tstne	r3, #1342177280	; 0x50000000
     b9c:	1303052f 	movwne	r0, #13615	; 0x352f
     ba0:	05110705 	ldreq	r0, [r1, #-1797]	; 0xfffff8fb
     ba4:	2e010108 	adfcss	f0, f1, #0.0
     ba8:	01061905 	tsteq	r6, r5, lsl #18
     bac:	4a2e0705 	bmi	b827c8 <__bss_end__+0xb781b0>
     bb0:	03060305 	movweq	r0, #25349	; 0x6305
     bb4:	050100d1 	streq	r0, [r1, #-209]	; 0xffffff2f
     bb8:	01680314 	cmneq	r8, r4, lsl r3
     bbc:	05130205 	ldreq	r0, [r3, #-517]	; 0xfffffdfb
     bc0:	01690314 	cmneq	r9, r4, lsl r3
     bc4:	05140205 	ldreq	r0, [r4, #-517]	; 0xfffffdfb
     bc8:	2e010113 	mcrcs	1, 0, r0, cr1, cr3, {0}
     bcc:	02050106 	andeq	r0, r5, #-2147483647	; 0x80000001
     bd0:	14051306 	strne	r1, [r5], #-774	; 0xfffffcfa
     bd4:	05015003 	streq	r5, [r1, #-3]
     bd8:	04051302 	streq	r1, [r5], #-770	; 0xfffffcfe
     bdc:	05050106 	streq	r0, [r5, #-262]	; 0xfffffefa
     be0:	35053006 	strcc	r3, [r5, #-6]
     be4:	26050106 	strcs	r0, [r5], -r6, lsl #2
     be8:	02054a4a 	andeq	r4, r5, #303104	; 0x4a000
     bec:	012e0306 			; <UNDEFINED> instruction: 0x012e0306
     bf0:	56031405 	strpl	r1, [r3], -r5, lsl #8
     bf4:	13020501 	movwne	r0, #9473	; 0x2501
     bf8:	03054b13 	movweq	r4, #23315	; 0x5b13
     bfc:	11070513 	tstne	r7, r3, lsl r5
     c00:	01010805 	tsteq	r1, r5, lsl #16
     c04:	0619052e 	ldreq	r0, [r9], -lr, lsr #10
     c08:	2e070501 	cfsh32cs	mvfx0, mvfx7, #1
     c0c:	06030566 	streq	r0, [r3], -r6, ror #10
     c10:	0100d003 	tsteq	r0, r3
     c14:	61031405 	tstvs	r3, r5, lsl #8
     c18:	13020501 	movwne	r0, #9473	; 0x2501
     c1c:	67031405 	strvs	r1, [r3, -r5, lsl #8]
     c20:	14020501 	strne	r0, [r2], #-1281	; 0xfffffaff
     c24:	01011305 	tsteq	r1, r5, lsl #6
     c28:	0501062e 	streq	r0, [r1, #-1582]	; 0xfffff9d2
     c2c:	05130602 	ldreq	r0, [r3, #-1538]	; 0xfffff9fe
     c30:	01550314 	cmpeq	r5, r4, lsl r3
     c34:	05130205 	ldreq	r0, [r3, #-517]	; 0xfffffdfb
     c38:	05010604 	streq	r0, [r1, #-1540]	; 0xfffff9fc
     c3c:	05300605 	ldreq	r0, [r0, #-1541]!	; 0xfffff9fb
     c40:	05010635 	streq	r0, [r1, #-1589]	; 0xfffff9cb
     c44:	054a4a26 	strbeq	r4, [sl, #-2598]	; 0xfffff5da
     c48:	29030602 	stmdbcs	r3, {r1, r9, sl}
     c4c:	03140501 	tsteq	r4, #4194304	; 0x400000
     c50:	02050160 	andeq	r0, r5, #24
     c54:	052f1313 	streq	r1, [pc, #-787]!	; 949 <__code_start__-0x76b7>
     c58:	07051303 	streq	r1, [r5, -r3, lsl #6]
     c5c:	01080511 	tsteq	r8, r1, lsl r5
     c60:	19052e01 	stmdbne	r5, {r0, r9, sl, fp, sp}
     c64:	07050106 	streq	r0, [r5, -r6, lsl #2]
     c68:	03054a2e 	movweq	r4, #23086	; 0x5a2e
     c6c:	00d10306 	sbcseq	r0, r1, r6, lsl #6
     c70:	03140501 	tsteq	r4, #4194304	; 0x400000
     c74:	02050168 	andeq	r0, r5, #26
     c78:	03140513 	tsteq	r4, #79691776	; 0x4c00000
     c7c:	02050169 	andeq	r0, r5, #1073741850	; 0x4000001a
     c80:	01130514 	tsteq	r3, r4, lsl r5
     c84:	01062e01 	tsteq	r6, r1, lsl #28
     c88:	13060205 	movwne	r0, #25093	; 0x6205
     c8c:	50031405 	andpl	r1, r3, r5, lsl #8
     c90:	13020501 	movwne	r0, #9473	; 0x2501
     c94:	01060405 	tsteq	r6, r5, lsl #8
     c98:	30060505 	andcc	r0, r6, r5, lsl #10
     c9c:	01063505 	tsteq	r6, r5, lsl #10
     ca0:	4a4a2605 	bmi	128a4bc <__bss_end__+0x127fea4>
     ca4:	03060205 	movweq	r0, #25093	; 0x6205
     ca8:	1405012e 	strne	r0, [r5], #-302	; 0xfffffed2
     cac:	05015603 	streq	r5, [r1, #-1539]	; 0xfffff9fd
     cb0:	4b131302 	blmi	4c58c0 <__bss_end__+0x4bb2a8>
     cb4:	05130305 	ldreq	r0, [r3, #-773]	; 0xfffffcfb
     cb8:	08051107 	stmdaeq	r5, {r0, r1, r2, r8, ip}
     cbc:	052e0101 	streq	r0, [lr, #-257]!	; 0xfffffeff
     cc0:	05010619 	streq	r0, [r1, #-1561]	; 0xfffff9e7
     cc4:	05662e07 	strbeq	r2, [r6, #-3591]!	; 0xfffff1f9
     cc8:	d0030603 	andle	r0, r3, r3, lsl #12
     ccc:	14050100 	strne	r0, [r5], #-256	; 0xffffff00
     cd0:	05016103 	streq	r6, [r1, #-259]	; 0xfffffefd
     cd4:	14051302 	strne	r1, [r5], #-770	; 0xfffffcfe
     cd8:	05016703 	streq	r6, [r1, #-1795]	; 0xfffff8fd
     cdc:	13051402 	movwne	r1, #21506	; 0x5402
     ce0:	062e0101 	strteq	r0, [lr], -r1, lsl #2
     ce4:	06020501 	streq	r0, [r2], -r1, lsl #10
     ce8:	03140513 	tsteq	r4, #79691776	; 0x4c00000
     cec:	02050155 	andeq	r0, r5, #1073741845	; 0x40000015
     cf0:	06040513 			; <UNDEFINED> instruction: 0x06040513
     cf4:	06050501 	streq	r0, [r5], -r1, lsl #10
     cf8:	06350530 			; <UNDEFINED> instruction: 0x06350530
     cfc:	4a260501 	bmi	982108 <__bss_end__+0x977af0>
     d00:	0602054a 	streq	r0, [r2], -sl, asr #10
     d04:	05012903 	streq	r2, [r1, #-2307]	; 0xfffff6fd
     d08:	01600314 	cmneq	r0, r4, lsl r3
     d0c:	13130205 	tstne	r3, #1342177280	; 0x50000000
     d10:	1303052f 	movwne	r0, #13615	; 0x352f
     d14:	05110705 	ldreq	r0, [r1, #-1797]	; 0xfffff8fb
     d18:	2e010108 	adfcss	f0, f1, #0.0
     d1c:	01061905 	tsteq	r6, r5, lsl #18
     d20:	4a2e0705 	bmi	b8293c <__bss_end__+0xb78324>
     d24:	03060305 	movweq	r0, #25349	; 0x6305
     d28:	050100d1 	streq	r0, [r1, #-209]	; 0xffffff2f
     d2c:	01680314 	cmneq	r8, r4, lsl r3
     d30:	05130205 	ldreq	r0, [r3, #-517]	; 0xfffffdfb
     d34:	01690314 	cmneq	r9, r4, lsl r3
     d38:	05140205 	ldreq	r0, [r4, #-517]	; 0xfffffdfb
     d3c:	2e010113 	mcrcs	1, 0, r0, cr1, cr3, {0}
     d40:	02050106 	andeq	r0, r5, #-2147483647	; 0x80000001
     d44:	14051306 	strne	r1, [r5], #-774	; 0xfffffcfa
     d48:	05015003 	streq	r5, [r1, #-3]
     d4c:	04051302 	streq	r1, [r5], #-770	; 0xfffffcfe
     d50:	05050106 	streq	r0, [r5, #-262]	; 0xfffffefa
     d54:	35053006 	strcc	r3, [r5, #-6]
     d58:	26050106 	strcs	r0, [r5], -r6, lsl #2
     d5c:	02054a4a 	andeq	r4, r5, #303104	; 0x4a000
     d60:	012e0306 			; <UNDEFINED> instruction: 0x012e0306
     d64:	56031405 	strpl	r1, [r3], -r5, lsl #8
     d68:	13020501 	movwne	r0, #9473	; 0x2501
     d6c:	03054b13 	movweq	r4, #23315	; 0x5b13
     d70:	11070513 	tstne	r7, r3, lsl r5
     d74:	01010805 	tsteq	r1, r5, lsl #16
     d78:	0619052e 	ldreq	r0, [r9], -lr, lsr #10
     d7c:	2e070501 	cfsh32cs	mvfx0, mvfx7, #1
     d80:	06030566 	streq	r0, [r3], -r6, ror #10
     d84:	0100d003 	tsteq	r0, r3
     d88:	61031405 	tstvs	r3, r5, lsl #8
     d8c:	13020501 	movwne	r0, #9473	; 0x2501
     d90:	67031405 	strvs	r1, [r3, -r5, lsl #8]
     d94:	14020501 	strne	r0, [r2], #-1281	; 0xfffffaff
     d98:	01011305 	tsteq	r1, r5, lsl #6
     d9c:	0501062e 	streq	r0, [r1, #-1582]	; 0xfffff9d2
     da0:	05130602 	ldreq	r0, [r3, #-1538]	; 0xfffff9fe
     da4:	01550314 	cmpeq	r5, r4, lsl r3
     da8:	05130205 	ldreq	r0, [r3, #-517]	; 0xfffffdfb
     dac:	05010604 	streq	r0, [r1, #-1540]	; 0xfffff9fc
     db0:	05300605 	ldreq	r0, [r0, #-1541]!	; 0xfffff9fb
     db4:	05010635 	streq	r0, [r1, #-1589]	; 0xfffff9cb
     db8:	054a4a26 	strbeq	r4, [sl, #-2598]	; 0xfffff5da
     dbc:	29030602 	stmdbcs	r3, {r1, r9, sl}
     dc0:	03140501 	tsteq	r4, #4194304	; 0x400000
     dc4:	02050160 	andeq	r0, r5, #24
     dc8:	052f1313 	streq	r1, [pc, #-787]!	; abd <__code_start__-0x7543>
     dcc:	07051303 	streq	r1, [r5, -r3, lsl #6]
     dd0:	01080511 	tsteq	r8, r1, lsl r5
     dd4:	19052e01 	stmdbne	r5, {r0, r9, sl, fp, sp}
     dd8:	07050106 	streq	r0, [r5, -r6, lsl #2]
     ddc:	03054a2e 	movweq	r4, #23086	; 0x5a2e
     de0:	00d10306 	sbcseq	r0, r1, r6, lsl #6
     de4:	03140501 	tsteq	r4, #4194304	; 0x400000
     de8:	02050168 	andeq	r0, r5, #26
     dec:	03140513 	tsteq	r4, #79691776	; 0x4c00000
     df0:	02050169 	andeq	r0, r5, #1073741850	; 0x4000001a
     df4:	01130514 	tsteq	r3, r4, lsl r5
     df8:	01062e01 	tsteq	r6, r1, lsl #28
     dfc:	13060205 	movwne	r0, #25093	; 0x6205
     e00:	50031405 	andpl	r1, r3, r5, lsl #8
     e04:	13020501 	movwne	r0, #9473	; 0x2501
     e08:	01060405 	tsteq	r6, r5, lsl #8
     e0c:	30060505 	andcc	r0, r6, r5, lsl #10
     e10:	01063505 	tsteq	r6, r5, lsl #10
     e14:	4a4a2605 	bmi	128a630 <__bss_end__+0x1280018>
     e18:	03060205 	movweq	r0, #25093	; 0x6205
     e1c:	1405012e 	strne	r0, [r5], #-302	; 0xfffffed2
     e20:	05015603 	streq	r5, [r1, #-1539]	; 0xfffff9fd
     e24:	4b131302 	blmi	4c5a34 <__bss_end__+0x4bb41c>
     e28:	05130305 	ldreq	r0, [r3, #-773]	; 0xfffffcfb
     e2c:	08051107 	stmdaeq	r5, {r0, r1, r2, r8, ip}
     e30:	052e0101 	streq	r0, [lr, #-257]!	; 0xfffffeff
     e34:	05010619 	streq	r0, [r1, #-1561]	; 0xfffff9e7
     e38:	05662e07 	strbeq	r2, [r6, #-3591]!	; 0xfffff1f9
     e3c:	d0030603 	andle	r0, r3, r3, lsl #12
     e40:	14050100 	strne	r0, [r5], #-256	; 0xffffff00
     e44:	05016103 	streq	r6, [r1, #-259]	; 0xfffffefd
     e48:	14051302 	strne	r1, [r5], #-770	; 0xfffffcfe
     e4c:	05016703 	streq	r6, [r1, #-1795]	; 0xfffff8fd
     e50:	13051402 	movwne	r1, #21506	; 0x5402
     e54:	062e0101 	strteq	r0, [lr], -r1, lsl #2
     e58:	06020501 	streq	r0, [r2], -r1, lsl #10
     e5c:	03140513 	tsteq	r4, #79691776	; 0x4c00000
     e60:	02050155 	andeq	r0, r5, #1073741845	; 0x40000015
     e64:	06040513 			; <UNDEFINED> instruction: 0x06040513
     e68:	06050501 	streq	r0, [r5], -r1, lsl #10
     e6c:	06350530 			; <UNDEFINED> instruction: 0x06350530
     e70:	4a260501 	bmi	98227c <__bss_end__+0x977c64>
     e74:	02052e2e 	andeq	r2, r5, #736	; 0x2e0
     e78:	01290306 			; <UNDEFINED> instruction: 0x01290306
     e7c:	60031405 	andvs	r1, r3, r5, lsl #8
     e80:	13020501 	movwne	r0, #9473	; 0x2501
     e84:	03052f13 	movweq	r2, #24339	; 0x5f13
     e88:	11070513 	tstne	r7, r3, lsl r5
     e8c:	01010805 	tsteq	r1, r5, lsl #16
     e90:	0619052e 	ldreq	r0, [r9], -lr, lsr #10
     e94:	2e070501 	cfsh32cs	mvfx0, mvfx7, #1
     e98:	0603054a 	streq	r0, [r3], -sl, asr #10
     e9c:	0100d103 	tsteq	r0, r3, lsl #2
     ea0:	68031405 	stmdavs	r3, {r0, r2, sl, ip}
     ea4:	13020501 	movwne	r0, #9473	; 0x2501
     ea8:	69031405 	stmdbvs	r3, {r0, r2, sl, ip}
     eac:	14020501 	strne	r0, [r2], #-1281	; 0xfffffaff
     eb0:	01011305 	tsteq	r1, r5, lsl #6
     eb4:	0501062e 	streq	r0, [r1, #-1582]	; 0xfffff9d2
     eb8:	05130602 	ldreq	r0, [r3, #-1538]	; 0xfffff9fe
     ebc:	01500314 	cmpeq	r0, r4, lsl r3
     ec0:	05130205 	ldreq	r0, [r3, #-517]	; 0xfffffdfb
     ec4:	05010604 	streq	r0, [r1, #-1540]	; 0xfffff9fc
     ec8:	05300605 	ldreq	r0, [r0, #-1541]!	; 0xfffff9fb
     ecc:	05010635 	streq	r0, [r1, #-1589]	; 0xfffff9cb
     ed0:	054a4a26 	strbeq	r4, [sl, #-2598]	; 0xfffff5da
     ed4:	2e030602 	cfmadd32cs	mvax0, mvfx0, mvfx3, mvfx2
     ed8:	03140501 	tsteq	r4, #4194304	; 0x400000
     edc:	02050156 	andeq	r0, r5, #-2147483627	; 0x80000015
     ee0:	054b1313 	strbeq	r1, [fp, #-787]	; 0xfffffced
     ee4:	07051303 	streq	r1, [r5, -r3, lsl #6]
     ee8:	01080511 	tsteq	r8, r1, lsl r5
     eec:	19052e01 	stmdbne	r5, {r0, r9, sl, fp, sp}
     ef0:	07050106 	streq	r0, [r5, -r6, lsl #2]
     ef4:	0502042e 	streq	r0, [r2, #-1070]	; 0xfffffbd2
     ef8:	9c030631 	stcls	6, cr0, [r3], {49}	; 0x31
     efc:	0106827f 	tsteq	r6, pc, ror r2
     f00:	67060505 	strvs	r0, [r6, -r5, lsl #10]
     f04:	06370513 			; <UNDEFINED> instruction: 0x06370513
     f08:	2e0e0501 	cfsh32cs	mvfx0, mvfx14, #1
     f0c:	2f060505 	svccs	0x00060505
     f10:	01060905 	tsteq	r6, r5, lsl #18
     f14:	05052e2e 	streq	r2, [r5, #-3630]	; 0xfffff1d2
     f18:	05682f06 	strbeq	r2, [r8, #-3846]!	; 0xfffff0fa
     f1c:	0501060f 	streq	r0, [r1, #-1551]	; 0xfffff9f1
     f20:	052f0605 	streq	r0, [pc, #-1541]!	; 923 <__code_start__-0x76dd>
     f24:	0501060c 	streq	r0, [r1, #-1548]	; 0xfffff9f4
     f28:	4b2f0605 	blmi	bc2744 <__bss_end__+0xbb812c>
     f2c:	13060105 	movwne	r0, #24837	; 0x6105
     f30:	4d064105 	stfmis	f4, [r6, #-20]	; 0xffffffec
     f34:	05050106 	streq	r0, [r5, #-262]	; 0xfffffefa
     f38:	14056706 	strne	r6, [r5], #-1798	; 0xfffff8fa
     f3c:	01040106 	tsteq	r4, r6, lsl #2
     f40:	01be0306 			; <UNDEFINED> instruction: 0x01be0306
     f44:	1702052e 	strne	r0, [r2, -lr, lsr #10]
     f48:	062e2e06 	strteq	r2, [lr], -r6, lsl #28
     f4c:	6606672f 	strvs	r6, [r6], -pc, lsr #14
     f50:	01050204 	tsteq	r5, r4, lsl #4
     f54:	017ebd03 	cmneq	lr, r3, lsl #26
     f58:	03064b05 	movweq	r4, #27397	; 0x6b05
     f5c:	02052e0d 	andeq	r2, r5, #208	; 0xd0
     f60:	060d0513 			; <UNDEFINED> instruction: 0x060d0513
     f64:	2e050501 	cfsh32cs	mvfx0, mvfx5, #1
     f68:	4c060205 	sfmmi	f0, 4, [r6], {5}
     f6c:	01061305 	tsteq	r6, r5, lsl #6
     f70:	02052e2e 	andeq	r2, r5, #736	; 0x2e0
     f74:	13052f06 	movwne	r2, #24326	; 0x5f06
     f78:	02050106 	andeq	r0, r5, #-2147483647	; 0x80000001
     f7c:	13052f06 	movwne	r2, #24326	; 0x5f06
     f80:	052e0106 	streq	r0, [lr, #-262]!	; 0xfffffefa
     f84:	2d052f01 	stccs	15, cr2, [r5, #-4]
     f88:	2e700306 	cdpcs	3, 7, cr0, cr0, cr6, {0}
     f8c:	05050106 	streq	r0, [r5, #-262]	; 0xfffffefa
     f90:	09058306 	stmdbeq	r5, {r1, r2, r8, r9, pc}
     f94:	060d0501 	streq	r0, [sp], -r1, lsl #10
     f98:	00140501 	andseq	r0, r4, r1, lsl #10
     f9c:	06010402 	streq	r0, [r1], -r2, lsl #8
     fa0:	0005052e 	andeq	r0, r5, lr, lsr #10
     fa4:	06010402 	streq	r0, [r1], -r2, lsl #8
     fa8:	00090501 	andeq	r0, r9, r1, lsl #10
     fac:	06030402 	streq	r0, [r3], -r2, lsl #8
     fb0:	001b054b 	andseq	r0, fp, fp, asr #10
     fb4:	b9030402 	stmdblt	r3, {r1, sl}
     fb8:	02001c05 	andeq	r1, r0, #1280	; 0x500
     fbc:	01060304 	tsteq	r6, r4, lsl #6
     fc0:	03040200 	movweq	r0, #16896	; 0x4200
     fc4:	0402002e 	streq	r0, [r2], #-46	; 0xffffffd2
     fc8:	01052e03 	tsteq	r5, r3, lsl #28
     fcc:	1c054a14 			; <UNDEFINED> instruction: 0x1c054a14
     fd0:	02050006 	andeq	r0, r5, #6, 0
     fd4:	00008c80 	andeq	r8, r0, r0, lsl #25
     fd8:	05010614 	streq	r0, [r1, #-1556]	; 0xfffff9ec
     fdc:	052f0605 	streq	r0, [pc, #-1541]!	; 9df <__code_start__-0x7621>
     fe0:	054b0601 	strbeq	r0, [fp, #-1537]	; 0xfffff9ff
     fe4:	5c03061c 	stcpl	6, cr0, [r3], {28}
     fe8:	0501062e 	streq	r0, [r1, #-1582]	; 0xfffff9d2
     fec:	054c0602 	strbeq	r0, [ip, #-1538]	; 0xfffff9fe
     ff0:	10050107 	andne	r0, r5, r7, lsl #2
     ff4:	17050106 	strne	r0, [r5, -r6, lsl #2]
     ff8:	01040200 	mrseq	r0, R12_usr
     ffc:	1c052e06 	stcne	14, cr2, [r5], {6}
    1000:	01040200 	mrseq	r0, R12_usr
    1004:	02050106 	andeq	r0, r5, #-2147483647	; 0x80000001
    1008:	01040200 	mrseq	r0, R12_usr
    100c:	0003052e 	andeq	r0, r3, lr, lsr #10
    1010:	06030402 	streq	r0, [r3], -r2, lsl #8
    1014:	0012054b 	andseq	r0, r2, fp, asr #10
    1018:	06030402 	streq	r0, [r3], -r2, lsl #8
    101c:	00030501 	andeq	r0, r3, r1, lsl #10
    1020:	2e030402 	cdpcs	4, 0, cr0, cr3, cr2, {0}
    1024:	14050104 	strne	r0, [r5], #-260	; 0xfffffefc
    1028:	03040200 	movweq	r0, #16896	; 0x4200
    102c:	01d30306 	bicseq	r0, r3, r6, lsl #6
    1030:	00020582 	andeq	r0, r2, r2, lsl #11
    1034:	17030402 	strne	r0, [r3, -r2, lsl #8]
    1038:	03040200 	movweq	r0, #16896	; 0x4200
    103c:	04020067 	streq	r0, [r2], #-103	; 0xffffff99
    1040:	02006703 	andeq	r6, r0, #786432	; 0xc0000
    1044:	66060304 	strvs	r0, [r6], -r4, lsl #6
    1048:	26050204 	strcs	r0, [r5], -r4, lsl #4
    104c:	03040200 	movweq	r0, #16896	; 0x4200
    1050:	7ea50306 	cdpvc	3, 10, cr0, cr5, cr6, {0}
    1054:	00270501 	eoreq	r0, r7, r1, lsl #10
    1058:	06030402 	streq	r0, [r3], -r2, lsl #8
    105c:	04020001 	streq	r0, [r2], #-1
    1060:	02002e03 	andeq	r2, r0, #3, 28	; 0x30
    1064:	052e0304 	streq	r0, [lr, #-772]!	; 0xfffffcfc
    1068:	05160605 	ldreq	r0, [r6, #-1541]	; 0xfffff9fb
    106c:	04010610 	streq	r0, [r1], #-1552	; 0xfffff9f0
    1070:	06140501 	ldreq	r0, [r4], -r1, lsl #10
    1074:	2e01ae03 	cdpcs	14, 0, cr10, cr1, cr3, {0}
    1078:	05130505 	ldreq	r0, [r3, #-1285]	; 0xfffffafb
    107c:	01760314 	cmneq	r6, r4, lsl r3
    1080:	05130205 	ldreq	r0, [r3, #-517]	; 0xfffffdfb
    1084:	01650314 	cmneq	r5, r4, lsl r3
    1088:	05140205 	ldreq	r0, [r4, #-517]	; 0xfffffdfb
    108c:	2e010113 	mcrcs	1, 0, r0, cr1, cr3, {0}
    1090:	02050106 	andeq	r0, r5, #-2147483647	; 0x80000001
    1094:	14051306 	strne	r1, [r5], #-774	; 0xfffffcfa
    1098:	05015003 	streq	r5, [r1, #-3]
    109c:	04051302 	streq	r1, [r5], #-770	; 0xfffffcfe
    10a0:	05050106 	streq	r0, [r5, #-262]	; 0xfffffefa
    10a4:	35053006 	strcc	r3, [r5, #-6]
    10a8:	26050106 	strcs	r0, [r5], -r6, lsl #2
    10ac:	02054a4a 	andeq	r4, r5, #303104	; 0x4a000
    10b0:	012e0306 			; <UNDEFINED> instruction: 0x012e0306
    10b4:	56031405 	strpl	r1, [r3], -r5, lsl #8
    10b8:	13020501 	movwne	r0, #9473	; 0x2501
    10bc:	03056713 	movweq	r6, #22291	; 0x5713
    10c0:	11070513 	tstne	r7, r3, lsl r5
    10c4:	01010805 	tsteq	r1, r5, lsl #16
    10c8:	0619052e 	ldreq	r0, [r9], -lr, lsr #10
    10cc:	2e070501 	cfsh32cs	mvfx0, mvfx7, #1
    10d0:	05020466 	streq	r0, [r2, #-1126]	; 0xfffffb9a
    10d4:	99030602 	stmdbls	r3, {r1, r9, sl}
    10d8:	0105017f 	tsteq	r5, pc, ror r1
    10dc:	06024b06 	streq	r4, [r2], -r6, lsl #22
    10e0:	14010100 	strne	r0, [r1], #-256	; 0xffffff00
    10e4:	03000001 	movweq	r0, #1
    10e8:	0000e400 	andeq	lr, r0, r0, lsl #8
    10ec:	fb010200 	blx	418f6 <__bss_end__+0x372de>
    10f0:	01000d0e 	tsteq	r0, lr, lsl #26
    10f4:	00010101 	andeq	r0, r1, r1, lsl #2
    10f8:	00010000 	andeq	r0, r1, r0
    10fc:	2f2e0100 	svccs	0x002e0100
    1100:	6362696c 	cmnvs	r2, #108, 18	; 0x1b0000
    1104:	73552f00 	cmpvc	r5, #0, 30
    1108:	2f737265 	svccs	0x00737265
    110c:	73697274 	cmnvc	r9, #116, 4	; 0x40000007
    1110:	6e6e6574 	mcrvs	5, 3, r6, cr14, cr4, {3}
    1114:	6d6c6c6f 	stclvs	12, cr6, [ip, #-444]!	; 0xfffffe44
    1118:	442f6e61 	strtmi	r6, [pc], #-3681	; 1120 <__code_start__-0x6ee0>
    111c:	6d75636f 	ldclvs	3, cr6, [r5, #-444]!	; 0xfffffe44
    1120:	73746e65 	cmnvc	r4, #1616	; 0x650
    1124:	7270532f 	rsbsvc	r5, r0, #-1140850688	; 0xbc000000
    1128:	5f676e69 	svcpl	0x00676e69
    112c:	72617551 	rsbvc	r7, r1, #339738624	; 0x14400000
    1130:	5f726574 	svcpl	0x00726574
    1134:	32323032 	eorscc	r3, r2, #50, 0	; 0x32
    1138:	3253432f 	subscc	r4, r3, #-1140850688	; 0xbc000000
    113c:	584c3034 	stmdapl	ip, {r2, r4, r5, ip, sp}^
    1140:	7270732d 	rsbsvc	r7, r0, #-1275068416	; 0xb4000000
    1144:	6c2f3232 	sfmvs	f3, 4, [pc], #-200	; 1084 <__code_start__-0x6f7c>
    1148:	69706269 	ldmdbvs	r0!, {r0, r3, r5, r6, r9, sp, lr}^
    114c:	636e692f 	cmnvs	lr, #770048	; 0xbc000
    1150:	6564756c 	strbvs	r7, [r4, #-1388]!	; 0xfffffa94
    1154:	73752f00 	cmnvc	r5, #0, 30
    1158:	6f6c2f72 	svcvs	0x006c2f72
    115c:	2f6c6163 	svccs	0x006c6163
    1160:	6c6c6543 	cfstr64vs	mvdx6, [ip], #-268	; 0xfffffef4
    1164:	612f7261 			; <UNDEFINED> instruction: 0x612f7261
    1168:	6e2d6d72 	mcrvs	13, 1, r6, cr13, cr2, {3}
    116c:	2d656e6f 	stclcs	14, cr6, [r5, #-444]!	; 0xfffffe44
    1170:	69626165 	stmdbvs	r2!, {r0, r2, r5, r6, r8, sp, lr}^
    1174:	7365742d 	cmnvc	r5, #754974720	; 0x2d000000
    1178:	2d392f74 	ldccs	15, cr2, [r9, #-464]!	; 0xfffffe30
    117c:	39313032 	ldmdbcc	r1!, {r1, r4, r5, ip, sp}
    1180:	632d3471 			; <UNDEFINED> instruction: 0x632d3471
    1184:	37303173 			; <UNDEFINED> instruction: 0x37303173
    1188:	696c2f65 	stmdbvs	ip!, {r0, r2, r5, r6, r8, r9, sl, fp, sp}^
    118c:	63672f62 	cmnvs	r7, #392	; 0x188
    1190:	72612f63 	rsbvc	r2, r1, #396	; 0x18c
    1194:	6f6e2d6d 	svcvs	0x006e2d6d
    1198:	652d656e 	strvs	r6, [sp, #-1390]!	; 0xfffffa92
    119c:	2f696261 	svccs	0x00696261
    11a0:	2e322e39 	mrccs	14, 1, r2, cr2, cr9, {1}
    11a4:	6e692f31 	mcrvs	15, 3, r2, cr9, cr1, {1}
    11a8:	64756c63 	ldrbtvs	r6, [r5], #-3171	; 0xfffff39d
    11ac:	6d000065 	stcvs	0, cr0, [r0, #-404]	; 0xfffffe6c
    11b0:	65736d65 	ldrbvs	r6, [r3, #-3429]!	; 0xfffff29b
    11b4:	00632e74 	rsbeq	r2, r3, r4, ror lr
    11b8:	72000001 	andvc	r0, r0, #1, 0
    11bc:	682e6970 	stmdavs	lr!, {r4, r5, r6, r8, fp, sp, lr}
    11c0:	00000200 	andeq	r0, r0, r0, lsl #4
    11c4:	64647473 	strbtvs	r7, [r4], #-1139	; 0xfffffb8d
    11c8:	682e6665 	stmdavs	lr!, {r0, r2, r5, r6, r9, sl, sp, lr}
    11cc:	00000300 	andeq	r0, r0, r0, lsl #6
    11d0:	00290500 	eoreq	r0, r9, r0, lsl #10
    11d4:	8d380205 	lfmhi	f0, 4, [r8, #-20]!	; 0xffffffec
    11d8:	05150000 	ldreq	r0, [r5, #-0]
    11dc:	14051305 	strne	r1, [r5], #-773	; 0xfffffcfb
    11e0:	05050106 	streq	r0, [r5, #-262]	; 0xfffffefa
    11e4:	0b053006 	bleq	14d204 <__bss_end__+0x142bec>
    11e8:	0a051006 	beq	145208 <__bss_end__+0x13abf0>
    11ec:	09053006 	stmdbeq	r5, {r1, r2, ip, sp}
    11f0:	060e054b 	streq	r0, [lr], -fp, asr #10
    11f4:	02022e01 	andeq	r2, r2, #1, 28
    11f8:	33010100 	movwcc	r0, #4352	; 0x1100
    11fc:	03000001 	movweq	r0, #1
    1200:	00010100 	andeq	r0, r1, r0, lsl #2
    1204:	fb010200 	blx	41a0e <__bss_end__+0x373f6>
    1208:	01000d0e 	tsteq	r0, lr, lsl #26
    120c:	00010101 	andeq	r0, r1, r1, lsl #2
    1210:	00010000 	andeq	r0, r1, r0
    1214:	2f2e0100 	svccs	0x002e0100
    1218:	6362696c 	cmnvs	r2, #108, 18	; 0x1b0000
    121c:	73752f00 	cmnvc	r5, #0, 30
    1220:	6f6c2f72 	svcvs	0x006c2f72
    1224:	2f6c6163 	svccs	0x006c6163
    1228:	6c6c6543 	cfstr64vs	mvdx6, [ip], #-268	; 0xfffffef4
    122c:	612f7261 			; <UNDEFINED> instruction: 0x612f7261
    1230:	6e2d6d72 	mcrvs	13, 1, r6, cr13, cr2, {3}
    1234:	2d656e6f 	stclcs	14, cr6, [r5, #-444]!	; 0xfffffe44
    1238:	69626165 	stmdbvs	r2!, {r0, r2, r5, r6, r8, sp, lr}^
    123c:	7365742d 	cmnvc	r5, #754974720	; 0x2d000000
    1240:	2d392f74 	ldccs	15, cr2, [r9, #-464]!	; 0xfffffe30
    1244:	39313032 	ldmdbcc	r1!, {r1, r4, r5, ip, sp}
    1248:	632d3471 			; <UNDEFINED> instruction: 0x632d3471
    124c:	37303173 			; <UNDEFINED> instruction: 0x37303173
    1250:	696c2f65 	stmdbvs	ip!, {r0, r2, r5, r6, r8, r9, sl, fp, sp}^
    1254:	63672f62 	cmnvs	r7, #392	; 0x188
    1258:	72612f63 	rsbvc	r2, r1, #396	; 0x18c
    125c:	6f6e2d6d 	svcvs	0x006e2d6d
    1260:	652d656e 	strvs	r6, [sp, #-1390]!	; 0xfffffa92
    1264:	2f696261 	svccs	0x00696261
    1268:	2e322e39 	mrccs	14, 1, r2, cr2, cr9, {1}
    126c:	6e692f31 	mcrvs	15, 3, r2, cr9, cr1, {1}
    1270:	64756c63 	ldrbtvs	r6, [r5], #-3171	; 0xfffff39d
    1274:	552f0065 	strpl	r0, [pc, #-101]!	; 1217 <__code_start__-0x6de9>
    1278:	73726573 	cmnvc	r2, #482344960	; 0x1cc00000
    127c:	6972742f 	ldmdbvs	r2!, {r0, r1, r2, r3, r5, sl, ip, sp, lr}^
    1280:	6e657473 	mcrvs	4, 3, r7, cr5, cr3, {3}
    1284:	6c6c6f6e 	stclvs	15, cr6, [ip], #-440	; 0xfffffe48
    1288:	2f6e616d 	svccs	0x006e616d
    128c:	75636f44 	strbvc	r6, [r3, #-3908]!	; 0xfffff0bc
    1290:	746e656d 	strbtvc	r6, [lr], #-1389	; 0xfffffa93
    1294:	70532f73 	subsvc	r2, r3, r3, ror pc
    1298:	676e6972 			; <UNDEFINED> instruction: 0x676e6972
    129c:	6175515f 	cmnvs	r5, pc, asr r1
    12a0:	72657472 	rsbvc	r7, r5, #1912602624	; 0x72000000
    12a4:	3230325f 	eorscc	r3, r0, #-268435451	; 0xf0000005
    12a8:	53432f32 	movtpl	r2, #16178	; 0x3f32
    12ac:	4c303432 	cfldrsmi	mvf3, [r0], #-200	; 0xffffff38
    12b0:	70732d58 	rsbsvc	r2, r3, r8, asr sp
    12b4:	2f323272 	svccs	0x00323272
    12b8:	7062696c 	rsbvc	r6, r2, ip, ror #18
    12bc:	6e692f69 	cdpvs	15, 6, cr2, cr9, cr9, {3}
    12c0:	64756c63 	ldrbtvs	r6, [r5], #-3171	; 0xfffff39d
    12c4:	70000065 	andvc	r0, r0, r5, rrx
    12c8:	746e6972 	strbtvc	r6, [lr], #-2418	; 0xfffff68e
    12cc:	00632e6b 	rsbeq	r2, r3, fp, ror #28
    12d0:	73000001 	movwvc	r0, #1
    12d4:	72616474 	rsbvc	r6, r1, #116, 8	; 0x74000000
    12d8:	00682e67 	rsbeq	r2, r8, r7, ror #28
    12dc:	72000002 	andvc	r0, r0, #2, 0
    12e0:	682e6970 	stmdavs	lr!, {r4, r5, r6, r8, fp, sp, lr}
    12e4:	00000300 	andeq	r0, r0, r0, lsl #6
    12e8:	6975623c 	ldmdbvs	r5!, {r2, r3, r4, r5, r9, sp, lr}^
    12ec:	692d746c 	pushvs	{r2, r3, r5, r6, sl, ip, sp, lr}
    12f0:	00003e6e 	andeq	r3, r0, lr, ror #28
    12f4:	61760000 	cmnvs	r6, r0
    12f8:	6972702d 	ldmdbvs	r2!, {r0, r2, r3, r5, ip, sp, lr}^
    12fc:	2e6b746e 	cdpcs	4, 6, cr7, cr11, cr14, {3}
    1300:	00010068 	andeq	r0, r1, r8, rrx
    1304:	22050000 	andcs	r0, r5, #0, 0
    1308:	50020500 	andpl	r0, r2, r0, lsl #10
    130c:	1700008d 	strne	r0, [r0, -sp, lsl #1]
    1310:	05050106 	streq	r0, [r5, #-262]	; 0xfffffefa
    1314:	14136806 	ldrne	r6, [r3], #-2054	; 0xfffff7fa
    1318:	054b0905 	strbeq	r0, [fp, #-2309]	; 0xfffff6fb
    131c:	05010612 	streq	r0, [r1, #-1554]	; 0xfffff9ee
    1320:	16bb0605 	ldrtne	r0, [fp], r5, lsl #12
    1324:	34066606 	strcc	r6, [r6], #-1542	; 0xfffff9fa
    1328:	13060105 	movwne	r0, #24837	; 0x6105
    132c:	00080266 	andeq	r0, r8, r6, ror #4
    1330:	00cb0101 	sbceq	r0, fp, r1, lsl #2
    1334:	00030000 	andeq	r0, r3, r0
    1338:	0000007d 	andeq	r0, r0, sp, ror r0
    133c:	0efb0102 	cdpeq	1, 15, cr0, cr11, cr2, {0}
    1340:	0101000d 	tsteq	r1, sp
    1344:	00000101 	andeq	r0, r0, r1, lsl #2
    1348:	00000100 	andeq	r0, r0, r0, lsl #2
    134c:	6c2f2e01 	stcvs	14, cr2, [pc], #-4	; 1350 <__code_start__-0x6cb0>
    1350:	00636269 	rsbeq	r6, r3, r9, ror #4
    1354:	6573552f 	ldrbvs	r5, [r3, #-1327]!	; 0xfffffad1
    1358:	742f7372 	strtvc	r7, [pc], #-882	; 1360 <__code_start__-0x6ca0>
    135c:	74736972 	ldrbtvc	r6, [r3], #-2418	; 0xfffff68e
    1360:	6f6e6e65 	svcvs	0x006e6e65
    1364:	616d6c6c 	cmnvs	sp, ip, ror #24
    1368:	6f442f6e 	svcvs	0x00442f6e
    136c:	656d7563 	strbvs	r7, [sp, #-1379]!	; 0xfffffa9d
    1370:	2f73746e 	svccs	0x0073746e
    1374:	69727053 	ldmdbvs	r2!, {r0, r1, r4, r6, ip, sp, lr}^
    1378:	515f676e 	cmppl	pc, lr, ror #14
    137c:	74726175 	ldrbtvc	r6, [r2], #-373	; 0xfffffe8b
    1380:	325f7265 	subscc	r7, pc, #1342177286	; 0x50000006
    1384:	2f323230 	svccs	0x00323230
    1388:	34325343 	ldrtcc	r5, [r2], #-835	; 0xfffffcbd
    138c:	2d584c30 	ldclcs	12, cr4, [r8, #-192]	; 0xffffff40
    1390:	32727073 	rsbscc	r7, r2, #115, 0	; 0x73
    1394:	696c2f32 	stmdbvs	ip!, {r1, r4, r5, r8, r9, sl, fp, sp}^
    1398:	2f697062 	svccs	0x00697062
    139c:	6c636e69 	stclvs	14, cr6, [r3], #-420	; 0xfffffe5c
    13a0:	00656475 	rsbeq	r6, r5, r5, ror r4
    13a4:	74757000 	ldrbtvc	r7, [r5], #-0
    13a8:	00632e6b 	rsbeq	r2, r3, fp, ror #28
    13ac:	72000001 	andvc	r0, r0, #1, 0
    13b0:	682e6970 	stmdavs	lr!, {r4, r5, r6, r8, fp, sp, lr}
    13b4:	00000200 	andeq	r0, r0, r0, lsl #4
    13b8:	00220500 	eoreq	r0, r2, r0, lsl #10
    13bc:	8da80205 	sfmhi	f0, 4, [r8, #20]!
    13c0:	06150000 	ldreq	r0, [r5], -r0
    13c4:	06050501 	streq	r0, [r5], -r1, lsl #10
    13c8:	000b054b 	andeq	r0, fp, fp, asr #10
    13cc:	01010402 	tsteq	r1, r2, lsl #8
    13d0:	02000505 	andeq	r0, r0, #20971520	; 0x1400000
    13d4:	2e060104 	adfcss	f0, f6, f4
    13d8:	02000905 	andeq	r0, r0, #81920	; 0x14000
    13dc:	4b060204 	blmi	181bf4 <__bss_end__+0x1775dc>
    13e0:	02000f05 	andeq	r0, r0, #5, 30
    13e4:	05650204 	strbeq	r0, [r5, #-516]!	; 0xfffffdfc
    13e8:	04020010 	streq	r0, [r2], #-16
    13ec:	00010602 	andeq	r0, r1, r2, lsl #12
    13f0:	2e020402 	cdpcs	4, 0, cr0, cr2, cr2, {0}
    13f4:	32060505 	andcc	r0, r6, #20971520	; 0x1400000
    13f8:	13060105 	movwne	r0, #24837	; 0x6105
    13fc:	01000602 	tsteq	r0, r2, lsl #12
    1400:	00061d01 	andeq	r1, r6, r1, lsl #26
    1404:	17000300 	strne	r0, [r0, -r0, lsl #6]
    1408:	02000001 	andeq	r0, r0, #1, 0
    140c:	0d0efb01 	vstreq	d15, [lr, #-4]
    1410:	01010100 	mrseq	r0, (UNDEF: 17)
    1414:	00000001 	andeq	r0, r0, r1
    1418:	01000001 	tsteq	r0, r1
    141c:	696c2f2e 	stmdbvs	ip!, {r1, r2, r3, r5, r8, r9, sl, fp, sp}^
    1420:	2f006362 	svccs	0x00006362
    1424:	2f727375 	svccs	0x00727375
    1428:	61636f6c 	cmnvs	r3, ip, ror #30
    142c:	65432f6c 	strbvs	r2, [r3, #-3948]	; 0xfffff094
    1430:	72616c6c 	rsbvc	r6, r1, #108, 24	; 0x6c00
    1434:	6d72612f 	ldfvse	f6, [r2, #-188]!	; 0xffffff44
    1438:	6e6f6e2d 	cdpvs	14, 6, cr6, cr15, cr13, {1}
    143c:	61652d65 	cmnvs	r5, r5, ror #26
    1440:	742d6962 	strtvc	r6, [sp], #-2402	; 0xfffff69e
    1444:	2f747365 	svccs	0x00747365
    1448:	30322d39 	eorscc	r2, r2, r9, lsr sp
    144c:	34713931 	ldrbtcc	r3, [r1], #-2353	; 0xfffff6cf
    1450:	3173632d 	cmncc	r3, sp, lsr #6
    1454:	2f653730 	svccs	0x00653730
    1458:	2f62696c 	svccs	0x0062696c
    145c:	2f636367 	svccs	0x00636367
    1460:	2d6d7261 	sfmcs	f7, 2, [sp, #-388]!	; 0xfffffe7c
    1464:	656e6f6e 	strbvs	r6, [lr, #-3950]!	; 0xfffff092
    1468:	6261652d 	rsbvs	r6, r1, #188743680	; 0xb400000
    146c:	2e392f69 	cdpcs	15, 3, cr2, cr9, cr9, {3}
    1470:	2f312e32 	svccs	0x00312e32
    1474:	6c636e69 	stclvs	14, cr6, [r3], #-420	; 0xfffffe5c
    1478:	00656475 	rsbeq	r6, r5, r5, ror r4
    147c:	6573552f 	ldrbvs	r5, [r3, #-1327]!	; 0xfffffad1
    1480:	742f7372 	strtvc	r7, [pc], #-882	; 1488 <__code_start__-0x6b78>
    1484:	74736972 	ldrbtvc	r6, [r3], #-2418	; 0xfffff68e
    1488:	6f6e6e65 	svcvs	0x006e6e65
    148c:	616d6c6c 	cmnvs	sp, ip, ror #24
    1490:	6f442f6e 	svcvs	0x00442f6e
    1494:	656d7563 	strbvs	r7, [sp, #-1379]!	; 0xfffffa9d
    1498:	2f73746e 	svccs	0x0073746e
    149c:	69727053 	ldmdbvs	r2!, {r0, r1, r4, r6, ip, sp, lr}^
    14a0:	515f676e 	cmppl	pc, lr, ror #14
    14a4:	74726175 	ldrbtvc	r6, [r2], #-373	; 0xfffffe8b
    14a8:	325f7265 	subscc	r7, pc, #1342177286	; 0x50000006
    14ac:	2f323230 	svccs	0x00323230
    14b0:	34325343 	ldrtcc	r5, [r2], #-835	; 0xfffffcbd
    14b4:	2d584c30 	ldclcs	12, cr4, [r8, #-192]	; 0xffffff40
    14b8:	32727073 	rsbscc	r7, r2, #115, 0	; 0x73
    14bc:	696c2f32 	stmdbvs	ip!, {r1, r4, r5, r8, r9, sl, fp, sp}^
    14c0:	2f697062 	svccs	0x00697062
    14c4:	6c636e69 	stclvs	14, cr6, [r3], #-420	; 0xfffffe5c
    14c8:	00656475 	rsbeq	r6, r5, r5, ror r4
    14cc:	2d617600 	stclcs	6, cr7, [r1, #-0]
    14d0:	6e697270 	mcrvs	2, 3, r7, cr9, cr0, {3}
    14d4:	632e6b74 			; <UNDEFINED> instruction: 0x632e6b74
    14d8:	00000100 	andeq	r0, r0, r0, lsl #2
    14dc:	69647473 	stmdbvs	r4!, {r0, r1, r4, r5, r6, sl, ip, sp, lr}^
    14e0:	672d746e 	strvs	r7, [sp, -lr, ror #8]!
    14e4:	682e6363 	stmdavs	lr!, {r0, r1, r5, r6, r8, r9, sp, lr}
    14e8:	00000200 	andeq	r0, r0, r0, lsl #4
    14ec:	2e697072 	mcrcs	0, 3, r7, cr9, cr2, {3}
    14f0:	00030068 	andeq	r0, r3, r8, rrx
    14f4:	69707200 	ldmdbvs	r0!, {r9, ip, sp, lr}^
    14f8:	746e692d 	strbtvc	r6, [lr], #-2349	; 0xfffff6d3
    14fc:	616e7265 	cmnvs	lr, r5, ror #4
    1500:	00682e6c 	rsbeq	r2, r8, ip, ror #28
    1504:	73000003 	movwvc	r0, #3
    1508:	72616474 	rsbvc	r6, r1, #116, 8	; 0x74000000
    150c:	00682e67 	rsbeq	r2, r8, r7, ror #28
    1510:	3c000002 	stccc	0, cr0, [r0], {2}
    1514:	6c697562 	cfstr64vs	mvdx7, [r9], #-392	; 0xfffffe78
    1518:	6e692d74 	mcrvs	13, 3, r2, cr9, cr4, {3}
    151c:	0000003e 	andeq	r0, r0, lr, lsr r0
    1520:	1b050000 	blne	141528 <__bss_end__+0x136f10>
    1524:	dc020500 	cfstr32le	mvfx0, [r2], {-0}
    1528:	0300008d 	movweq	r0, #141	; 0x8d
    152c:	1d050126 	stfnes	f0, [r5, #-152]	; 0xffffff68
    1530:	062d0501 	strteq	r0, [sp], -r1, lsl #10
    1534:	2e010501 	cfsh32cs	mvfx0, mvfx1, #1
    1538:	0633054a 	ldrteq	r0, [r3], -sl, asr #10
    153c:	13020551 	movwne	r0, #9553	; 0x2551
    1540:	01060605 	tsteq	r6, r5, lsl #12
    1544:	30060205 	andcc	r0, r6, r5, lsl #4
    1548:	02000805 	andeq	r0, r0, #327680	; 0x50000
    154c:	05010104 	streq	r0, [r1, #-260]	; 0xfffffefc
    1550:	04020002 	streq	r0, [r2], #-2
    1554:	05010601 	streq	r0, [r1, #-1537]	; 0xfffff9ff
    1558:	04020003 	streq	r0, [r2], #-3
    155c:	052f0602 	streq	r0, [pc, #-1538]!	; f62 <__code_start__-0x709e>
    1560:	04020008 	streq	r0, [r2], #-8
    1564:	05010602 	streq	r0, [r1, #-1538]	; 0xfffff9fe
    1568:	04020015 	streq	r0, [r2], #-21	; 0xffffffeb
    156c:	05490602 	strbeq	r0, [r9, #-1538]	; 0xfffff9fe
    1570:	04020018 	streq	r0, [r2], #-24	; 0xffffffe8
    1574:	00010602 	andeq	r0, r1, r2, lsl #12
    1578:	2e020402 	cdpcs	4, 0, cr0, cr2, cr2, {0}
    157c:	30060205 	andcc	r0, r6, r5, lsl #4
    1580:	01060505 	tsteq	r6, r5, lsl #10
    1584:	4b060205 	blmi	181da0 <__bss_end__+0x177788>
    1588:	13060105 	movwne	r0, #24837	; 0x6105
    158c:	31063e05 	tstcc	r6, r5, lsl #28
    1590:	05140205 	ldreq	r0, [r4, #-517]	; 0xfffffdfb
    1594:	0501060e 	streq	r0, [r1, #-1550]	; 0xfffff9f2
    1598:	02052e06 	andeq	r2, r5, #96	; 0x60
    159c:	04052f06 	streq	r2, [r5], #-3846	; 0xfffff0fa
    15a0:	03050106 	movweq	r0, #20742	; 0x5106
    15a4:	11052f06 	tstne	r5, r6, lsl #30
    15a8:	09050106 	stmdbeq	r5, {r1, r2, r8}
    15ac:	0602052e 	streq	r0, [r2], -lr, lsr #10
    15b0:	07051530 	smladxeq	r5, r0, r5, r1
    15b4:	02050106 	andeq	r0, r5, #-2147483647	; 0x80000001
    15b8:	000b052e 	andeq	r0, fp, lr, lsr #10
    15bc:	06010402 	streq	r0, [r1], -r2, lsl #8
    15c0:	0002052e 	andeq	r0, r2, lr, lsr #10
    15c4:	06010402 	streq	r0, [r1], -r2, lsl #8
    15c8:	00030501 	andeq	r0, r3, r1, lsl #10
    15cc:	06030402 	streq	r0, [r3], -r2, lsl #8
    15d0:	000c052f 	andeq	r0, ip, pc, lsr #10
    15d4:	06030402 	streq	r0, [r3], -r2, lsl #8
    15d8:	000a0501 	andeq	r0, sl, r1, lsl #10
    15dc:	2e030402 	cdpcs	4, 0, cr0, cr3, cr2, {0}
    15e0:	02001705 	andeq	r1, r0, #1310720	; 0x140000
    15e4:	2d060304 	stccs	3, cr0, [r6, #-16]
    15e8:	03040200 	movweq	r0, #16896	; 0x4200
    15ec:	02050106 	andeq	r0, r5, #-2147483647	; 0x80000001
    15f0:	09053006 	stmdbeq	r5, {r1, r2, ip, sp}
    15f4:	052e0106 	streq	r0, [lr, #-262]!	; 0xfffffefa
    15f8:	05300602 	ldreq	r0, [r0, #-1538]!	; 0xfffff9fe
    15fc:	05130601 	ldreq	r0, [r3, #-1537]	; 0xfffff9ff
    1600:	06310649 	ldrteq	r0, [r1], -r9, asr #12
    1604:	06020501 	streq	r0, [r2], -r1, lsl #10
    1608:	060405a0 	streq	r0, [r4], -r0, lsr #11
    160c:	06030501 	streq	r0, [r3], -r1, lsl #10
    1610:	0609052f 	streq	r0, [r9], -pc, lsr #10
    1614:	06020501 	streq	r0, [r2], -r1, lsl #10
    1618:	0b051330 	bleq	1462e0 <__bss_end__+0x13bcc8>
    161c:	02050106 	andeq	r0, r5, #-2147483647	; 0x80000001
    1620:	2e063006 	cdpcs	0, 0, cr3, cr6, cr6, {0}
    1624:	02060405 	andeq	r0, r6, #83886080	; 0x5000000
    1628:	05131524 	ldreq	r1, [r3, #-1316]	; 0xfffffadc
    162c:	2e01060f 	cfmadd32cs	mvax0, mvfx0, mvfx1, mvfx15
    1630:	054a0605 	strbeq	r0, [sl, #-1541]	; 0xfffff9fb
    1634:	134b0605 	movtne	r0, #46597	; 0xb605
    1638:	01060905 	tsteq	r6, r5, lsl #18
    163c:	2f060505 	svccs	0x00060505
    1640:	10060b05 	andne	r0, r6, r5, lsl #22
    1644:	02000d05 	andeq	r0, r0, #320	; 0x140
    1648:	052c0104 	streq	r0, [ip, #-260]!	; 0xfffffefc
    164c:	04020004 	streq	r0, [r2], #-4
    1650:	05340601 	ldreq	r0, [r4, #-1537]!	; 0xfffff9ff
    1654:	04020005 	streq	r0, [r2], #-5
    1658:	1b051301 	blne	146264 <__bss_end__+0x13bc4c>
    165c:	01040200 	mrseq	r0, R12_usr
    1660:	07050106 	streq	r0, [r5, -r6, lsl #2]
    1664:	01040200 	mrseq	r0, R12_usr
    1668:	001805d6 			; <UNDEFINED> instruction: 0x001805d6
    166c:	2e010402 	cdpcs	4, 0, cr0, cr1, cr2, {0}
    1670:	02000a05 	andeq	r0, r0, #20480	; 0x5000
    1674:	054a0104 	strbeq	r0, [sl, #-260]	; 0xfffffefc
    1678:	0402000b 	streq	r0, [r2], #-11
    167c:	052f0601 	streq	r0, [pc, #-1537]!	; 1083 <__code_start__-0x6f7d>
    1680:	0402000e 	streq	r0, [r2], #-14
    1684:	052e0601 	streq	r0, [lr, #-1537]!	; 0xfffff9ff
    1688:	04020004 	streq	r0, [r2], #-4
    168c:	4b062e01 	blmi	18ce98 <__bss_end__+0x182880>
    1690:	01060605 	tsteq	r6, r5, lsl #12
    1694:	2f060505 	svccs	0x00060505
    1698:	01060a05 	tsteq	r6, r5, lsl #20
    169c:	2e4a0705 	cdpcs	7, 4, cr0, cr10, cr5, {0}
    16a0:	76030d05 	strvc	r0, [r3], -r5, lsl #26
    16a4:	0b054a2e 	bleq	153f64 <__bss_end__+0x14994c>
    16a8:	000d050d 	andeq	r0, sp, sp, lsl #10
    16ac:	06010402 	streq	r0, [r1], -r2, lsl #8
    16b0:	052e1403 	streq	r1, [lr, #-1027]!	; 0xfffffbfd
    16b4:	04020011 	streq	r0, [r2], #-17	; 0xffffffef
    16b8:	2d051301 	stccs	3, cr1, [r5, #-4]
    16bc:	01040200 	mrseq	r0, R12_usr
    16c0:	2a050106 	bcs	141ae0 <__bss_end__+0x1374c8>
    16c4:	01040200 	mrseq	r0, R12_usr
    16c8:	0016052e 	andseq	r0, r6, lr, lsr #10
    16cc:	4a010402 	bmi	426dc <__bss_end__+0x380c4>
    16d0:	02001405 	andeq	r1, r0, #83886080	; 0x5000000
    16d4:	4b060104 	blmi	181aec <__bss_end__+0x1774d4>
    16d8:	02000d05 	andeq	r0, r0, #320	; 0x140
    16dc:	01060104 	tsteq	r6, r4, lsl #2
    16e0:	01040200 	mrseq	r0, R12_usr
    16e4:	052f064a 	streq	r0, [pc, #-1610]!	; 10a2 <__code_start__-0x6f5e>
    16e8:	4a010612 	bmi	42f38 <__bss_end__+0x38920>
    16ec:	2f060d05 	svccs	0x00060d05
    16f0:	01061205 	tsteq	r6, r5, lsl #4
    16f4:	4b061905 	blmi	187b10 <__bss_end__+0x17d4f8>
    16f8:	02000405 	andeq	r0, r0, #83886080	; 0x5000000
    16fc:	11030204 	tstne	r3, r4, lsl #4
    1700:	04020001 	streq	r0, [r2], #-1
    1704:	02050102 	andeq	r0, r5, #-2147483648	; 0x80000000
    1708:	02040200 	andeq	r0, r4, #0, 4
    170c:	00090515 	andeq	r0, r9, r5, lsl r5
    1710:	06020402 	streq	r0, [r2], -r2, lsl #8
    1714:	04020001 	streq	r0, [r2], #-1
    1718:	01054a02 	tsteq	r5, r2, lsl #20
    171c:	02040200 	andeq	r0, r4, #0, 4
    1720:	0604059f 			; <UNDEFINED> instruction: 0x0604059f
    1724:	054a6e03 	strbeq	r6, [sl, #-3587]	; 0xfffff1fd
    1728:	05010609 	streq	r0, [r1, #-1545]	; 0xfffff9f7
    172c:	052f0604 	streq	r0, [pc, #-1540]!	; 1130 <__code_start__-0x6ed0>
    1730:	05110606 	ldreq	r0, [r1, #-1542]	; 0xfffff9fa
    1734:	0b052f04 	bleq	14d34c <__bss_end__+0x142d34>
    1738:	052e6303 	streq	r6, [lr, #-771]!	; 0xfffffcfd
    173c:	04020019 	streq	r0, [r2], #-25	; 0xffffffe7
    1740:	24030601 	strcs	r0, [r3], #-1537	; 0xfffff9ff
    1744:	001a052e 	andseq	r0, sl, lr, lsr #10
    1748:	13010402 	movwne	r0, #5122	; 0x1402
    174c:	02002805 	andeq	r2, r0, #327680	; 0x50000
    1750:	01060104 	tsteq	r6, r4, lsl #2
    1754:	02002505 	andeq	r2, r0, #20971520	; 0x1400000
    1758:	052e0104 	streq	r0, [lr, #-260]!	; 0xfffffefc
    175c:	0402001f 	streq	r0, [r2], #-31	; 0xffffffe1
    1760:	0b054a01 	bleq	153f6c <__bss_end__+0x149954>
    1764:	01040200 	mrseq	r0, R12_usr
    1768:	04054b06 	streq	r4, [r5], #-2822	; 0xfffff4fa
    176c:	01040200 	mrseq	r0, R12_usr
    1770:	02000106 	andeq	r0, r0, #-2147483647	; 0x80000001
    1774:	004a0104 	subeq	r0, sl, r4, lsl #2
    1778:	06010402 	streq	r0, [r1], -r2, lsl #8
    177c:	0402004e 	streq	r0, [r2], #-78	; 0xffffffb2
    1780:	02000101 	andeq	r0, r0, #1073741824	; 0x40000000
    1784:	00010104 	andeq	r0, r1, r4, lsl #2
    1788:	01010402 	tsteq	r1, r2, lsl #8
    178c:	01040200 	mrseq	r0, R12_usr
    1790:	02002e06 	andeq	r2, r0, #96	; 0x60
    1794:	00660104 	rsbeq	r0, r6, r4, lsl #2
    1798:	2e010402 	cdpcs	4, 0, cr0, cr1, cr2, {0}
    179c:	01040200 	mrseq	r0, R12_usr
    17a0:	48054a06 	stmdami	r5, {r1, r2, r9, fp, lr}
    17a4:	087fa603 	ldmdaeq	pc!, {r0, r1, r9, sl, sp, pc}^	; <UNPREDICTABLE>
    17a8:	13050520 	movwne	r0, #21792	; 0x5520
    17ac:	002e0601 	eoreq	r0, lr, r1, lsl #12
    17b0:	06020402 	streq	r0, [r2], -r2, lsl #8
    17b4:	0402002e 	streq	r0, [r2], #-46	; 0xffffffd2
    17b8:	02000102 	andeq	r0, r0, #-2147483648	; 0x80000000
    17bc:	05130204 	ldreq	r0, [r3, #-516]	; 0xfffffdfc
    17c0:	04020011 	streq	r0, [r2], #-17	; 0xffffffef
    17c4:	05010602 	streq	r0, [r1, #-1538]	; 0xfffff9fe
    17c8:	04020005 	streq	r0, [r2], #-5
    17cc:	054b0602 	strbeq	r0, [fp, #-1538]	; 0xfffff9fe
    17d0:	04020007 	streq	r0, [r2], #-7
    17d4:	05010602 	streq	r0, [r1, #-1538]	; 0xfffff9fe
    17d8:	054b0609 	strbeq	r0, [fp, #-1545]	; 0xfffff9f7
    17dc:	0501060e 	streq	r0, [r1, #-1550]	; 0xfffff9f2
    17e0:	04020048 	streq	r0, [r2], #-72	; 0xffffffb8
    17e4:	05056201 	streq	r6, [r5, #-513]	; 0xfffffdff
    17e8:	01040200 	mrseq	r0, R12_usr
    17ec:	02004b06 	andeq	r4, r0, #6144	; 0x1800
    17f0:	00010104 	andeq	r0, r1, r4, lsl #2
    17f4:	06010402 	streq	r0, [r1], -r2, lsl #8
    17f8:	0402009e 	streq	r0, [r2], #-158	; 0xffffff62
    17fc:	02002e01 	andeq	r2, r0, #1, 28
    1800:	2e060104 	adfcss	f0, f6, f4
    1804:	e1034005 	tst	r3, r5
    1808:	0106d600 	tsteq	r6, r0, lsl #12
    180c:	9f060205 	svcls	0x00060205
    1810:	01061e05 	tsteq	r6, r5, lsl #28
    1814:	052e1205 	streq	r1, [lr, #-517]!	; 0xfffffdfb
    1818:	052f0605 	streq	r0, [pc, #-1541]!	; 121b <__code_start__-0x6de5>
    181c:	09051402 	stmdbeq	r5, {r1, sl, ip}
    1820:	05050106 	streq	r0, [r5, #-262]	; 0xfffffefa
    1824:	02054b06 	andeq	r4, r5, #6144	; 0x1800
    1828:	06080513 			; <UNDEFINED> instruction: 0x06080513
    182c:	3302050d 	movwcc	r0, #9485	; 0x250d
    1830:	4c060405 	cfstrsmi	mvf0, [r6], {5}
    1834:	01060f05 	tsteq	r6, r5, lsl #30
    1838:	052e0905 	streq	r0, [lr, #-2309]!	; 0xfffff6fb
    183c:	052c0608 	streq	r0, [ip, #-1544]!	; 0xfffff9f8
    1840:	052e0602 	streq	r0, [lr, #-1538]!	; 0xfffff9fe
    1844:	0402000d 	streq	r0, [r2], #-13
    1848:	03054a01 	movweq	r4, #23041	; 0x5a01
    184c:	05054b06 	streq	r4, [r5, #-2822]	; 0xfffff4fa
    1850:	08050106 	stmdaeq	r5, {r1, r2, r8}
    1854:	0e054d06 	cdpeq	13, 0, cr4, cr5, cr6, {0}
    1858:	0a050106 	beq	141c78 <__bss_end__+0x137660>
    185c:	0604052e 	streq	r0, [r4], -lr, lsr #10
    1860:	0609052f 	streq	r0, [r9], -pc, lsr #10
    1864:	06040501 	streq	r0, [r4], -r1, lsl #10
    1868:	0607052f 	streq	r0, [r7], -pc, lsr #10
    186c:	04052e01 	streq	r2, [r5], #-3585	; 0xfffff1ff
    1870:	07053006 	streq	r3, [r5, -r6]
    1874:	04050106 	streq	r0, [r5], #-262	; 0xfffffefa
    1878:	14133006 	ldrne	r3, [r3], #-6
    187c:	10060d05 	andne	r0, r6, r5, lsl #26
    1880:	30060905 	andcc	r0, r6, r5, lsl #18
    1884:	01061205 	tsteq	r6, r5, lsl #4
    1888:	052e0a05 	streq	r0, [lr, #-2565]!	; 0xfffff5fb
    188c:	05056609 	streq	r6, [r5, #-1545]	; 0xfffff9f7
    1890:	12054b06 	andne	r4, r5, #6144	; 0x1800
    1894:	16050106 	strne	r0, [r5], -r6, lsl #2
    1898:	2e0b052e 	cfsh32cs	mvfx0, mvfx11, #30
    189c:	2f060505 	svccs	0x00060505
    18a0:	01060805 	tsteq	r6, r5, lsl #16
    18a4:	0604052e 	streq	r0, [r4], -lr, lsr #10
    18a8:	014a0130 	cmpeq	sl, r0, lsr r1
    18ac:	04020015 	streq	r0, [r2], #-21	; 0xffffffeb
    18b0:	0f360201 	svceq	0x00360201
    18b4:	01040200 	mrseq	r0, R12_usr
    18b8:	04020001 	streq	r0, [r2], #-1
    18bc:	1105d601 	tstne	r5, r1, lsl #12
    18c0:	00011334 	andeq	r1, r1, r4, lsr r3
    18c4:	06020402 	streq	r0, [r2], -r2, lsl #8
    18c8:	040200ba 	streq	r0, [r2], #-186	; 0xffffff46
    18cc:	00ba0603 	adcseq	r0, sl, r3, lsl #12
    18d0:	01030402 	tsteq	r3, r2, lsl #8
    18d4:	03040200 	movweq	r0, #16896	; 0x4200
    18d8:	00150514 	andseq	r0, r5, r4, lsl r5
    18dc:	06030402 	streq	r0, [r3], -r2, lsl #8
    18e0:	00110501 	andseq	r0, r1, r1, lsl #10
    18e4:	06030402 	streq	r0, [r3], -r2, lsl #8
    18e8:	001a052f 	andseq	r0, sl, pc, lsr #10
    18ec:	06030402 	streq	r0, [r3], -r2, lsl #8
    18f0:	00110501 	andseq	r0, r1, r1, lsl #10
    18f4:	06030402 	streq	r0, [r3], -r2, lsl #8
    18f8:	040200d7 	streq	r0, [r2], #-215	; 0xffffff29
    18fc:	02001303 	andeq	r1, r0, #201326592	; 0xc000000
    1900:	00140304 	andseq	r0, r4, r4, lsl #6
    1904:	67030402 	strvs	r0, [r3, -r2, lsl #8]
    1908:	03040200 	movweq	r0, #16896	; 0x4200
    190c:	00140568 	andseq	r0, r4, r8, ror #10
    1910:	06030402 	streq	r0, [r3], -r2, lsl #8
    1914:	00130501 	andseq	r0, r3, r1, lsl #10
    1918:	82030402 	andhi	r0, r3, #33554432	; 0x2000000
    191c:	4e061805 	cdpmi	8, 0, cr1, cr6, cr5, {0}
    1920:	01061b05 	tsteq	r6, r5, lsl #22
    1924:	05821a05 	streq	r1, [r2, #2565]	; 0xa05
    1928:	054b0609 	strbeq	r0, [fp, #-1545]	; 0xfffff9f7
    192c:	2e01060d 	cfmadd32cs	mvax0, mvfx0, mvfx1, mvfx13
    1930:	f3060905 	vmls.i8	d0, d6, d5
    1934:	1505ba06 	strne	fp, [r5, #-2566]	; 0xfffff5fa
    1938:	18053006 	stmdane	r5, {r1, r2, ip, sp}
    193c:	17050106 	strne	r0, [r5, -r6, lsl #2]
    1940:	06190566 	ldreq	r0, [r9], -r6, ror #10
    1944:	0615054b 	ldreq	r0, [r5], -fp, asr #10
    1948:	05666f03 	strbeq	r6, [r6, #-3843]!	; 0xfffff0fd
    194c:	01480611 	cmpeq	r8, r1, lsl r6
    1950:	030905d6 	movweq	r0, #38358	; 0x95d6
    1954:	0d052e0b 	stceq	14, cr2, [r5, #-44]	; 0xffffffd4
    1958:	052e0106 	streq	r0, [lr, #-262]!	; 0xfffffefa
    195c:	06f30609 	ldrbteq	r0, [r3], r9, lsl #12
    1960:	061505ba 			; <UNDEFINED> instruction: 0x061505ba
    1964:	7503062f 	strvc	r0, [r3, #-1583]	; 0xfffff9d1
    1968:	06190566 	ldreq	r0, [r9], -r6, ror #10
    196c:	054a1303 	strbeq	r1, [sl, #-771]	; 0xfffffcfd
    1970:	6d030615 	stcvs	6, cr0, [r3, #-84]	; 0xffffffac
    1974:	15030666 	strne	r0, [r3, #-1638]	; 0xfffff99a
    1978:	06ba014a 	ldrteq	r0, [sl], sl, asr #2
    197c:	0605052e 	streq	r0, [r5], -lr, lsr #10
    1980:	2e9e011a 	mrccs	1, 4, r0, cr14, cr10, {0}
    1984:	05010e03 	streq	r0, [r1, #-3587]	; 0xfffff1fd
    1988:	05010609 	streq	r0, [r1, #-1545]	; 0xfffff9f7
    198c:	75080605 	strvc	r0, [r8, #-1541]	; 0xfffff9fb
    1990:	18030405 	stmdane	r3, {r0, r2, sl}
    1994:	06070501 	streq	r0, [r7], -r1, lsl #10
    1998:	06040501 	streq	r0, [r4], -r1, lsl #10
    199c:	03050531 	movweq	r0, #21809	; 0x5531
    19a0:	1c052e67 	stcne	14, cr2, [r5], {103}	; 0x67
    19a4:	09050106 	stmdbeq	r5, {r1, r2, r8}
    19a8:	06050582 	streq	r0, [r5], -r2, lsl #11
    19ac:	1c0531f3 	stfnes	f3, [r5], {243}	; 0xf3
    19b0:	09050106 	stmdbeq	r5, {r1, r2, r8}
    19b4:	06050582 	streq	r0, [r5], -r2, lsl #11
    19b8:	1b0530f3 	blne	14dd8c <__bss_end__+0x143774>
    19bc:	09050106 	stmdbeq	r5, {r1, r2, r8}
    19c0:	06050582 	streq	r0, [r5], -r2, lsl #11
    19c4:	070530f3 			; <UNDEFINED> instruction: 0x070530f3
    19c8:	05050106 	streq	r0, [r5, #-262]	; 0xfffffefa
    19cc:	05308306 	ldreq	r8, [r0, #-774]!	; 0xfffffcfa
    19d0:	05010609 	streq	r0, [r1, #-1545]	; 0xfffff9f7
    19d4:	75080605 	strvc	r0, [r8, #-1541]	; 0xfffff9fb
    19d8:	05301105 	ldreq	r1, [r0, #-261]!	; 0xfffffefb
    19dc:	05010622 	streq	r0, [r1, #-1570]	; 0xfffff9de
    19e0:	054b0605 	strbeq	r0, [fp, #-1541]	; 0xfffff9fb
    19e4:	05058311 	streq	r8, [r5, #-785]	; 0xfffffcef
    19e8:	359e0183 	ldrcc	r0, [lr, #387]	; 0x183
    19ec:	01060e05 	tsteq	r6, r5, lsl #28
    19f0:	062e0a05 	strteq	r0, [lr], -r5, lsl #20
    19f4:	0604052d 	streq	r0, [r4], -sp, lsr #10
    19f8:	00130501 	andseq	r0, r3, r1, lsl #10
    19fc:	4a010402 	bmi	42a0c <__bss_end__+0x383f4>
    1a00:	02001005 	andeq	r1, r0, #5, 0
    1a04:	002e0104 	eoreq	r0, lr, r4, lsl #2
    1a08:	66010402 	strvs	r0, [r1], -r2, lsl #8
    1a0c:	16060205 	strne	r0, [r6], -r5, lsl #4
    1a10:	01060705 	tsteq	r6, r5, lsl #14
    1a14:	4b060205 	blmi	182230 <__bss_end__+0x177c18>
    1a18:	13060105 	movwne	r0, #24837	; 0x6105
    1a1c:	001e0266 	andseq	r0, lr, r6, ror #4
    1a20:	00c40101 	sbceq	r0, r4, r1, lsl #2
    1a24:	00030000 	andeq	r0, r3, r0
    1a28:	00000083 	andeq	r0, r0, r3, lsl #1
    1a2c:	0efb0102 	cdpeq	1, 15, cr0, cr11, cr2, {0}
    1a30:	0101000d 	tsteq	r1, sp
    1a34:	00000101 	andeq	r0, r0, r1, lsl #2
    1a38:	00000100 	andeq	r0, r0, r0, lsl #2
    1a3c:	732f2e01 			; <UNDEFINED> instruction: 0x732f2e01
    1a40:	66666174 			; <UNDEFINED> instruction: 0x66666174
    1a44:	6372732d 	cmnvs	r2, #-1275068416	; 0xb4000000
    1a48:	73552f00 	cmpvc	r5, #0, 30
    1a4c:	2f737265 	svccs	0x00737265
    1a50:	73697274 	cmnvc	r9, #116, 4	; 0x40000007
    1a54:	6e6e6574 	mcrvs	5, 3, r6, cr14, cr4, {3}
    1a58:	6d6c6c6f 	stclvs	12, cr6, [ip, #-444]!	; 0xfffffe44
    1a5c:	442f6e61 	strtmi	r6, [pc], #-3681	; 1a64 <__code_start__-0x659c>
    1a60:	6d75636f 	ldclvs	3, cr6, [r5, #-444]!	; 0xfffffe44
    1a64:	73746e65 	cmnvc	r4, #1616	; 0x650
    1a68:	7270532f 	rsbsvc	r5, r0, #-1140850688	; 0xbc000000
    1a6c:	5f676e69 	svcpl	0x00676e69
    1a70:	72617551 	rsbvc	r7, r1, #339738624	; 0x14400000
    1a74:	5f726574 	svcpl	0x00726574
    1a78:	32323032 	eorscc	r3, r2, #50, 0	; 0x32
    1a7c:	3253432f 	subscc	r4, r3, #-1140850688	; 0xbc000000
    1a80:	584c3034 	stmdapl	ip, {r2, r4, r5, ip, sp}^
    1a84:	7270732d 	rsbsvc	r7, r0, #-1275068416	; 0xb4000000
    1a88:	6c2f3232 	sfmvs	f3, 4, [pc], #-200	; 19c8 <__code_start__-0x6638>
    1a8c:	69706269 	ldmdbvs	r0!, {r0, r3, r5, r6, r9, sp, lr}^
    1a90:	636e692f 	cmnvs	lr, #770048	; 0xbc000
    1a94:	6564756c 	strbvs	r7, [r4, #-1388]!	; 0xfffffa94
    1a98:	61630000 	cmnvs	r3, r0
    1a9c:	2e656863 	cdpcs	8, 6, cr6, cr5, cr3, {3}
    1aa0:	00010063 	andeq	r0, r1, r3, rrx
    1aa4:	69707200 	ldmdbvs	r0!, {r9, ip, sp, lr}^
    1aa8:	0200682e 	andeq	r6, r0, #3014656	; 0x2e0000
    1aac:	05000000 	streq	r0, [r0, #-0]
    1ab0:	02050019 	andeq	r0, r5, #25, 0
    1ab4:	0000951c 	andeq	r9, r0, ip, lsl r5
    1ab8:	13050514 	movwne	r0, #21780	; 0x5514
    1abc:	2f020513 	svccs	0x00020513
    1ac0:	06040513 			; <UNDEFINED> instruction: 0x06040513
    1ac4:	06050501 	streq	r0, [r5], -r1, lsl #10
    1ac8:	0601052f 	streq	r0, [r1], -pc, lsr #10
    1acc:	061a052f 	ldreq	r0, [sl], -pc, lsr #10
    1ad0:	13050531 	movwne	r0, #21809	; 0x5531
    1ad4:	30020513 	andcc	r0, r2, r3, lsl r5
    1ad8:	06040513 			; <UNDEFINED> instruction: 0x06040513
    1adc:	06050501 	streq	r0, [r5], -r1, lsl #10
    1ae0:	0601052f 	streq	r0, [r1], -pc, lsr #10
    1ae4:	0002022f 	andeq	r0, r2, pc, lsr #4
    1ae8:	00a50101 	adceq	r0, r5, r1, lsl #2
    1aec:	00030000 	andeq	r0, r3, r0
    1af0:	0000008a 	andeq	r0, r0, sl, lsl #1
    1af4:	0efb0102 	cdpeq	1, 15, cr0, cr11, cr2, {0}
    1af8:	0101000d 	tsteq	r1, sp
    1afc:	00000101 	andeq	r0, r0, r1, lsl #2
    1b00:	00000100 	andeq	r0, r0, r0, lsl #2
    1b04:	732f2e01 			; <UNDEFINED> instruction: 0x732f2e01
    1b08:	66666174 			; <UNDEFINED> instruction: 0x66666174
    1b0c:	6372732d 	cmnvs	r2, #-1275068416	; 0xb4000000
    1b10:	73552f00 	cmpvc	r5, #0, 30
    1b14:	2f737265 	svccs	0x00737265
    1b18:	73697274 	cmnvc	r9, #116, 4	; 0x40000007
    1b1c:	6e6e6574 	mcrvs	5, 3, r6, cr14, cr4, {3}
    1b20:	6d6c6c6f 	stclvs	12, cr6, [ip, #-444]!	; 0xfffffe44
    1b24:	442f6e61 	strtmi	r6, [pc], #-3681	; 1b2c <__code_start__-0x64d4>
    1b28:	6d75636f 	ldclvs	3, cr6, [r5, #-444]!	; 0xfffffe44
    1b2c:	73746e65 	cmnvc	r4, #1616	; 0x650
    1b30:	7270532f 	rsbsvc	r5, r0, #-1140850688	; 0xbc000000
    1b34:	5f676e69 	svcpl	0x00676e69
    1b38:	72617551 	rsbvc	r7, r1, #339738624	; 0x14400000
    1b3c:	5f726574 	svcpl	0x00726574
    1b40:	32323032 	eorscc	r3, r2, #50, 0	; 0x32
    1b44:	3253432f 	subscc	r4, r3, #-1140850688	; 0xbc000000
    1b48:	584c3034 	stmdapl	ip, {r2, r4, r5, ip, sp}^
    1b4c:	7270732d 	rsbsvc	r7, r0, #-1275068416	; 0xb4000000
    1b50:	6c2f3232 	sfmvs	f3, 4, [pc], #-200	; 1a90 <__code_start__-0x6570>
    1b54:	69706269 	ldmdbvs	r0!, {r0, r3, r5, r6, r9, sp, lr}^
    1b58:	636e692f 	cmnvs	lr, #770048	; 0xbc000
    1b5c:	6564756c 	strbvs	r7, [r4, #-1388]!	; 0xfffffa94
    1b60:	6c630000 	stclvs	0, cr0, [r3], #-0
    1b64:	2d6e6165 	stfcse	f6, [lr, #-404]!	; 0xfffffe6c
    1b68:	6f626572 	svcvs	0x00626572
    1b6c:	632e746f 			; <UNDEFINED> instruction: 0x632e746f
    1b70:	00000100 	andeq	r0, r0, r0, lsl #2
    1b74:	2e697072 	mcrcs	0, 3, r7, cr9, cr2, {3}
    1b78:	00020068 	andeq	r0, r2, r8, rrx
    1b7c:	19050000 	stmdbne	r5, {}	; <UNPREDICTABLE>
    1b80:	3c020500 	cfstr32cc	mvfx0, [r2], {-0}
    1b84:	15000095 	strne	r0, [r0, #-149]	; 0xffffff6b
    1b88:	832f0505 			; <UNDEFINED> instruction: 0x832f0505
    1b8c:	06024b2f 	streq	r4, [r2], -pc, lsr #22
    1b90:	bf010100 	svclt	0x00010100
    1b94:	03000000 	movweq	r0, #0
    1b98:	00008400 	andeq	r8, r0, r0, lsl #8
    1b9c:	fb010200 	blx	423a6 <__bss_end__+0x37d8e>
    1ba0:	01000d0e 	tsteq	r0, lr, lsl #26
    1ba4:	00010101 	andeq	r0, r1, r1, lsl #2
    1ba8:	00010000 	andeq	r0, r1, r0
    1bac:	2f2e0100 	svccs	0x002e0100
    1bb0:	66617473 			; <UNDEFINED> instruction: 0x66617473
    1bb4:	72732d66 	rsbsvc	r2, r3, #6528	; 0x1980
    1bb8:	552f0063 	strpl	r0, [pc, #-99]!	; 1b5d <__code_start__-0x64a3>
    1bbc:	73726573 	cmnvc	r2, #482344960	; 0x1cc00000
    1bc0:	6972742f 	ldmdbvs	r2!, {r0, r1, r2, r3, r5, sl, ip, sp, lr}^
    1bc4:	6e657473 	mcrvs	4, 3, r7, cr5, cr3, {3}
    1bc8:	6c6c6f6e 	stclvs	15, cr6, [ip], #-440	; 0xfffffe48
    1bcc:	2f6e616d 	svccs	0x006e616d
    1bd0:	75636f44 	strbvc	r6, [r3, #-3908]!	; 0xfffff0bc
    1bd4:	746e656d 	strbtvc	r6, [lr], #-1389	; 0xfffffa93
    1bd8:	70532f73 	subsvc	r2, r3, r3, ror pc
    1bdc:	676e6972 			; <UNDEFINED> instruction: 0x676e6972
    1be0:	6175515f 	cmnvs	r5, pc, asr r1
    1be4:	72657472 	rsbvc	r7, r5, #1912602624	; 0x72000000
    1be8:	3230325f 	eorscc	r3, r0, #-268435451	; 0xf0000005
    1bec:	53432f32 	movtpl	r2, #16178	; 0x3f32
    1bf0:	4c303432 	cfldrsmi	mvf3, [r0], #-200	; 0xffffff38
    1bf4:	70732d58 	rsbsvc	r2, r3, r8, asr sp
    1bf8:	2f323272 	svccs	0x00323272
    1bfc:	7062696c 	rsbvc	r6, r2, ip, ror #18
    1c00:	6e692f69 	cdpvs	15, 6, cr2, cr9, cr9, {3}
    1c04:	64756c63 	ldrbtvs	r6, [r5], #-3171	; 0xfffff39d
    1c08:	63000065 	movwvs	r0, #101	; 0x65
    1c0c:	72617473 	rsbvc	r7, r1, #1929379840	; 0x73000000
    1c10:	00632e74 	rsbeq	r2, r3, r4, ror lr
    1c14:	72000001 	andvc	r0, r0, #1, 0
    1c18:	682e6970 	stmdavs	lr!, {r4, r5, r6, r8, fp, sp, lr}
    1c1c:	00000200 	andeq	r0, r0, r0, lsl #4
    1c20:	00100500 	andseq	r0, r0, r0, lsl #10
    1c24:	95680205 	strbls	r0, [r8, #-517]!	; 0xfffffdfb
    1c28:	05150000 	ldreq	r0, [r5, #-0]
    1c2c:	02052f05 	andeq	r2, r5, #5, 30
    1c30:	14050513 	strne	r0, [r5], #-1299	; 0xfffffaed
    1c34:	05141330 	ldreq	r1, [r4, #-816]	; 0xfffffcd0
    1c38:	060f060a 	streq	r0, [pc], -sl, lsl #12
    1c3c:	4b090531 	blmi	243108 <__bss_end__+0x238af0>
    1c40:	01061005 	tsteq	r6, r5
    1c44:	0605054a 	streq	r0, [r5], -sl, asr #10
    1c48:	01013230 	tsteq	r1, r0, lsr r2
    1c4c:	0205144a 	andeq	r1, r5, #1241513984	; 0x4a000000
    1c50:	0006022f 	andeq	r0, r6, pc, lsr #4
    1c54:	00a30101 	adceq	r0, r3, r1, lsl #2
    1c58:	00030000 	andeq	r0, r3, r0
    1c5c:	0000008b 	andeq	r0, r0, fp, lsl #1
    1c60:	0efb0102 	cdpeq	1, 15, cr0, cr11, cr2, {0}
    1c64:	0101000d 	tsteq	r1, sp
    1c68:	00000101 	andeq	r0, r0, r1, lsl #2
    1c6c:	00000100 	andeq	r0, r0, r0, lsl #2
    1c70:	732f2e01 			; <UNDEFINED> instruction: 0x732f2e01
    1c74:	66666174 			; <UNDEFINED> instruction: 0x66666174
    1c78:	6372732d 	cmnvs	r2, #-1275068416	; 0xb4000000
    1c7c:	73552f00 	cmpvc	r5, #0, 30
    1c80:	2f737265 	svccs	0x00737265
    1c84:	73697274 	cmnvc	r9, #116, 4	; 0x40000007
    1c88:	6e6e6574 	mcrvs	5, 3, r6, cr14, cr4, {3}
    1c8c:	6d6c6c6f 	stclvs	12, cr6, [ip, #-444]!	; 0xfffffe44
    1c90:	442f6e61 	strtmi	r6, [pc], #-3681	; 1c98 <__code_start__-0x6368>
    1c94:	6d75636f 	ldclvs	3, cr6, [r5, #-444]!	; 0xfffffe44
    1c98:	73746e65 	cmnvc	r4, #1616	; 0x650
    1c9c:	7270532f 	rsbsvc	r5, r0, #-1140850688	; 0xbc000000
    1ca0:	5f676e69 	svcpl	0x00676e69
    1ca4:	72617551 	rsbvc	r7, r1, #339738624	; 0x14400000
    1ca8:	5f726574 	svcpl	0x00726574
    1cac:	32323032 	eorscc	r3, r2, #50, 0	; 0x32
    1cb0:	3253432f 	subscc	r4, r3, #-1140850688	; 0xbc000000
    1cb4:	584c3034 	stmdapl	ip, {r2, r4, r5, ip, sp}^
    1cb8:	7270732d 	rsbsvc	r7, r0, #-1275068416	; 0xb4000000
    1cbc:	6c2f3232 	sfmvs	f3, 4, [pc], #-200	; 1bfc <__code_start__-0x6404>
    1cc0:	69706269 	ldmdbvs	r0!, {r0, r3, r5, r6, r9, sp, lr}^
    1cc4:	636e692f 	cmnvs	lr, #770048	; 0xbc000
    1cc8:	6564756c 	strbvs	r7, [r4, #-1388]!	; 0xfffffa94
    1ccc:	75630000 	strbvc	r0, [r3, #-0]!
    1cd0:	6d6f7473 	cfstrdvs	mvd7, [pc, #-460]!	; 1b0c <__code_start__-0x64f4>
    1cd4:	616f6c2d 	cmnvs	pc, sp, lsr #24
    1cd8:	2e726564 	cdpcs	5, 7, cr6, cr2, cr4, {3}
    1cdc:	00010063 	andeq	r0, r1, r3, rrx
    1ce0:	69707200 	ldmdbvs	r0!, {r9, ip, sp, lr}^
    1ce4:	0200682e 	andeq	r6, r0, #3014656	; 0x2e0000
    1ce8:	05000000 	streq	r0, [r0, #-0]
    1cec:	0205001a 	andeq	r0, r5, #26, 0
    1cf0:	000095a4 	andeq	r9, r0, r4, lsr #11
    1cf4:	14010515 	strne	r0, [r1], #-1301	; 0xfffffaeb
    1cf8:	01000202 	tsteq	r0, r2, lsl #4
    1cfc:	0000f301 	andeq	pc, r0, r1, lsl #6
    1d00:	84000300 	strhi	r0, [r0], #-768	; 0xfffffd00
    1d04:	02000000 	andeq	r0, r0, #0, 0
    1d08:	0d0efb01 	vstreq	d15, [lr, #-4]
    1d0c:	01010100 	mrseq	r0, (UNDEF: 17)
    1d10:	00000001 	andeq	r0, r0, r1
    1d14:	01000001 	tsteq	r0, r1
    1d18:	74732f2e 	ldrbtvc	r2, [r3], #-3886	; 0xfffff0d2
    1d1c:	2d666661 	stclcs	6, cr6, [r6, #-388]!	; 0xfffffe7c
    1d20:	00637273 	rsbeq	r7, r3, r3, ror r2
    1d24:	6573552f 	ldrbvs	r5, [r3, #-1327]!	; 0xfffffad1
    1d28:	742f7372 	strtvc	r7, [pc], #-882	; 1d30 <__code_start__-0x62d0>
    1d2c:	74736972 	ldrbtvc	r6, [r3], #-2418	; 0xfffff68e
    1d30:	6f6e6e65 	svcvs	0x006e6e65
    1d34:	616d6c6c 	cmnvs	sp, ip, ror #24
    1d38:	6f442f6e 	svcvs	0x00442f6e
    1d3c:	656d7563 	strbvs	r7, [sp, #-1379]!	; 0xfffffa9d
    1d40:	2f73746e 	svccs	0x0073746e
    1d44:	69727053 	ldmdbvs	r2!, {r0, r1, r4, r6, ip, sp, lr}^
    1d48:	515f676e 	cmppl	pc, lr, ror #14
    1d4c:	74726175 	ldrbtvc	r6, [r2], #-373	; 0xfffffe8b
    1d50:	325f7265 	subscc	r7, pc, #1342177286	; 0x50000006
    1d54:	2f323230 	svccs	0x00323230
    1d58:	34325343 	ldrtcc	r5, [r2], #-835	; 0xfffffcbd
    1d5c:	2d584c30 	ldclcs	12, cr4, [r8, #-192]	; 0xffffff40
    1d60:	32727073 	rsbscc	r7, r2, #115, 0	; 0x73
    1d64:	696c2f32 	stmdbvs	ip!, {r1, r4, r5, r8, r9, sl, fp, sp}^
    1d68:	2f697062 	svccs	0x00697062
    1d6c:	6c636e69 	stclvs	14, cr6, [r3], #-420	; 0xfffffe5c
    1d70:	00656475 	rsbeq	r6, r5, r5, ror r4
    1d74:	62657200 	rsbvs	r7, r5, #0, 4
    1d78:	2e746f6f 	cdpcs	15, 7, cr6, cr4, cr15, {3}
    1d7c:	00010063 	andeq	r0, r1, r3, rrx
    1d80:	69707200 	ldmdbvs	r0!, {r9, ip, sp, lr}^
    1d84:	0200682e 	andeq	r6, r0, #3014656	; 0x2e0000
    1d88:	05000000 	streq	r0, [r0, #-0]
    1d8c:	02050019 	andeq	r0, r5, #25, 0
    1d90:	000095a8 	andeq	r9, r0, r8, lsr #11
    1d94:	05010d03 	streq	r0, [r1, #-3331]	; 0xfffff2fd
    1d98:	31131305 	tstcc	r3, r5, lsl #6
    1d9c:	01061305 	tsteq	r6, r5, lsl #6
    1da0:	052f0105 	streq	r0, [pc, #-261]!	; 1ca3 <__code_start__-0x635d>
    1da4:	0585061b 	streq	r0, [r5, #1563]	; 0x61b
    1da8:	05141305 	ldreq	r1, [r4, #-773]	; 0xfffffcfb
    1dac:	16052f09 	strne	r2, [r5], -r9, lsl #30
    1db0:	0e050106 	adfeqs	f0, f5, f6
    1db4:	0605052e 	streq	r0, [r5], -lr, lsr #10
    1db8:	0601052f 	streq	r0, [r1], -pc, lsr #10
    1dbc:	0617052f 	ldreq	r0, [r7], -pc, lsr #10
    1dc0:	2f050530 	svccs	0x00050530
    1dc4:	01060805 	tsteq	r6, r5, lsl #16
    1dc8:	052e0705 	streq	r0, [lr, #-1797]!	; 0xfffff8fb
    1dcc:	30500605 	subscc	r0, r0, r5, lsl #12
    1dd0:	13134d2f 	tstne	r3, #3008	; 0xbc0
    1dd4:	00671513 	rsbeq	r1, r7, r3, lsl r5
    1dd8:	67010402 	strvs	r0, [r1, -r2, lsl #8]
    1ddc:	02000d05 	andeq	r0, r0, #320	; 0x140
    1de0:	05010104 	streq	r0, [r1, #-260]	; 0xfffffefc
    1de4:	0402000a 	streq	r0, [r2], #-10
    1de8:	09050101 	stmdbeq	r5, {r0, r8}
    1dec:	022e6d03 	eoreq	r6, lr, #192	; 0xc0
    1df0:	0101000c 	tsteq	r1, ip
    1df4:	000000fa 	strdeq	r0, [r0], -sl
    1df8:	00830003 	addeq	r0, r3, r3
    1dfc:	01020000 	mrseq	r0, (UNDEF: 2)
    1e00:	000d0efb 	strdeq	r0, [sp], -fp
    1e04:	01010101 	tsteq	r1, r1, lsl #2
    1e08:	01000000 	mrseq	r0, (UNDEF: 0)
    1e0c:	2e010000 	cdpcs	0, 0, cr0, cr1, cr0, {0}
    1e10:	6174732f 	cmnvs	r4, pc, lsr #6
    1e14:	732d6666 			; <UNDEFINED> instruction: 0x732d6666
    1e18:	2f006372 	svccs	0x00006372
    1e1c:	72657355 	rsbvc	r7, r5, #1409286145	; 0x54000001
    1e20:	72742f73 	rsbsvc	r2, r4, #460	; 0x1cc
    1e24:	65747369 	ldrbvs	r7, [r4, #-873]!	; 0xfffffc97
    1e28:	6c6f6e6e 	stclvs	14, cr6, [pc], #-440	; 1c78 <__code_start__-0x6388>
    1e2c:	6e616d6c 	cdpvs	13, 6, cr6, cr1, cr12, {3}
    1e30:	636f442f 	cmnvs	pc, #788529152	; 0x2f000000
    1e34:	6e656d75 	mcrvs	13, 3, r6, cr5, cr5, {3}
    1e38:	532f7374 			; <UNDEFINED> instruction: 0x532f7374
    1e3c:	6e697270 	mcrvs	2, 3, r7, cr9, cr0, {3}
    1e40:	75515f67 	ldrbvc	r5, [r1, #-3943]	; 0xfffff099
    1e44:	65747261 	ldrbvs	r7, [r4, #-609]!	; 0xfffffd9f
    1e48:	30325f72 	eorscc	r5, r2, r2, ror pc
    1e4c:	432f3232 			; <UNDEFINED> instruction: 0x432f3232
    1e50:	30343253 	eorscc	r3, r4, r3, asr r2
    1e54:	732d584c 			; <UNDEFINED> instruction: 0x732d584c
    1e58:	32327270 	eorscc	r7, r2, #112, 4
    1e5c:	62696c2f 	rsbvs	r6, r9, #12032	; 0x2f00
    1e60:	692f6970 	stmdbvs	pc!, {r4, r5, r6, r8, fp, sp, lr}	; <UNPREDICTABLE>
    1e64:	756c636e 	strbvc	r6, [ip, #-878]!	; 0xfffffc92
    1e68:	00006564 	andeq	r6, r0, r4, ror #10
    1e6c:	656d6974 	strbvs	r6, [sp, #-2420]!	; 0xfffff68c
    1e70:	00632e72 	rsbeq	r2, r3, r2, ror lr
    1e74:	72000001 	andvc	r0, r0, #1, 0
    1e78:	682e6970 	stmdavs	lr!, {r4, r5, r6, r8, fp, sp, lr}
    1e7c:	00000200 	andeq	r0, r0, r0, lsl #4
    1e80:	00230500 	eoreq	r0, r3, r0, lsl #10
    1e84:	96280205 	strtls	r0, [r8], -r5, lsl #4
    1e88:	05150000 	ldreq	r0, [r5, #-0]
    1e8c:	0c052f05 	stceq	15, cr2, [r5], {5}
    1e90:	01050106 	tsteq	r5, r6, lsl #2
    1e94:	061f054b 	ldreq	r0, [pc], -fp, asr #10
    1e98:	3105054d 	tstcc	r5, sp, asr #10
    1e9c:	0612052f 	ldreq	r0, [r2], -pc, lsr #10
    1ea0:	06050501 	streq	r0, [r5], -r1, lsl #10
    1ea4:	01052f4b 	tsteq	r5, fp, asr #30
    1ea8:	1c051306 	stcne	3, cr1, [r5], {6}
    1eac:	01064c06 	tsteq	r6, r6, lsl #24
    1eb0:	4b060505 	blmi	1832cc <__bss_end__+0x178cb4>
    1eb4:	01061305 	tsteq	r6, r5, lsl #6
    1eb8:	0605052e 	streq	r0, [r5], -lr, lsr #10
    1ebc:	1309052f 	movwne	r0, #38191	; 0x952f
    1ec0:	01061705 	tsteq	r6, r5, lsl #14
    1ec4:	2f060905 	svccs	0x00060905
    1ec8:	01061105 	tsteq	r6, r5, lsl #2
    1ecc:	052e0c05 	streq	r0, [lr, #-3077]!	; 0xfffff3fb
    1ed0:	066b061c 			; <UNDEFINED> instruction: 0x066b061c
    1ed4:	06050501 	streq	r0, [r5], -r1, lsl #10
    1ed8:	054a062f 	strbeq	r0, [sl, #-1583]	; 0xfffff9d1
    1edc:	1e054b01 	vmlane.f64	d4, d5, d1
    1ee0:	01062f06 	tsteq	r6, r6, lsl #30
    1ee4:	2f060505 	svccs	0x00060505
    1ee8:	01054a06 	tsteq	r5, r6, lsl #20
    1eec:	0002024b 	andeq	r0, r2, fp, asr #4
    1ef0:	01bb0101 			; <UNDEFINED> instruction: 0x01bb0101
    1ef4:	00030000 	andeq	r0, r3, r0
    1ef8:	000000bf 	strheq	r0, [r0], -pc	; <UNPREDICTABLE>
    1efc:	0efb0102 	cdpeq	1, 15, cr0, cr11, cr2, {0}
    1f00:	0101000d 	tsteq	r1, sp
    1f04:	00000101 	andeq	r0, r0, r1, lsl #2
    1f08:	00000100 	andeq	r0, r0, r0, lsl #2
    1f0c:	6f682f01 	svcvs	0x00682f01
    1f10:	652f656d 	strvs	r6, [pc, #-1389]!	; 19ab <__code_start__-0x6655>
    1f14:	656c676e 	strbvs	r6, [ip, #-1902]!	; 0xfffff892
    1f18:	6c632f72 	stclvs	15, cr2, [r3], #-456	; 0xfffffe38
    1f1c:	2f737361 	svccs	0x00737361
    1f20:	34327363 	ldrtcc	r7, [r2], #-867	; 0xfffffc9d
    1f24:	2d786c30 	ldclcs	12, cr6, [r8, #-192]!	; 0xffffff40
    1f28:	70733232 	rsbsvc	r3, r3, r2, lsr r2
    1f2c:	6c2f2f72 	stcvs	15, cr2, [pc], #-456	; 1d6c <__code_start__-0x6294>
    1f30:	69706269 	ldmdbvs	r0!, {r0, r3, r5, r6, r9, sp, lr}^
    1f34:	636e692f 	cmnvs	lr, #770048	; 0xbc000
    1f38:	6564756c 	strbvs	r7, [r4, #-1388]!	; 0xfffffa94
    1f3c:	73752f00 	cmnvc	r5, #0, 30
    1f40:	68732f72 	ldmdavs	r3!, {r1, r4, r5, r6, r8, r9, sl, fp, sp}^
    1f44:	2f657261 	svccs	0x00657261
    1f48:	2d636367 	stclcs	3, cr6, [r3, #-412]!	; 0xfffffe64
    1f4c:	2d6d7261 	sfmcs	f7, 2, [sp, #-388]!	; 0xfffffe7c
    1f50:	656e6f6e 	strbvs	r6, [lr, #-3950]!	; 0xfffff092
    1f54:	6261652d 	rsbvs	r6, r1, #188743680	; 0xb400000
    1f58:	30312d69 	eorscc	r2, r1, r9, ror #26
    1f5c:	322d332e 	eorcc	r3, sp, #-1207959552	; 0xb8000000
    1f60:	2e313230 	mrccs	2, 1, r3, cr1, cr0, {1}
    1f64:	6c2f3031 	stcvs	0, cr3, [pc], #-196	; 1ea8 <__code_start__-0x6158>
    1f68:	672f6269 	strvs	r6, [pc, -r9, ror #4]!
    1f6c:	612f6363 			; <UNDEFINED> instruction: 0x612f6363
    1f70:	6e2d6d72 	mcrvs	13, 1, r6, cr13, cr2, {3}
    1f74:	2d656e6f 	stclcs	14, cr6, [r5, #-444]!	; 0xfffffe44
    1f78:	69626165 	stmdbvs	r2!, {r0, r2, r5, r6, r8, sp, lr}^
    1f7c:	2e30312f 	rsfcssp	f3, f0, #10.0
    1f80:	2f312e33 	svccs	0x00312e33
    1f84:	6c636e69 	stclvs	14, cr6, [r3], #-420	; 0xfffffe5c
    1f88:	00656475 	rsbeq	r6, r5, r5, ror r4
    1f8c:	69706700 	ldmdbvs	r0!, {r8, r9, sl, sp, lr}^
    1f90:	00632e6f 	rsbeq	r2, r3, pc, ror #28
    1f94:	72000000 	andvc	r0, r0, #0, 0
    1f98:	682e6970 	stmdavs	lr!, {r4, r5, r6, r8, fp, sp, lr}
    1f9c:	00000100 	andeq	r0, r0, r0, lsl #2
    1fa0:	69647473 	stmdbvs	r4!, {r0, r1, r4, r5, r6, sl, ip, sp, lr}^
    1fa4:	672d746e 	strvs	r7, [sp, -lr, ror #8]!
    1fa8:	682e6363 	stmdavs	lr!, {r0, r1, r5, r6, r8, r9, sp, lr}
    1fac:	00000200 	andeq	r0, r0, r0, lsl #4
    1fb0:	6f697067 	svcvs	0x00697067
    1fb4:	0100682e 	tsteq	r0, lr, lsr #16
    1fb8:	05000000 	streq	r0, [r0, #-0]
    1fbc:	02050038 	andeq	r0, r5, #56, 0	; 0x38
    1fc0:	000096ac 	andeq	r9, r0, ip, lsr #13
    1fc4:	05012703 	streq	r2, [r1, #-1795]	; 0xfffff8fd
    1fc8:	07051305 	streq	r1, [r5, -r5, lsl #6]
    1fcc:	38050106 	stmdacc	r5, {r1, r2, r8}
    1fd0:	06050549 	streq	r0, [r5], -r9, asr #10
    1fd4:	0607054d 	streq	r0, [r7], -sp, asr #10
    1fd8:	06050501 	streq	r0, [r5], -r1, lsl #10
    1fdc:	0618054c 	ldreq	r0, [r8], -ip, asr #10
    1fe0:	ba0e0501 	blt	3833ec <__bss_end__+0x378dd4>
    1fe4:	2f060505 	svccs	0x00060505
    1fe8:	01061c05 	tsteq	r6, r5, lsl #24
    1fec:	2e0e052e 	cfsh32cs	mvfx0, mvfx14, #30
    1ff0:	30060505 	andcc	r0, r6, r5, lsl #10
    1ff4:	01061205 	tsteq	r6, r5, lsl #4
    1ff8:	4b060505 	blmi	183414 <__bss_end__+0x178dfc>
    1ffc:	01060705 	tsteq	r6, r5, lsl #14
    2000:	4b060505 	blmi	18341c <__bss_end__+0x178e04>
    2004:	052e0613 	streq	r0, [lr, #-1555]!	; 0xfffff9ed
    2008:	24054b01 	strcs	r4, [r5], #-2817	; 0xfffff4ff
    200c:	01064c06 	tsteq	r6, r6, lsl #24
    2010:	2f060505 	svccs	0x00060505
    2014:	4b060105 	blmi	182430 <__bss_end__+0x177e18>
    2018:	31062005 	tstcc	r6, r5
    201c:	05130505 	ldreq	r0, [r3, #-1285]	; 0xfffffafb
    2020:	05010607 	streq	r0, [r1, #-1543]	; 0xfffff9f9
    2024:	05054920 	streq	r4, [r5, #-2336]	; 0xfffff6e0
    2028:	66063106 	strvs	r3, [r6], -r6, lsl #2
    202c:	052f0105 	streq	r0, [pc, #-261]!	; 1f2f <__code_start__-0x60d1>
    2030:	054d0621 	strbeq	r0, [sp, #-1569]	; 0xfffff9df
    2034:	07051305 	streq	r1, [r5, -r5, lsl #6]
    2038:	21050106 	tstcs	r5, r6, lsl #2
    203c:	06050549 	streq	r0, [r5], -r9, asr #10
    2040:	05660631 	strbeq	r0, [r6, #-1585]!	; 0xfffff9cf
    2044:	23052f01 	movwcs	r2, #24321	; 0x5f01
    2048:	01064d06 	tsteq	r6, r6, lsl #26
    204c:	2f060505 	svccs	0x00060505
    2050:	4b060105 	blmi	18246c <__bss_end__+0x177e54>
    2054:	31062b05 	tstcc	r6, r5, lsl #22
    2058:	05050106 	streq	r0, [r5, #-262]	; 0xfffffefa
    205c:	07052f06 	streq	r2, [r5, -r6, lsl #30]
    2060:	09050106 	stmdbeq	r5, {r1, r2, r8}
    2064:	2e064b06 	vmlacs.f64	d4, d6, d6
    2068:	01053006 	tsteq	r5, r6
    206c:	1d052f06 	stcne	15, cr2, [r5, #-24]	; 0xffffffe8
    2070:	05053006 	streq	r3, [r5, #-6]
    2074:	06070513 			; <UNDEFINED> instruction: 0x06070513
    2078:	491d0501 	ldmdbmi	sp, {r0, r8, sl}
    207c:	31060505 	tstcc	r6, r5, lsl #10
    2080:	060e0513 			; <UNDEFINED> instruction: 0x060e0513
    2084:	06050501 	streq	r0, [r5], -r1, lsl #10
    2088:	0617052f 	ldreq	r0, [r7], -pc, lsr #10
    208c:	23054a01 	movwcs	r4, #23041	; 0x5a01
    2090:	0502042e 	streq	r0, [r2, #-1070]	; 0xfffffbd2
    2094:	dc030630 	stcle	6, cr0, [r3], {48}	; 0x30
    2098:	01042e00 	tsteq	r4, r0, lsl #28
    209c:	03060c05 	movweq	r0, #27653	; 0x6c05
    20a0:	05017fa4 	streq	r7, [r1, #-4004]	; 0xfffff05c
    20a4:	10052f01 	andne	r2, r5, r1, lsl #30
    20a8:	3201052a 	andcc	r0, r1, #176160768	; 0xa800000
    20ac:	01000402 	tsteq	r0, r2, lsl #8
    20b0:	00020501 	andeq	r0, r2, r1, lsl #10
    20b4:	c9000300 	stmdbgt	r0, {r8, r9}
    20b8:	02000000 	andeq	r0, r0, #0, 0
    20bc:	0d0efb01 	vstreq	d15, [lr, #-4]
    20c0:	01010100 	mrseq	r0, (UNDEF: 17)
    20c4:	00000001 	andeq	r0, r0, r1
    20c8:	01000001 	tsteq	r0, r1
    20cc:	6d6f682f 	stclvs	8, cr6, [pc, #-188]!	; 2018 <__code_start__-0x5fe8>
    20d0:	6e652f65 	cdpvs	15, 6, cr2, cr5, cr5, {3}
    20d4:	72656c67 	rsbvc	r6, r5, #26368	; 0x6700
    20d8:	616c632f 	cmnvs	ip, pc, lsr #6
    20dc:	632f7373 			; <UNDEFINED> instruction: 0x632f7373
    20e0:	30343273 	eorscc	r3, r4, r3, ror r2
    20e4:	322d786c 	eorcc	r7, sp, #108, 16	; 0x6c0000
    20e8:	72707332 	rsbsvc	r7, r0, #-939524096	; 0xc8000000
    20ec:	696c2f2f 	stmdbvs	ip!, {r0, r1, r2, r3, r5, r8, r9, sl, fp, sp}^
    20f0:	2f697062 	svccs	0x00697062
    20f4:	6c636e69 	stclvs	14, cr6, [r3], #-420	; 0xfffffe5c
    20f8:	00656475 	rsbeq	r6, r5, r5, ror r4
    20fc:	7273752f 	rsbsvc	r7, r3, #197132288	; 0xbc00000
    2100:	6168732f 	cmnvs	r8, pc, lsr #6
    2104:	672f6572 			; <UNDEFINED> instruction: 0x672f6572
    2108:	612d6363 			; <UNDEFINED> instruction: 0x612d6363
    210c:	6e2d6d72 	mcrvs	13, 1, r6, cr13, cr2, {3}
    2110:	2d656e6f 	stclcs	14, cr6, [r5, #-444]!	; 0xfffffe44
    2114:	69626165 	stmdbvs	r2!, {r0, r2, r5, r6, r8, sp, lr}^
    2118:	2e30312d 	rsfcssp	f3, f0, #5.0
    211c:	30322d33 	eorscc	r2, r2, r3, lsr sp
    2120:	312e3132 			; <UNDEFINED> instruction: 0x312e3132
    2124:	696c2f30 	stmdbvs	ip!, {r4, r5, r8, r9, sl, fp, sp}^
    2128:	63672f62 	cmnvs	r7, #392	; 0x188
    212c:	72612f63 	rsbvc	r2, r1, #396	; 0x18c
    2130:	6f6e2d6d 	svcvs	0x006e2d6d
    2134:	652d656e 	strvs	r6, [sp, #-1390]!	; 0xfffffa92
    2138:	2f696261 	svccs	0x00696261
    213c:	332e3031 			; <UNDEFINED> instruction: 0x332e3031
    2140:	692f312e 	stmdbvs	pc!, {r1, r2, r3, r5, r8, ip, sp}	; <UNPREDICTABLE>
    2144:	756c636e 	strbvc	r6, [ip, #-878]!	; 0xfffffc92
    2148:	00006564 	andeq	r6, r0, r4, ror #10
    214c:	74726175 	ldrbtvc	r6, [r2], #-373	; 0xfffffe8b
    2150:	0000632e 	andeq	r6, r0, lr, lsr #6
    2154:	61750000 	cmnvs	r5, r0
    2158:	682e7472 	stmdavs	lr!, {r1, r4, r5, r6, sl, ip, sp, lr}
    215c:	00000100 	andeq	r0, r0, r0, lsl #2
    2160:	2e697072 	mcrcs	0, 3, r7, cr9, cr2, {3}
    2164:	00010068 	andeq	r0, r1, r8, rrx
    2168:	69706700 	ldmdbvs	r0!, {r8, r9, sl, sp, lr}^
    216c:	00682e6f 	rsbeq	r2, r8, pc, ror #28
    2170:	73000001 	movwvc	r0, #1
    2174:	6e696474 	mcrvs	4, 3, r6, cr9, cr4, {3}
    2178:	63672d74 	cmnvs	r7, #116, 26	; 0x1d00
    217c:	00682e63 	rsbeq	r2, r8, r3, ror #28
    2180:	00000002 	andeq	r0, r0, r2
    2184:	05003905 	streq	r3, [r0, #-2309]	; 0xfffff6fb
    2188:	0097c802 	addseq	ip, r7, r2, lsl #16
    218c:	01300300 	teqeq	r0, r0, lsl #6
    2190:	05050106 	streq	r0, [r5, #-262]	; 0xfffffefa
    2194:	11056706 	tstne	r5, r6, lsl #14
    2198:	05050106 	streq	r0, [r5, #-262]	; 0xfffffefa
    219c:	6701052e 	strvs	r0, [r1, -lr, lsr #10]
    21a0:	29063805 	stmdbcs	r6, {r0, r2, fp, ip, sp}
    21a4:	05050106 	streq	r0, [r5, #-262]	; 0xfffffefa
    21a8:	11056706 	tstne	r5, r6, lsl #14
    21ac:	05050106 	streq	r0, [r5, #-262]	; 0xfffffefa
    21b0:	6701052e 	strvs	r0, [r1, -lr, lsr #10]
    21b4:	03061605 	movweq	r1, #26117	; 0x6605
    21b8:	05052e15 	streq	r2, [r5, #-3605]	; 0xfffff1eb
    21bc:	35686735 	strbcc	r6, [r8, #-1845]!	; 0xfffff8cb
    21c0:	2e0c0368 	cdpcs	3, 0, cr0, cr12, cr8, {3}
    21c4:	69696b85 	stmdbvs	r9!, {r0, r2, r7, r8, r9, fp, sp, lr}^
    21c8:	13660c03 	cmnne	r6, #768	; 0x300
    21cc:	0105676b 	tsteq	r5, fp, ror #14
    21d0:	19052f06 	stmdbne	r5, {r1, r2, r8, r9, sl, fp, sp}
    21d4:	05250806 	streq	r0, [r5, #-2054]!	; 0xfffff7fa
    21d8:	0d053405 	cfstrseq	mvf3, [r5, #-20]	; 0xffffffec
    21dc:	01050106 	tsteq	r5, r6, lsl #2
    21e0:	0619054c 	ldreq	r0, [r9], -ip, asr #10
    21e4:	36050567 	strcc	r0, [r5], -r7, ror #10
    21e8:	01060d05 	tsteq	r6, r5, lsl #26
    21ec:	054a2805 	strbeq	r2, [sl, #-2053]	; 0xfffff7fb
    21f0:	15053001 	strne	r3, [r5, #-1]
    21f4:	05058706 	streq	r8, [r5, #-1798]	; 0xfffff8fa
    21f8:	09052f2f 	stmdbeq	r5, {r0, r1, r2, r3, r5, r8, r9, sl, fp, sp}
    21fc:	01040200 	mrseq	r0, R12_usr
    2200:	000a0513 	andeq	r0, sl, r3, lsl r5
    2204:	11010402 	tstne	r1, r2, lsl #8
    2208:	02000c05 	andeq	r0, r0, #1280	; 0x500
    220c:	01060104 	tsteq	r6, r4, lsl #2
    2210:	02000a05 	andeq	r0, r0, #20480	; 0x5000
    2214:	052e0104 	streq	r0, [lr, #-260]!	; 0xfffffefc
    2218:	054c0605 	strbeq	r0, [ip, #-1541]	; 0xfffff9fb
    221c:	0501060e 	streq	r0, [r1, #-1550]	; 0xfffff9f2
    2220:	05054a09 	streq	r4, [r5, #-2569]	; 0xfffff5f7
    2224:	052f2f06 	streq	r2, [pc, #-3846]!	; 1326 <__code_start__-0x6cda>
    2228:	05130601 	ldreq	r0, [r3, #-1537]	; 0xfffff9ff
    222c:	0667061c 			; <UNDEFINED> instruction: 0x0667061c
    2230:	06050501 	streq	r0, [r5], -r1, lsl #10
    2234:	09052f4b 	stmdbeq	r5, {r0, r1, r3, r6, r8, r9, sl, fp, sp}
    2238:	01040200 	mrseq	r0, R12_usr
    223c:	000a0513 	andeq	r0, sl, r3, lsl r5
    2240:	11010402 	tstne	r1, r2, lsl #8
    2244:	02000c05 	andeq	r0, r0, #1280	; 0x500
    2248:	01060104 	tsteq	r6, r4, lsl #2
    224c:	02000a05 	andeq	r0, r0, #20480	; 0x5000
    2250:	052e0104 	streq	r0, [lr, #-260]!	; 0xfffffefc
    2254:	674c0605 	strbvs	r0, [ip, -r5, lsl #12]
    2258:	2f060105 	svccs	0x00060105
    225c:	4c061905 			; <UNDEFINED> instruction: 0x4c061905
    2260:	052e1b05 	streq	r1, [lr, #-2821]!	; 0xfffff4fb
    2264:	31052e2a 	tstcc	r5, sl, lsr #28
    2268:	42050106 	andmi	r0, r5, #-2147483647	; 0x80000001
    226c:	061c052e 	ldreq	r0, [ip], -lr, lsr #10
    2270:	2f050531 	svccs	0x00050531
    2274:	052e0903 	streq	r0, [lr, #-2307]!	; 0xfffff6fd
    2278:	0501060e 	streq	r0, [r1, #-1550]	; 0xfffff9f2
    227c:	01054a21 	tsteq	r5, r1, lsr #20
    2280:	052e0a03 	streq	r0, [lr, #-2563]!	; 0xfffff5fd
    2284:	0568061a 	strbeq	r0, [r8, #-1562]!	; 0xfffff9e6
    2288:	04020009 	streq	r0, [r2], #-9
    228c:	0a053001 	beq	14e298 <__bss_end__+0x143c80>
    2290:	01040200 	mrseq	r0, R12_usr
    2294:	000c0511 	andeq	r0, ip, r1, lsl r5
    2298:	06010402 	streq	r0, [r1], -r2, lsl #8
    229c:	000a0501 	andeq	r0, sl, r1, lsl #10
    22a0:	2e010402 	cdpcs	4, 0, cr0, cr1, cr2, {0}
    22a4:	03061905 	movweq	r1, #26885	; 0x6905
    22a8:	05667ee8 	strbeq	r7, [r6, #-3816]!	; 0xfffff118
    22ac:	2f2f2f05 	svccs	0x002f2f05
    22b0:	06010567 	streq	r0, [r1], -r7, ror #10
    22b4:	0004022f 	andeq	r0, r4, pc, lsr #4
    22b8:	03930101 	orrseq	r0, r3, #1073741824	; 0x40000000
    22bc:	00030000 	andeq	r0, r3, r0
    22c0:	000000b8 	strheq	r0, [r0], -r8
    22c4:	0efb0102 	cdpeq	1, 15, cr0, cr11, cr2, {0}
    22c8:	0101000d 	tsteq	r1, sp
    22cc:	00000101 	andeq	r0, r0, r1, lsl #2
    22d0:	00000100 	andeq	r0, r0, r0, lsl #2
    22d4:	6f682f01 	svcvs	0x00682f01
    22d8:	652f656d 	strvs	r6, [pc, #-1389]!	; 1d73 <__code_start__-0x628d>
    22dc:	656c676e 	strbvs	r6, [ip, #-1902]!	; 0xfffff892
    22e0:	6c632f72 	stclvs	15, cr2, [r3], #-456	; 0xfffffe38
    22e4:	2f737361 	svccs	0x00737361
    22e8:	34327363 	ldrtcc	r7, [r2], #-867	; 0xfffffc9d
    22ec:	2d786c30 	ldclcs	12, cr6, [r8, #-192]!	; 0xffffff40
    22f0:	70733232 	rsbsvc	r3, r3, r2, lsr r2
    22f4:	6c2f2f72 	stcvs	15, cr2, [pc], #-456	; 2134 <__code_start__-0x5ecc>
    22f8:	69706269 	ldmdbvs	r0!, {r0, r3, r5, r6, r9, sp, lr}^
    22fc:	636e692f 	cmnvs	lr, #770048	; 0xbc000
    2300:	6564756c 	strbvs	r7, [r4, #-1388]!	; 0xfffffa94
    2304:	73752f00 	cmnvc	r5, #0, 30
    2308:	68732f72 	ldmdavs	r3!, {r1, r4, r5, r6, r8, r9, sl, fp, sp}^
    230c:	2f657261 	svccs	0x00657261
    2310:	2d636367 	stclcs	3, cr6, [r3, #-412]!	; 0xfffffe64
    2314:	2d6d7261 	sfmcs	f7, 2, [sp, #-388]!	; 0xfffffe7c
    2318:	656e6f6e 	strbvs	r6, [lr, #-3950]!	; 0xfffff092
    231c:	6261652d 	rsbvs	r6, r1, #188743680	; 0xb400000
    2320:	30312d69 	eorscc	r2, r1, r9, ror #26
    2324:	322d332e 	eorcc	r3, sp, #-1207959552	; 0xb8000000
    2328:	2e313230 	mrccs	2, 1, r3, cr1, cr0, {1}
    232c:	6c2f3031 	stcvs	0, cr3, [pc], #-196	; 2270 <__code_start__-0x5d90>
    2330:	672f6269 	strvs	r6, [pc, -r9, ror #4]!
    2334:	612f6363 			; <UNDEFINED> instruction: 0x612f6363
    2338:	6e2d6d72 	mcrvs	13, 1, r6, cr13, cr2, {3}
    233c:	2d656e6f 	stclcs	14, cr6, [r5, #-444]!	; 0xfffffe44
    2340:	69626165 	stmdbvs	r2!, {r0, r2, r5, r6, r8, sp, lr}^
    2344:	2e30312f 	rsfcssp	f3, f0, #10.0
    2348:	2f312e33 	svccs	0x00312e33
    234c:	6c636e69 	stclvs	14, cr6, [r3], #-420	; 0xfffffe5c
    2350:	00656475 	rsbeq	r6, r5, r5, ror r4
    2354:	616d6b00 	cmnvs	sp, r0, lsl #22
    2358:	636f6c6c 	cmnvs	pc, #108, 24	; 0x6c00
    235c:	0000632e 	andeq	r6, r0, lr, lsr #6
    2360:	70720000 	rsbsvc	r0, r2, r0
    2364:	00682e69 	rsbeq	r2, r8, r9, ror #28
    2368:	73000001 	movwvc	r0, #1
    236c:	6e696474 	mcrvs	4, 3, r6, cr9, cr4, {3}
    2370:	63672d74 	cmnvs	r7, #116, 26	; 0x1d00
    2374:	00682e63 	rsbeq	r2, r8, r3, ror #28
    2378:	00000002 	andeq	r0, r0, r2
    237c:	05001e05 	streq	r1, [r0, #-3589]	; 0xfffff1fb
    2380:	0099b802 	addseq	fp, r9, r2, lsl #16
    2384:	01270300 			; <UNDEFINED> instruction: 0x01270300
    2388:	05012005 	streq	r2, [r1, #-5]
    238c:	05010631 	streq	r0, [r1, #-1585]	; 0xfffff9cf
    2390:	05830620 	streq	r0, [r3, #1568]	; 0x620
    2394:	35050122 	strcc	r0, [r5, #-290]	; 0xfffffede
    2398:	1e050106 	adfnes	f0, f5, f6
    239c:	20058306 	andcs	r8, r5, r6, lsl #6
    23a0:	062d0501 	strteq	r0, [sp], -r1, lsl #10
    23a4:	06420501 	strbeq	r0, [r2], -r1, lsl #10
    23a8:	05010685 	streq	r0, [r1, #-1669]	; 0xfffff97b
    23ac:	144b0605 	strbne	r0, [fp], #-1541	; 0xfffff9fb
    23b0:	002e0601 	eoreq	r0, lr, r1, lsl #12
    23b4:	06020402 	streq	r0, [r2], -r2, lsl #8
    23b8:	0402002e 	streq	r0, [r2], #-46	; 0xffffffd2
    23bc:	02000102 	andeq	r0, r0, #-2147483648	; 0x80000000
    23c0:	05150204 	ldreq	r0, [r5, #-516]	; 0xfffffdfc
    23c4:	0402000d 	streq	r0, [r2], #-13
    23c8:	05010602 	streq	r0, [r1, #-1538]	; 0xfffff9fe
    23cc:	04020007 	streq	r0, [r2], #-7
    23d0:	09054a02 	stmdbeq	r5, {r1, r9, fp, lr}
    23d4:	05054b06 	streq	r4, [r5, #-2822]	; 0xfffff4fa
    23d8:	06170515 			; <UNDEFINED> instruction: 0x06170515
    23dc:	4a100501 	bmi	4037e8 <__bss_end__+0x3f91d0>
    23e0:	2f060505 	svccs	0x00060505
    23e4:	01061b05 	tsteq	r6, r5, lsl #22
    23e8:	052e0e05 	streq	r0, [lr, #-3589]!	; 0xfffff1fb
    23ec:	05052f01 	streq	r2, [r5, #-3841]	; 0xfffff0ff
    23f0:	01040200 	mrseq	r0, R12_usr
    23f4:	4a770306 	bmi	1dc3014 <__bss_end__+0x1db89fc>
    23f8:	01040200 	mrseq	r0, R12_usr
    23fc:	04020001 	streq	r0, [r2], #-1
    2400:	009e0601 	addseq	r0, lr, r1, lsl #12
    2404:	2e010402 	cdpcs	4, 0, cr0, cr1, cr2, {0}
    2408:	01040200 	mrseq	r0, R12_usr
    240c:	09052e06 	stmdbeq	r5, {r1, r2, r9, sl, fp, sp}
    2410:	d6060132 			; <UNDEFINED> instruction: 0xd6060132
    2414:	052e062e 	streq	r0, [lr, #-1582]!	; 0xfffff9d2
    2418:	0505de19 	streq	sp, [r5, #-3609]	; 0xfffff1e7
    241c:	0805142f 	stmdaeq	r5, {r0, r1, r2, r3, r5, sl, ip}
    2420:	07050106 	streq	r0, [r5, -r6, lsl #2]
    2424:	0609054a 	streq	r0, [r9], -sl, asr #10
    2428:	1305054b 	movwne	r0, #21835	; 0x554b
    242c:	01060c05 	tsteq	r6, r5, lsl #24
    2430:	67060505 	strvs	r0, [r6, -r5, lsl #10]
    2434:	06010513 			; <UNDEFINED> instruction: 0x06010513
    2438:	06090567 	streq	r0, [r9], -r7, ror #10
    243c:	059e012a 	ldreq	r0, [lr, #298]	; 0x12a
    2440:	0106a528 	tsteq	r6, r8, lsr #10
    2444:	4b060505 	blmi	183860 <__bss_end__+0x179248>
    2448:	062e0601 	strteq	r0, [lr], -r1, lsl #12
    244c:	0513012e 	ldreq	r0, [r3, #-302]	; 0xfffffed2
    2450:	01470318 	cmpeq	r7, r8, lsl r3
    2454:	01130505 	tsteq	r3, r5, lsl #10
    2458:	0f060106 	svceq	0x00060106
    245c:	05130115 	ldreq	r0, [r3, #-277]	; 0xfffffeeb
    2460:	0501060e 	streq	r0, [r1, #-1550]	; 0xfffff9f2
    2464:	052e2e16 	streq	r2, [lr, #-3606]!	; 0xfffff1ea
    2468:	39030605 	stmdbcc	r3, {r0, r2, r9, sl}
    246c:	060b0501 	streq	r0, [fp], -r1, lsl #10
    2470:	06050501 	streq	r0, [r5], -r1, lsl #10
    2474:	060a054b 	streq	r0, [sl], -fp, asr #10
    2478:	06050501 	streq	r0, [r5], -r1, lsl #10
    247c:	060d054b 	streq	r0, [sp], -fp, asr #10
    2480:	2e070501 	cfsh32cs	mvfx0, mvfx7, #1
    2484:	054d0105 	strbeq	r0, [sp, #-261]	; 0xfffffefb
    2488:	04020005 	streq	r0, [r2], #-5
    248c:	78030601 	stmdavc	r3, {r0, r9, sl}
    2490:	0402004a 	streq	r0, [r2], #-74	; 0xffffffb6
    2494:	02000101 	andeq	r0, r0, #1073741824	; 0x40000000
    2498:	ba060104 	blt	1828b0 <__bss_end__+0x178298>
    249c:	01040200 	mrseq	r0, R12_usr
    24a0:	09052e06 	stmdbeq	r5, {r1, r2, r9, sl, fp, sp}
    24a4:	82060134 	andhi	r0, r6, #13
    24a8:	052e0666 	streq	r0, [lr, #-1638]!	; 0xfffff99a
    24ac:	0106db20 	tsteq	r6, r0, lsr #22
    24b0:	4b060505 	blmi	1838cc <__bss_end__+0x1792b4>
    24b4:	04020001 	streq	r0, [r2], #-1
    24b8:	02004a02 	andeq	r4, r0, #8192	; 0x2000
    24bc:	00010204 	andeq	r0, r1, r4, lsl #4
    24c0:	13020402 	movwne	r0, #9218	; 0x2402
    24c4:	02001205 	andeq	r1, r0, #1342177280	; 0x50000000
    24c8:	01060204 	tsteq	r6, r4, lsl #4
    24cc:	02040200 	andeq	r0, r4, #0, 4
    24d0:	0402002e 	streq	r0, [r2], #-46	; 0xffffffd2
    24d4:	05052e02 	streq	r2, [r5, #-3586]	; 0xfffff1fe
    24d8:	02040200 	andeq	r0, r4, #0, 4
    24dc:	02002f06 	andeq	r2, r0, #6, 30
    24e0:	05670204 	strbeq	r0, [r7, #-516]!	; 0xfffffdfc
    24e4:	04020001 	streq	r0, [r2], #-1
    24e8:	05130602 	ldreq	r0, [r3, #-1538]	; 0xfffff9fe
    24ec:	04020005 	streq	r0, [r2], #-5
    24f0:	00620601 	rsbeq	r0, r2, r1, lsl #12
    24f4:	01010402 	tsteq	r1, r2, lsl #8
    24f8:	01040200 	mrseq	r0, R12_usr
    24fc:	0200ba06 	andeq	fp, r0, #24576	; 0x6000
    2500:	2e060104 	adfcss	f0, f6, f4
    2504:	0a033c05 	beq	d1520 <__bss_end__+0xc6f08>
    2508:	0501069e 	streq	r0, [r1, #-1694]	; 0xfffff962
    250c:	014b0605 	cmpeq	fp, r5, lsl #12
    2510:	2e062e06 	cdpcs	14, 0, cr2, cr6, cr6, {0}
    2514:	05011301 	streq	r1, [r1, #-769]	; 0xfffffcff
    2518:	7fad0318 	svcvc	0x00ad0318
    251c:	13050501 	movwne	r0, #21761	; 0x5501
    2520:	01061105 	tsteq	r6, r5, lsl #2
    2524:	0305052e 	movweq	r0, #21806	; 0x552e
    2528:	060100d2 			; <UNDEFINED> instruction: 0x060100d2
    252c:	1805134a 	stmdane	r5, {r1, r3, r6, r8, r9, ip}
    2530:	017fa303 	cmneq	pc, r3, lsl #6
    2534:	05130505 	ldreq	r0, [r3, #-1285]	; 0xfffffafb
    2538:	4a010616 	bmi	43d98 <__bss_end__+0x39780>
    253c:	03060505 	movweq	r0, #25861	; 0x6505
    2540:	050100e1 	streq	r0, [r1, #-225]	; 0xffffff1f
    2544:	05010612 	streq	r0, [r1, #-1554]	; 0xfffff9ee
    2548:	054b0605 	strbeq	r0, [fp, #-1541]	; 0xfffff9fb
    254c:	7fa90318 	svcvc	0x00a90318
    2550:	13050501 	movwne	r0, #21761	; 0x5501
    2554:	0e180501 	cfmul32eq	mvfx0, mvfx8, mvfx1
    2558:	05130505 	ldreq	r0, [r3, #-1285]	; 0xfffffafb
    255c:	2e010611 	mcrcs	6, 0, r0, cr1, cr1, {0}
    2560:	06150505 	ldreq	r0, [r5], -r5, lsl #10
    2564:	0513014a 	ldreq	r0, [r3, #-330]	; 0xfffffeb6
    2568:	2e01060e 	cfmadd32cs	mvax0, mvfx0, mvfx1, mvfx14
    256c:	2e2e1605 	cfmadda32cs	mvax0, mvax1, mvfx14, mvfx5
    2570:	03060505 	movweq	r0, #25861	; 0x6505
    2574:	010100d6 	ldrdeq	r0, [r1, -r6]
    2578:	9f031805 	svcls	0x00031805
    257c:	0505017f 	streq	r0, [r5, #-383]	; 0xfffffe81
    2580:	06190513 			; <UNDEFINED> instruction: 0x06190513
    2584:	05052e01 	streq	r2, [r5, #-3585]	; 0xfffff1ff
    2588:	0100e003 	tsteq	r0, r3
    258c:	02040200 	andeq	r0, r4, #0, 4
    2590:	02004a06 	andeq	r4, r0, #24576	; 0x6000
    2594:	05140204 	ldreq	r0, [r4, #-516]	; 0xfffffdfc
    2598:	0402000a 	streq	r0, [r2], #-10
    259c:	05010602 	streq	r0, [r1, #-1538]	; 0xfffff9fe
    25a0:	04020005 	streq	r0, [r2], #-5
    25a4:	054b0602 	strbeq	r0, [fp, #-1538]	; 0xfffff9fe
    25a8:	0402000c 	streq	r0, [r2], #-12
    25ac:	05010602 	streq	r0, [r1, #-1538]	; 0xfffff9fe
    25b0:	04020001 	streq	r0, [r2], #-1
    25b4:	05052f02 	streq	r2, [r5, #-3842]	; 0xfffff0fe
    25b8:	01040200 	mrseq	r0, R12_usr
    25bc:	4a730306 	bmi	1cc31dc <__bss_end__+0x1cb8bc4>
    25c0:	01040200 	mrseq	r0, R12_usr
    25c4:	04020001 	streq	r0, [r2], #-1
    25c8:	009e0601 	addseq	r0, lr, r1, lsl #12
    25cc:	2e010402 	cdpcs	4, 0, cr0, cr1, cr2, {0}
    25d0:	01040200 	mrseq	r0, R12_usr
    25d4:	02002e06 	andeq	r2, r0, #96	; 0x60
    25d8:	002f0104 	eoreq	r0, pc, r4, lsl #2
    25dc:	2e010402 	cdpcs	4, 0, cr0, cr1, cr2, {0}
    25e0:	01040200 	mrseq	r0, R12_usr
    25e4:	7fb103d6 	svcvc	0x00b103d6
    25e8:	8206012e 	andhi	r0, r6, #-2147483637	; 0x8000000b
    25ec:	2e062e2e 	cdpcs	14, 0, cr2, cr6, cr14, {1}
    25f0:	02002e06 	andeq	r2, r0, #96	; 0x60
    25f4:	03060104 	movweq	r0, #24836	; 0x6104
    25f8:	000100d7 	ldrdeq	r0, [r1], -r7
    25fc:	2e010402 	cdpcs	4, 0, cr0, cr1, cr2, {0}
    2600:	01040200 	mrseq	r0, R12_usr
    2604:	081505d6 	ldmdaeq	r5, {r1, r2, r4, r6, r7, r8, sl}
    2608:	0117057b 	tsteq	r7, fp, ror r5
    260c:	05311605 	ldreq	r1, [r1, #-1541]!	; 0xfffff9fb
    2610:	1d050118 	stfnes	f0, [r5, #-96]	; 0xffffffa0
    2614:	2b050106 	blcs	142a34 <__bss_end__+0x13841c>
    2618:	06190566 	ldreq	r0, [r9], -r6, ror #10
    261c:	1305054d 	movwne	r0, #21837	; 0x554d
    2620:	01060c05 	tsteq	r6, r5, lsl #24
    2624:	054a0705 	strbeq	r0, [sl, #-1797]	; 0xfffff8fb
    2628:	04020025 	streq	r0, [r2], #-37	; 0xffffffdb
    262c:	1e054a01 	vmlane.f32	s8, s10, s2
    2630:	01040200 	mrseq	r0, R12_usr
    2634:	0609054a 	streq	r0, [r9], -sl, asr #10
    2638:	1305054b 	movwne	r0, #21835	; 0x554b
    263c:	01060a05 	tsteq	r6, r5, lsl #20
    2640:	05631905 	strbeq	r1, [r3, #-2309]!	; 0xfffff6fb
    2644:	014c0609 	cmpeq	ip, r9, lsl #12
    2648:	2e069e06 	cdpcs	14, 0, cr9, cr6, cr6, {0}
    264c:	01000a02 	tsteq	r0, r2, lsl #20
    2650:	0000be01 	andeq	fp, r0, r1, lsl #28
    2654:	80000300 	andhi	r0, r0, r0, lsl #6
    2658:	02000000 	andeq	r0, r0, #0, 0
    265c:	0d0efb01 	vstreq	d15, [lr, #-4]
    2660:	01010100 	mrseq	r0, (UNDEF: 17)
    2664:	00000001 	andeq	r0, r0, r1
    2668:	01000001 	tsteq	r0, r1
    266c:	696c2f2e 	stmdbvs	ip!, {r1, r2, r3, r5, r8, r9, sl, fp, sp}^
    2670:	2f006362 	svccs	0x00006362
    2674:	72657355 	rsbvc	r7, r5, #1409286145	; 0x54000001
    2678:	72742f73 	rsbsvc	r2, r4, #460	; 0x1cc
    267c:	65747369 	ldrbvs	r7, [r4, #-873]!	; 0xfffffc97
    2680:	6c6f6e6e 	stclvs	14, cr6, [pc], #-440	; 24d0 <__code_start__-0x5b30>
    2684:	6e616d6c 	cdpvs	13, 6, cr6, cr1, cr12, {3}
    2688:	636f442f 	cmnvs	pc, #788529152	; 0x2f000000
    268c:	6e656d75 	mcrvs	13, 3, r6, cr5, cr5, {3}
    2690:	532f7374 			; <UNDEFINED> instruction: 0x532f7374
    2694:	6e697270 	mcrvs	2, 3, r7, cr9, cr0, {3}
    2698:	75515f67 	ldrbvc	r5, [r1, #-3943]	; 0xfffff099
    269c:	65747261 	ldrbvs	r7, [r4, #-609]!	; 0xfffffd9f
    26a0:	30325f72 	eorscc	r5, r2, r2, ror pc
    26a4:	432f3232 			; <UNDEFINED> instruction: 0x432f3232
    26a8:	30343253 	eorscc	r3, r4, r3, asr r2
    26ac:	732d584c 			; <UNDEFINED> instruction: 0x732d584c
    26b0:	32327270 	eorscc	r7, r2, #112, 4
    26b4:	62696c2f 	rsbvs	r6, r9, #12032	; 0x2f00
    26b8:	692f6970 	stmdbvs	pc!, {r4, r5, r6, r8, fp, sp, lr}	; <UNPREDICTABLE>
    26bc:	756c636e 	strbvc	r6, [ip, #-878]!	; 0xfffffc92
    26c0:	00006564 	andeq	r6, r0, r4, ror #10
    26c4:	63747570 	cmnvs	r4, #112, 10	; 0x1c000000
    26c8:	2e726168 	rpwcssz	f6, f2, #0.0
    26cc:	00010063 	andeq	r0, r1, r3, rrx
    26d0:	69707200 	ldmdbvs	r0!, {r9, ip, sp, lr}^
    26d4:	0200682e 	andeq	r6, r0, #3014656	; 0x2e0000
    26d8:	05000000 	streq	r0, [r0, #-0]
    26dc:	02050024 	andeq	r0, r5, #36, 0	; 0x24
    26e0:	00009d68 	andeq	r9, r0, r8, ror #26
    26e4:	05010614 	streq	r0, [r1, #-1556]	; 0xfffff9ec
    26e8:	054a0626 	strbeq	r0, [sl, #-1574]	; 0xfffff9da
    26ec:	01052e34 	tsteq	r5, r4, lsr lr
    26f0:	1b050106 	blne	142b10 <__bss_end__+0x1384f8>
    26f4:	05054f06 	streq	r4, [r5, #-3846]	; 0xfffff0fa
    26f8:	06110513 			; <UNDEFINED> instruction: 0x06110513
    26fc:	67010501 	strvs	r0, [r1, -r1, lsl #10]
    2700:	67062305 	strvs	r2, [r6, -r5, lsl #6]
    2704:	05130505 	ldreq	r0, [r3, #-1285]	; 0xfffffafb
    2708:	05010611 	streq	r0, [r1, #-1553]	; 0xfffff9ef
    270c:	04024b01 	streq	r4, [r2], #-2817	; 0xfffff4ff
    2710:	0a010100 	beq	42b18 <__bss_end__+0x38500>
    2714:	03000001 	movweq	r0, #1
    2718:	00007f00 	andeq	r7, r0, r0, lsl #30
    271c:	fb010200 	blx	42f26 <__bss_end__+0x3890e>
    2720:	01000d0e 	tsteq	r0, lr, lsl #26
    2724:	00010101 	andeq	r0, r1, r1, lsl #2
    2728:	00010000 	andeq	r0, r1, r0
    272c:	2f2e0100 	svccs	0x002e0100
    2730:	6362696c 	cmnvs	r2, #108, 18	; 0x1b0000
    2734:	73552f00 	cmpvc	r5, #0, 30
    2738:	2f737265 	svccs	0x00737265
    273c:	73697274 	cmnvc	r9, #116, 4	; 0x40000007
    2740:	6e6e6574 	mcrvs	5, 3, r6, cr14, cr4, {3}
    2744:	6d6c6c6f 	stclvs	12, cr6, [ip, #-444]!	; 0xfffffe44
    2748:	442f6e61 	strtmi	r6, [pc], #-3681	; 2750 <__code_start__-0x58b0>
    274c:	6d75636f 	ldclvs	3, cr6, [r5, #-444]!	; 0xfffffe44
    2750:	73746e65 	cmnvc	r4, #1616	; 0x650
    2754:	7270532f 	rsbsvc	r5, r0, #-1140850688	; 0xbc000000
    2758:	5f676e69 	svcpl	0x00676e69
    275c:	72617551 	rsbvc	r7, r1, #339738624	; 0x14400000
    2760:	5f726574 	svcpl	0x00726574
    2764:	32323032 	eorscc	r3, r2, #50, 0	; 0x32
    2768:	3253432f 	subscc	r4, r3, #-1140850688	; 0xbc000000
    276c:	584c3034 	stmdapl	ip, {r2, r4, r5, ip, sp}^
    2770:	7270732d 	rsbsvc	r7, r0, #-1275068416	; 0xb4000000
    2774:	6c2f3232 	sfmvs	f3, 4, [pc], #-200	; 26b4 <__code_start__-0x594c>
    2778:	69706269 	ldmdbvs	r0!, {r0, r3, r5, r6, r9, sp, lr}^
    277c:	636e692f 	cmnvs	lr, #770048	; 0xbc000
    2780:	6564756c 	strbvs	r7, [r4, #-1388]!	; 0xfffffa94
    2784:	74730000 	ldrbtvc	r0, [r3], #-0
    2788:	74616372 	strbtvc	r6, [r1], #-882	; 0xfffffc8e
    278c:	0100632e 	tsteq	r0, lr, lsr #6
    2790:	70720000 	rsbsvc	r0, r2, r0
    2794:	00682e69 	rsbeq	r2, r8, r9, ror #28
    2798:	00000002 	andeq	r0, r0, r2
    279c:	05002c05 	streq	r2, [r0, #-3077]	; 0xfffff3fb
    27a0:	009da402 	addseq	sl, sp, r2, lsl #8
    27a4:	05051500 	streq	r1, [r5, #-1280]	; 0xfffffb00
    27a8:	0b051313 	bleq	1473fc <__bss_end__+0x13cde4>
    27ac:	05051106 	streq	r1, [r5, #-262]	; 0xfffffefa
    27b0:	01040200 	mrseq	r0, R12_usr
    27b4:	02003006 	andeq	r3, r0, #6, 0
    27b8:	05150104 	ldreq	r0, [r5, #-260]	; 0xfffffefc
    27bc:	04020009 	streq	r0, [r2], #-9
    27c0:	10051301 	andne	r1, r5, r1, lsl #6
    27c4:	01040200 	mrseq	r0, R12_usr
    27c8:	0b052e06 	bleq	14dfe8 <__bss_end__+0x1439d0>
    27cc:	01040200 	mrseq	r0, R12_usr
    27d0:	0402002e 	streq	r0, [r2], #-46	; 0xffffffd2
    27d4:	052f0601 	streq	r0, [pc, #-1537]!	; 21db <__code_start__-0x5e25>
    27d8:	04020005 	streq	r0, [r2], #-5
    27dc:	06010601 	streq	r0, [r1], -r1, lsl #12
    27e0:	0608054e 	streq	r0, [r8], -lr, asr #10
    27e4:	00050501 	andeq	r0, r5, r1, lsl #10
    27e8:	06010402 	streq	r0, [r1], -r2, lsl #8
    27ec:	0009052f 	andeq	r0, r9, pc, lsr #10
    27f0:	13010402 	movwne	r0, #5122	; 0x1402
    27f4:	02000b05 	andeq	r0, r0, #5120	; 0x1400
    27f8:	01060104 	tsteq	r6, r4, lsl #2
    27fc:	02000905 	andeq	r0, r0, #81920	; 0x14000
    2800:	4b060104 	blmi	182c18 <__bss_end__+0x178600>
    2804:	02000f05 	andeq	r0, r0, #5, 30
    2808:	01060104 	tsteq	r6, r4, lsl #2
    280c:	02000d05 	andeq	r0, r0, #320	; 0x140
    2810:	2f060104 	svccs	0x00060104
    2814:	02000505 	andeq	r0, r0, #20971520	; 0x1400000
    2818:	01060104 	tsteq	r6, r4, lsl #2
    281c:	01000602 	tsteq	r0, r2, lsl #12
    2820:	0000c301 	andeq	ip, r0, r1, lsl #6
    2824:	7f000300 	svcvc	0x00000300
    2828:	02000000 	andeq	r0, r0, #0, 0
    282c:	0d0efb01 	vstreq	d15, [lr, #-4]
    2830:	01010100 	mrseq	r0, (UNDEF: 17)
    2834:	00000001 	andeq	r0, r0, r1
    2838:	01000001 	tsteq	r0, r1
    283c:	696c2f2e 	stmdbvs	ip!, {r1, r2, r3, r5, r8, r9, sl, fp, sp}^
    2840:	2f006362 	svccs	0x00006362
    2844:	72657355 	rsbvc	r7, r5, #1409286145	; 0x54000001
    2848:	72742f73 	rsbsvc	r2, r4, #460	; 0x1cc
    284c:	65747369 	ldrbvs	r7, [r4, #-873]!	; 0xfffffc97
    2850:	6c6f6e6e 	stclvs	14, cr6, [pc], #-440	; 26a0 <__code_start__-0x5960>
    2854:	6e616d6c 	cdpvs	13, 6, cr6, cr1, cr12, {3}
    2858:	636f442f 	cmnvs	pc, #788529152	; 0x2f000000
    285c:	6e656d75 	mcrvs	13, 3, r6, cr5, cr5, {3}
    2860:	532f7374 			; <UNDEFINED> instruction: 0x532f7374
    2864:	6e697270 	mcrvs	2, 3, r7, cr9, cr0, {3}
    2868:	75515f67 	ldrbvc	r5, [r1, #-3943]	; 0xfffff099
    286c:	65747261 	ldrbvs	r7, [r4, #-609]!	; 0xfffffd9f
    2870:	30325f72 	eorscc	r5, r2, r2, ror pc
    2874:	432f3232 			; <UNDEFINED> instruction: 0x432f3232
    2878:	30343253 	eorscc	r3, r4, r3, asr r2
    287c:	732d584c 			; <UNDEFINED> instruction: 0x732d584c
    2880:	32327270 	eorscc	r7, r2, #112, 4
    2884:	62696c2f 	rsbvs	r6, r9, #12032	; 0x2f00
    2888:	692f6970 	stmdbvs	pc!, {r4, r5, r6, r8, fp, sp, lr}	; <UNPREDICTABLE>
    288c:	756c636e 	strbvc	r6, [ip, #-878]!	; 0xfffffc92
    2890:	00006564 	andeq	r6, r0, r4, ror #10
    2894:	63727473 	cmnvs	r2, #1929379840	; 0x73000000
    2898:	632e706d 			; <UNDEFINED> instruction: 0x632e706d
    289c:	00000100 	andeq	r0, r0, r0, lsl #2
    28a0:	2e697072 	mcrcs	0, 3, r7, cr9, cr2, {3}
    28a4:	00020068 	andeq	r0, r2, r8, rrx
    28a8:	2a050000 	bcs	1428b0 <__bss_end__+0x138298>
    28ac:	d8020500 	stmdale	r2, {r8, sl}
    28b0:	1400009d 	strne	r0, [r0], #-157	; 0xffffff63
    28b4:	05130905 	ldreq	r0, [r3, #-2309]	; 0xfffff6fb
    28b8:	1005010f 	andne	r0, r5, pc, lsl #2
    28bc:	0f050106 	svceq	0x00050106
    28c0:	001c052e 	andseq	r0, ip, lr, lsr #10
    28c4:	4a010402 	bmi	438d4 <__bss_end__+0x392bc>
    28c8:	02001305 	andeq	r1, r0, #335544320	; 0x14000000
    28cc:	052e0104 	streq	r0, [lr, #-260]!	; 0xfffffefc
    28d0:	052f0611 	streq	r0, [pc, #-1553]!	; 22c7 <__code_start__-0x5d39>
    28d4:	2e2e0616 	mcrcs	6, 1, r0, cr14, cr6, {0}
    28d8:	2f060905 	svccs	0x00060905
    28dc:	01061505 	tsteq	r6, r5, lsl #10
    28e0:	022f0105 	eoreq	r0, pc, #1073741825	; 0x40000001
    28e4:	01010004 	tsteq	r1, r4
    28e8:	000000c1 	andeq	r0, r0, r1, asr #1
    28ec:	007f0003 	rsbseq	r0, pc, r3
    28f0:	01020000 	mrseq	r0, (UNDEF: 2)
    28f4:	000d0efb 	strdeq	r0, [sp], -fp
    28f8:	01010101 	tsteq	r1, r1, lsl #2
    28fc:	01000000 	mrseq	r0, (UNDEF: 0)
    2900:	2e010000 	cdpcs	0, 0, cr0, cr1, cr0, {0}
    2904:	62696c2f 	rsbvs	r6, r9, #12032	; 0x2f00
    2908:	552f0063 	strpl	r0, [pc, #-99]!	; 28ad <__code_start__-0x5753>
    290c:	73726573 	cmnvc	r2, #482344960	; 0x1cc00000
    2910:	6972742f 	ldmdbvs	r2!, {r0, r1, r2, r3, r5, sl, ip, sp, lr}^
    2914:	6e657473 	mcrvs	4, 3, r7, cr5, cr3, {3}
    2918:	6c6c6f6e 	stclvs	15, cr6, [ip], #-440	; 0xfffffe48
    291c:	2f6e616d 	svccs	0x006e616d
    2920:	75636f44 	strbvc	r6, [r3, #-3908]!	; 0xfffff0bc
    2924:	746e656d 	strbtvc	r6, [lr], #-1389	; 0xfffffa93
    2928:	70532f73 	subsvc	r2, r3, r3, ror pc
    292c:	676e6972 			; <UNDEFINED> instruction: 0x676e6972
    2930:	6175515f 	cmnvs	r5, pc, asr r1
    2934:	72657472 	rsbvc	r7, r5, #1912602624	; 0x72000000
    2938:	3230325f 	eorscc	r3, r0, #-268435451	; 0xf0000005
    293c:	53432f32 	movtpl	r2, #16178	; 0x3f32
    2940:	4c303432 	cfldrsmi	mvf3, [r0], #-200	; 0xffffff38
    2944:	70732d58 	rsbsvc	r2, r3, r8, asr sp
    2948:	2f323272 	svccs	0x00323272
    294c:	7062696c 	rsbvc	r6, r2, ip, ror #18
    2950:	6e692f69 	cdpvs	15, 6, cr2, cr9, cr9, {3}
    2954:	64756c63 	ldrbtvs	r6, [r5], #-3171	; 0xfffff39d
    2958:	73000065 	movwvc	r0, #101	; 0x65
    295c:	70637274 	rsbvc	r7, r3, r4, ror r2
    2960:	00632e79 	rsbeq	r2, r3, r9, ror lr
    2964:	72000001 	andvc	r0, r0, #1, 0
    2968:	682e6970 	stmdavs	lr!, {r4, r5, r6, r8, fp, sp, lr}
    296c:	00000200 	andeq	r0, r0, r0, lsl #4
    2970:	002a0500 	eoreq	r0, sl, r0, lsl #10
    2974:	9e040205 	cdpls	2, 0, cr0, cr4, cr5, {0}
    2978:	05140000 	ldreq	r0, [r4, #-0]
    297c:	05131305 	ldreq	r1, [r3, #-773]	; 0xfffffcfb
    2980:	05110614 	ldreq	r0, [r1, #-1556]	; 0xfffff9ec
    2984:	04020022 	streq	r0, [r2], #-34	; 0xffffffde
    2988:	052f0601 	streq	r0, [pc, #-1537]!	; 238f <__code_start__-0x5c71>
    298c:	0402000b 	streq	r0, [r2], #-11
    2990:	15050101 	strne	r0, [r5, #-257]	; 0xfffffeff
    2994:	01040200 	mrseq	r0, R12_usr
    2998:	13050106 	movwne	r0, #20742	; 0x5106
    299c:	01040200 	mrseq	r0, R12_usr
    29a0:	000b054a 	andeq	r0, fp, sl, asr #10
    29a4:	4a010402 	bmi	439b4 <__bss_end__+0x3939c>
    29a8:	01000602 	tsteq	r0, r2, lsl #12
    29ac:	00012101 	andeq	r2, r1, r1, lsl #2
    29b0:	e5000300 	str	r0, [r0, #-768]	; 0xfffffd00
    29b4:	02000000 	andeq	r0, r0, #0, 0
    29b8:	0d0efb01 	vstreq	d15, [lr, #-4]
    29bc:	01010100 	mrseq	r0, (UNDEF: 17)
    29c0:	00000001 	andeq	r0, r0, r1
    29c4:	01000001 	tsteq	r0, r1
    29c8:	696c2f2e 	stmdbvs	ip!, {r1, r2, r3, r5, r8, r9, sl, fp, sp}^
    29cc:	2f006362 	svccs	0x00006362
    29d0:	72657355 	rsbvc	r7, r5, #1409286145	; 0x54000001
    29d4:	72742f73 	rsbsvc	r2, r4, #460	; 0x1cc
    29d8:	65747369 	ldrbvs	r7, [r4, #-873]!	; 0xfffffc97
    29dc:	6c6f6e6e 	stclvs	14, cr6, [pc], #-440	; 282c <__code_start__-0x57d4>
    29e0:	6e616d6c 	cdpvs	13, 6, cr6, cr1, cr12, {3}
    29e4:	636f442f 	cmnvs	pc, #788529152	; 0x2f000000
    29e8:	6e656d75 	mcrvs	13, 3, r6, cr5, cr5, {3}
    29ec:	532f7374 			; <UNDEFINED> instruction: 0x532f7374
    29f0:	6e697270 	mcrvs	2, 3, r7, cr9, cr0, {3}
    29f4:	75515f67 	ldrbvc	r5, [r1, #-3943]	; 0xfffff099
    29f8:	65747261 	ldrbvs	r7, [r4, #-609]!	; 0xfffffd9f
    29fc:	30325f72 	eorscc	r5, r2, r2, ror pc
    2a00:	432f3232 			; <UNDEFINED> instruction: 0x432f3232
    2a04:	30343253 	eorscc	r3, r4, r3, asr r2
    2a08:	732d584c 			; <UNDEFINED> instruction: 0x732d584c
    2a0c:	32327270 	eorscc	r7, r2, #112, 4
    2a10:	62696c2f 	rsbvs	r6, r9, #12032	; 0x2f00
    2a14:	692f6970 	stmdbvs	pc!, {r4, r5, r6, r8, fp, sp, lr}	; <UNPREDICTABLE>
    2a18:	756c636e 	strbvc	r6, [ip, #-878]!	; 0xfffffc92
    2a1c:	2f006564 	svccs	0x00006564
    2a20:	2f727375 	svccs	0x00727375
    2a24:	61636f6c 	cmnvs	r3, ip, ror #30
    2a28:	65432f6c 	strbvs	r2, [r3, #-3948]	; 0xfffff094
    2a2c:	72616c6c 	rsbvc	r6, r1, #108, 24	; 0x6c00
    2a30:	6d72612f 	ldfvse	f6, [r2, #-188]!	; 0xffffff44
    2a34:	6e6f6e2d 	cdpvs	14, 6, cr6, cr15, cr13, {1}
    2a38:	61652d65 	cmnvs	r5, r5, ror #26
    2a3c:	742d6962 	strtvc	r6, [sp], #-2402	; 0xfffff69e
    2a40:	2f747365 	svccs	0x00747365
    2a44:	30322d39 	eorscc	r2, r2, r9, lsr sp
    2a48:	34713931 	ldrbtcc	r3, [r1], #-2353	; 0xfffff6cf
    2a4c:	3173632d 	cmncc	r3, sp, lsr #6
    2a50:	2f653730 	svccs	0x00653730
    2a54:	2f62696c 	svccs	0x0062696c
    2a58:	2f636367 	svccs	0x00636367
    2a5c:	2d6d7261 	sfmcs	f7, 2, [sp, #-388]!	; 0xfffffe7c
    2a60:	656e6f6e 	strbvs	r6, [lr, #-3950]!	; 0xfffff092
    2a64:	6261652d 	rsbvs	r6, r1, #188743680	; 0xb400000
    2a68:	2e392f69 	cdpcs	15, 3, cr2, cr9, cr9, {3}
    2a6c:	2f312e32 	svccs	0x00312e32
    2a70:	6c636e69 	stclvs	14, cr6, [r3], #-420	; 0xfffffe5c
    2a74:	00656475 	rsbeq	r6, r5, r5, ror r4
    2a78:	72747300 	rsbsvc	r7, r4, #0, 6
    2a7c:	706d636e 	rsbvc	r6, sp, lr, ror #6
    2a80:	0100632e 	tsteq	r0, lr, lsr #6
    2a84:	70720000 	rsbsvc	r0, r2, r0
    2a88:	00682e69 	rsbeq	r2, r8, r9, ror #28
    2a8c:	73000002 	movwvc	r0, #2
    2a90:	65646474 	strbvs	r6, [r4, #-1140]!	; 0xfffffb8c
    2a94:	00682e66 	rsbeq	r2, r8, r6, ror #28
    2a98:	00000003 	andeq	r0, r0, r3
    2a9c:	05003905 	streq	r3, [r0, #-2309]	; 0xfffff6fb
    2aa0:	009e2402 	addseq	r2, lr, r2, lsl #8
    2aa4:	05051500 	streq	r1, [r5, #-1280]	; 0xfffffb00
    2aa8:	0a051313 	beq	1476fc <__bss_end__+0x13d0e4>
    2aac:	4a010601 	bmi	442b8 <__bss_end__+0x39ca0>
    2ab0:	2f060905 	svccs	0x00060905
    2ab4:	01060c05 	tsteq	r6, r5, lsl #24
    2ab8:	052e1305 	streq	r1, [lr, #-773]!	; 0xfffffcfb
    2abc:	0d052e0b 	stceq	14, cr2, [r5, #-44]	; 0xffffffd4
    2ac0:	1b054b06 	blne	1556e0 <__bss_end__+0x14b0c8>
    2ac4:	052e0106 	streq	r0, [lr, #-262]!	; 0xfffffefa
    2ac8:	0105300c 	tsteq	r5, ip
    2acc:	0002022f 	andeq	r0, r2, pc, lsr #4
    2ad0:	00b00101 	adcseq	r0, r0, r1, lsl #2
    2ad4:	00030000 	andeq	r0, r3, r0
    2ad8:	00000094 	muleq	r0, r4, r0
    2adc:	0efb0102 	cdpeq	1, 15, cr0, cr11, cr2, {0}
    2ae0:	0101000d 	tsteq	r1, sp
    2ae4:	00000101 	andeq	r0, r0, r1, lsl #2
    2ae8:	00000100 	andeq	r0, r0, r0, lsl #2
    2aec:	732f2e01 			; <UNDEFINED> instruction: 0x732f2e01
    2af0:	66666174 			; <UNDEFINED> instruction: 0x66666174
    2af4:	6372732d 	cmnvs	r2, #-1275068416	; 0xb4000000
    2af8:	73552f00 	cmpvc	r5, #0, 30
    2afc:	2f737265 	svccs	0x00737265
    2b00:	73697274 	cmnvc	r9, #116, 4	; 0x40000007
    2b04:	6e6e6574 	mcrvs	5, 3, r6, cr14, cr4, {3}
    2b08:	6d6c6c6f 	stclvs	12, cr6, [ip, #-444]!	; 0xfffffe44
    2b0c:	442f6e61 	strtmi	r6, [pc], #-3681	; 2b14 <__code_start__-0x54ec>
    2b10:	6d75636f 	ldclvs	3, cr6, [r5, #-444]!	; 0xfffffe44
    2b14:	73746e65 	cmnvc	r4, #1616	; 0x650
    2b18:	7270532f 	rsbsvc	r5, r0, #-1140850688	; 0xbc000000
    2b1c:	5f676e69 	svcpl	0x00676e69
    2b20:	72617551 	rsbvc	r7, r1, #339738624	; 0x14400000
    2b24:	5f726574 	svcpl	0x00726574
    2b28:	32323032 	eorscc	r3, r2, #50, 0	; 0x32
    2b2c:	3253432f 	subscc	r4, r3, #-1140850688	; 0xbc000000
    2b30:	584c3034 	stmdapl	ip, {r2, r4, r5, ip, sp}^
    2b34:	7270732d 	rsbsvc	r7, r0, #-1275068416	; 0xb4000000
    2b38:	6c2f3232 	sfmvs	f3, 4, [pc], #-200	; 2a78 <__code_start__-0x5588>
    2b3c:	69706269 	ldmdbvs	r0!, {r0, r3, r5, r6, r9, sp, lr}^
    2b40:	636e692f 	cmnvs	lr, #770048	; 0xbc000
    2b44:	6564756c 	strbvs	r7, [r4, #-1388]!	; 0xfffffa94
    2b48:	65640000 	strbvs	r0, [r4, #-0]!
    2b4c:	6c756166 	ldfvse	f6, [r5], #-408	; 0xfffffe68
    2b50:	65722d74 	ldrbvs	r2, [r2, #-3444]!	; 0xfffff28c
    2b54:	746f6f62 	strbtvc	r6, [pc], #-3938	; 2b5c <__code_start__-0x54a4>
    2b58:	6c61632d 	stclvs	3, cr6, [r1], #-180	; 0xffffff4c
    2b5c:	74756f6c 	ldrbtvc	r6, [r5], #-3948	; 0xfffff094
    2b60:	0100632e 	tsteq	r0, lr, lsr #6
    2b64:	70720000 	rsbsvc	r0, r2, r0
    2b68:	00682e69 	rsbeq	r2, r8, r9, ror #28
    2b6c:	00000002 	andeq	r0, r0, r2
    2b70:	05001b05 	streq	r1, [r0, #-2821]	; 0xfffff4fb
    2b74:	009e5002 	addseq	r5, lr, r2
    2b78:	1c051400 	cfstrsne	mvf1, [r5], {-0}
    2b7c:	06010501 	streq	r0, [r1], -r1, lsl #10
    2b80:	00020201 	andeq	r0, r2, r1, lsl #4
    2b84:	Address 0x0000000000002b84 is out of bounds.


Disassembly of section .debug_str:

00000000 <.debug_str>:
   0:	5f6f656e 	svcpl	0x006f656e
   4:	646e6168 	strbtvs	r6, [lr], #-360	; 0xfffffe98
   8:	7000656c 	andvc	r6, r0, ip, ror #10
   c:	6563616c 	strbvs	r6, [r3, #-364]!	; 0xfffffe94
  10:	7275635f 	rsbsvc	r6, r5, #2080374785	; 0x7c000001
  14:	00726f73 	rsbseq	r6, r2, r3, ror pc
  18:	5f786970 	svcpl	0x00786970
  1c:	006e6970 	rsbeq	r6, lr, r0, ror r9
  20:	706d6f63 	rsbvc	r6, sp, r3, ror #30
  24:	61736e65 	cmnvs	r3, r5, ror #28
  28:	6e6f6974 			; <UNDEFINED> instruction: 0x6e6f6974
  2c:	6f656e00 	svcvs	0x00656e00
  30:	5f786970 	svcpl	0x00786970
  34:	74697277 	strbtvc	r7, [r9], #-631	; 0xfffffd89
  38:	6f6e0065 	svcvs	0x006e0065
  3c:	69616d74 	stmdbvs	r1!, {r2, r4, r5, r6, r8, sl, fp, sp, lr}^
  40:	706e006e 	rsbvc	r0, lr, lr, rrx
  44:	6c657869 	stclvs	8, cr7, [r5], #-420	; 0xfffffe5c
  48:	656e0073 	strbvs	r0, [lr, #-115]!	; 0xffffff8d
  4c:	7869706f 	stmdavc	r9!, {r0, r1, r2, r3, r5, r6, ip, sp, lr}^
  50:	696e695f 	stmdbvs	lr!, {r0, r1, r2, r3, r4, r6, r8, fp, sp, lr}^
  54:	6e750074 	mrcvs	0, 3, r0, cr5, cr4, {3}
  58:	6e676973 			; <UNDEFINED> instruction: 0x6e676973
  5c:	63206465 			; <UNDEFINED> instruction: 0x63206465
  60:	00726168 	rsbseq	r6, r2, r8, ror #2
  64:	726f6873 	rsbvc	r6, pc, #7536640	; 0x730000
  68:	6e752074 	mrcvs	0, 3, r2, cr5, cr4, {3}
  6c:	6e676973 			; <UNDEFINED> instruction: 0x6e676973
  70:	69206465 	stmdbvs	r0!, {r0, r2, r5, r6, sl, sp, lr}
  74:	6e00746e 	cdpvs	4, 0, cr7, cr0, cr14, {3}
  78:	69706f65 	ldmdbvs	r0!, {r0, r2, r5, r6, r8, r9, sl, fp, sp, lr}^
  7c:	6c665f78 	stclvs	15, cr5, [r6], #-480	; 0xfffffe20
  80:	00687375 	rsbeq	r7, r8, r5, ror r3
  84:	6f697067 	svcvs	0x00697067
  88:	7465735f 	strbtvc	r7, [r5], #-863	; 0xfffffca1
  8c:	74756f5f 	ldrbtvc	r6, [r5], #-3935	; 0xfffff0a1
  90:	00747570 	rsbseq	r7, r4, r0, ror r5
  94:	656e2d32 	strbvs	r2, [lr, #-3378]!	; 0xfffff2ce
  98:	7869706f 	stmdavc	r9!, {r0, r1, r2, r3, r5, r6, ip, sp, lr}^
  9c:	6c00632e 	stcvs	3, cr6, [r0], {46}	; 0x2e
  a0:	20676e6f 	rsbcs	r6, r7, pc, ror #28
  a4:	676e6f6c 	strbvs	r6, [lr, -ip, ror #30]!
  a8:	736e7520 	cmnvc	lr, #32, 10	; 0x8000000
  ac:	656e6769 	strbvs	r6, [lr, #-1897]!	; 0xfffff897
  b0:	6e692064 	cdpvs	0, 6, cr2, cr9, cr4, {3}
  b4:	656e0074 	strbvs	r0, [lr, #-116]!	; 0xffffff8c
  b8:	00745f6f 	rsbseq	r5, r4, pc, ror #30
  bc:	676e6f6c 	strbvs	r6, [lr, -ip, ror #30]!
  c0:	6e6f6c20 	cdpvs	12, 6, cr6, cr15, cr0, {1}
  c4:	6e692067 	cdpvs	0, 6, cr2, cr9, cr7, {3}
  c8:	70720074 	rsbsvc	r0, r2, r4, ror r0
  cc:	75705f69 	ldrbvc	r5, [r0, #-3945]!	; 0xfffff097
  d0:	61686374 	smcvs	34356	; 0x8634
  d4:	68730072 	ldmdavs	r3!, {r1, r4, r5, r6}^
  d8:	2074726f 	rsbscs	r7, r4, pc, ror #4
  dc:	00746e69 	rsbseq	r6, r4, r9, ror #28
  e0:	62616e65 	rsbvs	r6, r1, #1616	; 0x650
  e4:	635f656c 	cmpvs	pc, #108, 10	; 0x1b000000
  e8:	65686361 	strbvs	r6, [r8, #-865]!	; 0xfffffc9f
  ec:	73552f00 	cmpvc	r5, #0, 30
  f0:	2f737265 	svccs	0x00737265
  f4:	73697274 	cmnvc	r9, #116, 4	; 0x40000007
  f8:	6e6e6574 	mcrvs	5, 3, r6, cr14, cr4, {3}
  fc:	6d6c6c6f 	stclvs	12, cr6, [ip, #-444]!	; 0xfffffe44
 100:	442f6e61 	strtmi	r6, [pc], #-3681	; 108 <__code_start__-0x7ef8>
 104:	6d75636f 	ldclvs	3, cr6, [r5, #-444]!	; 0xfffffe44
 108:	73746e65 	cmnvc	r4, #1616	; 0x650
 10c:	7270532f 	rsbsvc	r5, r0, #-1140850688	; 0xbc000000
 110:	5f676e69 	svcpl	0x00676e69
 114:	72617551 	rsbvc	r7, r1, #339738624	; 0x14400000
 118:	5f726574 	svcpl	0x00726574
 11c:	32323032 	eorscc	r3, r2, #50, 0	; 0x32
 120:	3253432f 	subscc	r4, r3, #-1140850688	; 0xbc000000
 124:	584c3034 	stmdapl	ip, {r2, r4, r5, ip, sp}^
 128:	7270732d 	rsbsvc	r7, r0, #-1275068416	; 0xb4000000
 12c:	6c2f3232 	sfmvs	f3, 4, [pc], #-200	; 6c <__code_start__-0x7f94>
 130:	2f736261 	svccs	0x00736261
 134:	73772d34 	cmnvc	r7, #52, 26	; 0xd00
 138:	32313832 	eorscc	r3, r1, #3276800	; 0x320000
 13c:	6f632f62 	svcvs	0x00632f62
 140:	47006564 	strmi	r6, [r0, -r4, ror #10]
 144:	4320554e 			; <UNDEFINED> instruction: 0x4320554e
 148:	39203939 	stmdbcc	r0!, {r0, r3, r4, r5, r8, fp, ip, sp}
 14c:	312e322e 			; <UNDEFINED> instruction: 0x312e322e
 150:	31303220 	teqcc	r0, r0, lsr #4
 154:	32303139 	eorscc	r3, r0, #1073741838	; 0x4000000e
 158:	72282035 	eorvc	r2, r8, #53, 0	; 0x35
 15c:	61656c65 	cmnvs	r5, r5, ror #24
 160:	20296573 	eorcs	r6, r9, r3, ror r5
 164:	4d52415b 	ldfmie	f4, [r2, #-364]	; 0xfffffe94
 168:	6d72612f 	ldfvse	f6, [r2, #-188]!	; 0xffffff44
 16c:	622d392d 	eorvs	r3, sp, #737280	; 0xb4000
 170:	636e6172 	cmnvs	lr, #-2147483620	; 0x8000001c
 174:	65722068 	ldrbvs	r2, [r2, #-104]!	; 0xffffff98
 178:	69736976 	ldmdbvs	r3!, {r1, r2, r4, r5, r6, r8, fp, sp, lr}^
 17c:	32206e6f 	eorcc	r6, r0, #1776	; 0x6f0
 180:	39353737 	ldmdbcc	r5!, {r0, r1, r2, r4, r5, r8, r9, sl, ip, sp}
 184:	2d205d39 	stccs	13, cr5, [r0, #-228]!	; 0xffffff1c
 188:	7570636d 	ldrbvc	r6, [r0, #-877]!	; 0xfffffc93
 18c:	6d72613d 	ldfvse	f6, [r2, #-244]!	; 0xffffff0c
 190:	36373131 			; <UNDEFINED> instruction: 0x36373131
 194:	2d667a6a 	vstmdbcs	r6!, {s15-s120}
 198:	6d2d2073 	stcvs	0, cr2, [sp, #-460]!	; 0xfffffe34
 19c:	656e7574 	strbvs	r7, [lr, #-1396]!	; 0xfffffa8c
 1a0:	6d72613d 	ldfvse	f6, [r2, #-244]!	; 0xffffff0c
 1a4:	36373131 			; <UNDEFINED> instruction: 0x36373131
 1a8:	2d667a6a 	vstmdbcs	r6!, {s15-s120}
 1ac:	6d2d2073 	stcvs	0, cr2, [sp, #-460]!	; 0xfffffe34
 1b0:	616f6c66 	cmnvs	pc, r6, ror #24
 1b4:	62612d74 	rsbvs	r2, r1, #116, 26	; 0x1d00
 1b8:	6f733d69 	svcvs	0x00733d69
 1bc:	2d207466 	cfstrscs	mvf7, [r0, #-408]!	; 0xfffffe68
 1c0:	6d72616d 	ldfvse	f6, [r2, #-436]!	; 0xfffffe4c
 1c4:	616d2d20 	cmnvs	sp, r0, lsr #26
 1c8:	3d686372 	stclcc	3, cr6, [r8, #-456]!	; 0xfffffe38
 1cc:	766d7261 	strbtvc	r7, [sp], -r1, ror #4
 1d0:	207a6b36 	rsbscs	r6, sl, r6, lsr fp
 1d4:	6467672d 	strbtvs	r6, [r7], #-1837	; 0xfffff8d3
 1d8:	4f2d2062 	svcmi	0x002d2062
 1dc:	732d2067 			; <UNDEFINED> instruction: 0x732d2067
 1e0:	673d6474 			; <UNDEFINED> instruction: 0x673d6474
 1e4:	3939756e 	ldmdbcc	r9!, {r1, r2, r3, r5, r6, r8, sl, ip, sp, lr}
 1e8:	66662d20 	strbtvs	r2, [r6], -r0, lsr #26
 1ec:	73656572 	cmnvc	r5, #478150656	; 0x1c800000
 1f0:	646e6174 	strbtvs	r6, [lr], #-372	; 0xfffffe8c
 1f4:	00676e69 	rsbeq	r6, r7, r9, ror #28
 1f8:	74697277 	strbtvc	r7, [r9], #-631	; 0xfffffd89
 1fc:	00305f65 	eorseq	r5, r0, r5, ror #30
 200:	74697277 	strbtvc	r7, [r9], #-631	; 0xfffffd89
 204:	00315f65 	eorseq	r5, r1, r5, ror #30
 208:	5f6f656e 	svcpl	0x006f656e
 20c:	65786970 	ldrbvs	r6, [r8, #-2416]!	; 0xfffff690
 210:	6f5f006c 	svcvs	0x005f006c
 214:	75007475 	strvc	r7, [r0, #-1141]	; 0xfffffb8b
 218:	38746e69 	ldmdacc	r4!, {r0, r3, r5, r6, r9, sl, fp, sp, lr}^
 21c:	7400745f 	strvc	r7, [r0], #-1119	; 0xfffffba1
 220:	65736572 	ldrbvs	r6, [r3, #-1394]!	; 0xfffffa8e
 224:	656e0074 	strbvs	r0, [lr, #-116]!	; 0xffffff8c
 228:	7869706f 	stmdavc	r9!, {r0, r1, r2, r3, r5, r6, ip, sp, lr}^
 22c:	656c635f 	strbvs	r6, [ip, #-863]!	; 0xfffffca1
 230:	70007261 	andvc	r7, r0, r1, ror #4
 234:	735f7869 	cmpvc	pc, #6881280	; 0x690000
 238:	62646e65 	rsbvs	r6, r4, #1616	; 0x650
 23c:	64007469 	strvs	r7, [r0], #-1129	; 0xfffffb97
 240:	79616c65 	stmdbvc	r1!, {r0, r2, r5, r6, sl, fp, sp, lr}^
 244:	79636e5f 	stmdbvc	r3!, {r0, r1, r2, r3, r4, r6, r9, sl, fp, sp, lr}^
 248:	73656c63 	cmnvc	r5, #25344	; 0x6300
 24c:	6d656d00 	stclvs	13, cr6, [r5, #-0]
 250:	00746573 	rsbseq	r6, r4, r3, ror r5
 254:	79635f6e 	stmdbvc	r3!, {r1, r2, r3, r5, r6, r8, r9, sl, fp, ip, lr}^
 258:	69700063 	ldmdbvs	r0!, {r0, r1, r5, r6}^
 25c:	65735f78 	ldrbvs	r5, [r3, #-3960]!	; 0xfffff088
 260:	7962646e 	stmdbvc	r2!, {r1, r2, r3, r5, r6, sl, sp, lr}^
 264:	73006574 	movwvc	r6, #1396	; 0x574
 268:	74726174 	ldrbtvc	r6, [r2], #-372	; 0xfffffe8c
 26c:	6379635f 	cmnvs	r9, #2080374785	; 0x7c000001
 270:	6e697500 	cdpvs	5, 6, cr7, cr9, cr0, {0}
 274:	5f323374 	svcpl	0x00323374
 278:	706e0074 	rsbvc	r0, lr, r4, ror r0
 27c:	6c657869 	stclvs	8, cr7, [r5], #-420	; 0xfffffe5c
 280:	6f656e00 	svcvs	0x00656e00
 284:	5f786970 	svcpl	0x00786970
 288:	74736166 	ldrbtvc	r6, [r3], #-358	; 0xfffffe9a
 28c:	656c635f 	strbvs	r6, [ip, #-863]!	; 0xfffffca1
 290:	6e007261 	cdpvs	2, 0, cr7, cr0, cr1, {3}
 294:	69706f65 	ldmdbvs	r0!, {r0, r2, r5, r6, r8, r9, sl, fp, sp, lr}^
 298:	2e6c6578 	mcrcs	5, 3, r6, cr12, cr8, {3}
 29c:	70670063 	rsbvc	r0, r7, r3, rrx
 2a0:	735f6f69 	cmpvc	pc, #420	; 0x1a4
 2a4:	6f5f7465 	svcvs	0x005f7465
 2a8:	61725f6e 	cmnvs	r2, lr, ror #30
 2ac:	6d6b0077 	stclvs	0, cr0, [fp, #-476]!	; 0xfffffe24
 2b0:	6f6c6c61 	svcvs	0x006c6c61
 2b4:	70670063 	rsbvc	r0, r7, r3, rrx
 2b8:	735f6f69 	cmpvc	pc, #420	; 0x1a4
 2bc:	6f5f7465 	svcvs	0x005f7465
 2c0:	725f6666 	subsvc	r6, pc, #106954752	; 0x6600000
 2c4:	46007761 	strmi	r7, [r0], -r1, ror #14
 2c8:	4853554c 	ldmdami	r3, {r2, r3, r6, r8, sl, ip, lr}^
 2cc:	6f656e00 	svcvs	0x00656e00
 2d0:	5f786970 	svcpl	0x00786970
 2d4:	646e6573 	strbtvs	r6, [lr], #-1395	; 0xfffffa8d
 2d8:	65786970 	ldrbvs	r6, [r8, #-2416]!	; 0xfffff690
 2dc:	4e47006c 	cdpmi	0, 4, cr0, cr7, cr12, {3}
 2e0:	39432055 	stmdbcc	r3, {r0, r2, r4, r6, sp}^
 2e4:	2e392039 	mrccs	0, 1, r2, cr9, cr9, {1}
 2e8:	20312e32 	eorscs	r2, r1, r2, lsr lr
 2ec:	39313032 	ldmdbcc	r1!, {r1, r4, r5, ip, sp}
 2f0:	35323031 	ldrcc	r3, [r2, #-49]!	; 0xffffffcf
 2f4:	65722820 	ldrbvs	r2, [r2, #-2080]!	; 0xfffff7e0
 2f8:	7361656c 	cmnvc	r1, #108, 10	; 0x1b000000
 2fc:	5b202965 	blpl	80a898 <__bss_end__+0x800280>
 300:	2f4d5241 	svccs	0x004d5241
 304:	2d6d7261 	sfmcs	f7, 2, [sp, #-388]!	; 0xfffffe7c
 308:	72622d39 	rsbvc	r2, r2, #3648	; 0xe40
 30c:	68636e61 	stmdavs	r3!, {r0, r5, r6, r9, sl, fp, sp, lr}^
 310:	76657220 	strbtvc	r7, [r5], -r0, lsr #4
 314:	6f697369 	svcvs	0x00697369
 318:	3732206e 	ldrcc	r2, [r2, -lr, rrx]!
 31c:	39393537 	ldmdbcc	r9!, {r0, r1, r2, r4, r5, r8, sl, ip, sp}
 320:	6d2d205d 	stcvs	0, cr2, [sp, #-372]!	; 0xfffffe8c
 324:	3d757063 	ldclcc	0, cr7, [r5, #-396]!	; 0xfffffe74
 328:	316d7261 	cmncc	sp, r1, ror #4
 32c:	6a363731 	bvs	d8dff8 <__bss_end__+0xd839e0>
 330:	732d667a 			; <UNDEFINED> instruction: 0x732d667a
 334:	746d2d20 	strbtvc	r2, [sp], #-3360	; 0xfffff2e0
 338:	3d656e75 	stclcc	14, cr6, [r5, #-468]!	; 0xfffffe2c
 33c:	316d7261 	cmncc	sp, r1, ror #4
 340:	6a363731 	bvs	d8e00c <__bss_end__+0xd839f4>
 344:	732d667a 			; <UNDEFINED> instruction: 0x732d667a
 348:	666d2d20 	strbtvs	r2, [sp], -r0, lsr #26
 34c:	74616f6c 	strbtvc	r6, [r1], #-3948	; 0xfffff094
 350:	6962612d 	stmdbvs	r2!, {r0, r2, r3, r5, r8, sp, lr}^
 354:	666f733d 			; <UNDEFINED> instruction: 0x666f733d
 358:	6d2d2074 	stcvs	0, cr2, [sp, #-464]!	; 0xfffffe30
 35c:	206d7261 	rsbcs	r7, sp, r1, ror #4
 360:	72616d2d 	rsbvc	r6, r1, #2880	; 0xb40
 364:	613d6863 	teqvs	sp, r3, ror #16
 368:	36766d72 			; <UNDEFINED> instruction: 0x36766d72
 36c:	2d207a6b 	vstmdbcs	r0!, {s14-s120}
 370:	62646767 	rsbvs	r6, r4, #27000832	; 0x19c0000
 374:	67672d20 	strbvs	r2, [r7, -r0, lsr #26]!
 378:	2d206264 	sfmcs	f6, 4, [r0, #-400]!	; 0xfffffe70
 37c:	2d20674f 	stccs	7, cr6, [r0, #-316]!	; 0xfffffec4
 380:	2d20674f 	stccs	7, cr6, [r0, #-316]!	; 0xfffffec4
 384:	3d647473 	cfstrdcc	mvd7, [r4, #-460]!	; 0xfffffe34
 388:	39756e67 	ldmdbcc	r5!, {r0, r1, r2, r5, r6, r9, sl, fp, sp, lr}^
 38c:	732d2039 			; <UNDEFINED> instruction: 0x732d2039
 390:	673d6474 			; <UNDEFINED> instruction: 0x673d6474
 394:	3939756e 	ldmdbcc	r9!, {r1, r2, r3, r5, r6, r8, sl, ip, sp, lr}
 398:	66662d20 	strbtvs	r2, [r6], -r0, lsr #26
 39c:	73656572 	cmnvc	r5, #478150656	; 0x1c800000
 3a0:	646e6174 	strbtvs	r6, [lr], #-372	; 0xfffffe8c
 3a4:	00676e69 	rsbeq	r6, r7, r9, ror #28
 3a8:	657a6973 	ldrbvs	r6, [sl, #-2419]!	; 0xfffff68d
 3ac:	2e00745f 	cfmvsrcs	mvf0, r7
 3b0:	62696c2f 	rsbvs	r6, r9, #12032	; 0x2f00
 3b4:	656d2f63 	strbvs	r2, [sp, #-3939]!	; 0xfffff09d
 3b8:	7465736d 	strbtvc	r7, [r5], #-877	; 0xfffffc93
 3bc:	2f00632e 	svccs	0x0000632e
 3c0:	72657355 	rsbvc	r7, r5, #1409286145	; 0x54000001
 3c4:	72742f73 	rsbsvc	r2, r4, #460	; 0x1cc
 3c8:	65747369 	ldrbvs	r7, [r4, #-873]!	; 0xfffffc97
 3cc:	6c6f6e6e 	stclvs	14, cr6, [pc], #-440	; 21c <__code_start__-0x7de4>
 3d0:	6e616d6c 	cdpvs	13, 6, cr6, cr1, cr12, {3}
 3d4:	636f442f 	cmnvs	pc, #788529152	; 0x2f000000
 3d8:	6e656d75 	mcrvs	13, 3, r6, cr5, cr5, {3}
 3dc:	532f7374 			; <UNDEFINED> instruction: 0x532f7374
 3e0:	6e697270 	mcrvs	2, 3, r7, cr9, cr0, {3}
 3e4:	75515f67 	ldrbvc	r5, [r1, #-3943]	; 0xfffff099
 3e8:	65747261 	ldrbvs	r7, [r4, #-609]!	; 0xfffffd9f
 3ec:	30325f72 	eorscc	r5, r2, r2, ror pc
 3f0:	432f3232 			; <UNDEFINED> instruction: 0x432f3232
 3f4:	30343253 	eorscc	r3, r4, r3, asr r2
 3f8:	732d584c 			; <UNDEFINED> instruction: 0x732d584c
 3fc:	32327270 	eorscc	r7, r2, #112, 4
 400:	62696c2f 	rsbvs	r6, r9, #12032	; 0x2f00
 404:	61006970 	tstvs	r0, r0, ror r9
 408:	00736772 	rsbseq	r6, r3, r2, ror r7
 40c:	705f6176 	subsvc	r6, pc, r6, ror r1	; <UNPREDICTABLE>
 410:	746e6972 	strbtvc	r6, [lr], #-2418	; 0xfffff68e
 414:	5f5f006b 	svcpl	0x005f006b
 418:	63756e67 	cmnvs	r5, #1648	; 0x670
 41c:	5f61765f 	svcpl	0x0061765f
 420:	7473696c 	ldrbtvc	r6, [r3], #-2412	; 0xfffff694
 424:	765f5f00 	ldrbvc	r5, [pc], -r0, lsl #30
 428:	696c5f61 	stmdbvs	ip!, {r0, r5, r6, r8, r9, sl, fp, ip, lr}^
 42c:	5f007473 	svcpl	0x00007473
 430:	0070615f 	rsbseq	r6, r0, pc, asr r1
 434:	696c2f2e 	stmdbvs	ip!, {r1, r2, r3, r5, r8, r9, sl, fp, sp}^
 438:	702f6362 	eorvc	r6, pc, r2, ror #6
 43c:	746e6972 	strbtvc	r6, [lr], #-2418	; 0xfffff68e
 440:	00632e6b 	rsbeq	r2, r3, fp, ror #28
 444:	65746e69 	ldrbvs	r6, [r4, #-3689]!	; 0xfffff197
 448:	6c616e72 	stclvs	14, cr6, [r1], #-456	; 0xfffffe38
 44c:	7475705f 	ldrbtvc	r7, [r5], #-95	; 0xffffffa1
 450:	2f2e006b 	svccs	0x002e006b
 454:	6362696c 	cmnvs	r2, #108, 18	; 0x1b0000
 458:	7475702f 	ldrbtvc	r7, [r5], #-47	; 0xffffffd1
 45c:	00632e6b 	rsbeq	r2, r3, fp, ror #28
 460:	69647369 	stmdbvs	r4!, {r0, r3, r5, r6, r8, r9, ip, sp, lr}^
 464:	00746967 	rsbseq	r6, r4, r7, ror #18
 468:	746e6975 	strbtvc	r6, [lr], #-2421	; 0xfffff68b
 46c:	745f3436 	ldrbvc	r3, [pc], #-1078	; 474 <__code_start__-0x7b8c>
 470:	6c2f2e00 	stcvs	14, cr2, [pc], #-0	; 478 <__code_start__-0x7b88>
 474:	2f636269 	svccs	0x00636269
 478:	702d6176 	eorvc	r6, sp, r6, ror r1
 47c:	746e6972 	strbtvc	r6, [lr], #-2418	; 0xfffff68e
 480:	00632e6b 	rsbeq	r2, r3, fp, ror #28
 484:	6f635f5f 	svcvs	0x00635f5f
 488:	735f6564 	cmpvc	pc, #100, 10	; 0x19000000
 48c:	74726174 	ldrbtvc	r6, [r2], #-372	; 0xfffffe8c
 490:	5f005f5f 	svcpl	0x00005f5f
 494:	7373625f 	cmnvc	r3, #-268435451	; 0xf0000005
 498:	6174735f 	cmnvs	r4, pc, asr r3
 49c:	5f5f7472 	svcpl	0x005f7472
 4a0:	64697700 	strbtvs	r7, [r9], #-1792	; 0xfffff900
 4a4:	5f006874 	svcpl	0x00006874
 4a8:	4e55465f 	mrcmi	6, 2, r4, cr5, cr15, {2}
 4ac:	4f495443 	svcmi	0x00495443
 4b0:	005f5f4e 	subseq	r5, pc, lr, asr #30
 4b4:	61656c63 	cmnvs	r5, r3, ror #24
 4b8:	65725f6e 	ldrbvs	r5, [r2, #-3950]!	; 0xfffff092
 4bc:	746f6f62 	strbtvc	r6, [pc], #-3938	; 4c4 <__code_start__-0x7b3c>
 4c0:	645f5f00 	ldrbvs	r5, [pc], #-3840	; 4c8 <__code_start__-0x7b38>
 4c4:	5f617461 	svcpl	0x00617461
 4c8:	5f646e65 	svcpl	0x00646e65
 4cc:	7570005f 	ldrbvc	r0, [r0, #-95]!	; 0xffffffa1
 4d0:	665f6374 			; <UNDEFINED> instruction: 0x665f6374
 4d4:	5f5f0070 	svcpl	0x005f0070
 4d8:	5f737362 	svcpl	0x00737362
 4dc:	5f646e65 	svcpl	0x00646e65
 4e0:	5f5f005f 	svcpl	0x005f005f
 4e4:	70616568 	rsbvc	r6, r1, r8, ror #10
 4e8:	6174735f 	cmnvs	r4, pc, asr r3
 4ec:	5f5f7472 	svcpl	0x005f7472
 4f0:	69707200 	ldmdbvs	r0!, {r9, ip, sp, lr}^
 4f4:	7465735f 	strbtvc	r7, [r5], #-863	; 0xfffffca1
 4f8:	74756f5f 	ldrbtvc	r6, [r5], #-3935	; 0xfffff0a1
 4fc:	00747570 	rsbseq	r7, r4, r0, ror r5
 500:	5f746d66 	svcpl	0x00746d66
 504:	72617473 	rsbvc	r7, r1, #1929379840	; 0x73000000
 508:	74730074 	ldrbtvc	r0, [r3], #-116	; 0xffffff8c
 50c:	79706372 	ldmdbvc	r0!, {r1, r4, r5, r6, r8, r9, sp, lr}^
 510:	67656e00 	strbvs	r6, [r5, -r0, lsl #28]!
 514:	5f00705f 	svcpl	0x0000705f
 518:	646f635f 	strbtvs	r6, [pc], #-863	; 520 <__code_start__-0x7ae0>
 51c:	6e655f65 	cdpvs	15, 6, cr5, cr5, cr5, {3}
 520:	005f5f64 	subseq	r5, pc, r4, ror #30
 524:	74696d65 	strbtvc	r6, [r9], #-3429	; 0xfffff29b
 528:	74757000 	ldrbtvc	r7, [r5], #-0
 52c:	70665f73 	rsbvc	r5, r6, r3, ror pc
 530:	76657200 	strbtvc	r7, [r5], -r0, lsl #4
 534:	65737265 	ldrbvs	r7, [r3, #-613]!	; 0xfffffd9b
 538:	72747300 	rsbsvc	r7, r4, #0, 6
 53c:	00746163 	rsbseq	r6, r4, r3, ror #2
 540:	63727473 	cmnvs	r2, #1929379840	; 0x73000000
 544:	5f00706d 	svcpl	0x0000706d
 548:	7461645f 	strbtvc	r6, [r1], #-1119	; 0xfffffba1
 54c:	74735f61 	ldrbtvc	r5, [r3], #-3937	; 0xfffff09f
 550:	5f747261 	svcpl	0x00747261
 554:	5f5f005f 	svcpl	0x005f005f
 558:	676f7270 			; <UNDEFINED> instruction: 0x676f7270
 55c:	646e655f 	strbtvs	r6, [lr], #-1375	; 0xfffffaa1
 560:	6e005f5f 	mcrvs	15, 0, r5, cr0, cr15, {2}
 564:	00316d75 	eorseq	r6, r1, r5, ror sp
 568:	6e727473 	mrcvs	4, 3, r7, cr2, cr3, {3}
 56c:	00706d63 	rsbseq	r6, r0, r3, ror #26
 570:	65736162 	ldrbvs	r6, [r3, #-354]!	; 0xfffffe9e
 574:	67697300 	strbvs	r7, [r9, -r0, lsl #6]!
 578:	5f64656e 	svcpl	0x0064656e
 57c:	69640070 	stmdbvs	r4!, {r4, r5, r6}^
 580:	6c626173 	stfvse	f6, [r2], #-460	; 0xfffffe34
 584:	61635f65 	cmnvs	r3, r5, ror #30
 588:	00656863 	rsbeq	r6, r5, r3, ror #16
 58c:	74732f2e 	ldrbtvc	r2, [r3], #-3886	; 0xfffff0d2
 590:	2d666661 	stclcs	6, cr6, [r6, #-388]!	; 0xfffffe7c
 594:	2f637273 	svccs	0x00637273
 598:	68636163 	stmdavs	r3!, {r0, r1, r5, r6, r8, sp, lr}^
 59c:	00632e65 	rsbeq	r2, r3, r5, ror #28
 5a0:	5f697072 	svcpl	0x00697072
 5a4:	6f626572 	svcvs	0x00626572
 5a8:	6400746f 	strvs	r7, [r0], #-1135	; 0xfffffb91
 5ac:	79616c65 	stmdbvc	r1!, {r0, r2, r5, r6, sl, fp, sp, lr}^
 5b0:	00736d5f 	rsbseq	r6, r3, pc, asr sp
 5b4:	74732f2e 	ldrbtvc	r2, [r3], #-3886	; 0xfffff0d2
 5b8:	2d666661 	stclcs	6, cr6, [r6, #-388]!	; 0xfffffe7c
 5bc:	2f637273 	svccs	0x00637273
 5c0:	61656c63 	cmnvs	r5, r3, ror #24
 5c4:	65722d6e 	ldrbvs	r2, [r2, #-3438]!	; 0xfffff292
 5c8:	746f6f62 	strbtvc	r6, [pc], #-3938	; 5d0 <__code_start__-0x7a30>
 5cc:	7500632e 	strvc	r6, [r0, #-814]	; 0xfffffcd2
 5d0:	5f747261 	svcpl	0x00747261
 5d4:	73756c66 	cmnvc	r5, #26112	; 0x6600
 5d8:	78745f68 	ldmdavc	r4!, {r3, r5, r6, r8, r9, sl, fp, ip, lr}^
 5dc:	73635f00 	cmnvc	r3, #0, 30
 5e0:	74726174 	ldrbtvc	r6, [r2], #-372	; 0xfffffe8c
 5e4:	73736200 	cmnvc	r3, #0, 4
 5e8:	646e655f 	strbtvs	r6, [lr], #-1375	; 0xfffffaa1
 5ec:	72617500 	rsbvc	r7, r1, #0, 10
 5f0:	6e695f74 	mcrvs	15, 3, r5, cr9, cr4, {3}
 5f4:	63007469 	movwvs	r7, #1129	; 0x469
 5f8:	6f747375 	svcvs	0x00747375
 5fc:	6f6c5f6d 	svcvs	0x006c5f6d
 600:	72656461 	rsbvc	r6, r5, #1627389952	; 0x61000000
 604:	732f2e00 			; <UNDEFINED> instruction: 0x732f2e00
 608:	66666174 			; <UNDEFINED> instruction: 0x66666174
 60c:	6372732d 	cmnvs	r2, #-1275068416	; 0xb4000000
 610:	7473632f 	ldrbtvc	r6, [r3], #-815	; 0xfffffcd1
 614:	2e747261 	cdpcs	2, 7, cr7, cr4, cr1, {3}
 618:	2f2e0063 	svccs	0x002e0063
 61c:	66617473 			; <UNDEFINED> instruction: 0x66617473
 620:	72732d66 	rsbsvc	r2, r3, #6528	; 0x1980
 624:	75632f63 	strbvc	r2, [r3, #-3939]!	; 0xfffff09d
 628:	6d6f7473 	cfstrdvs	mvd7, [pc, #-460]!	; 464 <__code_start__-0x7b9c>
 62c:	616f6c2d 	cmnvs	pc, sp, lsr #24
 630:	2e726564 	cdpcs	5, 7, cr6, cr2, cr4, {3}
 634:	65720063 	ldrbvs	r0, [r2, #-99]!	; 0xffffff9d
 638:	746f6f62 	strbtvc	r6, [pc], #-3938	; 640 <__code_start__-0x79c0>
 63c:	6c61635f 	stclvs	3, cr6, [r1], #-380	; 0xfffffe84
 640:	74756f6c 	ldrbtvc	r6, [r5], #-3948	; 0xfffff094
 644:	5f4d5000 	svcpl	0x004d5000
 648:	474f4457 	smlsldmi	r4, pc, r7, r4	; <UNPREDICTABLE>
 64c:	54555000 	ldrbpl	r5, [r5], #-0
 650:	73003233 	movwvc	r3, #563	; 0x233
 654:	755f7465 	ldrbvc	r7, [pc, #-1125]	; 1f7 <__code_start__-0x7e09>
 658:	5f726573 	svcpl	0x00726573
 65c:	6576656c 	ldrbvs	r6, [r6, #-1388]!	; 0xfffffa94
 660:	2f2e006c 	svccs	0x002e006c
 664:	66617473 			; <UNDEFINED> instruction: 0x66617473
 668:	72732d66 	rsbsvc	r2, r3, #6528	; 0x1980
 66c:	65722f63 	ldrbvs	r2, [r2, #-3939]!	; 0xfffff09d
 670:	746f6f62 	strbtvc	r6, [pc], #-3938	; 678 <__code_start__-0x7988>
 674:	5000632e 	andpl	r6, r0, lr, lsr #6
 678:	41505f4d 	cmpmi	r0, sp, asr #30
 67c:	4f575353 	svcmi	0x00575353
 680:	61004452 	tstvs	r0, r2, asr r4
 684:	73755f74 	cmnvc	r5, #116, 30	; 0x1d0
 688:	6c5f7265 	lfmvs	f7, 2, [pc], {101}	; 0x65
 68c:	6c657665 	stclvs	6, cr7, [r5], #-404	; 0xfffffe6c
 690:	5f4d5000 	svcpl	0x004d5000
 694:	43545352 	cmpmi	r4, #1207959553	; 0x48000001
 698:	4352575f 	cmpmi	r2, #24903680	; 0x17c0000
 69c:	465f4746 	ldrbmi	r4, [pc], -r6, asr #14
 6a0:	5f4c4c55 	svcpl	0x004c4c55
 6a4:	45534552 	ldrbmi	r4, [r3, #-1362]	; 0xfffffaae
 6a8:	4d500054 	ldclmi	0, cr0, [r0, #-336]	; 0xfffffeb0
 6ac:	5453525f 	ldrbpl	r5, [r3], #-607	; 0xfffffda1
 6b0:	70630043 	rsbvc	r0, r3, r3, asr #32
 6b4:	64007273 	strvs	r7, [r0], #-627	; 0xfffffd8d
 6b8:	625f7665 	subsvs	r7, pc, #105906176	; 0x6500000
 6bc:	69727261 	ldmdbvs	r2!, {r0, r5, r6, r9, ip, sp, lr}^
 6c0:	64007265 	strvs	r7, [r0], #-613	; 0xfffffd9b
 6c4:	79616c65 	stmdbvc	r1!, {r0, r2, r5, r6, sl, fp, sp, lr}^
 6c8:	6365735f 	cmnvs	r5, #2080374785	; 0x7c000001
 6cc:	732f2e00 			; <UNDEFINED> instruction: 0x732f2e00
 6d0:	66666174 			; <UNDEFINED> instruction: 0x66666174
 6d4:	6372732d 	cmnvs	r2, #-1275068416	; 0xb4000000
 6d8:	6d69742f 	cfstrdvs	mvd7, [r9, #-188]!	; 0xffffff44
 6dc:	632e7265 			; <UNDEFINED> instruction: 0x632e7265
 6e0:	54454700 	strbpl	r4, [r5], #-1792	; 0xfffff900
 6e4:	74003233 	strvc	r3, [r0], #-563	; 0xfffffdcd
 6e8:	72656d69 	rsbvc	r6, r5, #6720	; 0x1a40
 6ec:	7465675f 	strbtvc	r6, [r5], #-1887	; 0xfffff8a1
 6f0:	6573755f 	ldrbvs	r7, [r3, #-1375]!	; 0xfffffaa1
 6f4:	65640063 	strbvs	r0, [r4, #-99]!	; 0xffffff9d
 6f8:	5f79616c 	svcpl	0x0079616c
 6fc:	74007375 	strvc	r7, [r0], #-885	; 0xfffffc8b
 700:	72656d69 	rsbvc	r6, r5, #6720	; 0x1a40
 704:	7465675f 	strbtvc	r6, [r5], #-1887	; 0xfffff8a1
 708:	6573755f 	ldrbvs	r7, [r3, #-1375]!	; 0xfffffaa1
 70c:	61725f63 	cmnvs	r2, r3, ror #30
 710:	70670077 	rsbvc	r0, r7, r7, ror r0
 714:	635f6f69 	cmpvs	pc, #420	; 0x1a4
 718:	0030726c 	eorseq	r7, r0, ip, ror #4
 71c:	6f697067 	svcvs	0x00697067
 720:	7465735f 	strbtvc	r7, [r5], #-863	; 0xfffffca1
 724:	70670030 	rsbvc	r0, r7, r0, lsr r0
 728:	775f6f69 	ldrbvc	r6, [pc, -r9, ror #30]
 72c:	65746972 	ldrbvs	r6, [r4, #-2418]!	; 0xfffff68e
 730:	49504700 	ldmdbmi	r0, {r8, r9, sl, lr}^
 734:	55465f4f 	strbpl	r5, [r6, #-3919]	; 0xfffff0b1
 738:	4f5f434e 	svcmi	0x005f434e
 73c:	55505455 	ldrbpl	r5, [r0, #-1109]	; 0xfffffbab
 740:	45440054 	strbmi	r0, [r4, #-84]	; 0xffffffac
 744:	41565f56 	cmpmi	r6, r6, asr pc
 748:	0032334c 	eorseq	r3, r2, ip, asr #6
 74c:	6f697067 	svcvs	0x00697067
 750:	6165725f 	cmnvs	r5, pc, asr r2
 754:	50470064 	subpl	r0, r7, r4, rrx
 758:	465f4f49 	ldrbmi	r4, [pc], -r9, asr #30
 75c:	5f434e55 	svcpl	0x00434e55
 760:	30544c41 	subscc	r4, r4, r1, asr #24
 764:	49504700 	ldmdbmi	r0, {r8, r9, sl, lr}^
 768:	55465f4f 	strbpl	r5, [r6, #-3919]	; 0xfffff0b1
 76c:	415f434e 	cmpmi	pc, lr, asr #6
 770:	0031544c 	eorseq	r5, r1, ip, asr #8
 774:	4f495047 	svcmi	0x00495047
 778:	4e55465f 	mrcmi	6, 2, r4, cr5, cr15, {2}
 77c:	4c415f43 	mcrrmi	15, 4, r5, r1, cr3
 780:	47003254 	smlsdmi	r0, r4, r2, r3
 784:	5f4f4950 	svcpl	0x004f4950
 788:	434e5546 	movtmi	r5, #58694	; 0xe546
 78c:	544c415f 	strbpl	r4, [ip], #-351	; 0xfffffea1
 790:	50470033 	subpl	r0, r7, r3, lsr r0
 794:	465f4f49 	ldrbmi	r4, [pc], -r9, asr #30
 798:	5f434e55 	svcpl	0x00434e55
 79c:	35544c41 	ldrbcc	r4, [r4, #-3137]	; 0xfffff3bf
 7a0:	69706700 	ldmdbvs	r0!, {r8, r9, sl, sp, lr}^
 7a4:	65735f6f 	ldrbvs	r5, [r3, #-3951]!	; 0xfffff091
 7a8:	6e695f74 	mcrvs	15, 3, r5, cr9, cr4, {3}
 7ac:	00747570 	rsbseq	r7, r4, r0, ror r5
 7b0:	6d6f682f 	stclvs	8, cr6, [pc, #-188]!	; 6fc <__code_start__-0x7904>
 7b4:	6e652f65 	cdpvs	15, 6, cr2, cr5, cr5, {3}
 7b8:	72656c67 	rsbvc	r6, r5, #26368	; 0x6700
 7bc:	616c632f 	cmnvs	ip, pc, lsr #6
 7c0:	632f7373 			; <UNDEFINED> instruction: 0x632f7373
 7c4:	30343273 	eorscc	r3, r4, r3, ror r2
 7c8:	322d786c 	eorcc	r7, sp, #108, 16	; 0x6c0000
 7cc:	72707332 	rsbsvc	r7, r0, #-939524096	; 0xc8000000
 7d0:	62696c2f 	rsbvs	r6, r9, #12032	; 0x2f00
 7d4:	732f6970 			; <UNDEFINED> instruction: 0x732f6970
 7d8:	66666174 			; <UNDEFINED> instruction: 0x66666174
 7dc:	6972702d 	ldmdbvs	r2!, {r0, r2, r3, r5, ip, sp, lr}^
 7e0:	65746176 	ldrbvs	r6, [r4, #-374]!	; 0xfffffe8a
 7e4:	69706700 	ldmdbvs	r0!, {r8, r9, sl, sp, lr}^
 7e8:	65735f6f 	ldrbvs	r5, [r3, #-3951]!	; 0xfffff091
 7ec:	666f5f74 	uqsub16vs	r5, pc, r4	; <UNPREDICTABLE>
 7f0:	75660066 	strbvc	r0, [r6, #-102]!	; 0xffffff9a
 7f4:	6700636e 	strvs	r6, [r0, -lr, ror #6]
 7f8:	5f6f6970 	svcpl	0x006f6970
 7fc:	636e7566 	cmnvs	lr, #427819008	; 0x19800000
 800:	4700745f 	smlsdmi	r0, pc, r4, r7	; <UNPREDICTABLE>
 804:	4320554e 			; <UNDEFINED> instruction: 0x4320554e
 808:	31203939 			; <UNDEFINED> instruction: 0x31203939
 80c:	2e332e30 	mrccs	14, 1, r2, cr3, cr0, {1}
 810:	30322031 	eorscc	r2, r2, r1, lsr r0
 814:	38303132 	ldmdacc	r0!, {r1, r4, r5, r8, ip, sp}
 818:	28203432 	stmdacs	r0!, {r1, r4, r5, sl, ip, sp}
 81c:	656c6572 	strbvs	r6, [ip, #-1394]!	; 0xfffffa8e
 820:	29657361 	stmdbcs	r5!, {r0, r5, r6, r8, r9, ip, sp, lr}^
 824:	636d2d20 	cmnvs	sp, #32, 26	; 0x800
 828:	613d7570 	teqvs	sp, r0, ror r5
 82c:	31316d72 	teqcc	r1, r2, ror sp
 830:	7a6a3637 	bvc	1a8e114 <__bss_end__+0x1a83afc>
 834:	20732d66 	rsbscs	r2, r3, r6, ror #26
 838:	75746d2d 	ldrbvc	r6, [r4, #-3373]!	; 0xfffff2d3
 83c:	613d656e 	teqvs	sp, lr, ror #10
 840:	31316d72 	teqcc	r1, r2, ror sp
 844:	7a6a3637 	bvc	1a8e128 <__bss_end__+0x1a83b10>
 848:	20732d66 	rsbscs	r2, r3, r6, ror #26
 84c:	6c666d2d 	stclvs	13, cr6, [r6], #-180	; 0xffffff4c
 850:	2d74616f 	ldfcse	f6, [r4, #-444]!	; 0xfffffe44
 854:	3d696261 	sfmcc	f6, 2, [r9, #-388]!	; 0xfffffe7c
 858:	74666f73 	strbtvc	r6, [r6], #-3955	; 0xfffff08d
 85c:	616d2d20 	cmnvs	sp, r0, lsr #26
 860:	2d206d72 	stccs	13, cr6, [r0, #-456]!	; 0xfffffe38
 864:	6372616d 	cmnvs	r2, #1073741851	; 0x4000001b
 868:	72613d68 	rsbvc	r3, r1, #104, 26	; 0x1a00
 86c:	6b36766d 	blvs	d9e228 <__bss_end__+0xd93c10>
 870:	672d207a 			; <UNDEFINED> instruction: 0x672d207a
 874:	20626467 	rsbcs	r6, r2, r7, ror #8
 878:	20674f2d 	rsbcs	r4, r7, sp, lsr #30
 87c:	6474732d 	ldrbtvs	r7, [r4], #-813	; 0xfffffcd3
 880:	756e673d 	strbvc	r6, [lr, #-1853]!	; 0xfffff8c3
 884:	2d203939 			; <UNDEFINED> instruction: 0x2d203939
 888:	65726666 	ldrbvs	r6, [r2, #-1638]!	; 0xfffff99a
 88c:	61747365 	cmnvs	r4, r5, ror #6
 890:	6e69646e 	cdpvs	4, 6, cr6, cr9, cr14, {3}
 894:	70670067 	rsbvc	r0, r7, r7, rrx
 898:	6c5f6f69 	mrrcvs	15, 6, r6, pc, cr9	; <UNPREDICTABLE>
 89c:	00307665 	eorseq	r7, r0, r5, ror #12
 8a0:	4f495047 	svcmi	0x00495047
 8a4:	4e55465f 	mrcmi	6, 2, r4, cr5, cr15, {2}
 8a8:	4c415f43 	mcrrmi	15, 4, r5, r1, cr3
 8ac:	62003454 	andvs	r3, r0, #84, 8	; 0x54000000
 8b0:	006b6e61 	rsbeq	r6, fp, r1, ror #28
 8b4:	6f697067 	svcvs	0x00697067
 8b8:	4700632e 	strmi	r6, [r0, -lr, lsr #6]
 8bc:	5f4f4950 	svcpl	0x004f4950
 8c0:	434e5546 	movtmi	r5, #58694	; 0xe546
 8c4:	504e495f 	subpl	r4, lr, pc, asr r9
 8c8:	67005455 	smlsdvs	r0, r5, r4, r5
 8cc:	5f6f6970 	svcpl	0x006f6970
 8d0:	5f746573 	svcpl	0x00746573
 8d4:	636e7566 	cmnvs	lr, #427819008	; 0x19800000
 8d8:	6e6f6974 			; <UNDEFINED> instruction: 0x6e6f6974
 8dc:	69706700 	ldmdbvs	r0!, {r8, r9, sl, sp, lr}^
 8e0:	65735f6f 	ldrbvs	r5, [r3, #-3951]!	; 0xfffff091
 8e4:	6e6f5f74 	mcrvs	15, 3, r5, cr15, cr4, {3}
 8e8:	74757000 	ldrbtvc	r7, [r5], #-0
 8ec:	62003233 	andvs	r3, r0, #805306371	; 0x30000003
 8f0:	5f647561 	svcpl	0x00647561
 8f4:	006c6176 	rsbeq	r6, ip, r6, ror r1
 8f8:	74617473 	strbtvc	r7, [r1], #-1139	; 0xfffffb8d
 8fc:	72617500 	rsbvc	r7, r1, #0, 10
 900:	61635f74 	smcvs	13812	; 0x35f4
 904:	65675f6e 	strbvs	r5, [r7, #-3950]!	; 0xfffff092
 908:	61006374 	tstvs	r0, r4, ror r3
 90c:	705f7875 	subsvc	r7, pc, r5, ror r8	; <UNPREDICTABLE>
 910:	70697265 	rsbvc	r7, r9, r5, ror #4
 914:	75007368 	strvc	r7, [r0, #-872]	; 0xfffffc98
 918:	2e747261 	cdpcs	2, 7, cr7, cr4, cr1, {3}
 91c:	61750063 	cmnvs	r5, r3, rrx
 920:	635f7472 	cmpvs	pc, #1912602624	; 0x72000000
 924:	705f6e61 	subsvc	r6, pc, r1, ror #28
 928:	00637475 	rsbeq	r7, r3, r5, ror r4
 92c:	74726175 	ldrbtvc	r6, [r2], #-373	; 0xfffffe8b
 930:	5f78745f 	svcpl	0x0078745f
 934:	655f7369 	ldrbvs	r7, [pc, #-873]	; 5d3 <__code_start__-0x7a2d>
 938:	7974706d 	ldmdbvc	r4!, {r0, r2, r3, r5, r6, ip, sp, lr}^
 93c:	75616200 	strbvc	r6, [r1, #-512]!	; 0xfffffe00
 940:	75610064 	strbvc	r0, [r1, #-100]!	; 0xffffff9c
 944:	6e655f78 	mcrvs	15, 3, r5, cr5, cr8, {3}
 948:	656c6261 	strbvs	r6, [ip, #-609]!	; 0xfffffd9f
 94c:	61750073 	cmnvs	r5, r3, ror r0
 950:	675f7472 			; <UNDEFINED> instruction: 0x675f7472
 954:	00637465 	rsbeq	r7, r3, r5, ror #8
 958:	6c746e63 	ldclvs	14, cr6, [r4], #-396	; 0xfffffe74
 95c:	72617500 	rsbvc	r7, r1, #0, 10
 960:	69645f74 	stmdbvs	r4!, {r2, r4, r5, r6, r8, r9, sl, fp, ip, lr}^
 964:	6c626173 	stfvse	f6, [r2], #-460	; 0xfffffe34
 968:	61750065 	cmnvs	r5, r5, rrx
 96c:	685f7472 	ldmdavs	pc, {r1, r4, r5, r6, sl, ip, sp, lr}^	; <UNPREDICTABLE>
 970:	645f7361 	ldrbvs	r7, [pc], #-865	; 978 <__code_start__-0x7688>
 974:	00617461 	rsbeq	r7, r1, r1, ror #8
 978:	695f726f 	ldmdbvs	pc, {r0, r1, r2, r3, r5, r6, r9, ip, sp, lr}^	; <UNPREDICTABLE>
 97c:	0032336e 	eorseq	r3, r2, lr, ror #6
 980:	61726373 	cmnvs	r2, r3, ror r3
 984:	00686374 	rsbeq	r6, r8, r4, ror r3
 988:	74726175 	ldrbtvc	r6, [r2], #-373	; 0xfffffe8b
 98c:	646e6100 	strbtvs	r6, [lr], #-256	; 0xffffff00
 990:	336e695f 	cmncc	lr, #1556480	; 0x17c000
 994:	61750032 	cmnvs	r5, r2, lsr r0
 998:	705f7472 	subsvc	r7, pc, r2, ror r4	; <UNPREDICTABLE>
 99c:	00637475 	rsbeq	r7, r3, r5, ror r4
 9a0:	33746567 	cmncc	r4, #432013312	; 0x19c00000
 9a4:	6d6b0032 	stclvs	0, cr0, [fp, #-200]!	; 0xffffff38
 9a8:	6f6c6c61 	svcvs	0x006c6c61
 9ac:	65685f63 	strbvs	r5, [r8, #-3939]!	; 0xfffff09d
 9b0:	735f7061 	cmpvc	pc, #97, 0	; 0x61
 9b4:	74726174 	ldrbtvc	r6, [r2], #-372	; 0xfffffe8c
 9b8:	78616d00 	stmdavc	r1!, {r8, sl, fp, sp, lr}^
 9bc:	79626e5f 	stmdbvc	r2!, {r0, r1, r2, r3, r4, r6, r9, sl, fp, sp, lr}^
 9c0:	00736574 	rsbseq	r6, r3, r4, ror r5
 9c4:	6464615f 	strbtvs	r6, [r4], #-351	; 0xfffffea1
 9c8:	666b0072 			; <UNDEFINED> instruction: 0x666b0072
 9cc:	00656572 	rsbeq	r6, r5, r2, ror r5
 9d0:	70616568 	rsbvc	r6, r1, r8, ror #10
 9d4:	78616d5f 	stmdavc	r1!, {r0, r1, r2, r3, r4, r6, r8, sl, fp, sp, lr}^
 9d8:	72666b00 	rsbvc	r6, r6, #0, 22
 9dc:	615f6565 	cmpvs	pc, r5, ror #10
 9e0:	72006c6c 	andvc	r6, r0, #108, 24	; 0x6c00
 9e4:	646e756f 	strbtvs	r7, [lr], #-1391	; 0xfffffa91
 9e8:	68007075 	stmdavs	r0, {r0, r2, r4, r5, r6, ip, sp, lr}
 9ec:	00706165 	rsbseq	r6, r0, r5, ror #2
 9f0:	74696e69 	strbtvc	r6, [r9], #-3689	; 0xfffff197
 9f4:	6b00705f 	blvs	1cb78 <__bss_end__+0x12560>
 9f8:	65657266 	strbvs	r7, [r5, #-614]!	; 0xfffffd9a
 9fc:	706f705f 	rsbvc	r7, pc, pc, asr r0	; <UNPREDICTABLE>
 a00:	696c6100 	stmdbvs	ip!, {r8, sp, lr}^
 a04:	656d6e67 	strbvs	r6, [sp, #-3687]!	; 0xfffff199
 a08:	6d00746e 	cfstrsvs	mvf7, [r0, #-440]	; 0xfffffe48
 a0c:	755f7861 	ldrbvc	r7, [pc, #-2145]	; 1b3 <__code_start__-0x7e4d>
 a10:	4f003233 	svcmi	0x00003233
 a14:	424d656e 	submi	r6, sp, #461373440	; 0x1b800000
 a18:	616d6b00 	cmnvs	sp, r0, lsl #22
 a1c:	636f6c6c 	cmnvs	pc, #108, 24	; 0x6c00
 a20:	6165685f 	cmnvs	r5, pc, asr r8
 a24:	6e655f70 	mcrvs	15, 3, r5, cr5, cr0, {3}
 a28:	6d6b0064 	stclvs	0, cr0, [fp, #-400]!	; 0xfffffe70
 a2c:	6f6c6c61 	svcvs	0x006c6c61
 a30:	6f6e5f63 	svcvs	0x006e5f63
 a34:	72657a74 	rsbvc	r7, r5, #116, 20	; 0x74000
 a38:	7369006f 	cmnvc	r9, #111, 0	; 0x6f
 a3c:	776f705f 			; <UNDEFINED> instruction: 0x776f705f
 a40:	6d6b0032 	stclvs	0, cr0, [fp, #-200]!	; 0xffffff38
 a44:	6f6c6c61 	svcvs	0x006c6c61
 a48:	00632e63 	rsbeq	r2, r3, r3, ror #28
 a4c:	6c616d6b 	stclvs	13, cr6, [r1], #-428	; 0xfffffe54
 a50:	5f636f6c 	svcpl	0x00636f6c
 a54:	74696e69 	strbtvc	r6, [r9], #-3689	; 0xfffff197
 a58:	5f736900 	svcpl	0x00736900
 a5c:	67696c61 	strbvs	r6, [r9, -r1, ror #24]!
 a60:	0064656e 	rsbeq	r6, r4, lr, ror #10
 a64:	62756f64 	rsbsvs	r6, r5, #100, 30	; 0x190
 a68:	6b00656c 	blvs	1a020 <__bss_end__+0xfa08>
 a6c:	6c6c616d 	stfvse	f6, [ip], #-436	; 0xfffffe4c
 a70:	685f636f 	ldmdavs	pc, {r0, r1, r2, r3, r5, r6, r8, r9, sp, lr}^	; <UNPREDICTABLE>
 a74:	5f706165 	svcpl	0x00706165
 a78:	00727470 	rsbseq	r7, r2, r0, ror r4
 a7c:	6c616d6b 	stclvs	13, cr6, [r1], #-428	; 0xfffffe54
 a80:	5f636f6c 	svcpl	0x00636f6c
 a84:	74696e69 	strbtvc	r6, [r9], #-3689	; 0xfffff197
 a88:	7465735f 	strbtvc	r7, [r5], #-863	; 0xfffffca1
 a8c:	6174735f 	cmnvs	r4, pc, asr r3
 a90:	72007472 	andvc	r7, r0, #1912602624	; 0x72000000
 a94:	725f6970 	subsvc	r6, pc, #112, 18	; 0x1c0000
 a98:	74657365 	strbtvc	r7, [r5], #-869	; 0xfffffc9b
 a9c:	7475705f 	ldrbtvc	r7, [r5], #-95	; 0xffffffa1
 aa0:	6d6b0063 	stclvs	0, cr0, [fp, #-396]!	; 0xfffffe74
 aa4:	6f6c6c61 	svcvs	0x006c6c61
 aa8:	6c615f63 	stclvs	15, cr5, [r1], #-396	; 0xfffffe74
 aac:	656e6769 	strbvs	r6, [lr, #-1897]!	; 0xfffff897
 ab0:	6e690064 	cdpvs	0, 6, cr0, cr9, cr4, {3}
 ab4:	6e726574 	mrcvs	5, 3, r6, cr2, cr4, {3}
 ab8:	705f6c61 	subsvc	r6, pc, r1, ror #24
 abc:	68637475 	stmdavs	r3!, {r0, r2, r4, r5, r6, sl, ip, sp, lr}^
 ac0:	72007261 	andvc	r7, r0, #268435462	; 0x10000006
 ac4:	735f6970 	cmpvc	pc, #112, 18	; 0x1c0000
 ac8:	705f7465 	subsvc	r7, pc, r5, ror #8
 acc:	00637475 	rsbeq	r7, r3, r5, ror r4
 ad0:	696c2f2e 	stmdbvs	ip!, {r1, r2, r3, r5, r8, r9, sl, fp, sp}^
 ad4:	702f6362 	eorvc	r6, pc, r2, ror #6
 ad8:	68637475 	stmdavs	r3!, {r0, r2, r4, r5, r6, sl, ip, sp, lr}^
 adc:	632e7261 			; <UNDEFINED> instruction: 0x632e7261
 ae0:	73656400 	cmnvc	r5, #0, 8
 ae4:	2f2e0074 	svccs	0x002e0074
 ae8:	6362696c 	cmnvs	r2, #108, 18	; 0x1b0000
 aec:	7274732f 	rsbsvc	r7, r4, #-1140850688	; 0xbc000000
 af0:	2e746163 	rpwcssz	f6, f4, f3
 af4:	2f2e0063 	svccs	0x002e0063
 af8:	6362696c 	cmnvs	r2, #108, 18	; 0x1b0000
 afc:	7274732f 	rsbsvc	r7, r4, #-1140850688	; 0xbc000000
 b00:	2e706d63 	cdpcs	13, 7, cr6, cr0, cr3, {3}
 b04:	2f2e0063 	svccs	0x002e0063
 b08:	6362696c 	cmnvs	r2, #108, 18	; 0x1b0000
 b0c:	7274732f 	rsbsvc	r7, r4, #-1140850688	; 0xbc000000
 b10:	2e797063 	cdpcs	0, 7, cr7, cr9, cr3, {3}
 b14:	2f2e0063 	svccs	0x002e0063
 b18:	6362696c 	cmnvs	r2, #108, 18	; 0x1b0000
 b1c:	7274732f 	rsbsvc	r7, r4, #-1140850688	; 0xbc000000
 b20:	706d636e 	rsbvc	r6, sp, lr, ror #6
 b24:	2e00632e 	cdpcs	3, 0, cr6, cr0, cr14, {1}
 b28:	6174732f 	cmnvs	r4, pc, lsr #6
 b2c:	732d6666 			; <UNDEFINED> instruction: 0x732d6666
 b30:	642f6372 	strtvs	r6, [pc], #-882	; b38 <__code_start__-0x74c8>
 b34:	75616665 	strbvc	r6, [r1, #-1637]!	; 0xfffff99b
 b38:	722d746c 	eorvc	r7, sp, #108, 8	; 0x6c000000
 b3c:	6f6f6265 	svcvs	0x006f6265
 b40:	61632d74 	smcvs	13012	; 0x32d4
 b44:	756f6c6c 	strbvc	r6, [pc, #-3180]!	; fffffee0 <__bss_end__+0xffff58c8>
 b48:	00632e74 	rsbeq	r2, r3, r4, ror lr

Disassembly of section .debug_frame:

00000000 <.debug_frame>:
   0:	0000000c 	andeq	r0, r0, ip
   4:	ffffffff 			; <UNDEFINED> instruction: 0xffffffff
   8:	7c020001 	stcvc	0, cr0, [r2], {1}
   c:	000d0c0e 	andeq	r0, sp, lr, lsl #24
  10:	00000028 	andeq	r0, r0, r8, lsr #32
  14:	00000000 	andeq	r0, r0, r0
  18:	00008038 	andeq	r8, r0, r8, lsr r0
  1c:	000004ec 	andeq	r0, r0, ip, ror #9
  20:	841c0e42 	ldrhi	r0, [ip], #-3650	; 0xfffff1be
  24:	86068507 	strhi	r8, [r6], -r7, lsl #10
  28:	88048705 	stmdahi	r4, {r0, r2, r8, r9, sl, pc}
  2c:	8e028903 	vmlahi.f16	s16, s4, s6	; <UNPREDICTABLE>
  30:	280e4201 	stmdacs	lr, {r0, r9, lr}
  34:	0a01a603 	beq	69848 <__bss_end__+0x5f230>
  38:	0b421c0e 	bleq	1087078 <__bss_end__+0x107ca60>
  3c:	00000018 	andeq	r0, r0, r8, lsl r0
  40:	00000000 	andeq	r0, r0, r0
  44:	00008524 	andeq	r8, r0, r4, lsr #10
  48:	00000068 	andeq	r0, r0, r8, rrx
  4c:	84100e42 	ldrhi	r0, [r0], #-3650	; 0xfffff1be
  50:	86038504 	strhi	r8, [r3], -r4, lsl #10
  54:	00018e02 	andeq	r8, r1, r2, lsl #28
  58:	0000000c 	andeq	r0, r0, ip
  5c:	ffffffff 			; <UNDEFINED> instruction: 0xffffffff
  60:	7c020001 	stcvc	0, cr0, [r2], {1}
  64:	000d0c0e 	andeq	r0, sp, lr, lsl #24
  68:	0000000c 	andeq	r0, r0, ip
  6c:	00000058 	andeq	r0, r0, r8, asr r0
  70:	00008590 	muleq	r0, r0, r5
  74:	00000608 	andeq	r0, r0, r8, lsl #12
  78:	0000001c 	andeq	r0, r0, ip, lsl r0
  7c:	00000058 	andeq	r0, r0, r8, asr r0
  80:	00008b98 	muleq	r0, r8, fp
  84:	00000044 	andeq	r0, r0, r4, asr #32
  88:	84180e42 	ldrhi	r0, [r8], #-3650	; 0xfffff1be
  8c:	86058506 	strhi	r8, [r5], -r6, lsl #10
  90:	88038704 	stmdahi	r3, {r2, r8, r9, sl, pc}
  94:	00018e02 	andeq	r8, r1, r2, lsl #28
  98:	00000018 	andeq	r0, r0, r8, lsl r0
  9c:	00000058 	andeq	r0, r0, r8, asr r0
  a0:	00008bdc 	ldrdeq	r8, [r0], -ip
  a4:	00000038 	andeq	r0, r0, r8, lsr r0
  a8:	84100e42 	ldrhi	r0, [r0], #-3650	; 0xfffff1be
  ac:	86038504 	strhi	r8, [r3], -r4, lsl #10
  b0:	00018e02 	andeq	r8, r1, r2, lsl #28
  b4:	0000000c 	andeq	r0, r0, ip
  b8:	00000058 	andeq	r0, r0, r8, asr r0
  bc:	00008c14 	andeq	r8, r0, r4, lsl ip
  c0:	00000028 	andeq	r0, r0, r8, lsr #32
  c4:	00000020 	andeq	r0, r0, r0, lsr #32
  c8:	00000058 	andeq	r0, r0, r8, asr r0
  cc:	00008c3c 	andeq	r8, r0, ip, lsr ip
  d0:	00000044 	andeq	r0, r0, r4, asr #32
  d4:	84100e42 	ldrhi	r0, [r0], #-3650	; 0xfffff1be
  d8:	86038504 	strhi	r8, [r3], -r4, lsl #10
  dc:	42018e02 	andmi	r8, r1, #2, 28
  e0:	0e5c180e 	cdpeq	8, 5, cr1, cr12, cr14, {0}
  e4:	00000010 	andeq	r0, r0, r0, lsl r0
  e8:	00000014 	andeq	r0, r0, r4, lsl r0
  ec:	00000058 	andeq	r0, r0, r8, asr r0
  f0:	00008c80 	andeq	r8, r0, r0, lsl #25
  f4:	00000010 	andeq	r0, r0, r0, lsl r0
  f8:	84080e42 	strhi	r0, [r8], #-3650	; 0xfffff1be
  fc:	00018e02 	andeq	r8, r1, r2, lsl #28
 100:	0000001c 	andeq	r0, r0, ip, lsl r0
 104:	00000058 	andeq	r0, r0, r8, asr r0
 108:	00008c90 	muleq	r0, r0, ip
 10c:	000000a8 	andeq	r0, r0, r8, lsr #1
 110:	84180e42 	ldrhi	r0, [r8], #-3650	; 0xfffff1be
 114:	86058506 	strhi	r8, [r5], -r6, lsl #10
 118:	88038704 	stmdahi	r3, {r2, r8, r9, sl, pc}
 11c:	00018e02 	andeq	r8, r1, r2, lsl #28
 120:	0000000c 	andeq	r0, r0, ip
 124:	ffffffff 			; <UNDEFINED> instruction: 0xffffffff
 128:	7c020001 	stcvc	0, cr0, [r2], {1}
 12c:	000d0c0e 	andeq	r0, sp, lr, lsl #24
 130:	0000000c 	andeq	r0, r0, ip
 134:	00000120 	andeq	r0, r0, r0, lsr #2
 138:	00008d38 	andeq	r8, r0, r8, lsr sp
 13c:	00000018 	andeq	r0, r0, r8, lsl r0
 140:	0000000c 	andeq	r0, r0, ip
 144:	ffffffff 			; <UNDEFINED> instruction: 0xffffffff
 148:	7c020001 	stcvc	0, cr0, [r2], {1}
 14c:	000d0c0e 	andeq	r0, sp, lr, lsl #24
 150:	00000034 	andeq	r0, r0, r4, lsr r0
 154:	00000140 	andeq	r0, r0, r0, asr #2
 158:	00008d50 	andeq	r8, r0, r0, asr sp
 15c:	00000058 	andeq	r0, r0, r8, asr r0
 160:	80100e42 	andshi	r0, r0, r2, asr #28
 164:	82038104 	andhi	r8, r3, #1
 168:	42018302 	andmi	r8, r1, #134217728	; 0x8000000
 16c:	07841c0e 	streq	r1, [r4, lr, lsl #24]
 170:	058e0685 	streq	r0, [lr, #1669]	; 0x685
 174:	5c280e42 	stcpl	14, cr0, [r8], #-264	; 0xfffffef8
 178:	ce421c0e 	cdpgt	12, 4, cr1, cr2, cr14, {0}
 17c:	100ec4c5 	andne	ip, lr, r5, asr #9
 180:	c1c2c342 	bicgt	ip, r2, r2, asr #6
 184:	00000ec0 	andeq	r0, r0, r0, asr #29
 188:	0000000c 	andeq	r0, r0, ip
 18c:	ffffffff 			; <UNDEFINED> instruction: 0xffffffff
 190:	7c020001 	stcvc	0, cr0, [r2], {1}
 194:	000d0c0e 	andeq	r0, sp, lr, lsl #24
 198:	00000014 	andeq	r0, r0, r4, lsl r0
 19c:	00000188 	andeq	r0, r0, r8, lsl #3
 1a0:	00008da8 	andeq	r8, r0, r8, lsr #27
 1a4:	00000034 	andeq	r0, r0, r4, lsr r0
 1a8:	84080e42 	strhi	r0, [r8], #-3650	; 0xfffff1be
 1ac:	00018e02 	andeq	r8, r1, r2, lsl #28
 1b0:	0000000c 	andeq	r0, r0, ip
 1b4:	ffffffff 			; <UNDEFINED> instruction: 0xffffffff
 1b8:	7c020001 	stcvc	0, cr0, [r2], {1}
 1bc:	000d0c0e 	andeq	r0, sp, lr, lsl #24
 1c0:	0000000c 	andeq	r0, r0, ip
 1c4:	000001b0 			; <UNDEFINED> instruction: 0x000001b0
 1c8:	00008ddc 	ldrdeq	r8, [r0], -ip
 1cc:	00000014 	andeq	r0, r0, r4, lsl r0
 1d0:	0000000c 	andeq	r0, r0, ip
 1d4:	000001b0 			; <UNDEFINED> instruction: 0x000001b0
 1d8:	00008df0 	strdeq	r8, [r0], -r0
 1dc:	00000024 	andeq	r0, r0, r4, lsr #32
 1e0:	0000000c 	andeq	r0, r0, ip
 1e4:	000001b0 			; <UNDEFINED> instruction: 0x000001b0
 1e8:	00008e14 	andeq	r8, r0, r4, lsl lr
 1ec:	00000038 	andeq	r0, r0, r8, lsr r0
 1f0:	00000024 	andeq	r0, r0, r4, lsr #32
 1f4:	000001b0 			; <UNDEFINED> instruction: 0x000001b0
 1f8:	00008e4c 	andeq	r8, r0, ip, asr #28
 1fc:	000001b4 			; <UNDEFINED> instruction: 0x000001b4
 200:	84140e42 	ldrhi	r0, [r4], #-3650	; 0xfffff1be
 204:	86048505 	strhi	r8, [r4], -r5, lsl #10
 208:	8e028703 	cdphi	7, 0, cr8, cr2, cr3, {0}
 20c:	600e4201 	andvs	r4, lr, r1, lsl #4
 210:	0e0a9a02 	vmlaeq.f32	s18, s20, s4
 214:	000b4214 	andeq	r4, fp, r4, lsl r2
 218:	00000014 	andeq	r0, r0, r4, lsl r0
 21c:	000001b0 			; <UNDEFINED> instruction: 0x000001b0
 220:	00009000 	andeq	r9, r0, r0
 224:	00000064 	andeq	r0, r0, r4, rrx
 228:	8e040e54 	mcrhi	14, 0, r0, cr4, cr4, {2}
 22c:	100e4201 	andne	r4, lr, r1, lsl #4
 230:	0000002c 	andeq	r0, r0, ip, lsr #32
 234:	000001b0 			; <UNDEFINED> instruction: 0x000001b0
 238:	00009064 	andeq	r9, r0, r4, rrx
 23c:	000004b8 			; <UNDEFINED> instruction: 0x000004b8
 240:	84240e42 	strthi	r0, [r4], #-3650	; 0xfffff1be
 244:	86088509 	strhi	r8, [r8], -r9, lsl #10
 248:	88068707 	stmdahi	r6, {r0, r1, r2, r8, r9, sl, pc}
 24c:	8a048905 	bhi	122668 <__bss_end__+0x118050>
 250:	8e028b03 	vmlahi.f64	d8, d2, d3
 254:	b80e4201 	stmdalt	lr, {r0, r9, lr}
 258:	02380302 	eorseq	r0, r8, #134217728	; 0x8000000
 25c:	0000240e 	andeq	r2, r0, lr, lsl #8
 260:	0000000c 	andeq	r0, r0, ip
 264:	ffffffff 			; <UNDEFINED> instruction: 0xffffffff
 268:	7c020001 	stcvc	0, cr0, [r2], {1}
 26c:	000d0c0e 	andeq	r0, sp, lr, lsl #24
 270:	0000000c 	andeq	r0, r0, ip
 274:	00000260 	andeq	r0, r0, r0, ror #4
 278:	0000951c 	andeq	r9, r0, ip, lsl r5
 27c:	00000010 	andeq	r0, r0, r0, lsl r0
 280:	0000000c 	andeq	r0, r0, ip
 284:	00000260 	andeq	r0, r0, r0, ror #4
 288:	0000952c 	andeq	r9, r0, ip, lsr #10
 28c:	00000010 	andeq	r0, r0, r0, lsl r0
 290:	0000000c 	andeq	r0, r0, ip
 294:	ffffffff 			; <UNDEFINED> instruction: 0xffffffff
 298:	7c020001 	stcvc	0, cr0, [r2], {1}
 29c:	000d0c0e 	andeq	r0, sp, lr, lsl #24
 2a0:	00000014 	andeq	r0, r0, r4, lsl r0
 2a4:	00000290 	muleq	r0, r0, r2
 2a8:	0000953c 	andeq	r9, r0, ip, lsr r5
 2ac:	0000002c 	andeq	r0, r0, ip, lsr #32
 2b0:	84080e42 	strhi	r0, [r8], #-3650	; 0xfffff1be
 2b4:	00018e02 	andeq	r8, r1, r2, lsl #28
 2b8:	0000000c 	andeq	r0, r0, ip
 2bc:	ffffffff 			; <UNDEFINED> instruction: 0xffffffff
 2c0:	7c020001 	stcvc	0, cr0, [r2], {1}
 2c4:	000d0c0e 	andeq	r0, sp, lr, lsl #24
 2c8:	00000014 	andeq	r0, r0, r4, lsl r0
 2cc:	000002b8 			; <UNDEFINED> instruction: 0x000002b8
 2d0:	00009568 	andeq	r9, r0, r8, ror #10
 2d4:	0000003c 	andeq	r0, r0, ip, lsr r0
 2d8:	84080e42 	strhi	r0, [r8], #-3650	; 0xfffff1be
 2dc:	00018e02 	andeq	r8, r1, r2, lsl #28
 2e0:	0000000c 	andeq	r0, r0, ip
 2e4:	ffffffff 			; <UNDEFINED> instruction: 0xffffffff
 2e8:	7c020001 	stcvc	0, cr0, [r2], {1}
 2ec:	000d0c0e 	andeq	r0, sp, lr, lsl #24
 2f0:	0000000c 	andeq	r0, r0, ip
 2f4:	000002e0 	andeq	r0, r0, r0, ror #5
 2f8:	000095a4 	andeq	r9, r0, r4, lsr #11
 2fc:	00000004 	andeq	r0, r0, r4
 300:	0000000c 	andeq	r0, r0, ip
 304:	ffffffff 			; <UNDEFINED> instruction: 0xffffffff
 308:	7c020001 	stcvc	0, cr0, [r2], {1}
 30c:	000d0c0e 	andeq	r0, sp, lr, lsl #24
 310:	0000000c 	andeq	r0, r0, ip
 314:	00000300 	andeq	r0, r0, r0, lsl #6
 318:	000095a8 	andeq	r9, r0, r8, lsr #11
 31c:	00000018 	andeq	r0, r0, r8, lsl r0
 320:	0000000c 	andeq	r0, r0, ip
 324:	00000300 	andeq	r0, r0, r0, lsl #6
 328:	000095c0 	andeq	r9, r0, r0, asr #11
 32c:	00000014 	andeq	r0, r0, r4, lsl r0
 330:	00000014 	andeq	r0, r0, r4, lsl r0
 334:	00000300 	andeq	r0, r0, r0, lsl #6
 338:	000095d4 	ldrdeq	r9, [r0], -r4
 33c:	00000054 	andeq	r0, r0, r4, asr r0
 340:	84080e42 	strhi	r0, [r8], #-3650	; 0xfffff1be
 344:	00018e02 	andeq	r8, r1, r2, lsl #28
 348:	0000000c 	andeq	r0, r0, ip
 34c:	ffffffff 			; <UNDEFINED> instruction: 0xffffffff
 350:	7c020001 	stcvc	0, cr0, [r2], {1}
 354:	000d0c0e 	andeq	r0, sp, lr, lsl #24
 358:	00000014 	andeq	r0, r0, r4, lsl r0
 35c:	00000348 	andeq	r0, r0, r8, asr #6
 360:	00009628 	andeq	r9, r0, r8, lsr #12
 364:	00000014 	andeq	r0, r0, r4, lsl r0
 368:	84080e42 	strhi	r0, [r8], #-3650	; 0xfffff1be
 36c:	00018e02 	andeq	r8, r1, r2, lsl #28
 370:	00000014 	andeq	r0, r0, r4, lsl r0
 374:	00000348 	andeq	r0, r0, r8, asr #6
 378:	0000963c 	andeq	r9, r0, ip, lsr r6
 37c:	0000001c 	andeq	r0, r0, ip, lsl r0
 380:	84080e42 	strhi	r0, [r8], #-3650	; 0xfffff1be
 384:	00018e02 	andeq	r8, r1, r2, lsl #28
 388:	00000018 	andeq	r0, r0, r8, lsl r0
 38c:	00000348 	andeq	r0, r0, r8, asr #6
 390:	00009658 	andeq	r9, r0, r8, asr r6
 394:	00000024 	andeq	r0, r0, r4, lsr #32
 398:	84100e42 	ldrhi	r0, [r0], #-3650	; 0xfffff1be
 39c:	86038504 	strhi	r8, [r3], -r4, lsl #10
 3a0:	00018e02 	andeq	r8, r1, r2, lsl #28
 3a4:	00000014 	andeq	r0, r0, r4, lsl r0
 3a8:	00000348 	andeq	r0, r0, r8, asr #6
 3ac:	0000967c 	andeq	r9, r0, ip, ror r6
 3b0:	00000018 	andeq	r0, r0, r8, lsl r0
 3b4:	84080e42 	strhi	r0, [r8], #-3650	; 0xfffff1be
 3b8:	00018e02 	andeq	r8, r1, r2, lsl #28
 3bc:	00000014 	andeq	r0, r0, r4, lsl r0
 3c0:	00000348 	andeq	r0, r0, r8, asr #6
 3c4:	00009694 	muleq	r0, r4, r6
 3c8:	00000018 	andeq	r0, r0, r8, lsl r0
 3cc:	84080e42 	strhi	r0, [r8], #-3650	; 0xfffff1be
 3d0:	00018e02 	andeq	r8, r1, r2, lsl #28
 3d4:	0000000c 	andeq	r0, r0, ip
 3d8:	ffffffff 			; <UNDEFINED> instruction: 0xffffffff
 3dc:	7c020001 	stcvc	0, cr0, [r2], {1}
 3e0:	000d0c0e 	andeq	r0, sp, lr, lsl #24
 3e4:	00000018 	andeq	r0, r0, r8, lsl r0
 3e8:	000003d4 	ldrdeq	r0, [r0], -r4
 3ec:	000096ac 	andeq	r9, r0, ip, lsr #13
 3f0:	00000064 	andeq	r0, r0, r4, rrx
 3f4:	84100e46 	ldrhi	r0, [r0], #-3654	; 0xfffff1ba
 3f8:	86038504 	strhi	r8, [r3], -r4, lsl #10
 3fc:	00018e02 	andeq	r8, r1, r2, lsl #28
 400:	00000014 	andeq	r0, r0, r4, lsl r0
 404:	000003d4 	ldrdeq	r0, [r0], -r4
 408:	00009710 	andeq	r9, r0, r0, lsl r7
 40c:	00000010 	andeq	r0, r0, r0, lsl r0
 410:	84080e42 	strhi	r0, [r8], #-3650	; 0xfffff1be
 414:	00018e02 	andeq	r8, r1, r2, lsl #28
 418:	00000014 	andeq	r0, r0, r4, lsl r0
 41c:	000003d4 	ldrdeq	r0, [r0], -r4
 420:	00009720 	andeq	r9, r0, r0, lsr #14
 424:	00000024 	andeq	r0, r0, r4, lsr #32
 428:	84080e46 	strhi	r0, [r8], #-3654	; 0xfffff1ba
 42c:	00018e02 	andeq	r8, r1, r2, lsl #28
 430:	00000014 	andeq	r0, r0, r4, lsl r0
 434:	000003d4 	ldrdeq	r0, [r0], -r4
 438:	00009744 	andeq	r9, r0, r4, asr #14
 43c:	00000024 	andeq	r0, r0, r4, lsr #32
 440:	84080e46 	strhi	r0, [r8], #-3654	; 0xfffff1ba
 444:	00018e02 	andeq	r8, r1, r2, lsl #28
 448:	00000014 	andeq	r0, r0, r4, lsl r0
 44c:	000003d4 	ldrdeq	r0, [r0], -r4
 450:	00009768 	andeq	r9, r0, r8, ror #14
 454:	00000010 	andeq	r0, r0, r0, lsl r0
 458:	84080e42 	strhi	r0, [r8], #-3650	; 0xfffff1be
 45c:	00018e02 	andeq	r8, r1, r2, lsl #28
 460:	00000014 	andeq	r0, r0, r4, lsl r0
 464:	000003d4 	ldrdeq	r0, [r0], -r4
 468:	00009778 	andeq	r9, r0, r8, ror r7
 46c:	0000001c 	andeq	r0, r0, ip, lsl r0
 470:	84080e42 	strhi	r0, [r8], #-3650	; 0xfffff1be
 474:	00018e02 	andeq	r8, r1, r2, lsl #28
 478:	00000018 	andeq	r0, r0, r8, lsl r0
 47c:	000003d4 	ldrdeq	r0, [r0], -r4
 480:	00009794 	muleq	r0, r4, r7
 484:	00000034 	andeq	r0, r0, r4, lsr r0
 488:	84080e46 	strhi	r0, [r8], #-3654	; 0xfffff1ba
 48c:	4e018e02 	cdpmi	14, 0, cr8, cr1, cr2, {0}
 490:	cec4000e 	cdpgt	0, 12, cr0, cr4, cr14, {0}
 494:	0000000c 	andeq	r0, r0, ip
 498:	ffffffff 			; <UNDEFINED> instruction: 0xffffffff
 49c:	7c020001 	stcvc	0, cr0, [r2], {1}
 4a0:	000d0c0e 	andeq	r0, sp, lr, lsl #24
 4a4:	00000018 	andeq	r0, r0, r8, lsl r0
 4a8:	00000494 	muleq	r0, r4, r4
 4ac:	000097c8 	andeq	r9, r0, r8, asr #15
 4b0:	00000020 	andeq	r0, r0, r0, lsr #32
 4b4:	84100e42 	ldrhi	r0, [r0], #-3650	; 0xfffff1be
 4b8:	86038504 	strhi	r8, [r3], -r4, lsl #10
 4bc:	00018e02 	andeq	r8, r1, r2, lsl #28
 4c0:	00000018 	andeq	r0, r0, r8, lsl r0
 4c4:	00000494 	muleq	r0, r4, r4
 4c8:	000097e8 	andeq	r9, r0, r8, ror #15
 4cc:	00000020 	andeq	r0, r0, r0, lsr #32
 4d0:	84100e42 	ldrhi	r0, [r0], #-3650	; 0xfffff1be
 4d4:	86038504 	strhi	r8, [r3], -r4, lsl #10
 4d8:	00018e02 	andeq	r8, r1, r2, lsl #28
 4dc:	00000014 	andeq	r0, r0, r4, lsl r0
 4e0:	00000494 	muleq	r0, r4, r4
 4e4:	00009808 	andeq	r9, r0, r8, lsl #16
 4e8:	000000b0 	strheq	r0, [r0], -r0	; <UNPREDICTABLE>
 4ec:	84080e42 	strhi	r0, [r8], #-3650	; 0xfffff1be
 4f0:	00018e02 	andeq	r8, r1, r2, lsl #28
 4f4:	00000014 	andeq	r0, r0, r4, lsl r0
 4f8:	00000494 	muleq	r0, r4, r4
 4fc:	000098b8 			; <UNDEFINED> instruction: 0x000098b8
 500:	00000018 	andeq	r0, r0, r8, lsl r0
 504:	84080e42 	strhi	r0, [r8], #-3650	; 0xfffff1be
 508:	00018e02 	andeq	r8, r1, r2, lsl #28
 50c:	00000014 	andeq	r0, r0, r4, lsl r0
 510:	00000494 	muleq	r0, r4, r4
 514:	000098d0 	ldrdeq	r9, [r0], -r0
 518:	00000020 	andeq	r0, r0, r0, lsr #32
 51c:	84080e42 	strhi	r0, [r8], #-3650	; 0xfffff1be
 520:	00018e02 	andeq	r8, r1, r2, lsl #28
 524:	00000014 	andeq	r0, r0, r4, lsl r0
 528:	00000494 	muleq	r0, r4, r4
 52c:	000098f0 	strdeq	r9, [r0], -r0
 530:	00000030 	andeq	r0, r0, r0, lsr r0
 534:	84080e42 	strhi	r0, [r8], #-3650	; 0xfffff1be
 538:	00018e02 	andeq	r8, r1, r2, lsl #28
 53c:	00000014 	andeq	r0, r0, r4, lsl r0
 540:	00000494 	muleq	r0, r4, r4
 544:	00009920 	andeq	r9, r0, r0, lsr #18
 548:	00000030 	andeq	r0, r0, r0, lsr r0
 54c:	84080e42 	strhi	r0, [r8], #-3650	; 0xfffff1be
 550:	00018e02 	andeq	r8, r1, r2, lsl #28
 554:	00000014 	andeq	r0, r0, r4, lsl r0
 558:	00000494 	muleq	r0, r4, r4
 55c:	00009950 	andeq	r9, r0, r0, asr r9
 560:	00000010 	andeq	r0, r0, r0, lsl r0
 564:	84080e42 	strhi	r0, [r8], #-3650	; 0xfffff1be
 568:	00018e02 	andeq	r8, r1, r2, lsl #28
 56c:	00000014 	andeq	r0, r0, r4, lsl r0
 570:	00000494 	muleq	r0, r4, r4
 574:	00009960 	andeq	r9, r0, r0, ror #18
 578:	00000020 	andeq	r0, r0, r0, lsr #32
 57c:	84080e42 	strhi	r0, [r8], #-3650	; 0xfffff1be
 580:	00018e02 	andeq	r8, r1, r2, lsl #28
 584:	00000014 	andeq	r0, r0, r4, lsl r0
 588:	00000494 	muleq	r0, r4, r4
 58c:	00009980 	andeq	r9, r0, r0, lsl #19
 590:	00000014 	andeq	r0, r0, r4, lsl r0
 594:	84080e42 	strhi	r0, [r8], #-3650	; 0xfffff1be
 598:	00018e02 	andeq	r8, r1, r2, lsl #28
 59c:	00000014 	andeq	r0, r0, r4, lsl r0
 5a0:	00000494 	muleq	r0, r4, r4
 5a4:	00009994 	muleq	r0, r4, r9
 5a8:	00000024 	andeq	r0, r0, r4, lsr #32
 5ac:	84080e42 	strhi	r0, [r8], #-3650	; 0xfffff1be
 5b0:	00018e02 	andeq	r8, r1, r2, lsl #28
 5b4:	0000000c 	andeq	r0, r0, ip
 5b8:	ffffffff 			; <UNDEFINED> instruction: 0xffffffff
 5bc:	7c020001 	stcvc	0, cr0, [r2], {1}
 5c0:	000d0c0e 	andeq	r0, sp, lr, lsl #24
 5c4:	0000000c 	andeq	r0, r0, ip
 5c8:	000005b4 			; <UNDEFINED> instruction: 0x000005b4
 5cc:	000099b8 			; <UNDEFINED> instruction: 0x000099b8
 5d0:	00000010 	andeq	r0, r0, r0, lsl r0
 5d4:	0000000c 	andeq	r0, r0, ip
 5d8:	000005b4 			; <UNDEFINED> instruction: 0x000005b4
 5dc:	000099c8 	andeq	r9, r0, r8, asr #19
 5e0:	00000010 	andeq	r0, r0, r0, lsl r0
 5e4:	0000000c 	andeq	r0, r0, ip
 5e8:	000005b4 			; <UNDEFINED> instruction: 0x000005b4
 5ec:	000099d8 	ldrdeq	r9, [r0], -r8
 5f0:	00000010 	andeq	r0, r0, r0, lsl r0
 5f4:	0000001c 	andeq	r0, r0, ip, lsl r0
 5f8:	000005b4 			; <UNDEFINED> instruction: 0x000005b4
 5fc:	000099e8 	andeq	r9, r0, r8, ror #19
 600:	0000009c 	muleq	r0, ip, r0
 604:	8e040e42 	cdphi	14, 0, cr0, cr4, cr2, {2}
 608:	100e4201 	andne	r4, lr, r1, lsl #4
 60c:	040e0a58 	streq	r0, [lr], #-2648	; 0xfffff5a8
 610:	00000b42 	andeq	r0, r0, r2, asr #22
 614:	00000014 	andeq	r0, r0, r4, lsl r0
 618:	000005b4 			; <UNDEFINED> instruction: 0x000005b4
 61c:	00009a84 	andeq	r9, r0, r4, lsl #21
 620:	00000058 	andeq	r0, r0, r8, asr r0
 624:	84080e42 	strhi	r0, [r8], #-3650	; 0xfffff1be
 628:	00018e02 	andeq	r8, r1, r2, lsl #28
 62c:	0000001c 	andeq	r0, r0, ip, lsl r0
 630:	000005b4 			; <UNDEFINED> instruction: 0x000005b4
 634:	00009adc 	ldrdeq	r9, [r0], -ip
 638:	00000098 	muleq	r0, r8, r0
 63c:	8e040e42 	cdphi	14, 0, cr0, cr4, cr2, {2}
 640:	100e4201 	andne	r4, lr, r1, lsl #4
 644:	040e0a58 	streq	r0, [lr], #-2648	; 0xfffff5a8
 648:	00000b42 	andeq	r0, r0, r2, asr #22
 64c:	00000020 	andeq	r0, r0, r0, lsr #32
 650:	000005b4 			; <UNDEFINED> instruction: 0x000005b4
 654:	00009b74 	andeq	r9, r0, r4, ror fp
 658:	00000064 	andeq	r0, r0, r4, rrx
 65c:	840c0e42 	strhi	r0, [ip], #-3650	; 0xfffff1be
 660:	8e028503 	cfsh32hi	mvfx8, mvfx2, #3
 664:	180e4201 	stmdane	lr, {r0, r9, lr}
 668:	0c0e0a54 			; <UNDEFINED> instruction: 0x0c0e0a54
 66c:	00000b42 	andeq	r0, r0, r2, asr #22
 670:	0000001c 	andeq	r0, r0, ip, lsl r0
 674:	000005b4 			; <UNDEFINED> instruction: 0x000005b4
 678:	00009bd8 	ldrdeq	r9, [r0], -r8
 67c:	00000118 	andeq	r0, r0, r8, lsl r1
 680:	8e040e42 	cdphi	14, 0, cr0, cr4, cr2, {2}
 684:	100e4201 	andne	r4, lr, r1, lsl #4
 688:	040e0a6c 	streq	r0, [lr], #-2668	; 0xfffff594
 68c:	00000b42 	andeq	r0, r0, r2, asr #22
 690:	0000000c 	andeq	r0, r0, ip
 694:	000005b4 			; <UNDEFINED> instruction: 0x000005b4
 698:	00009cf0 	strdeq	r9, [r0], -r0
 69c:	00000004 	andeq	r0, r0, r4
 6a0:	0000000c 	andeq	r0, r0, ip
 6a4:	000005b4 			; <UNDEFINED> instruction: 0x000005b4
 6a8:	00009cf4 	strdeq	r9, [r0], -r4
 6ac:	00000014 	andeq	r0, r0, r4, lsl r0
 6b0:	00000014 	andeq	r0, r0, r4, lsl r0
 6b4:	000005b4 			; <UNDEFINED> instruction: 0x000005b4
 6b8:	00009d08 	andeq	r9, r0, r8, lsl #26
 6bc:	00000060 	andeq	r0, r0, r0, rrx
 6c0:	8e040e58 	mcrhi	14, 0, r0, cr4, cr8, {2}
 6c4:	100e4201 	andne	r4, lr, r1, lsl #4
 6c8:	0000000c 	andeq	r0, r0, ip
 6cc:	ffffffff 			; <UNDEFINED> instruction: 0xffffffff
 6d0:	7c020001 	stcvc	0, cr0, [r2], {1}
 6d4:	000d0c0e 	andeq	r0, sp, lr, lsl #24
 6d8:	00000014 	andeq	r0, r0, r4, lsl r0
 6dc:	000006c8 	andeq	r0, r0, r8, asr #13
 6e0:	00009d68 	andeq	r9, r0, r8, ror #26
 6e4:	00000014 	andeq	r0, r0, r4, lsl r0
 6e8:	84080e42 	strhi	r0, [r8], #-3650	; 0xfffff1be
 6ec:	00018e02 	andeq	r8, r1, r2, lsl #28
 6f0:	0000000c 	andeq	r0, r0, ip
 6f4:	000006c8 	andeq	r0, r0, r8, asr #13
 6f8:	00009d7c 	andeq	r9, r0, ip, ror sp
 6fc:	00000018 	andeq	r0, r0, r8, lsl r0
 700:	0000000c 	andeq	r0, r0, ip
 704:	000006c8 	andeq	r0, r0, r8, asr #13
 708:	00009d94 	muleq	r0, r4, sp
 70c:	00000010 	andeq	r0, r0, r0, lsl r0
 710:	0000000c 	andeq	r0, r0, ip
 714:	ffffffff 			; <UNDEFINED> instruction: 0xffffffff
 718:	7c020001 	stcvc	0, cr0, [r2], {1}
 71c:	000d0c0e 	andeq	r0, sp, lr, lsl #24
 720:	0000000c 	andeq	r0, r0, ip
 724:	00000710 	andeq	r0, r0, r0, lsl r7
 728:	00009da4 	andeq	r9, r0, r4, lsr #27
 72c:	00000034 	andeq	r0, r0, r4, lsr r0
 730:	0000000c 	andeq	r0, r0, ip
 734:	ffffffff 			; <UNDEFINED> instruction: 0xffffffff
 738:	7c020001 	stcvc	0, cr0, [r2], {1}
 73c:	000d0c0e 	andeq	r0, sp, lr, lsl #24
 740:	0000000c 	andeq	r0, r0, ip
 744:	00000730 	andeq	r0, r0, r0, lsr r7
 748:	00009dd8 	ldrdeq	r9, [r0], -r8
 74c:	0000002c 	andeq	r0, r0, ip, lsr #32
 750:	0000000c 	andeq	r0, r0, ip
 754:	ffffffff 			; <UNDEFINED> instruction: 0xffffffff
 758:	7c020001 	stcvc	0, cr0, [r2], {1}
 75c:	000d0c0e 	andeq	r0, sp, lr, lsl #24
 760:	0000000c 	andeq	r0, r0, ip
 764:	00000750 	andeq	r0, r0, r0, asr r7
 768:	00009e04 	andeq	r9, r0, r4, lsl #28
 76c:	00000020 	andeq	r0, r0, r0, lsr #32
 770:	0000000c 	andeq	r0, r0, ip
 774:	ffffffff 			; <UNDEFINED> instruction: 0xffffffff
 778:	7c020001 	stcvc	0, cr0, [r2], {1}
 77c:	000d0c0e 	andeq	r0, sp, lr, lsl #24
 780:	0000000c 	andeq	r0, r0, ip
 784:	00000770 	andeq	r0, r0, r0, ror r7
 788:	00009e24 	andeq	r9, r0, r4, lsr #28
 78c:	0000002c 	andeq	r0, r0, ip, lsr #32
 790:	0000000c 	andeq	r0, r0, ip
 794:	ffffffff 			; <UNDEFINED> instruction: 0xffffffff
 798:	7c020001 	stcvc	0, cr0, [r2], {1}
 79c:	000d0c0e 	andeq	r0, sp, lr, lsl #24
 7a0:	0000000c 	andeq	r0, r0, ip
 7a4:	00000790 	muleq	r0, r0, r7
 7a8:	00009e50 	andeq	r9, r0, r0, asr lr
 7ac:	00000004 	andeq	r0, r0, r4

Disassembly of section .debug_ranges:

00000000 <.debug_ranges>:
   0:	00000000 	andeq	r0, r0, r0
   4:	00000008 	andeq	r0, r0, r8
   8:	00000008 	andeq	r0, r0, r8
   c:	00000030 	andeq	r0, r0, r0, lsr r0
  10:	00000030 	andeq	r0, r0, r0, lsr r0
  14:	00000060 	andeq	r0, r0, r0, rrx
  18:	00000304 	andeq	r0, r0, r4, lsl #6
  1c:	00000304 	andeq	r0, r0, r4, lsl #6
  20:	00000304 	andeq	r0, r0, r4, lsl #6
  24:	00000330 	andeq	r0, r0, r0, lsr r3
  28:	00000330 	andeq	r0, r0, r0, lsr r3
  2c:	00000364 	andeq	r0, r0, r4, ror #6
	...
  38:	00000008 	andeq	r0, r0, r8
  3c:	00000008 	andeq	r0, r0, r8
  40:	00000008 	andeq	r0, r0, r8
  44:	00000030 	andeq	r0, r0, r0, lsr r0
	...
  50:	00000030 	andeq	r0, r0, r0, lsr r0
  54:	00000030 	andeq	r0, r0, r0, lsr r0
  58:	00000030 	andeq	r0, r0, r0, lsr r0
  5c:	00000060 	andeq	r0, r0, r0, rrx
	...
  68:	00000304 	andeq	r0, r0, r4, lsl #6
  6c:	00000304 	andeq	r0, r0, r4, lsl #6
  70:	00000304 	andeq	r0, r0, r4, lsl #6
  74:	00000330 	andeq	r0, r0, r0, lsr r3
	...
  80:	00000330 	andeq	r0, r0, r0, lsr r3
  84:	00000330 	andeq	r0, r0, r0, lsr r3
  88:	00000330 	andeq	r0, r0, r0, lsr r3
  8c:	00000364 	andeq	r0, r0, r4, ror #6
	...
  98:	00000060 	andeq	r0, r0, r0, rrx
  9c:	00000068 	andeq	r0, r0, r8, rrx
  a0:	00000068 	andeq	r0, r0, r8, rrx
  a4:	00000090 	muleq	r0, r0, r0
  a8:	00000090 	muleq	r0, r0, r0
  ac:	000000c0 	andeq	r0, r0, r0, asr #1
  b0:	00000364 	andeq	r0, r0, r4, ror #6
  b4:	00000364 	andeq	r0, r0, r4, ror #6
  b8:	00000364 	andeq	r0, r0, r4, ror #6
  bc:	00000390 	muleq	r0, r0, r3
  c0:	00000390 	muleq	r0, r0, r3
  c4:	000003c4 	andeq	r0, r0, r4, asr #7
	...
  d0:	00000068 	andeq	r0, r0, r8, rrx
  d4:	00000068 	andeq	r0, r0, r8, rrx
  d8:	00000068 	andeq	r0, r0, r8, rrx
  dc:	00000090 	muleq	r0, r0, r0
	...
  e8:	00000090 	muleq	r0, r0, r0
  ec:	00000090 	muleq	r0, r0, r0
  f0:	00000090 	muleq	r0, r0, r0
  f4:	000000c0 	andeq	r0, r0, r0, asr #1
	...
 100:	00000364 	andeq	r0, r0, r4, ror #6
 104:	00000364 	andeq	r0, r0, r4, ror #6
 108:	00000364 	andeq	r0, r0, r4, ror #6
 10c:	00000390 	muleq	r0, r0, r3
	...
 118:	00000390 	muleq	r0, r0, r3
 11c:	00000390 	muleq	r0, r0, r3
 120:	00000390 	muleq	r0, r0, r3
 124:	000003c4 	andeq	r0, r0, r4, asr #7
	...
 130:	000000c0 	andeq	r0, r0, r0, asr #1
 134:	000000c8 	andeq	r0, r0, r8, asr #1
 138:	000000c8 	andeq	r0, r0, r8, asr #1
 13c:	000000f0 	strdeq	r0, [r0], -r0	; <UNPREDICTABLE>
 140:	000000f0 	strdeq	r0, [r0], -r0	; <UNPREDICTABLE>
 144:	00000120 	andeq	r0, r0, r0, lsr #2
 148:	000003c4 	andeq	r0, r0, r4, asr #7
 14c:	000003c4 	andeq	r0, r0, r4, asr #7
 150:	000003c4 	andeq	r0, r0, r4, asr #7
 154:	000003f0 	strdeq	r0, [r0], -r0	; <UNPREDICTABLE>
 158:	000003f0 	strdeq	r0, [r0], -r0	; <UNPREDICTABLE>
 15c:	00000424 	andeq	r0, r0, r4, lsr #8
	...
 168:	000000c8 	andeq	r0, r0, r8, asr #1
 16c:	000000c8 	andeq	r0, r0, r8, asr #1
 170:	000000c8 	andeq	r0, r0, r8, asr #1
 174:	000000f0 	strdeq	r0, [r0], -r0	; <UNPREDICTABLE>
	...
 180:	000000f0 	strdeq	r0, [r0], -r0	; <UNPREDICTABLE>
 184:	000000f0 	strdeq	r0, [r0], -r0	; <UNPREDICTABLE>
 188:	000000f0 	strdeq	r0, [r0], -r0	; <UNPREDICTABLE>
 18c:	00000120 	andeq	r0, r0, r0, lsr #2
	...
 198:	000003c4 	andeq	r0, r0, r4, asr #7
 19c:	000003c4 	andeq	r0, r0, r4, asr #7
 1a0:	000003c4 	andeq	r0, r0, r4, asr #7
 1a4:	000003f0 	strdeq	r0, [r0], -r0	; <UNPREDICTABLE>
	...
 1b0:	000003f0 	strdeq	r0, [r0], -r0	; <UNPREDICTABLE>
 1b4:	000003f0 	strdeq	r0, [r0], -r0	; <UNPREDICTABLE>
 1b8:	000003f0 	strdeq	r0, [r0], -r0	; <UNPREDICTABLE>
 1bc:	00000424 	andeq	r0, r0, r4, lsr #8
	...
 1c8:	00000120 	andeq	r0, r0, r0, lsr #2
 1cc:	00000128 	andeq	r0, r0, r8, lsr #2
 1d0:	00000128 	andeq	r0, r0, r8, lsr #2
 1d4:	00000150 	andeq	r0, r0, r0, asr r1
 1d8:	00000150 	andeq	r0, r0, r0, asr r1
 1dc:	00000180 	andeq	r0, r0, r0, lsl #3
 1e0:	00000424 	andeq	r0, r0, r4, lsr #8
 1e4:	00000424 	andeq	r0, r0, r4, lsr #8
 1e8:	00000424 	andeq	r0, r0, r4, lsr #8
 1ec:	00000450 	andeq	r0, r0, r0, asr r4
 1f0:	00000450 	andeq	r0, r0, r0, asr r4
 1f4:	00000484 	andeq	r0, r0, r4, lsl #9
	...
 200:	00000128 	andeq	r0, r0, r8, lsr #2
 204:	00000128 	andeq	r0, r0, r8, lsr #2
 208:	00000128 	andeq	r0, r0, r8, lsr #2
 20c:	00000150 	andeq	r0, r0, r0, asr r1
	...
 218:	00000150 	andeq	r0, r0, r0, asr r1
 21c:	00000150 	andeq	r0, r0, r0, asr r1
 220:	00000150 	andeq	r0, r0, r0, asr r1
 224:	00000180 	andeq	r0, r0, r0, lsl #3
	...
 230:	00000424 	andeq	r0, r0, r4, lsr #8
 234:	00000424 	andeq	r0, r0, r4, lsr #8
 238:	00000424 	andeq	r0, r0, r4, lsr #8
 23c:	00000450 	andeq	r0, r0, r0, asr r4
	...
 248:	00000450 	andeq	r0, r0, r0, asr r4
 24c:	00000450 	andeq	r0, r0, r0, asr r4
 250:	00000450 	andeq	r0, r0, r0, asr r4
 254:	00000484 	andeq	r0, r0, r4, lsl #9
	...
 260:	00000180 	andeq	r0, r0, r0, lsl #3
 264:	00000188 	andeq	r0, r0, r8, lsl #3
 268:	00000188 	andeq	r0, r0, r8, lsl #3
 26c:	000001b0 			; <UNDEFINED> instruction: 0x000001b0
 270:	000001b0 			; <UNDEFINED> instruction: 0x000001b0
 274:	000001e0 	andeq	r0, r0, r0, ror #3
 278:	00000484 	andeq	r0, r0, r4, lsl #9
 27c:	00000484 	andeq	r0, r0, r4, lsl #9
 280:	00000484 	andeq	r0, r0, r4, lsl #9
 284:	000004b0 			; <UNDEFINED> instruction: 0x000004b0
 288:	000004b0 			; <UNDEFINED> instruction: 0x000004b0
 28c:	000004e4 	andeq	r0, r0, r4, ror #9
	...
 298:	00000188 	andeq	r0, r0, r8, lsl #3
 29c:	00000188 	andeq	r0, r0, r8, lsl #3
 2a0:	00000188 	andeq	r0, r0, r8, lsl #3
 2a4:	000001b0 			; <UNDEFINED> instruction: 0x000001b0
	...
 2b0:	000001b0 			; <UNDEFINED> instruction: 0x000001b0
 2b4:	000001b0 			; <UNDEFINED> instruction: 0x000001b0
 2b8:	000001b0 			; <UNDEFINED> instruction: 0x000001b0
 2bc:	000001e0 	andeq	r0, r0, r0, ror #3
	...
 2c8:	00000484 	andeq	r0, r0, r4, lsl #9
 2cc:	00000484 	andeq	r0, r0, r4, lsl #9
 2d0:	00000484 	andeq	r0, r0, r4, lsl #9
 2d4:	000004b0 			; <UNDEFINED> instruction: 0x000004b0
	...
 2e0:	000004b0 			; <UNDEFINED> instruction: 0x000004b0
 2e4:	000004b0 			; <UNDEFINED> instruction: 0x000004b0
 2e8:	000004b0 			; <UNDEFINED> instruction: 0x000004b0
 2ec:	000004e4 	andeq	r0, r0, r4, ror #9
	...
 2f8:	000001e0 	andeq	r0, r0, r0, ror #3
 2fc:	000001e8 	andeq	r0, r0, r8, ror #3
 300:	000001e8 	andeq	r0, r0, r8, ror #3
 304:	00000210 	andeq	r0, r0, r0, lsl r2
 308:	00000210 	andeq	r0, r0, r0, lsl r2
 30c:	00000240 	andeq	r0, r0, r0, asr #4
 310:	000004e4 	andeq	r0, r0, r4, ror #9
 314:	000004e4 	andeq	r0, r0, r4, ror #9
 318:	000004e4 	andeq	r0, r0, r4, ror #9
 31c:	00000510 	andeq	r0, r0, r0, lsl r5
 320:	00000510 	andeq	r0, r0, r0, lsl r5
 324:	00000544 	andeq	r0, r0, r4, asr #10
	...
 330:	000001e8 	andeq	r0, r0, r8, ror #3
 334:	000001e8 	andeq	r0, r0, r8, ror #3
 338:	000001e8 	andeq	r0, r0, r8, ror #3
 33c:	00000210 	andeq	r0, r0, r0, lsl r2
	...
 348:	00000210 	andeq	r0, r0, r0, lsl r2
 34c:	00000210 	andeq	r0, r0, r0, lsl r2
 350:	00000210 	andeq	r0, r0, r0, lsl r2
 354:	00000240 	andeq	r0, r0, r0, asr #4
	...
 360:	000004e4 	andeq	r0, r0, r4, ror #9
 364:	000004e4 	andeq	r0, r0, r4, ror #9
 368:	000004e4 	andeq	r0, r0, r4, ror #9
 36c:	00000510 	andeq	r0, r0, r0, lsl r5
	...
 378:	00000510 	andeq	r0, r0, r0, lsl r5
 37c:	00000510 	andeq	r0, r0, r0, lsl r5
 380:	00000510 	andeq	r0, r0, r0, lsl r5
 384:	00000544 	andeq	r0, r0, r4, asr #10
	...
 390:	00000240 	andeq	r0, r0, r0, asr #4
 394:	00000248 	andeq	r0, r0, r8, asr #4
 398:	00000248 	andeq	r0, r0, r8, asr #4
 39c:	00000270 	andeq	r0, r0, r0, ror r2
 3a0:	00000270 	andeq	r0, r0, r0, ror r2
 3a4:	000002a0 	andeq	r0, r0, r0, lsr #5
 3a8:	00000544 	andeq	r0, r0, r4, asr #10
 3ac:	00000544 	andeq	r0, r0, r4, asr #10
 3b0:	00000544 	andeq	r0, r0, r4, asr #10
 3b4:	00000570 	andeq	r0, r0, r0, ror r5
 3b8:	00000570 	andeq	r0, r0, r0, ror r5
 3bc:	000005a4 	andeq	r0, r0, r4, lsr #11
	...
 3c8:	00000248 	andeq	r0, r0, r8, asr #4
 3cc:	00000248 	andeq	r0, r0, r8, asr #4
 3d0:	00000248 	andeq	r0, r0, r8, asr #4
 3d4:	00000270 	andeq	r0, r0, r0, ror r2
	...
 3e0:	00000270 	andeq	r0, r0, r0, ror r2
 3e4:	00000270 	andeq	r0, r0, r0, ror r2
 3e8:	00000270 	andeq	r0, r0, r0, ror r2
 3ec:	000002a0 	andeq	r0, r0, r0, lsr #5
	...
 3f8:	00000544 	andeq	r0, r0, r4, asr #10
 3fc:	00000544 	andeq	r0, r0, r4, asr #10
 400:	00000544 	andeq	r0, r0, r4, asr #10
 404:	00000570 	andeq	r0, r0, r0, ror r5
	...
 410:	00000570 	andeq	r0, r0, r0, ror r5
 414:	00000570 	andeq	r0, r0, r0, ror r5
 418:	00000570 	andeq	r0, r0, r0, ror r5
 41c:	000005a4 	andeq	r0, r0, r4, lsr #11
	...
 428:	000002a0 	andeq	r0, r0, r0, lsr #5
 42c:	000002a8 	andeq	r0, r0, r8, lsr #5
 430:	000002a8 	andeq	r0, r0, r8, lsr #5
 434:	000002d0 	ldrdeq	r0, [r0], -r0	; <UNPREDICTABLE>
 438:	000002d0 	ldrdeq	r0, [r0], -r0	; <UNPREDICTABLE>
 43c:	00000304 	andeq	r0, r0, r4, lsl #6
 440:	000005a4 	andeq	r0, r0, r4, lsr #11
 444:	000005a4 	andeq	r0, r0, r4, lsr #11
 448:	000005a4 	andeq	r0, r0, r4, lsr #11
 44c:	000005d0 	ldrdeq	r0, [r0], -r0	; <UNPREDICTABLE>
 450:	000005d0 	ldrdeq	r0, [r0], -r0	; <UNPREDICTABLE>
 454:	00000608 	andeq	r0, r0, r8, lsl #12
	...
 460:	000002a8 	andeq	r0, r0, r8, lsr #5
 464:	000002a8 	andeq	r0, r0, r8, lsr #5
 468:	000002a8 	andeq	r0, r0, r8, lsr #5
 46c:	000002d0 	ldrdeq	r0, [r0], -r0	; <UNPREDICTABLE>
	...
 478:	000002d0 	ldrdeq	r0, [r0], -r0	; <UNPREDICTABLE>
 47c:	000002d0 	ldrdeq	r0, [r0], -r0	; <UNPREDICTABLE>
 480:	000002d0 	ldrdeq	r0, [r0], -r0	; <UNPREDICTABLE>
 484:	00000304 	andeq	r0, r0, r4, lsl #6
	...
 490:	000005a4 	andeq	r0, r0, r4, lsr #11
 494:	000005a4 	andeq	r0, r0, r4, lsr #11
 498:	000005a4 	andeq	r0, r0, r4, lsr #11
 49c:	000005d0 	ldrdeq	r0, [r0], -r0	; <UNPREDICTABLE>
	...
 4a8:	000005d0 	ldrdeq	r0, [r0], -r0	; <UNPREDICTABLE>
 4ac:	000005d0 	ldrdeq	r0, [r0], -r0	; <UNPREDICTABLE>
 4b0:	000005d0 	ldrdeq	r0, [r0], -r0	; <UNPREDICTABLE>
 4b4:	00000608 	andeq	r0, r0, r8, lsl #12
	...
 4c0:	0000075c 	andeq	r0, r0, ip, asr r7
 4c4:	0000075c 	andeq	r0, r0, ip, asr r7
 4c8:	0000075c 	andeq	r0, r0, ip, asr r7
 4cc:	0000075c 	andeq	r0, r0, ip, asr r7
 4d0:	0000075c 	andeq	r0, r0, ip, asr r7
 4d4:	00000794 	muleq	r0, r4, r7
	...
 4e0:	0000951c 	andeq	r9, r0, ip, lsl r5
 4e4:	0000953c 	andeq	r9, r0, ip, lsr r5
	...
 4f0:	000095a8 	andeq	r9, r0, r8, lsr #11
 4f4:	00009628 	andeq	r9, r0, r8, lsr #12
	...
 500:	00000134 	andeq	r0, r0, r4, lsr r1
 504:	00000134 	andeq	r0, r0, r4, lsr r1
 508:	00000134 	andeq	r0, r0, r4, lsr r1
 50c:	0000013c 	andeq	r0, r0, ip, lsr r1
	...
 518:	0000024c 	andeq	r0, r0, ip, asr #4
 51c:	00000264 	andeq	r0, r0, r4, ror #4
 520:	000002c8 	andeq	r0, r0, r8, asr #5
 524:	000002e8 	andeq	r0, r0, r8, ror #5
	...
 530:	00009e24 	andeq	r9, r0, r4, lsr #28
 534:	00009e50 	andeq	r9, r0, r0, asr lr
	...
