
tests-2.0/part1-test1.elf:     file format elf32-littlearm


Disassembly of section .text:

00008000 <__code_start__>:
    8000:	e3a00013 	mov	r0, #19, 0
    8004:	e3800080 	orr	r0, r0, #128, 0	; 0x80
    8008:	e129f000 	msr	CPSR_fc, r0
    800c:	e3a01000 	mov	r1, #0, 0
    8010:	ee071f95 	mcr	15, 0, r1, cr7, cr5, {4}
    8014:	e3a0d302 	mov	sp, #134217728	; 0x8000000
    8018:	e3a0b000 	mov	fp, #0, 0
    801c:	eb000527 	bl	94c0 <_cstart>
    8020:	eb000541 	bl	952c <rpi_reboot>

00008024 <PUT32>:
    8024:	e5801000 	str	r1, [r0]
    8028:	e12fff1e 	bx	lr

0000802c <GET32>:
    802c:	e5900000 	ldr	r0, [r0]
    8030:	e12fff1e 	bx	lr

00008034 <BRANCHTO>:
    8034:	e12fff10 	bx	r0

00008038 <notmain>:
    8038:	e92d4070 	push	{r4, r5, r6, lr}
    803c:	e24dd018 	sub	sp, sp, #24, 0
    8040:	e59f00a8 	ldr	r0, [pc, #168]	; 80f0 <notmain+0xb8>
    8044:	eb00031f 	bl	8cc8 <printk>
    8048:	e59f60a4 	ldr	r6, [pc, #164]	; 80f4 <notmain+0xbc>
    804c:	e58d6000 	str	r6, [sp]
    8050:	e59f50a0 	ldr	r5, [pc, #160]	; 80f8 <notmain+0xc0>
    8054:	e58d5004 	str	r5, [sp, #4]
    8058:	e3a03010 	mov	r3, #16, 0
    805c:	e58d3008 	str	r3, [sp, #8]
    8060:	e1a0300d 	mov	r3, sp
    8064:	e893000e 	ldm	r3, {r1, r2, r3}
    8068:	e3a00004 	mov	r0, #4, 0
    806c:	eb0000f5 	bl	8448 <ckalloc>
    8070:	e1a04000 	mov	r4, r0
    8074:	e1a01000 	mov	r1, r0
    8078:	e59f007c 	ldr	r0, [pc, #124]	; 80fc <notmain+0xc4>
    807c:	eb000311 	bl	8cc8 <printk>
    8080:	e3a02004 	mov	r2, #4, 0
    8084:	e3a01000 	mov	r1, #0, 0
    8088:	e1a00004 	mov	r0, r4
    808c:	eb000307 	bl	8cb0 <memset>
    8090:	e58d600c 	str	r6, [sp, #12]
    8094:	e58d5010 	str	r5, [sp, #16]
    8098:	e3a03013 	mov	r3, #19, 0
    809c:	e58d3014 	str	r3, [sp, #20]
    80a0:	e28d3018 	add	r3, sp, #24, 0
    80a4:	e913000e 	ldmdb	r3, {r1, r2, r3}
    80a8:	e1a00004 	mov	r0, r4
    80ac:	eb0000a1 	bl	8338 <ckfree>
    80b0:	e3a010ff 	mov	r1, #255, 0	; 0xff
    80b4:	e59f0044 	ldr	r0, [pc, #68]	; 8100 <notmain+0xc8>
    80b8:	eb000302 	bl	8cc8 <printk>
    80bc:	eb000089 	bl	82e8 <ck_heap_errors>
    80c0:	e3500000 	cmp	r0, #0, 0
    80c4:	1a000003 	bne	80d8 <notmain+0xa0>
    80c8:	e59f0034 	ldr	r0, [pc, #52]	; 8104 <notmain+0xcc>
    80cc:	eb0002fd 	bl	8cc8 <printk>
    80d0:	e28dd018 	add	sp, sp, #24, 0
    80d4:	e8bd8070 	pop	{r4, r5, r6, pc}
    80d8:	e3a03018 	mov	r3, #24, 0
    80dc:	e1a02005 	mov	r2, r5
    80e0:	e1a01006 	mov	r1, r6
    80e4:	e59f001c 	ldr	r0, [pc, #28]	; 8108 <notmain+0xd0>
    80e8:	eb0002f6 	bl	8cc8 <printk>
    80ec:	eb0004e8 	bl	9494 <clean_reboot>
    80f0:	00009dc8 	andeq	r9, r0, r8, asr #27
    80f4:	00009dd0 	ldrdeq	r9, [r0], -r0
    80f8:	00009e54 	andeq	r9, r0, r4, asr lr
    80fc:	00009de8 	andeq	r9, r0, r8, ror #27
    8100:	00009e04 	andeq	r9, r0, r4, lsl #28
    8104:	00009e34 	andeq	r9, r0, r4, lsr lr
    8108:	00009e10 	andeq	r9, r0, r0, lsl lr

0000810c <list_append>:
    810c:	e59f3058 	ldr	r3, [pc, #88]	; 816c <list_append+0x60>
    8110:	e5933000 	ldr	r3, [r3]
    8114:	e3530000 	cmp	r3, #0, 0
    8118:	0a000005 	beq	8134 <list_append+0x28>
    811c:	e3500000 	cmp	r0, #0, 0
    8120:	0a000007 	beq	8144 <list_append+0x38>
    8124:	e59f2040 	ldr	r2, [pc, #64]	; 816c <list_append+0x60>
    8128:	e5821000 	str	r1, [r2]
    812c:	e5831000 	str	r1, [r3]
    8130:	e12fff1e 	bx	lr
    8134:	e59f3030 	ldr	r3, [pc, #48]	; 816c <list_append+0x60>
    8138:	e5831004 	str	r1, [r3, #4]
    813c:	e5831000 	str	r1, [r3]
    8140:	e12fff1e 	bx	lr
    8144:	e52de004 	push	{lr}		; (str lr, [sp, #-4]!)
    8148:	e24dd00c 	sub	sp, sp, #12, 0
    814c:	e59f301c 	ldr	r3, [pc, #28]	; 8170 <list_append+0x64>
    8150:	e58d3000 	str	r3, [sp]
    8154:	e3a03026 	mov	r3, #38, 0	; 0x26
    8158:	e59f2014 	ldr	r2, [pc, #20]	; 8174 <list_append+0x68>
    815c:	e59f1014 	ldr	r1, [pc, #20]	; 8178 <list_append+0x6c>
    8160:	e59f0014 	ldr	r0, [pc, #20]	; 817c <list_append+0x70>
    8164:	eb0002d7 	bl	8cc8 <printk>
    8168:	eb0004c9 	bl	9494 <clean_reboot>
    816c:	0000a638 	andeq	sl, r0, r8, lsr r6
    8170:	00009e7c 	andeq	r9, r0, ip, ror lr
    8174:	00009f58 	andeq	r9, r0, r8, asr pc
    8178:	00009e5c 	andeq	r9, r0, ip, asr lr
    817c:	00009e68 	andeq	r9, r0, r8, ror #28

00008180 <ck_first_hdr>:
    8180:	e59f3004 	ldr	r3, [pc, #4]	; 818c <ck_first_hdr+0xc>
    8184:	e5930004 	ldr	r0, [r3, #4]
    8188:	e12fff1e 	bx	lr
    818c:	0000a638 	andeq	sl, r0, r8, lsr r6

00008190 <ck_next_hdr>:
    8190:	e3500000 	cmp	r0, #0, 0
    8194:	012fff1e 	bxeq	lr
    8198:	e5900000 	ldr	r0, [r0]
    819c:	e12fff1e 	bx	lr

000081a0 <ck_hdr_start>:
    81a0:	e28000a8 	add	r0, r0, #168, 0	; 0xa8
    81a4:	e12fff1e 	bx	lr

000081a8 <ck_hdr_end>:
    81a8:	e92d4010 	push	{r4, lr}
    81ac:	e1a04000 	mov	r4, r0
    81b0:	ebfffffa 	bl	81a0 <ck_hdr_start>
    81b4:	e5943004 	ldr	r3, [r4, #4]
    81b8:	e0800003 	add	r0, r0, r3
    81bc:	e8bd8010 	pop	{r4, pc}

000081c0 <ck_ptr_in_block>:
    81c0:	e5903004 	ldr	r3, [r0, #4]
    81c4:	e28330a8 	add	r3, r3, #168, 0	; 0xa8
    81c8:	e0803003 	add	r3, r0, r3
    81cc:	e1530001 	cmp	r3, r1
    81d0:	3a000004 	bcc	81e8 <ck_ptr_in_block+0x28>
    81d4:	e28000a8 	add	r0, r0, #168, 0	; 0xa8
    81d8:	e1500001 	cmp	r0, r1
    81dc:	9a000003 	bls	81f0 <ck_ptr_in_block+0x30>
    81e0:	e3a00000 	mov	r0, #0, 0
    81e4:	e12fff1e 	bx	lr
    81e8:	e3a00000 	mov	r0, #0, 0
    81ec:	e12fff1e 	bx	lr
    81f0:	e3a00001 	mov	r0, #1, 0
    81f4:	e12fff1e 	bx	lr

000081f8 <ck_ptr_is_alloced>:
    81f8:	e92d4070 	push	{r4, r5, r6, lr}
    81fc:	e1a05000 	mov	r5, r0
    8200:	ebffffde 	bl	8180 <ck_first_hdr>
    8204:	e1a04000 	mov	r4, r0
    8208:	ea000002 	b	8218 <ck_ptr_is_alloced+0x20>
    820c:	e1a00004 	mov	r0, r4
    8210:	ebffffde 	bl	8190 <ck_next_hdr>
    8214:	e1a04000 	mov	r4, r0
    8218:	e3540000 	cmp	r4, #0, 0
    821c:	0a000007 	beq	8240 <ck_ptr_is_alloced+0x48>
    8220:	e1a01005 	mov	r1, r5
    8224:	e1a00004 	mov	r0, r4
    8228:	ebffffe4 	bl	81c0 <ck_ptr_in_block>
    822c:	e3500000 	cmp	r0, #0, 0
    8230:	0afffff5 	beq	820c <ck_ptr_is_alloced+0x14>
    8234:	e5943008 	ldr	r3, [r4, #8]
    8238:	e353000b 	cmp	r3, #11, 0
    823c:	1afffff2 	bne	820c <ck_ptr_is_alloced+0x14>
    8240:	e1a00004 	mov	r0, r4
    8244:	e8bd8070 	pop	{r4, r5, r6, pc}

00008248 <ck_check_redzones>:
    8248:	e92d4010 	push	{r4, lr}
    824c:	e1a04000 	mov	r4, r0
    8250:	ebffffd4 	bl	81a8 <ck_hdr_end>
    8254:	e3a03000 	mov	r3, #0, 0
    8258:	ea000000 	b	8260 <ck_check_redzones+0x18>
    825c:	e2833001 	add	r3, r3, #1, 0
    8260:	e353007f 	cmp	r3, #127, 0	; 0x7f
    8264:	8a000008 	bhi	828c <ck_check_redzones+0x44>
    8268:	e0842003 	add	r2, r4, r3
    826c:	e5d22028 	ldrb	r2, [r2, #40]	; 0x28
    8270:	e35200fe 	cmp	r2, #254, 0	; 0xfe
    8274:	1a000006 	bne	8294 <ck_check_redzones+0x4c>
    8278:	e7d02003 	ldrb	r2, [r0, r3]
    827c:	e35200fe 	cmp	r2, #254, 0	; 0xfe
    8280:	0afffff5 	beq	825c <ck_check_redzones+0x14>
    8284:	e3a00001 	mov	r0, #1, 0
    8288:	e8bd8010 	pop	{r4, pc}
    828c:	e3a00000 	mov	r0, #0, 0
    8290:	e8bd8010 	pop	{r4, pc}
    8294:	e3a00001 	mov	r0, #1, 0
    8298:	e8bd8010 	pop	{r4, pc}

0000829c <ck_check_udata>:
    829c:	e5903008 	ldr	r3, [r0, #8]
    82a0:	e353000c 	cmp	r3, #12, 0
    82a4:	1a00000b 	bne	82d8 <ck_check_udata+0x3c>
    82a8:	e3a03000 	mov	r3, #0, 0
    82ac:	e5902004 	ldr	r2, [r0, #4]
    82b0:	e1520003 	cmp	r2, r3
    82b4:	9a000005 	bls	82d0 <ck_check_udata+0x34>
    82b8:	e0802003 	add	r2, r0, r3
    82bc:	e5d220a8 	ldrb	r2, [r2, #168]	; 0xa8
    82c0:	e35200fe 	cmp	r2, #254, 0	; 0xfe
    82c4:	1a000005 	bne	82e0 <ck_check_udata+0x44>
    82c8:	e2833001 	add	r3, r3, #1, 0
    82cc:	eafffff6 	b	82ac <ck_check_udata+0x10>
    82d0:	e3a00000 	mov	r0, #0, 0
    82d4:	e12fff1e 	bx	lr
    82d8:	e3a00000 	mov	r0, #0, 0
    82dc:	e12fff1e 	bx	lr
    82e0:	e3a00001 	mov	r0, #1, 0
    82e4:	e12fff1e 	bx	lr

000082e8 <ck_heap_errors>:
    82e8:	e92d4070 	push	{r4, r5, r6, lr}
    82ec:	ebffffa3 	bl	8180 <ck_first_hdr>
    82f0:	e1a04000 	mov	r4, r0
    82f4:	e3a05000 	mov	r5, #0, 0
    82f8:	ea000003 	b	830c <ck_heap_errors+0x24>
    82fc:	e1a00004 	mov	r0, r4
    8300:	ebffffe5 	bl	829c <ck_check_udata>
    8304:	e3500000 	cmp	r0, #0, 0
    8308:	1a000006 	bne	8328 <ck_heap_errors+0x40>
    830c:	e3540000 	cmp	r4, #0, 0
    8310:	0a000006 	beq	8330 <ck_heap_errors+0x48>
    8314:	e1a00004 	mov	r0, r4
    8318:	ebffffca 	bl	8248 <ck_check_redzones>
    831c:	e3500000 	cmp	r0, #0, 0
    8320:	12855001 	addne	r5, r5, #1, 0
    8324:	eafffff4 	b	82fc <ck_heap_errors+0x14>
    8328:	e2855001 	add	r5, r5, #1, 0
    832c:	eafffff6 	b	830c <ck_heap_errors+0x24>
    8330:	e1a00005 	mov	r0, r5
    8334:	e8bd8070 	pop	{r4, r5, r6, pc}

00008338 <ckfree>:
    8338:	e92d4010 	push	{r4, lr}
    833c:	e24dd018 	sub	sp, sp, #24, 0
    8340:	e1a04000 	mov	r4, r0
    8344:	e28d0018 	add	r0, sp, #24, 0
    8348:	e900000e 	stmdb	r0, {r1, r2, r3}
    834c:	e51430a0 	ldr	r3, [r4, #-160]	; 0xffffff60
    8350:	e353000b 	cmp	r3, #11, 0
    8354:	1a000018 	bne	83bc <ckfree+0x84>
    8358:	e59d3014 	ldr	r3, [sp, #20]
    835c:	e59d2010 	ldr	r2, [sp, #16]
    8360:	e59d100c 	ldr	r1, [sp, #12]
    8364:	e59f00b8 	ldr	r0, [pc, #184]	; 8424 <ckfree+0xec>
    8368:	eb000256 	bl	8cc8 <printk>
    836c:	e1a02004 	mov	r2, r4
    8370:	e514109c 	ldr	r1, [r4, #-156]	; 0xffffff64
    8374:	e59f00ac 	ldr	r0, [pc, #172]	; 8428 <ckfree+0xf0>
    8378:	eb000252 	bl	8cc8 <printk>
    837c:	e1a00004 	mov	r0, r4
    8380:	ebffff9c 	bl	81f8 <ck_ptr_is_alloced>
    8384:	e3500000 	cmp	r0, #0, 0
    8388:	0a000015 	beq	83e4 <ckfree+0xac>
    838c:	e3a0300c 	mov	r3, #12, 0
    8390:	e50430a0 	str	r3, [r4, #-160]	; 0xffffff60
    8394:	e51420a4 	ldr	r2, [r4, #-164]	; 0xffffff5c
    8398:	e3a010fe 	mov	r1, #254, 0	; 0xfe
    839c:	e1a00004 	mov	r0, r4
    83a0:	eb000242 	bl	8cb0 <memset>
    83a4:	e1a00004 	mov	r0, r4
    83a8:	ebffff92 	bl	81f8 <ck_ptr_is_alloced>
    83ac:	e3500000 	cmp	r0, #0, 0
    83b0:	1a000013 	bne	8404 <ckfree+0xcc>
    83b4:	e28dd018 	add	sp, sp, #24, 0
    83b8:	e8bd8010 	pop	{r4, pc}
    83bc:	e59d3014 	ldr	r3, [sp, #20]
    83c0:	e59d2010 	ldr	r2, [sp, #16]
    83c4:	e59d100c 	ldr	r1, [sp, #12]
    83c8:	e59f005c 	ldr	r0, [pc, #92]	; 842c <ckfree+0xf4>
    83cc:	eb00023d 	bl	8cc8 <printk>
    83d0:	e51420a0 	ldr	r2, [r4, #-160]	; 0xffffff60
    83d4:	e1a01004 	mov	r1, r4
    83d8:	e59f0050 	ldr	r0, [pc, #80]	; 8430 <ckfree+0xf8>
    83dc:	eb000239 	bl	8cc8 <printk>
    83e0:	eb00042b 	bl	9494 <clean_reboot>
    83e4:	e59f3048 	ldr	r3, [pc, #72]	; 8434 <ckfree+0xfc>
    83e8:	e58d3000 	str	r3, [sp]
    83ec:	e3a0308d 	mov	r3, #141, 0	; 0x8d
    83f0:	e59f2040 	ldr	r2, [pc, #64]	; 8438 <ckfree+0x100>
    83f4:	e59f1040 	ldr	r1, [pc, #64]	; 843c <ckfree+0x104>
    83f8:	e59f0040 	ldr	r0, [pc, #64]	; 8440 <ckfree+0x108>
    83fc:	eb000231 	bl	8cc8 <printk>
    8400:	eb000423 	bl	9494 <clean_reboot>
    8404:	e59f3038 	ldr	r3, [pc, #56]	; 8444 <ckfree+0x10c>
    8408:	e58d3000 	str	r3, [sp]
    840c:	e3a03090 	mov	r3, #144, 0	; 0x90
    8410:	e59f2020 	ldr	r2, [pc, #32]	; 8438 <ckfree+0x100>
    8414:	e59f1020 	ldr	r1, [pc, #32]	; 843c <ckfree+0x104>
    8418:	e59f0020 	ldr	r0, [pc, #32]	; 8440 <ckfree+0x108>
    841c:	eb000229 	bl	8cc8 <printk>
    8420:	eb00041b 	bl	9494 <clean_reboot>
    8424:	00009ecc 	andeq	r9, r0, ip, asr #29
    8428:	00009ed8 	ldrdeq	r9, [r0], -r8
    842c:	00009e80 	andeq	r9, r0, r0, lsl #29
    8430:	00009e98 	muleq	r0, r8, lr
    8434:	00009ef8 	strdeq	r9, [r0], -r8
    8438:	00009f64 	andeq	r9, r0, r4, ror #30
    843c:	00009e5c 	andeq	r9, r0, ip, asr lr
    8440:	00009e68 	andeq	r9, r0, r8, ror #28
    8444:	00009f18 	andeq	r9, r0, r8, lsl pc

00008448 <ckalloc>:
    8448:	e92d4070 	push	{r4, r5, r6, lr}
    844c:	e24dd010 	sub	sp, sp, #16, 0
    8450:	e1a06000 	mov	r6, r0
    8454:	e28d5004 	add	r5, sp, #4, 0
    8458:	e885000e 	stm	r5, {r1, r2, r3}
    845c:	e2800f4a 	add	r0, r0, #296	; 0x128
    8460:	eb0001e7 	bl	8c04 <kr_malloc>
    8464:	e1a04000 	mov	r4, r0
    8468:	e3a020a8 	mov	r2, #168, 0	; 0xa8
    846c:	e3a01000 	mov	r1, #0, 0
    8470:	eb00020e 	bl	8cb0 <memset>
    8474:	e3a02080 	mov	r2, #128, 0	; 0x80
    8478:	e3a010fe 	mov	r1, #254, 0	; 0xfe
    847c:	e2840028 	add	r0, r4, #40, 0	; 0x28
    8480:	eb00020a 	bl	8cb0 <memset>
    8484:	e1a00004 	mov	r0, r4
    8488:	ebffff46 	bl	81a8 <ck_hdr_end>
    848c:	e3a02080 	mov	r2, #128, 0	; 0x80
    8490:	e3a010fe 	mov	r1, #254, 0	; 0xfe
    8494:	eb000205 	bl	8cb0 <memset>
    8498:	e5846004 	str	r6, [r4, #4]
    849c:	e3a0300b 	mov	r3, #11, 0
    84a0:	e5843008 	str	r3, [r4, #8]
    84a4:	e2843010 	add	r3, r4, #16, 0
    84a8:	e8950007 	ldm	r5, {r0, r1, r2}
    84ac:	e8830007 	stm	r3, {r0, r1, r2}
    84b0:	e3a03000 	mov	r3, #0, 0
    84b4:	e5843000 	str	r3, [r4]
    84b8:	e1c432b4 	strh	r3, [r4, #36]	; 0x24
    84bc:	e59f2050 	ldr	r2, [pc, #80]	; 8514 <ckalloc+0xcc>
    84c0:	e5923000 	ldr	r3, [r2]
    84c4:	e584300c 	str	r3, [r4, #12]
    84c8:	e2833001 	add	r3, r3, #1, 0
    84cc:	e5823000 	str	r3, [r2]
    84d0:	e59d300c 	ldr	r3, [sp, #12]
    84d4:	e59d2008 	ldr	r2, [sp, #8]
    84d8:	e59d1004 	ldr	r1, [sp, #4]
    84dc:	e59f0034 	ldr	r0, [pc, #52]	; 8518 <ckalloc+0xd0>
    84e0:	eb0001f8 	bl	8cc8 <printk>
    84e4:	e28450a8 	add	r5, r4, #168, 0	; 0xa8
    84e8:	e1a02005 	mov	r2, r5
    84ec:	e594100c 	ldr	r1, [r4, #12]
    84f0:	e59f0024 	ldr	r0, [pc, #36]	; 851c <ckalloc+0xd4>
    84f4:	eb0001f3 	bl	8cc8 <printk>
    84f8:	e1a01004 	mov	r1, r4
    84fc:	e59f301c 	ldr	r3, [pc, #28]	; 8520 <ckalloc+0xd8>
    8500:	e5930004 	ldr	r0, [r3, #4]
    8504:	ebffff00 	bl	810c <list_append>
    8508:	e1a00005 	mov	r0, r5
    850c:	e28dd010 	add	sp, sp, #16, 0
    8510:	e8bd8070 	pop	{r4, r5, r6, pc}
    8514:	0000a61c 	andeq	sl, r0, ip, lsl r6
    8518:	00009ecc 	andeq	r9, r0, ip, asr #29
    851c:	00009f34 	andeq	r9, r0, r4, lsr pc
    8520:	0000a638 	andeq	sl, r0, r8, lsr r6

00008524 <in_heap>:
    8524:	e59f3030 	ldr	r3, [pc, #48]	; 855c <in_heap+0x38>
    8528:	e5933000 	ldr	r3, [r3]
    852c:	e1530000 	cmp	r3, r0
    8530:	8a000005 	bhi	854c <in_heap+0x28>
    8534:	e59f3020 	ldr	r3, [pc, #32]	; 855c <in_heap+0x38>
    8538:	e5933004 	ldr	r3, [r3, #4]
    853c:	e1530000 	cmp	r3, r0
    8540:	9a000003 	bls	8554 <in_heap+0x30>
    8544:	e3a00001 	mov	r0, #1, 0
    8548:	e12fff1e 	bx	lr
    854c:	e3a00000 	mov	r0, #0, 0
    8550:	e12fff1e 	bx	lr
    8554:	e3a00000 	mov	r0, #0, 0
    8558:	e12fff1e 	bx	lr
    855c:	0000a640 	andeq	sl, r0, r0, asr #12

00008560 <sweep_leak>:
    8560:	e92d41f0 	push	{r4, r5, r6, r7, r8, lr}
    8564:	e59f00dc 	ldr	r0, [pc, #220]	; 8648 <sweep_leak+0xe8>
    8568:	eb0001d6 	bl	8cc8 <printk>
    856c:	e59f00d8 	ldr	r0, [pc, #216]	; 864c <sweep_leak+0xec>
    8570:	eb0001d4 	bl	8cc8 <printk>
    8574:	ebffff01 	bl	8180 <ck_first_hdr>
    8578:	e1a04000 	mov	r4, r0
    857c:	e3a06000 	mov	r6, #0, 0
    8580:	e1a07006 	mov	r7, r6
    8584:	e1a05006 	mov	r5, r6
    8588:	ea00000d 	b	85c4 <sweep_leak+0x64>
    858c:	e3530000 	cmp	r3, #0, 0
    8590:	1a000004 	bne	85a8 <sweep_leak+0x48>
    8594:	e5943020 	ldr	r3, [r4, #32]
    8598:	e3530000 	cmp	r3, #0, 0
    859c:	02877001 	addeq	r7, r7, #1, 0
    85a0:	03a03001 	moveq	r3, #1, 0
    85a4:	01c432b6 	strheq	r3, [r4, #38]	; 0x26
    85a8:	e1a02004 	mov	r2, r4
    85ac:	e594100c 	ldr	r1, [r4, #12]
    85b0:	e59f0098 	ldr	r0, [pc, #152]	; 8650 <sweep_leak+0xf0>
    85b4:	eb0001c3 	bl	8cc8 <printk>
    85b8:	e1a00004 	mov	r0, r4
    85bc:	ebfffef3 	bl	8190 <ck_next_hdr>
    85c0:	e1a04000 	mov	r4, r0
    85c4:	e3540000 	cmp	r4, #0, 0
    85c8:	0a00000e 	beq	8608 <sweep_leak+0xa8>
    85cc:	e2855001 	add	r5, r5, #1, 0
    85d0:	e5943008 	ldr	r3, [r4, #8]
    85d4:	e353000b 	cmp	r3, #11, 0
    85d8:	1afffff6 	bne	85b8 <sweep_leak+0x58>
    85dc:	e5943024 	ldr	r3, [r4, #36]	; 0x24
    85e0:	e3530000 	cmp	r3, #0, 0
    85e4:	1afffff3 	bne	85b8 <sweep_leak+0x58>
    85e8:	e594301c 	ldr	r3, [r4, #28]
    85ec:	e3530000 	cmp	r3, #0, 0
    85f0:	1affffe5 	bne	858c <sweep_leak+0x2c>
    85f4:	e5942020 	ldr	r2, [r4, #32]
    85f8:	e3520000 	cmp	r2, #0, 0
    85fc:	0affffe2 	beq	858c <sweep_leak+0x2c>
    8600:	e2866001 	add	r6, r6, #1, 0
    8604:	eaffffe7 	b	85a8 <sweep_leak+0x48>
    8608:	e1a01005 	mov	r1, r5
    860c:	e59f0040 	ldr	r0, [pc, #64]	; 8654 <sweep_leak+0xf4>
    8610:	eb0001ac 	bl	8cc8 <printk>
    8614:	e1973006 	orrs	r3, r7, r6
    8618:	1a000005 	bne	8634 <sweep_leak+0xd4>
    861c:	e59f0034 	ldr	r0, [pc, #52]	; 8658 <sweep_leak+0xf8>
    8620:	eb0001a8 	bl	8cc8 <printk>
    8624:	e59f0030 	ldr	r0, [pc, #48]	; 865c <sweep_leak+0xfc>
    8628:	eb0001a6 	bl	8cc8 <printk>
    862c:	e0870006 	add	r0, r7, r6
    8630:	e8bd81f0 	pop	{r4, r5, r6, r7, r8, pc}
    8634:	e1a02006 	mov	r2, r6
    8638:	e1a01007 	mov	r1, r7
    863c:	e59f001c 	ldr	r0, [pc, #28]	; 8660 <sweep_leak+0x100>
    8640:	eb0001a0 	bl	8cc8 <printk>
    8644:	eafffff6 	b	8624 <sweep_leak+0xc4>
    8648:	00009f6c 	andeq	r9, r0, ip, ror #30
    864c:	00009fa8 	andeq	r9, r0, r8, lsr #31
    8650:	00009fc0 	andeq	r9, r0, r0, asr #31
    8654:	00009fec 	andeq	r9, r0, ip, ror #31
    8658:	0000a00c 	andeq	sl, r0, ip
    865c:	0000a064 	andeq	sl, r0, r4, rrx
    8660:	0000a034 	andeq	sl, r0, r4, lsr r0

00008664 <sweep_free>:
    8664:	e92d41f0 	push	{r4, r5, r6, r7, r8, lr}
    8668:	e59f00a0 	ldr	r0, [pc, #160]	; 8710 <sweep_free+0xac>
    866c:	eb000195 	bl	8cc8 <printk>
    8670:	e59f009c 	ldr	r0, [pc, #156]	; 8714 <sweep_free+0xb0>
    8674:	eb000193 	bl	8cc8 <printk>
    8678:	ebfffec0 	bl	8180 <ck_first_hdr>
    867c:	e1a04000 	mov	r4, r0
    8680:	e3a06000 	mov	r6, #0, 0
    8684:	e1a07006 	mov	r7, r6
    8688:	e1a05006 	mov	r5, r6
    868c:	ea000002 	b	869c <sweep_free+0x38>
    8690:	e1a00004 	mov	r0, r4
    8694:	ebfffebd 	bl	8190 <ck_next_hdr>
    8698:	e1a04000 	mov	r4, r0
    869c:	e3540000 	cmp	r4, #0, 0
    86a0:	0a000013 	beq	86f4 <sweep_free+0x90>
    86a4:	e2855001 	add	r5, r5, #1, 0
    86a8:	e5943008 	ldr	r3, [r4, #8]
    86ac:	e353000b 	cmp	r3, #11, 0
    86b0:	1afffff6 	bne	8690 <sweep_free+0x2c>
    86b4:	e1d432b4 	ldrh	r3, [r4, #36]	; 0x24
    86b8:	e3530001 	cmp	r3, #1, 0
    86bc:	0afffff3 	beq	8690 <sweep_free+0x2c>
    86c0:	e1d432b6 	ldrh	r3, [r4, #38]	; 0x26
    86c4:	e3530000 	cmp	r3, #0, 0
    86c8:	1afffff0 	bne	8690 <sweep_free+0x2c>
    86cc:	e3a0300c 	mov	r3, #12, 0
    86d0:	e5843008 	str	r3, [r4, #8]
    86d4:	e2877001 	add	r7, r7, #1, 0
    86d8:	e5943004 	ldr	r3, [r4, #4]
    86dc:	e0866003 	add	r6, r6, r3
    86e0:	e1a02004 	mov	r2, r4
    86e4:	e594100c 	ldr	r1, [r4, #12]
    86e8:	e59f0028 	ldr	r0, [pc, #40]	; 8718 <sweep_free+0xb4>
    86ec:	eb000175 	bl	8cc8 <printk>
    86f0:	eaffffe6 	b	8690 <sweep_free+0x2c>
    86f4:	e1a03006 	mov	r3, r6
    86f8:	e1a02007 	mov	r2, r7
    86fc:	e1a01005 	mov	r1, r5
    8700:	e59f0014 	ldr	r0, [pc, #20]	; 871c <sweep_free+0xb8>
    8704:	eb00016f 	bl	8cc8 <printk>
    8708:	e1a00006 	mov	r0, r6
    870c:	e8bd81f0 	pop	{r4, r5, r6, r7, r8, pc}
    8710:	00009f6c 	andeq	r9, r0, ip, ror #30
    8714:	0000a0a0 	andeq	sl, r0, r0, lsr #1
    8718:	0000a0b0 	strheq	sl, [r0], -r0
    871c:	0000a0e8 	andeq	sl, r0, r8, ror #1

00008720 <is_ptr>:
    8720:	e92d4010 	push	{r4, lr}
    8724:	e1a04000 	mov	r4, r0
    8728:	ebffff7d 	bl	8524 <in_heap>
    872c:	e3500000 	cmp	r0, #0, 0
    8730:	0a000002 	beq	8740 <is_ptr+0x20>
    8734:	e1a00004 	mov	r0, r4
    8738:	ebfffeae 	bl	81f8 <ck_ptr_is_alloced>
    873c:	e8bd8010 	pop	{r4, pc}
    8740:	e3a00000 	mov	r0, #0, 0
    8744:	e8bd8010 	pop	{r4, pc}

00008748 <mark>:
    8748:	e92d41f0 	push	{r4, r5, r6, r7, r8, lr}
    874c:	e24dd008 	sub	sp, sp, #8, 0
    8750:	e1500001 	cmp	r0, r1
    8754:	2a000007 	bcs	8778 <mark+0x30>
    8758:	e1a07000 	mov	r7, r0
    875c:	e3100003 	tst	r0, #3, 0
    8760:	1a00000c 	bne	8798 <mark+0x50>
    8764:	e2115003 	ands	r5, r1, #3, 0
    8768:	1a000012 	bne	87b8 <mark+0x70>
    876c:	e0411000 	sub	r1, r1, r0
    8770:	e1a06141 	asr	r6, r1, #2
    8774:	ea00001f 	b	87f8 <mark+0xb0>
    8778:	e59f30e4 	ldr	r3, [pc, #228]	; 8864 <mark+0x11c>
    877c:	e58d3000 	str	r3, [sp]
    8780:	e3a0304c 	mov	r3, #76, 0	; 0x4c
    8784:	e59f20dc 	ldr	r2, [pc, #220]	; 8868 <mark+0x120>
    8788:	e59f10dc 	ldr	r1, [pc, #220]	; 886c <mark+0x124>
    878c:	e59f00dc 	ldr	r0, [pc, #220]	; 8870 <mark+0x128>
    8790:	eb00014c 	bl	8cc8 <printk>
    8794:	eb00033e 	bl	9494 <clean_reboot>
    8798:	e59f30d4 	ldr	r3, [pc, #212]	; 8874 <mark+0x12c>
    879c:	e58d3000 	str	r3, [sp]
    87a0:	e3a0304e 	mov	r3, #78, 0	; 0x4e
    87a4:	e59f20bc 	ldr	r2, [pc, #188]	; 8868 <mark+0x120>
    87a8:	e59f10bc 	ldr	r1, [pc, #188]	; 886c <mark+0x124>
    87ac:	e59f00bc 	ldr	r0, [pc, #188]	; 8870 <mark+0x128>
    87b0:	eb000144 	bl	8cc8 <printk>
    87b4:	eb000336 	bl	9494 <clean_reboot>
    87b8:	e59f30b8 	ldr	r3, [pc, #184]	; 8878 <mark+0x130>
    87bc:	e58d3000 	str	r3, [sp]
    87c0:	e3a0304f 	mov	r3, #79, 0	; 0x4f
    87c4:	e59f209c 	ldr	r2, [pc, #156]	; 8868 <mark+0x120>
    87c8:	e59f109c 	ldr	r1, [pc, #156]	; 886c <mark+0x124>
    87cc:	e59f009c 	ldr	r0, [pc, #156]	; 8870 <mark+0x128>
    87d0:	eb00013c 	bl	8cc8 <printk>
    87d4:	eb00032e 	bl	9494 <clean_reboot>
    87d8:	e7973008 	ldr	r3, [r7, r8]
    87dc:	e1530004 	cmp	r3, r4
    87e0:	0a000019 	beq	884c <mark+0x104>
    87e4:	e28400a8 	add	r0, r4, #168, 0	; 0xa8
    87e8:	e5941004 	ldr	r1, [r4, #4]
    87ec:	e0801001 	add	r1, r0, r1
    87f0:	ebffffd4 	bl	8748 <mark>
    87f4:	e2855001 	add	r5, r5, #1, 0
    87f8:	e1550006 	cmp	r5, r6
    87fc:	2a000016 	bcs	885c <mark+0x114>
    8800:	e1a08105 	lsl	r8, r5, #2
    8804:	e7970105 	ldr	r0, [r7, r5, lsl #2]
    8808:	ebffffc4 	bl	8720 <is_ptr>
    880c:	e2504000 	subs	r4, r0, #0, 0
    8810:	0afffff7 	beq	87f4 <mark+0xac>
    8814:	e1d432b4 	ldrh	r3, [r4, #36]	; 0x24
    8818:	e3530000 	cmp	r3, #0, 0
    881c:	1afffff4 	bne	87f4 <mark+0xac>
    8820:	e3a03001 	mov	r3, #1, 0
    8824:	e1c432b4 	strh	r3, [r4, #36]	; 0x24
    8828:	e7971008 	ldr	r1, [r7, r8]
    882c:	e1a00004 	mov	r0, r4
    8830:	ebfffe62 	bl	81c0 <ck_ptr_in_block>
    8834:	e3500000 	cmp	r0, #0, 0
    8838:	0affffe6 	beq	87d8 <mark+0x90>
    883c:	e5943020 	ldr	r3, [r4, #32]
    8840:	e2833001 	add	r3, r3, #1, 0
    8844:	e5843020 	str	r3, [r4, #32]
    8848:	eaffffe5 	b	87e4 <mark+0x9c>
    884c:	e594301c 	ldr	r3, [r4, #28]
    8850:	e2833001 	add	r3, r3, #1, 0
    8854:	e584301c 	str	r3, [r4, #28]
    8858:	eaffffe1 	b	87e4 <mark+0x9c>
    885c:	e28dd008 	add	sp, sp, #8, 0
    8860:	e8bd81f0 	pop	{r4, r5, r6, r7, r8, pc}
    8864:	0000a124 	andeq	sl, r0, r4, lsr #2
    8868:	0000a26c 	andeq	sl, r0, ip, ror #4
    886c:	0000a11c 	andeq	sl, r0, ip, lsl r1
    8870:	00009e68 	andeq	r9, r0, r8, ror #28
    8874:	0000a128 	andeq	sl, r0, r8, lsr #2
    8878:	0000a138 	andeq	sl, r0, r8, lsr r1

0000887c <mark_all>:
    887c:	e52de004 	push	{lr}		; (str lr, [sp, #-4]!)
    8880:	e24dd044 	sub	sp, sp, #68, 0	; 0x44
    8884:	ebfffe3d 	bl	8180 <ck_first_hdr>
    8888:	e3500000 	cmp	r0, #0, 0
    888c:	0a000005 	beq	88a8 <mark_all+0x2c>
    8890:	e3a03000 	mov	r3, #0, 0
    8894:	e5803020 	str	r3, [r0, #32]
    8898:	e580301c 	str	r3, [r0, #28]
    889c:	e1c032b4 	strh	r3, [r0, #36]	; 0x24
    88a0:	ebfffe3a 	bl	8190 <ck_next_hdr>
    88a4:	eafffff7 	b	8888 <mark_all+0xc>
    88a8:	e1a0000d 	mov	r0, sp
    88ac:	eb000083 	bl	8ac0 <dump_regs>
    88b0:	e3a03000 	mov	r3, #0, 0
    88b4:	e58d3000 	str	r3, [sp]
    88b8:	e58d3004 	str	r3, [sp, #4]
    88bc:	e58d3008 	str	r3, [sp, #8]
    88c0:	e58d300c 	str	r3, [sp, #12]
    88c4:	e28d1040 	add	r1, sp, #64, 0	; 0x40
    88c8:	e1a0000d 	mov	r0, sp
    88cc:	ebffff9d 	bl	8748 <mark>
    88d0:	e3a01302 	mov	r1, #134217728	; 0x8000000
    88d4:	e59d0034 	ldr	r0, [sp, #52]	; 0x34
    88d8:	ebffff9a 	bl	8748 <mark>
    88dc:	e59f1018 	ldr	r1, [pc, #24]	; 88fc <mark_all+0x80>
    88e0:	e59f0018 	ldr	r0, [pc, #24]	; 8900 <mark_all+0x84>
    88e4:	ebffff97 	bl	8748 <mark>
    88e8:	e59f1014 	ldr	r1, [pc, #20]	; 8904 <mark_all+0x88>
    88ec:	e59f0014 	ldr	r0, [pc, #20]	; 8908 <mark_all+0x8c>
    88f0:	ebffff94 	bl	8748 <mark>
    88f4:	e28dd044 	add	sp, sp, #68, 0	; 0x44
    88f8:	e49df004 	pop	{pc}		; (ldr pc, [sp], #4)
    88fc:	0000aa68 	andeq	sl, r0, r8, ror #20
    8900:	0000a638 	andeq	sl, r0, r8, lsr r6
    8904:	0000a634 	andeq	sl, r0, r4, lsr r6
    8908:	0000a61c 	andeq	sl, r0, ip, lsl r6

0000890c <sbrk>:
    890c:	e92d4030 	push	{r4, r5, lr}
    8910:	e24dd00c 	sub	sp, sp, #12, 0
    8914:	e1a04000 	mov	r4, r0
    8918:	e59f0084 	ldr	r0, [pc, #132]	; 89a4 <sbrk+0x98>
    891c:	eb0000e9 	bl	8cc8 <printk>
    8920:	e3540000 	cmp	r4, #0, 0
    8924:	da000010 	ble	896c <sbrk+0x60>
    8928:	e59f3078 	ldr	r3, [pc, #120]	; 89a8 <sbrk+0x9c>
    892c:	e5933008 	ldr	r3, [r3, #8]
    8930:	e3530000 	cmp	r3, #0, 0
    8934:	1a000014 	bne	898c <sbrk+0x80>
    8938:	e59f5068 	ldr	r5, [pc, #104]	; 89a8 <sbrk+0x9c>
    893c:	e3a00601 	mov	r0, #1048576	; 0x100000
    8940:	e5850000 	str	r0, [r5]
    8944:	e3a03602 	mov	r3, #2097152	; 0x200000
    8948:	e5853004 	str	r3, [r5, #4]
    894c:	e1a01000 	mov	r1, r0
    8950:	eb0003b3 	bl	9824 <kmalloc_init_set_start>
    8954:	e3a03001 	mov	r3, #1, 0
    8958:	e5853008 	str	r3, [r5, #8]
    895c:	e1a00004 	mov	r0, r4
    8960:	eb000412 	bl	99b0 <kmalloc>
    8964:	e28dd00c 	add	sp, sp, #12, 0
    8968:	e8bd8030 	pop	{r4, r5, pc}
    896c:	e59f3038 	ldr	r3, [pc, #56]	; 89ac <sbrk+0xa0>
    8970:	e58d3000 	str	r3, [sp]
    8974:	e3a03015 	mov	r3, #21, 0
    8978:	e59f2030 	ldr	r2, [pc, #48]	; 89b0 <sbrk+0xa4>
    897c:	e59f1030 	ldr	r1, [pc, #48]	; 89b4 <sbrk+0xa8>
    8980:	e59f0030 	ldr	r0, [pc, #48]	; 89b8 <sbrk+0xac>
    8984:	eb0000cf 	bl	8cc8 <printk>
    8988:	eb0002c1 	bl	9494 <clean_reboot>
    898c:	e3a03017 	mov	r3, #23, 0
    8990:	e59f2018 	ldr	r2, [pc, #24]	; 89b0 <sbrk+0xa4>
    8994:	e59f1018 	ldr	r1, [pc, #24]	; 89b4 <sbrk+0xa8>
    8998:	e59f001c 	ldr	r0, [pc, #28]	; 89bc <sbrk+0xb0>
    899c:	eb0000c9 	bl	8cc8 <printk>
    89a0:	eb0002bb 	bl	9494 <clean_reboot>
    89a4:	0000a148 	andeq	sl, r0, r8, asr #2
    89a8:	0000a640 	andeq	sl, r0, r0, asr #12
    89ac:	0000a158 	andeq	sl, r0, r8, asr r1
    89b0:	0000a274 	andeq	sl, r0, r4, ror r2
    89b4:	0000a11c 	andeq	sl, r0, ip, lsl r1
    89b8:	00009e68 	andeq	r9, r0, r8, ror #28
    89bc:	0000a168 	andeq	sl, r0, r8, ror #2

000089c0 <ck_find_leaks>:
    89c0:	e92d4010 	push	{r4, lr}
    89c4:	e1a04000 	mov	r4, r0
    89c8:	e59f0018 	ldr	r0, [pc, #24]	; 89e8 <ck_find_leaks+0x28>
    89cc:	eb0000bd 	bl	8cc8 <printk>
    89d0:	ebffffa9 	bl	887c <mark_all>
    89d4:	e59f0010 	ldr	r0, [pc, #16]	; 89ec <ck_find_leaks+0x2c>
    89d8:	eb0000ba 	bl	8cc8 <printk>
    89dc:	e1a00004 	mov	r0, r4
    89e0:	ebfffede 	bl	8560 <sweep_leak>
    89e4:	e8bd8010 	pop	{r4, pc}
    89e8:	0000a188 	andeq	sl, r0, r8, lsl #3
    89ec:	0000a19c 	muleq	r0, ip, r1

000089f0 <check_no_leak>:
    89f0:	e92d4010 	push	{r4, lr}
    89f4:	e3a00001 	mov	r0, #1, 0
    89f8:	ebfffff0 	bl	89c0 <ck_find_leaks>
    89fc:	e3500000 	cmp	r0, #0, 0
    8a00:	1a000002 	bne	8a10 <check_no_leak+0x20>
    8a04:	e59f001c 	ldr	r0, [pc, #28]	; 8a28 <check_no_leak+0x38>
    8a08:	eb0000ae 	bl	8cc8 <printk>
    8a0c:	e8bd8010 	pop	{r4, pc}
    8a10:	e3a030c9 	mov	r3, #201, 0	; 0xc9
    8a14:	e59f2010 	ldr	r2, [pc, #16]	; 8a2c <check_no_leak+0x3c>
    8a18:	e59f1010 	ldr	r1, [pc, #16]	; 8a30 <check_no_leak+0x40>
    8a1c:	e59f0010 	ldr	r0, [pc, #16]	; 8a34 <check_no_leak+0x44>
    8a20:	eb0000a8 	bl	8cc8 <printk>
    8a24:	eb00029a 	bl	9494 <clean_reboot>
    8a28:	0000a1d0 	ldrdeq	sl, [r0], -r0
    8a2c:	0000a27c 	andeq	sl, r0, ip, ror r2
    8a30:	0000a11c 	andeq	sl, r0, ip, lsl r1
    8a34:	0000a1a4 	andeq	sl, r0, r4, lsr #3

00008a38 <check_should_leak>:
    8a38:	e92d4010 	push	{r4, lr}
    8a3c:	e3a00001 	mov	r0, #1, 0
    8a40:	ebffffde 	bl	89c0 <ck_find_leaks>
    8a44:	e2504000 	subs	r4, r0, #0, 0
    8a48:	0a000004 	beq	8a60 <check_should_leak+0x28>
    8a4c:	e1a01004 	mov	r1, r4
    8a50:	e59f0020 	ldr	r0, [pc, #32]	; 8a78 <check_should_leak+0x40>
    8a54:	eb00009b 	bl	8cc8 <printk>
    8a58:	e1a00004 	mov	r0, r4
    8a5c:	e8bd8010 	pop	{r4, pc}
    8a60:	e3a030d7 	mov	r3, #215, 0	; 0xd7
    8a64:	e59f2010 	ldr	r2, [pc, #16]	; 8a7c <check_should_leak+0x44>
    8a68:	e59f1010 	ldr	r1, [pc, #16]	; 8a80 <check_should_leak+0x48>
    8a6c:	e59f0010 	ldr	r0, [pc, #16]	; 8a84 <check_should_leak+0x4c>
    8a70:	eb000094 	bl	8cc8 <printk>
    8a74:	eb000286 	bl	9494 <clean_reboot>
    8a78:	0000a218 	andeq	sl, r0, r8, lsl r2
    8a7c:	0000a28c 	andeq	sl, r0, ip, lsl #5
    8a80:	0000a11c 	andeq	sl, r0, ip, lsl r1
    8a84:	0000a1f0 	strdeq	sl, [r0], -r0

00008a88 <ck_gc>:
    8a88:	e92d4010 	push	{r4, lr}
    8a8c:	ebffff7a 	bl	887c <mark_all>
    8a90:	ebfffef3 	bl	8664 <sweep_free>
    8a94:	e8bd8010 	pop	{r4, pc}

00008a98 <implement_this>:
    8a98:	e92d4010 	push	{r4, lr}
    8a9c:	e3a03c01 	mov	r3, #256	; 0x100
    8aa0:	e59f200c 	ldr	r2, [pc, #12]	; 8ab4 <implement_this+0x1c>
    8aa4:	e59f100c 	ldr	r1, [pc, #12]	; 8ab8 <implement_this+0x20>
    8aa8:	e59f000c 	ldr	r0, [pc, #12]	; 8abc <implement_this+0x24>
    8aac:	eb000085 	bl	8cc8 <printk>
    8ab0:	eb000277 	bl	9494 <clean_reboot>
    8ab4:	0000a2a0 	andeq	sl, r0, r0, lsr #5
    8ab8:	0000a11c 	andeq	sl, r0, ip, lsl r1
    8abc:	0000a23c 	andeq	sl, r0, ip, lsr r2

00008ac0 <dump_regs>:
    8ac0:	e5800000 	str	r0, [r0]
    8ac4:	e5801004 	str	r1, [r0, #4]
    8ac8:	e5802008 	str	r2, [r0, #8]
    8acc:	e580300c 	str	r3, [r0, #12]
    8ad0:	e5804010 	str	r4, [r0, #16]
    8ad4:	e5805014 	str	r5, [r0, #20]
    8ad8:	e5806018 	str	r6, [r0, #24]
    8adc:	e580701c 	str	r7, [r0, #28]
    8ae0:	e5808020 	str	r8, [r0, #32]
    8ae4:	e5809024 	str	r9, [r0, #36]	; 0x24
    8ae8:	e580a028 	str	sl, [r0, #40]	; 0x28
    8aec:	e580b02c 	str	fp, [r0, #44]	; 0x2c
    8af0:	e580c030 	str	ip, [r0, #48]	; 0x30
    8af4:	e580d034 	str	sp, [r0, #52]	; 0x34
    8af8:	e580e038 	str	lr, [r0, #56]	; 0x38
    8afc:	e580f03c 	str	pc, [r0, #60]	; 0x3c
    8b00:	e12fff1e 	bx	lr

00008b04 <kr_free>:
    8b04:	e52de004 	push	{lr}		; (str lr, [sp, #-4]!)
    8b08:	e2401008 	sub	r1, r0, #8, 0
    8b0c:	e59f30a8 	ldr	r3, [pc, #168]	; 8bbc <kr_free+0xb8>
    8b10:	e5933000 	ldr	r3, [r3]
    8b14:	ea000000 	b	8b1c <kr_free+0x18>
    8b18:	e1a03002 	mov	r3, r2
    8b1c:	e1530001 	cmp	r3, r1
    8b20:	2a000002 	bcs	8b30 <kr_free+0x2c>
    8b24:	e5932000 	ldr	r2, [r3]
    8b28:	e1520001 	cmp	r2, r1
    8b2c:	8a000007 	bhi	8b50 <kr_free+0x4c>
    8b30:	e5932000 	ldr	r2, [r3]
    8b34:	e1520003 	cmp	r2, r3
    8b38:	8afffff6 	bhi	8b18 <kr_free+0x14>
    8b3c:	e1530001 	cmp	r3, r1
    8b40:	3a000002 	bcc	8b50 <kr_free+0x4c>
    8b44:	e1520001 	cmp	r2, r1
    8b48:	91a03002 	movls	r3, r2
    8b4c:	9afffff2 	bls	8b1c <kr_free+0x18>
    8b50:	e510c004 	ldr	ip, [r0, #-4]
    8b54:	e081e18c 	add	lr, r1, ip, lsl #3
    8b58:	e5932000 	ldr	r2, [r3]
    8b5c:	e15e0002 	cmp	lr, r2
    8b60:	0a000008 	beq	8b88 <kr_free+0x84>
    8b64:	e5002008 	str	r2, [r0, #-8]
    8b68:	e5932004 	ldr	r2, [r3, #4]
    8b6c:	e083c182 	add	ip, r3, r2, lsl #3
    8b70:	e15c0001 	cmp	ip, r1
    8b74:	0a00000a 	beq	8ba4 <kr_free+0xa0>
    8b78:	e5831000 	str	r1, [r3]
    8b7c:	e59f2038 	ldr	r2, [pc, #56]	; 8bbc <kr_free+0xb8>
    8b80:	e5823000 	str	r3, [r2]
    8b84:	e49df004 	pop	{pc}		; (ldr pc, [sp], #4)
    8b88:	e5922004 	ldr	r2, [r2, #4]
    8b8c:	e08cc002 	add	ip, ip, r2
    8b90:	e500c004 	str	ip, [r0, #-4]
    8b94:	e5932000 	ldr	r2, [r3]
    8b98:	e5922000 	ldr	r2, [r2]
    8b9c:	e5002008 	str	r2, [r0, #-8]
    8ba0:	eafffff0 	b	8b68 <kr_free+0x64>
    8ba4:	e5101004 	ldr	r1, [r0, #-4]
    8ba8:	e0822001 	add	r2, r2, r1
    8bac:	e5832004 	str	r2, [r3, #4]
    8bb0:	e5102008 	ldr	r2, [r0, #-8]
    8bb4:	e5832000 	str	r2, [r3]
    8bb8:	eaffffef 	b	8b7c <kr_free+0x78>
    8bbc:	0000a650 	andeq	sl, r0, r0, asr r6

00008bc0 <kr_morecore>:
    8bc0:	e92d4010 	push	{r4, lr}
    8bc4:	e1a04000 	mov	r4, r0
    8bc8:	e3500b01 	cmp	r0, #1024	; 0x400
    8bcc:	33a04b01 	movcc	r4, #1024	; 0x400
    8bd0:	e1a00184 	lsl	r0, r4, #3
    8bd4:	ebffff4c 	bl	890c <sbrk>
    8bd8:	e3700001 	cmn	r0, #1, 0
    8bdc:	0a000005 	beq	8bf8 <kr_morecore+0x38>
    8be0:	e5804004 	str	r4, [r0, #4]
    8be4:	e2800008 	add	r0, r0, #8, 0
    8be8:	ebffffc5 	bl	8b04 <kr_free>
    8bec:	e59f300c 	ldr	r3, [pc, #12]	; 8c00 <kr_morecore+0x40>
    8bf0:	e5930000 	ldr	r0, [r3]
    8bf4:	e8bd8010 	pop	{r4, pc}
    8bf8:	e3a00000 	mov	r0, #0, 0
    8bfc:	e8bd8010 	pop	{r4, pc}
    8c00:	0000a650 	andeq	sl, r0, r0, asr r6

00008c04 <kr_malloc>:
    8c04:	e92d4010 	push	{r4, lr}
    8c08:	e2804007 	add	r4, r0, #7, 0
    8c0c:	e1a041a4 	lsr	r4, r4, #3
    8c10:	e2844001 	add	r4, r4, #1, 0
    8c14:	e59f3090 	ldr	r3, [pc, #144]	; 8cac <kr_malloc+0xa8>
    8c18:	e5932000 	ldr	r2, [r3]
    8c1c:	e3520000 	cmp	r2, #0, 0
    8c20:	0a000001 	beq	8c2c <kr_malloc+0x28>
    8c24:	e5920000 	ldr	r0, [r2]
    8c28:	ea000013 	b	8c7c <kr_malloc+0x78>
    8c2c:	e2832008 	add	r2, r3, #8, 0
    8c30:	e5832000 	str	r2, [r3]
    8c34:	e5832008 	str	r2, [r3, #8]
    8c38:	e3a01000 	mov	r1, #0, 0
    8c3c:	e583100c 	str	r1, [r3, #12]
    8c40:	eafffff7 	b	8c24 <kr_malloc+0x20>
    8c44:	0a000007 	beq	8c68 <kr_malloc+0x64>
    8c48:	e0433004 	sub	r3, r3, r4
    8c4c:	e5803004 	str	r3, [r0, #4]
    8c50:	e0800183 	add	r0, r0, r3, lsl #3
    8c54:	e5804004 	str	r4, [r0, #4]
    8c58:	e59f304c 	ldr	r3, [pc, #76]	; 8cac <kr_malloc+0xa8>
    8c5c:	e5832000 	str	r2, [r3]
    8c60:	e2800008 	add	r0, r0, #8, 0
    8c64:	e8bd8010 	pop	{r4, pc}
    8c68:	e5903000 	ldr	r3, [r0]
    8c6c:	e5823000 	str	r3, [r2]
    8c70:	eafffff8 	b	8c58 <kr_malloc+0x54>
    8c74:	e1a02000 	mov	r2, r0
    8c78:	e5900000 	ldr	r0, [r0]
    8c7c:	e5903004 	ldr	r3, [r0, #4]
    8c80:	e1530004 	cmp	r3, r4
    8c84:	2affffee 	bcs	8c44 <kr_malloc+0x40>
    8c88:	e59f301c 	ldr	r3, [pc, #28]	; 8cac <kr_malloc+0xa8>
    8c8c:	e5933000 	ldr	r3, [r3]
    8c90:	e1530000 	cmp	r3, r0
    8c94:	1afffff6 	bne	8c74 <kr_malloc+0x70>
    8c98:	e1a00004 	mov	r0, r4
    8c9c:	ebffffc7 	bl	8bc0 <kr_morecore>
    8ca0:	e3500000 	cmp	r0, #0, 0
    8ca4:	1afffff2 	bne	8c74 <kr_malloc+0x70>
    8ca8:	e8bd8010 	pop	{r4, pc}
    8cac:	0000a650 	andeq	sl, r0, r0, asr r6

00008cb0 <memset>:
    8cb0:	e0802002 	add	r2, r0, r2
    8cb4:	e1a03000 	mov	r3, r0
    8cb8:	e1530002 	cmp	r3, r2
    8cbc:	212fff1e 	bxcs	lr
    8cc0:	e4c31001 	strb	r1, [r3], #1
    8cc4:	eafffffb 	b	8cb8 <memset+0x8>

00008cc8 <printk>:
    8cc8:	e92d000f 	push	{r0, r1, r2, r3}
    8ccc:	e92d4030 	push	{r4, r5, lr}
    8cd0:	e24dd00c 	sub	sp, sp, #12, 0
    8cd4:	e28d301c 	add	r3, sp, #28, 0
    8cd8:	e58d3004 	str	r3, [sp, #4]
    8cdc:	e59f5034 	ldr	r5, [pc, #52]	; 8d18 <printk+0x50>
    8ce0:	e59d2018 	ldr	r2, [sp, #24]
    8ce4:	e3a01b01 	mov	r1, #1024	; 0x400
    8ce8:	e1a00005 	mov	r0, r5
    8cec:	eb0000ba 	bl	8fdc <va_printk>
    8cf0:	e1a04000 	mov	r4, r0
    8cf4:	e59f3020 	ldr	r3, [pc, #32]	; 8d1c <printk+0x54>
    8cf8:	e5933000 	ldr	r3, [r3]
    8cfc:	e1a00005 	mov	r0, r5
    8d00:	e12fff33 	blx	r3
    8d04:	e1a00004 	mov	r0, r4
    8d08:	e28dd00c 	add	sp, sp, #12, 0
    8d0c:	e8bd4030 	pop	{r4, r5, lr}
    8d10:	e28dd010 	add	sp, sp, #16, 0
    8d14:	e12fff1e 	bx	lr
    8d18:	0000a660 	andeq	sl, r0, r0, ror #12
    8d1c:	0000a620 	andeq	sl, r0, r0, lsr #12

00008d20 <internal_putk>:
    8d20:	e92d4010 	push	{r4, lr}
    8d24:	e1a04000 	mov	r4, r0
    8d28:	e5d40000 	ldrb	r0, [r4]
    8d2c:	e3500000 	cmp	r0, #0, 0
    8d30:	0a000004 	beq	8d48 <internal_putk+0x28>
    8d34:	e59f3014 	ldr	r3, [pc, #20]	; 8d50 <internal_putk+0x30>
    8d38:	e5933000 	ldr	r3, [r3]
    8d3c:	e12fff33 	blx	r3
    8d40:	e2844001 	add	r4, r4, #1, 0
    8d44:	eafffff7 	b	8d28 <internal_putk+0x8>
    8d48:	e3a00001 	mov	r0, #1, 0
    8d4c:	e8bd8010 	pop	{r4, pc}
    8d50:	0000a630 	andeq	sl, r0, r0, lsr r6

00008d54 <isdigit>:
    8d54:	e2400030 	sub	r0, r0, #48, 0	; 0x30
    8d58:	e3500009 	cmp	r0, #9, 0
    8d5c:	83a00000 	movhi	r0, #0, 0
    8d60:	93a00001 	movls	r0, #1, 0
    8d64:	e12fff1e 	bx	lr

00008d68 <pad>:
    8d68:	e0401001 	sub	r1, r0, r1
    8d6c:	e1510002 	cmp	r1, r2
    8d70:	b3a03020 	movlt	r3, #32, 0
    8d74:	b4c03001 	strblt	r3, [r0], #1
    8d78:	b2811001 	addlt	r1, r1, #1, 0
    8d7c:	bafffffa 	blt	8d6c <pad+0x4>
    8d80:	e3a03000 	mov	r3, #0, 0
    8d84:	e5c03000 	strb	r3, [r0]
    8d88:	e12fff1e 	bx	lr

00008d8c <reverse>:
    8d8c:	e042c003 	sub	ip, r2, r3
    8d90:	e28cc001 	add	ip, ip, #1, 0
    8d94:	e15c0001 	cmp	ip, r1
    8d98:	c04cc001 	subgt	ip, ip, r1
    8d9c:	c083300c 	addgt	r3, r3, ip
    8da0:	e2421001 	sub	r1, r2, #1, 0
    8da4:	e1a02000 	mov	r2, r0
    8da8:	e1510003 	cmp	r1, r3
    8dac:	2451c001 	ldrbcs	ip, [r1], #-1
    8db0:	24c2c001 	strbcs	ip, [r2], #1
    8db4:	2afffffb 	bcs	8da8 <reverse+0x1c>
    8db8:	e3a03000 	mov	r3, #0, 0
    8dbc:	e5c23000 	strb	r3, [r2]
    8dc0:	e12fff1e 	bx	lr

00008dc4 <emit>:
    8dc4:	e92d40f0 	push	{r4, r5, r6, r7, lr}
    8dc8:	e24dd04c 	sub	sp, sp, #76, 0	; 0x4c
    8dcc:	e1a05001 	mov	r5, r1
    8dd0:	e1a04002 	mov	r4, r2
    8dd4:	e59d2060 	ldr	r2, [sp, #96]	; 0x60
    8dd8:	e1520004 	cmp	r2, r4
    8ddc:	c2442001 	subgt	r2, r4, #1, 0
    8de0:	e1a0c003 	mov	ip, r3
    8de4:	e2400002 	sub	r0, r0, #2, 0
    8de8:	e350000e 	cmp	r0, #14, 0
    8dec:	979ff100 	ldrls	pc, [pc, r0, lsl #2]
    8df0:	ea000050 	b	8f38 <emit+0x174>
    8df4:	00008f10 	andeq	r8, r0, r0, lsl pc
    8df8:	00008f38 	andeq	r8, r0, r8, lsr pc
    8dfc:	00008f38 	andeq	r8, r0, r8, lsr pc
    8e00:	00008f38 	andeq	r8, r0, r8, lsr pc
    8e04:	00008f38 	andeq	r8, r0, r8, lsr pc
    8e08:	00008f38 	andeq	r8, r0, r8, lsr pc
    8e0c:	00008f04 	andeq	r8, r0, r4, lsl #30
    8e10:	00008f38 	andeq	r8, r0, r8, lsr pc
    8e14:	00008e30 	andeq	r8, r0, r0, lsr lr
    8e18:	00008f38 	andeq	r8, r0, r8, lsr pc
    8e1c:	00008f38 	andeq	r8, r0, r8, lsr pc
    8e20:	00008f38 	andeq	r8, r0, r8, lsr pc
    8e24:	00008f38 	andeq	r8, r0, r8, lsr pc
    8e28:	00008f38 	andeq	r8, r0, r8, lsr pc
    8e2c:	00008ea8 	andeq	r8, r0, r8, lsr #29
    8e30:	e59d1064 	ldr	r1, [sp, #100]	; 0x64
    8e34:	e2511000 	subs	r1, r1, #0, 0
    8e38:	13a01001 	movne	r1, #1, 0
    8e3c:	e0111fa3 	ands	r1, r1, r3, lsr #31
    8e40:	0a000016 	beq	8ea0 <emit+0xdc>
    8e44:	e263c000 	rsb	ip, r3, #0, 0
    8e48:	e3a06001 	mov	r6, #1, 0
    8e4c:	e28d0008 	add	r0, sp, #8, 0
    8e50:	e59f3100 	ldr	r3, [pc, #256]	; 8f58 <emit+0x194>
    8e54:	e0831c93 	umull	r1, r3, r3, ip
    8e58:	e1a031a3 	lsr	r3, r3, #3
    8e5c:	e1a0e003 	mov	lr, r3
    8e60:	e0833103 	add	r3, r3, r3, lsl #2
    8e64:	e04c3083 	sub	r3, ip, r3, lsl #1
    8e68:	e1a01000 	mov	r1, r0
    8e6c:	e2800001 	add	r0, r0, #1, 0
    8e70:	e59f70e4 	ldr	r7, [pc, #228]	; 8f5c <emit+0x198>
    8e74:	e7d73003 	ldrb	r3, [r7, r3]
    8e78:	e5c13000 	strb	r3, [r1]
    8e7c:	e1a0300c 	mov	r3, ip
    8e80:	e1a0c00e 	mov	ip, lr
    8e84:	e3530009 	cmp	r3, #9, 0
    8e88:	8afffff0 	bhi	8e50 <emit+0x8c>
    8e8c:	e3560000 	cmp	r6, #0, 0
    8e90:	13a0302d 	movne	r3, #45, 0	; 0x2d
    8e94:	15c03000 	strbne	r3, [r0]
    8e98:	12810002 	addne	r0, r1, #2, 0
    8e9c:	ea00000f 	b	8ee0 <emit+0x11c>
    8ea0:	e3a06000 	mov	r6, #0, 0
    8ea4:	eaffffe8 	b	8e4c <emit+0x88>
    8ea8:	e28d1008 	add	r1, sp, #8, 0
    8eac:	e20c000f 	and	r0, ip, #15, 0
    8eb0:	e59fe0a8 	ldr	lr, [pc, #168]	; 8f60 <emit+0x19c>
    8eb4:	e7de0000 	ldrb	r0, [lr, r0]
    8eb8:	e5c10000 	strb	r0, [r1]
    8ebc:	e2811001 	add	r1, r1, #1, 0
    8ec0:	e35c000f 	cmp	ip, #15, 0
    8ec4:	e1a0c22c 	lsr	ip, ip, #4
    8ec8:	8afffff7 	bhi	8eac <emit+0xe8>
    8ecc:	e1a00001 	mov	r0, r1
    8ed0:	e3a03078 	mov	r3, #120, 0	; 0x78
    8ed4:	e4c03002 	strb	r3, [r0], #2
    8ed8:	e3a03030 	mov	r3, #48, 0	; 0x30
    8edc:	e5c13001 	strb	r3, [r1, #1]
    8ee0:	e28d1008 	add	r1, sp, #8, 0
    8ee4:	ebffff9f 	bl	8d68 <pad>
    8ee8:	e1a02000 	mov	r2, r0
    8eec:	e28d3008 	add	r3, sp, #8, 0
    8ef0:	e1a01004 	mov	r1, r4
    8ef4:	e1a00005 	mov	r0, r5
    8ef8:	ebffffa3 	bl	8d8c <reverse>
    8efc:	e28dd04c 	add	sp, sp, #76, 0	; 0x4c
    8f00:	e8bd80f0 	pop	{r4, r5, r6, r7, pc}
    8f04:	e5cd3008 	strb	r3, [sp, #8]
    8f08:	e28d0009 	add	r0, sp, #9, 0
    8f0c:	eafffff3 	b	8ee0 <emit+0x11c>
    8f10:	e28d0008 	add	r0, sp, #8, 0
    8f14:	e20c1001 	and	r1, ip, #1, 0
    8f18:	e59fe044 	ldr	lr, [pc, #68]	; 8f64 <emit+0x1a0>
    8f1c:	e7de1001 	ldrb	r1, [lr, r1]
    8f20:	e5c01000 	strb	r1, [r0]
    8f24:	e2800001 	add	r0, r0, #1, 0
    8f28:	e35c0001 	cmp	ip, #1, 0
    8f2c:	e1a0c0ac 	lsr	ip, ip, #1
    8f30:	8afffff7 	bhi	8f14 <emit+0x150>
    8f34:	eaffffe9 	b	8ee0 <emit+0x11c>
    8f38:	e59f3028 	ldr	r3, [pc, #40]	; 8f68 <emit+0x1a4>
    8f3c:	e58d3000 	str	r3, [sp]
    8f40:	e3a03079 	mov	r3, #121, 0	; 0x79
    8f44:	e59f2020 	ldr	r2, [pc, #32]	; 8f6c <emit+0x1a8>
    8f48:	e59f1020 	ldr	r1, [pc, #32]	; 8f70 <emit+0x1ac>
    8f4c:	e59f0020 	ldr	r0, [pc, #32]	; 8f74 <emit+0x1b0>
    8f50:	ebffff5c 	bl	8cc8 <printk>
    8f54:	eb00014e 	bl	9494 <clean_reboot>
    8f58:	cccccccd 	stclgt	12, cr12, [ip], {205}	; 0xcd
    8f5c:	0000a2c4 	andeq	sl, r0, r4, asr #5
    8f60:	0000a2d0 	ldrdeq	sl, [r0], -r0
    8f64:	0000a2e4 	andeq	sl, r0, r4, ror #5
    8f68:	0000a164 	andeq	sl, r0, r4, ror #2
    8f6c:	0000a3f0 	strdeq	sl, [r0], -r0
    8f70:	0000a2b0 			; <UNDEFINED> instruction: 0x0000a2b0
    8f74:	00009e68 	andeq	r9, r0, r8, ror #28

00008f78 <rpi_set_output>:
    8f78:	e3500000 	cmp	r0, #0, 0
    8f7c:	0a000006 	beq	8f9c <rpi_set_output+0x24>
    8f80:	e59f303c 	ldr	r3, [pc, #60]	; 8fc4 <rpi_set_output+0x4c>
    8f84:	e5830000 	str	r0, [r3]
    8f88:	e3510000 	cmp	r1, #0, 0
    8f8c:	012fff1e 	bxeq	lr
    8f90:	e59f3030 	ldr	r3, [pc, #48]	; 8fc8 <rpi_set_output+0x50>
    8f94:	e5831000 	str	r1, [r3]
    8f98:	e12fff1e 	bx	lr
    8f9c:	e52de004 	push	{lr}		; (str lr, [sp, #-4]!)
    8fa0:	e24dd00c 	sub	sp, sp, #12, 0
    8fa4:	e59f3020 	ldr	r3, [pc, #32]	; 8fcc <rpi_set_output+0x54>
    8fa8:	e58d3000 	str	r3, [sp]
    8fac:	e3a03020 	mov	r3, #32, 0
    8fb0:	e59f2018 	ldr	r2, [pc, #24]	; 8fd0 <rpi_set_output+0x58>
    8fb4:	e59f1018 	ldr	r1, [pc, #24]	; 8fd4 <rpi_set_output+0x5c>
    8fb8:	e59f0018 	ldr	r0, [pc, #24]	; 8fd8 <rpi_set_output+0x60>
    8fbc:	ebffff41 	bl	8cc8 <printk>
    8fc0:	eb000133 	bl	9494 <clean_reboot>
    8fc4:	0000a630 	andeq	sl, r0, r0, lsr r6
    8fc8:	0000a620 	andeq	sl, r0, r0, lsr #12
    8fcc:	0000a2e8 	andeq	sl, r0, r8, ror #5
    8fd0:	0000a3f8 	strdeq	sl, [r0], -r8
    8fd4:	0000a2b0 			; <UNDEFINED> instruction: 0x0000a2b0
    8fd8:	00009e68 	andeq	r9, r0, r8, ror #28

00008fdc <va_printk>:
    8fdc:	e92d4ff0 	push	{r4, r5, r6, r7, r8, r9, sl, fp, lr}
    8fe0:	e24ddf45 	sub	sp, sp, #276	; 0x114
    8fe4:	e1a09000 	mov	r9, r0
    8fe8:	e58d2008 	str	r2, [sp, #8]
    8fec:	e58d300c 	str	r3, [sp, #12]
    8ff0:	e2411001 	sub	r1, r1, #1, 0
    8ff4:	e0808001 	add	r8, r0, r1
    8ff8:	e3a03000 	mov	r3, #0, 0
    8ffc:	e5c03000 	strb	r3, [r0]
    9000:	e1a04000 	mov	r4, r0
    9004:	e1a06002 	mov	r6, r2
    9008:	ea000001 	b	9014 <va_printk+0x38>
    900c:	e2866001 	add	r6, r6, #1, 0
    9010:	e4c43001 	strb	r3, [r4], #1
    9014:	e5d63000 	ldrb	r3, [r6]
    9018:	e3530000 	cmp	r3, #0, 0
    901c:	0a000108 	beq	9444 <va_printk+0x468>
    9020:	e1540008 	cmp	r4, r8
    9024:	2a000106 	bcs	9444 <va_printk+0x468>
    9028:	e3530025 	cmp	r3, #37, 0	; 0x25
    902c:	1afffff6 	bne	900c <va_printk+0x30>
    9030:	e5d62001 	ldrb	r2, [r6, #1]
    9034:	e3520025 	cmp	r2, #37, 0	; 0x25
    9038:	04c43001 	strbeq	r3, [r4], #1
    903c:	02866002 	addeq	r6, r6, #2, 0
    9040:	0afffff3 	beq	9014 <va_printk+0x38>
    9044:	e2866001 	add	r6, r6, #1, 0
    9048:	e3a05000 	mov	r5, #0, 0
    904c:	e5d67000 	ldrb	r7, [r6]
    9050:	e1a0a007 	mov	sl, r7
    9054:	e1a00007 	mov	r0, r7
    9058:	ebffff3d 	bl	8d54 <isdigit>
    905c:	e3500000 	cmp	r0, #0, 0
    9060:	0a000004 	beq	9078 <va_printk+0x9c>
    9064:	e0855105 	add	r5, r5, r5, lsl #2
    9068:	e0875085 	add	r5, r7, r5, lsl #1
    906c:	e2455030 	sub	r5, r5, #48, 0	; 0x30
    9070:	e2866001 	add	r6, r6, #1, 0
    9074:	eafffff4 	b	904c <va_printk+0x70>
    9078:	e355001f 	cmp	r5, #31, 0
    907c:	8a00001a 	bhi	90ec <va_printk+0x110>
    9080:	e2477062 	sub	r7, r7, #98, 0	; 0x62
    9084:	e3570016 	cmp	r7, #22, 0
    9088:	979ff107 	ldrls	pc, [pc, r7, lsl #2]
    908c:	ea0000d4 	b	93e4 <va_printk+0x408>
    9090:	00009368 	andeq	r9, r0, r8, ror #6
    9094:	000093b0 			; <UNDEFINED> instruction: 0x000093b0
    9098:	000092c8 	andeq	r9, r0, r8, asr #5
    909c:	000093e4 	andeq	r9, r0, r4, ror #7
    90a0:	000092b0 			; <UNDEFINED> instruction: 0x000092b0
    90a4:	000093e4 	andeq	r9, r0, r4, ror #7
    90a8:	000093e4 	andeq	r9, r0, r4, ror #7
    90ac:	000093e4 	andeq	r9, r0, r4, ror #7
    90b0:	000093e4 	andeq	r9, r0, r4, ror #7
    90b4:	000093e4 	andeq	r9, r0, r4, ror #7
    90b8:	0000910c 	andeq	r9, r0, ip, lsl #2
    90bc:	000093e4 	andeq	r9, r0, r4, ror #7
    90c0:	000093e4 	andeq	r9, r0, r4, ror #7
    90c4:	000093e4 	andeq	r9, r0, r4, ror #7
    90c8:	00009334 	andeq	r9, r0, r4, lsr r3
    90cc:	000093e4 	andeq	r9, r0, r4, ror #7
    90d0:	000093e4 	andeq	r9, r0, r4, ror #7
    90d4:	0000939c 	muleq	r0, ip, r3
    90d8:	000093e4 	andeq	r9, r0, r4, ror #7
    90dc:	00009300 	andeq	r9, r0, r0, lsl #6
    90e0:	000093e4 	andeq	r9, r0, r4, ror #7
    90e4:	000093e4 	andeq	r9, r0, r4, ror #7
    90e8:	00009334 	andeq	r9, r0, r4, lsr r3
    90ec:	e59f3364 	ldr	r3, [pc, #868]	; 9458 <va_printk+0x47c>
    90f0:	e58d3000 	str	r3, [sp]
    90f4:	e3a03098 	mov	r3, #152, 0	; 0x98
    90f8:	e59f235c 	ldr	r2, [pc, #860]	; 945c <va_printk+0x480>
    90fc:	e59f135c 	ldr	r1, [pc, #860]	; 9460 <va_printk+0x484>
    9100:	e59f035c 	ldr	r0, [pc, #860]	; 9464 <va_printk+0x488>
    9104:	ebfffeef 	bl	8cc8 <printk>
    9108:	eb0000e1 	bl	9494 <clean_reboot>
    910c:	e3a02003 	mov	r2, #3, 0
    9110:	e59f1350 	ldr	r1, [pc, #848]	; 9468 <va_printk+0x48c>
    9114:	e1a00006 	mov	r0, r6
    9118:	eb0002d0 	bl	9c60 <strncmp>
    911c:	e3500000 	cmp	r0, #0, 0
    9120:	0a000005 	beq	913c <va_printk+0x160>
    9124:	e3a02003 	mov	r2, #3, 0
    9128:	e59f133c 	ldr	r1, [pc, #828]	; 946c <va_printk+0x490>
    912c:	e1a00006 	mov	r0, r6
    9130:	eb0002ca 	bl	9c60 <strncmp>
    9134:	e3500000 	cmp	r0, #0, 0
    9138:	1a000033 	bne	920c <va_printk+0x230>
    913c:	e286b002 	add	fp, r6, #2, 0
    9140:	e59d300c 	ldr	r3, [sp, #12]
    9144:	e2833007 	add	r3, r3, #7, 0
    9148:	e3c33007 	bic	r3, r3, #7, 0
    914c:	e2832008 	add	r2, r3, #8, 0
    9150:	e58d200c 	str	r2, [sp, #12]
    9154:	e593a000 	ldr	sl, [r3]
    9158:	e5937004 	ldr	r7, [r3, #4]
    915c:	e1a01007 	mov	r1, r7
    9160:	e59f0308 	ldr	r0, [pc, #776]	; 9470 <va_printk+0x494>
    9164:	ebfffed7 	bl	8cc8 <printk>
    9168:	e1a0100a 	mov	r1, sl
    916c:	e59f0300 	ldr	r0, [pc, #768]	; 9474 <va_printk+0x498>
    9170:	ebfffed4 	bl	8cc8 <printk>
    9174:	e3a02003 	mov	r2, #3, 0
    9178:	e59f12e8 	ldr	r1, [pc, #744]	; 9468 <va_printk+0x48c>
    917c:	e1a00006 	mov	r0, r6
    9180:	eb0002b6 	bl	9c60 <strncmp>
    9184:	e3500000 	cmp	r0, #0, 0
    9188:	0a000027 	beq	922c <va_printk+0x250>
    918c:	e3a02003 	mov	r2, #3, 0
    9190:	e59f12d4 	ldr	r1, [pc, #724]	; 946c <va_printk+0x490>
    9194:	e1a00006 	mov	r0, r6
    9198:	eb0002b0 	bl	9c60 <strncmp>
    919c:	e3500000 	cmp	r0, #0, 0
    91a0:	1a00003b 	bne	9294 <va_printk+0x2b8>
    91a4:	e3a06000 	mov	r6, #0, 0
    91a8:	e58d6004 	str	r6, [sp, #4]
    91ac:	e58d5000 	str	r5, [sp]
    91b0:	e1a03007 	mov	r3, r7
    91b4:	e3a02080 	mov	r2, #128, 0	; 0x80
    91b8:	e28d1010 	add	r1, sp, #16, 0
    91bc:	e3a0000a 	mov	r0, #10, 0
    91c0:	ebfffeff 	bl	8dc4 <emit>
    91c4:	e1a07000 	mov	r7, r0
    91c8:	e58d6004 	str	r6, [sp, #4]
    91cc:	e58d5000 	str	r5, [sp]
    91d0:	e1a0300a 	mov	r3, sl
    91d4:	e3a02080 	mov	r2, #128, 0	; 0x80
    91d8:	e28d1090 	add	r1, sp, #144, 0	; 0x90
    91dc:	e3a0000a 	mov	r0, #10, 0
    91e0:	ebfffef7 	bl	8dc4 <emit>
    91e4:	e59f128c 	ldr	r1, [pc, #652]	; 9478 <va_printk+0x49c>
    91e8:	e28d0010 	add	r0, sp, #16, 0
    91ec:	eb000288 	bl	9c14 <strcmp>
    91f0:	e1500006 	cmp	r0, r6
    91f4:	1a000021 	bne	9280 <va_printk+0x2a4>
    91f8:	e28d1090 	add	r1, sp, #144, 0	; 0x90
    91fc:	e28d0010 	add	r0, sp, #16, 0
    9200:	eb00028e 	bl	9c40 <strcpy>
    9204:	e1a0600b 	mov	r6, fp
    9208:	ea00003a 	b	92f8 <va_printk+0x31c>
    920c:	e59f3268 	ldr	r3, [pc, #616]	; 947c <va_printk+0x4a0>
    9210:	e58d3000 	str	r3, [sp]
    9214:	e3a0309f 	mov	r3, #159, 0	; 0x9f
    9218:	e59f223c 	ldr	r2, [pc, #572]	; 945c <va_printk+0x480>
    921c:	e59f123c 	ldr	r1, [pc, #572]	; 9460 <va_printk+0x484>
    9220:	e59f023c 	ldr	r0, [pc, #572]	; 9464 <va_printk+0x488>
    9224:	ebfffea7 	bl	8cc8 <printk>
    9228:	eb000099 	bl	9494 <clean_reboot>
    922c:	e3a06000 	mov	r6, #0, 0
    9230:	e58d6004 	str	r6, [sp, #4]
    9234:	e58d5000 	str	r5, [sp]
    9238:	e1a03007 	mov	r3, r7
    923c:	e3a02080 	mov	r2, #128, 0	; 0x80
    9240:	e28d1010 	add	r1, sp, #16, 0
    9244:	e3a00010 	mov	r0, #16, 0
    9248:	ebfffedd 	bl	8dc4 <emit>
    924c:	e1a07000 	mov	r7, r0
    9250:	e58d6004 	str	r6, [sp, #4]
    9254:	e58d5000 	str	r5, [sp]
    9258:	e1a0300a 	mov	r3, sl
    925c:	e3a02080 	mov	r2, #128, 0	; 0x80
    9260:	e28d1090 	add	r1, sp, #144, 0	; 0x90
    9264:	e3a00010 	mov	r0, #16, 0
    9268:	ebfffed5 	bl	8dc4 <emit>
    926c:	e28d1092 	add	r1, sp, #146, 0	; 0x92
    9270:	e28d0010 	add	r0, sp, #16, 0
    9274:	eb000259 	bl	9be0 <strcat>
    9278:	e1a0600b 	mov	r6, fp
    927c:	ea00001d 	b	92f8 <va_printk+0x31c>
    9280:	e28d1090 	add	r1, sp, #144, 0	; 0x90
    9284:	e28d0010 	add	r0, sp, #16, 0
    9288:	eb000254 	bl	9be0 <strcat>
    928c:	e1a0600b 	mov	r6, fp
    9290:	ea000018 	b	92f8 <va_printk+0x31c>
    9294:	e58d6000 	str	r6, [sp]
    9298:	e3a030b6 	mov	r3, #182, 0	; 0xb6
    929c:	e59f21b8 	ldr	r2, [pc, #440]	; 945c <va_printk+0x480>
    92a0:	e59f11b8 	ldr	r1, [pc, #440]	; 9460 <va_printk+0x484>
    92a4:	e59f01d4 	ldr	r0, [pc, #468]	; 9480 <va_printk+0x4a4>
    92a8:	ebfffe86 	bl	8cc8 <printk>
    92ac:	eb000078 	bl	9494 <clean_reboot>
    92b0:	e3a030be 	mov	r3, #190, 0	; 0xbe
    92b4:	e59f21a0 	ldr	r2, [pc, #416]	; 945c <va_printk+0x480>
    92b8:	e59f11a0 	ldr	r1, [pc, #416]	; 9460 <va_printk+0x484>
    92bc:	e59f01c0 	ldr	r0, [pc, #448]	; 9484 <va_printk+0x4a8>
    92c0:	ebfffe80 	bl	8cc8 <printk>
    92c4:	eb000072 	bl	9494 <clean_reboot>
    92c8:	e59d300c 	ldr	r3, [sp, #12]
    92cc:	e2832004 	add	r2, r3, #4, 0
    92d0:	e58d200c 	str	r2, [sp, #12]
    92d4:	e5933000 	ldr	r3, [r3]
    92d8:	e3a02001 	mov	r2, #1, 0
    92dc:	e58d2004 	str	r2, [sp, #4]
    92e0:	e58d5000 	str	r5, [sp]
    92e4:	e3a02080 	mov	r2, #128, 0	; 0x80
    92e8:	e28d1010 	add	r1, sp, #16, 0
    92ec:	e3a0000a 	mov	r0, #10, 0
    92f0:	ebfffeb3 	bl	8dc4 <emit>
    92f4:	e1a07000 	mov	r7, r0
    92f8:	e2866001 	add	r6, r6, #1, 0
    92fc:	ea00004a 	b	942c <va_printk+0x450>
    9300:	e59d300c 	ldr	r3, [sp, #12]
    9304:	e2832004 	add	r2, r3, #4, 0
    9308:	e58d200c 	str	r2, [sp, #12]
    930c:	e5933000 	ldr	r3, [r3]
    9310:	e3a02000 	mov	r2, #0, 0
    9314:	e58d2004 	str	r2, [sp, #4]
    9318:	e58d5000 	str	r5, [sp]
    931c:	e3a02080 	mov	r2, #128, 0	; 0x80
    9320:	e28d1010 	add	r1, sp, #16, 0
    9324:	e3a0000a 	mov	r0, #10, 0
    9328:	ebfffea5 	bl	8dc4 <emit>
    932c:	e1a07000 	mov	r7, r0
    9330:	eafffff0 	b	92f8 <va_printk+0x31c>
    9334:	e59d300c 	ldr	r3, [sp, #12]
    9338:	e2832004 	add	r2, r3, #4, 0
    933c:	e58d200c 	str	r2, [sp, #12]
    9340:	e5933000 	ldr	r3, [r3]
    9344:	e3a02000 	mov	r2, #0, 0
    9348:	e58d2004 	str	r2, [sp, #4]
    934c:	e58d5000 	str	r5, [sp]
    9350:	e3a02080 	mov	r2, #128, 0	; 0x80
    9354:	e28d1010 	add	r1, sp, #16, 0
    9358:	e3a00010 	mov	r0, #16, 0
    935c:	ebfffe98 	bl	8dc4 <emit>
    9360:	e1a07000 	mov	r7, r0
    9364:	eaffffe3 	b	92f8 <va_printk+0x31c>
    9368:	e59d300c 	ldr	r3, [sp, #12]
    936c:	e2832004 	add	r2, r3, #4, 0
    9370:	e58d200c 	str	r2, [sp, #12]
    9374:	e5933000 	ldr	r3, [r3]
    9378:	e3a02000 	mov	r2, #0, 0
    937c:	e58d2004 	str	r2, [sp, #4]
    9380:	e58d5000 	str	r5, [sp]
    9384:	e3a02080 	mov	r2, #128, 0	; 0x80
    9388:	e28d1010 	add	r1, sp, #16, 0
    938c:	e3a00002 	mov	r0, #2, 0
    9390:	ebfffe8b 	bl	8dc4 <emit>
    9394:	e1a07000 	mov	r7, r0
    9398:	eaffffd6 	b	92f8 <va_printk+0x31c>
    939c:	e59d300c 	ldr	r3, [sp, #12]
    93a0:	e2832004 	add	r2, r3, #4, 0
    93a4:	e58d200c 	str	r2, [sp, #12]
    93a8:	e5937000 	ldr	r7, [r3]
    93ac:	eaffffd1 	b	92f8 <va_printk+0x31c>
    93b0:	e59d300c 	ldr	r3, [sp, #12]
    93b4:	e2832004 	add	r2, r3, #4, 0
    93b8:	e58d200c 	str	r2, [sp, #12]
    93bc:	e5933000 	ldr	r3, [r3]
    93c0:	e3a02000 	mov	r2, #0, 0
    93c4:	e58d2004 	str	r2, [sp, #4]
    93c8:	e58d5000 	str	r5, [sp]
    93cc:	e3a02080 	mov	r2, #128, 0	; 0x80
    93d0:	e28d1010 	add	r1, sp, #16, 0
    93d4:	e3a00008 	mov	r0, #8, 0
    93d8:	ebfffe79 	bl	8dc4 <emit>
    93dc:	e1a07000 	mov	r7, r0
    93e0:	eaffffc4 	b	92f8 <va_printk+0x31c>
    93e4:	e3a03000 	mov	r3, #0, 0
    93e8:	e5c63001 	strb	r3, [r6, #1]
    93ec:	e1a0200a 	mov	r2, sl
    93f0:	e1a0100a 	mov	r1, sl
    93f4:	e59f008c 	ldr	r0, [pc, #140]	; 9488 <va_printk+0x4ac>
    93f8:	ebfffe32 	bl	8cc8 <printk>
    93fc:	e59f3088 	ldr	r3, [pc, #136]	; 948c <va_printk+0x4b0>
    9400:	e5933000 	ldr	r3, [r3]
    9404:	e59d0008 	ldr	r0, [sp, #8]
    9408:	e12fff33 	blx	r3
    940c:	e3a030e2 	mov	r3, #226, 0	; 0xe2
    9410:	e59f2044 	ldr	r2, [pc, #68]	; 945c <va_printk+0x480>
    9414:	e59f1044 	ldr	r1, [pc, #68]	; 9460 <va_printk+0x484>
    9418:	e59f0070 	ldr	r0, [pc, #112]	; 9490 <va_printk+0x4b4>
    941c:	ebfffe29 	bl	8cc8 <printk>
    9420:	eb00001b 	bl	9494 <clean_reboot>
    9424:	e2877001 	add	r7, r7, #1, 0
    9428:	e4c43001 	strb	r3, [r4], #1
    942c:	e1540008 	cmp	r4, r8
    9430:	2afffef7 	bcs	9014 <va_printk+0x38>
    9434:	e5d73000 	ldrb	r3, [r7]
    9438:	e3530000 	cmp	r3, #0, 0
    943c:	1afffff8 	bne	9424 <va_printk+0x448>
    9440:	eafffef3 	b	9014 <va_printk+0x38>
    9444:	e3a03000 	mov	r3, #0, 0
    9448:	e4c43001 	strb	r3, [r4], #1
    944c:	e0440009 	sub	r0, r4, r9
    9450:	e28ddf45 	add	sp, sp, #276	; 0x114
    9454:	e8bd8ff0 	pop	{r4, r5, r6, r7, r8, r9, sl, fp, pc}
    9458:	0000a2f0 	strdeq	sl, [r0], -r0
    945c:	0000a408 	andeq	sl, r0, r8, lsl #8
    9460:	0000a2b0 			; <UNDEFINED> instruction: 0x0000a2b0
    9464:	00009e68 	andeq	r9, r0, r8, ror #28
    9468:	0000a2fc 	strdeq	sl, [r0], -ip
    946c:	0000a300 	andeq	sl, r0, r0, lsl #6
    9470:	0000a304 	andeq	sl, r0, r4, lsl #6
    9474:	0000a30c 	andeq	sl, r0, ip, lsl #6
    9478:	0000a164 	andeq	sl, r0, r4, ror #2
    947c:	0000a314 	andeq	sl, r0, r4, lsl r3
    9480:	0000a350 	andeq	sl, r0, r0, asr r3
    9484:	0000a378 	andeq	sl, r0, r8, ror r3
    9488:	0000a3a0 	andeq	sl, r0, r0, lsr #7
    948c:	0000a620 	andeq	sl, r0, r0, lsr #12
    9490:	0000a3d0 	ldrdeq	sl, [r0], -r0

00009494 <clean_reboot>:
    9494:	e92d4010 	push	{r4, lr}
    9498:	e59f3018 	ldr	r3, [pc, #24]	; 94b8 <clean_reboot+0x24>
    949c:	e5933000 	ldr	r3, [r3]
    94a0:	e59f0014 	ldr	r0, [pc, #20]	; 94bc <clean_reboot+0x28>
    94a4:	e12fff33 	blx	r3
    94a8:	eb0000c3 	bl	97bc <uart_flush_tx>
    94ac:	e3a0000a 	mov	r0, #10, 0
    94b0:	eb000047 	bl	95d4 <delay_ms>
    94b4:	eb00001c 	bl	952c <rpi_reboot>
    94b8:	0000a620 	andeq	sl, r0, r0, lsr #12
    94bc:	0000a414 	andeq	sl, r0, r4, lsl r4

000094c0 <_cstart>:
    94c0:	e92d4010 	push	{r4, lr}
    94c4:	eb00000c 	bl	94fc <custom_loader>
    94c8:	e59f3024 	ldr	r3, [pc, #36]	; 94f4 <_cstart+0x34>
    94cc:	e59f2024 	ldr	r2, [pc, #36]	; 94f8 <_cstart+0x38>
    94d0:	e1530002 	cmp	r3, r2
    94d4:	33a02000 	movcc	r2, #0, 0
    94d8:	34832004 	strcc	r2, [r3], #4
    94dc:	3afffffa 	bcc	94cc <_cstart+0xc>
    94e0:	eb000057 	bl	9644 <uart_init>
    94e4:	e3a03001 	mov	r3, #1, 0
    94e8:	ee0f3f1c 	mcr	15, 0, r3, cr15, cr12, {0}
    94ec:	ebfffad1 	bl	8038 <notmain>
    94f0:	ebffffe7 	bl	9494 <clean_reboot>
    94f4:	0000a638 	andeq	sl, r0, r8, lsr r6
    94f8:	0000aa68 	andeq	sl, r0, r8, ror #20

000094fc <custom_loader>:
    94fc:	e12fff1e 	bx	lr

00009500 <at_user_level>:
    9500:	e10f0000 	mrs	r0, CPSR
    9504:	e200001f 	and	r0, r0, #31, 0
    9508:	e3500010 	cmp	r0, #16, 0
    950c:	13a00000 	movne	r0, #0, 0
    9510:	03a00001 	moveq	r0, #1, 0
    9514:	e12fff1e 	bx	lr

00009518 <set_user_level>:
    9518:	e10f3000 	mrs	r3, CPSR
    951c:	e3c3301f 	bic	r3, r3, #31, 0
    9520:	e3833010 	orr	r3, r3, #16, 0
    9524:	e129f003 	msr	CPSR_fc, r3
    9528:	e12fff1e 	bx	lr

0000952c <rpi_reboot>:
    952c:	e92d4010 	push	{r4, lr}
    9530:	ebfffff2 	bl	9500 <at_user_level>
    9534:	e3500000 	cmp	r0, #0, 0
    9538:	1a00000a 	bne	9568 <rpi_reboot+0x3c>
    953c:	eb0001d2 	bl	9c8c <reboot_callout>
    9540:	eb00009d 	bl	97bc <uart_flush_tx>
    9544:	e3a0000a 	mov	r0, #10, 0
    9548:	eb000021 	bl	95d4 <delay_ms>
    954c:	e59f101c 	ldr	r1, [pc, #28]	; 9570 <rpi_reboot+0x44>
    9550:	e59f001c 	ldr	r0, [pc, #28]	; 9574 <rpi_reboot+0x48>
    9554:	ebfffab2 	bl	8024 <PUT32>
    9558:	e59f1018 	ldr	r1, [pc, #24]	; 9578 <rpi_reboot+0x4c>
    955c:	e59f0018 	ldr	r0, [pc, #24]	; 957c <rpi_reboot+0x50>
    9560:	ebfffaaf 	bl	8024 <PUT32>
    9564:	eafffffe 	b	9564 <rpi_reboot+0x38>
    9568:	ebffffea 	bl	9518 <set_user_level>
    956c:	eafffff2 	b	953c <rpi_reboot+0x10>
    9570:	5a000001 	bpl	957c <rpi_reboot+0x50>
    9574:	20100024 	andscs	r0, r0, r4, lsr #32
    9578:	5a000020 	bpl	9600 <delay_sec+0x14>
    957c:	2010001c 	andscs	r0, r0, ip, lsl r0

00009580 <timer_get_usec_raw>:
    9580:	e92d4010 	push	{r4, lr}
    9584:	e59f0004 	ldr	r0, [pc, #4]	; 9590 <timer_get_usec_raw+0x10>
    9588:	ebfffaa7 	bl	802c <GET32>
    958c:	e8bd8010 	pop	{r4, pc}
    9590:	20003004 	andcs	r3, r0, r4

00009594 <timer_get_usec>:
    9594:	e92d4010 	push	{r4, lr}
    9598:	eb0001bc 	bl	9c90 <dev_barrier>
    959c:	ebfffff7 	bl	9580 <timer_get_usec_raw>
    95a0:	e1a04000 	mov	r4, r0
    95a4:	eb0001b9 	bl	9c90 <dev_barrier>
    95a8:	e1a00004 	mov	r0, r4
    95ac:	e8bd8010 	pop	{r4, pc}

000095b0 <delay_us>:
    95b0:	e92d4070 	push	{r4, r5, r6, lr}
    95b4:	e1a05000 	mov	r5, r0
    95b8:	ebfffff5 	bl	9594 <timer_get_usec>
    95bc:	e1a04000 	mov	r4, r0
    95c0:	ebfffff3 	bl	9594 <timer_get_usec>
    95c4:	e0400004 	sub	r0, r0, r4
    95c8:	e1500005 	cmp	r0, r5
    95cc:	3afffffb 	bcc	95c0 <delay_us+0x10>
    95d0:	e8bd8070 	pop	{r4, r5, r6, pc}

000095d4 <delay_ms>:
    95d4:	e92d4010 	push	{r4, lr}
    95d8:	e0603280 	rsb	r3, r0, r0, lsl #5
    95dc:	e0800103 	add	r0, r0, r3, lsl #2
    95e0:	e1a00180 	lsl	r0, r0, #3
    95e4:	ebfffff1 	bl	95b0 <delay_us>
    95e8:	e8bd8010 	pop	{r4, pc}

000095ec <delay_sec>:
    95ec:	e92d4010 	push	{r4, lr}
    95f0:	e0603280 	rsb	r3, r0, r0, lsl #5
    95f4:	e0800103 	add	r0, r0, r3, lsl #2
    95f8:	e1a00180 	lsl	r0, r0, #3
    95fc:	ebfffff4 	bl	95d4 <delay_ms>
    9600:	e8bd8010 	pop	{r4, pc}

00009604 <and_in32>:
    9604:	e92d4070 	push	{r4, r5, r6, lr}
    9608:	e1a04000 	mov	r4, r0
    960c:	e1a05001 	mov	r5, r1
    9610:	ebfffa85 	bl	802c <GET32>
    9614:	e0001005 	and	r1, r0, r5
    9618:	e1a00004 	mov	r0, r4
    961c:	ebfffa80 	bl	8024 <PUT32>
    9620:	e8bd8070 	pop	{r4, r5, r6, pc}

00009624 <or_in32>:
    9624:	e92d4070 	push	{r4, r5, r6, lr}
    9628:	e1a04000 	mov	r4, r0
    962c:	e1a05001 	mov	r5, r1
    9630:	ebfffa7d 	bl	802c <GET32>
    9634:	e1801005 	orr	r1, r0, r5
    9638:	e1a00004 	mov	r0, r4
    963c:	ebfffa78 	bl	8024 <PUT32>
    9640:	e8bd8070 	pop	{r4, r5, r6, pc}

00009644 <uart_init>:
    9644:	e92d4010 	push	{r4, lr}
    9648:	e3a01002 	mov	r1, #2, 0
    964c:	e3a0000e 	mov	r0, #14, 0
    9650:	eb000194 	bl	9ca8 <gpio_set_function>
    9654:	e3a01002 	mov	r1, #2, 0
    9658:	e3a0000f 	mov	r0, #15, 0
    965c:	eb000191 	bl	9ca8 <gpio_set_function>
    9660:	eb00018a 	bl	9c90 <dev_barrier>
    9664:	e3a01001 	mov	r1, #1, 0
    9668:	e59f0064 	ldr	r0, [pc, #100]	; 96d4 <uart_init+0x90>
    966c:	ebffffec 	bl	9624 <or_in32>
    9670:	eb000186 	bl	9c90 <dev_barrier>
    9674:	e59f405c 	ldr	r4, [pc, #92]	; 96d8 <uart_init+0x94>
    9678:	e3a01000 	mov	r1, #0, 0
    967c:	e1a00004 	mov	r0, r4
    9680:	ebfffa67 	bl	8024 <PUT32>
    9684:	e3a01000 	mov	r1, #0, 0
    9688:	e59f004c 	ldr	r0, [pc, #76]	; 96dc <uart_init+0x98>
    968c:	ebfffa64 	bl	8024 <PUT32>
    9690:	e3a01003 	mov	r1, #3, 0
    9694:	e59f0044 	ldr	r0, [pc, #68]	; 96e0 <uart_init+0x9c>
    9698:	ebfffa61 	bl	8024 <PUT32>
    969c:	e3a01000 	mov	r1, #0, 0
    96a0:	e59f003c 	ldr	r0, [pc, #60]	; 96e4 <uart_init+0xa0>
    96a4:	ebfffa5e 	bl	8024 <PUT32>
    96a8:	e3a010c7 	mov	r1, #199, 0	; 0xc7
    96ac:	e59f0034 	ldr	r0, [pc, #52]	; 96e8 <uart_init+0xa4>
    96b0:	ebfffa5b 	bl	8024 <PUT32>
    96b4:	e59f1030 	ldr	r1, [pc, #48]	; 96ec <uart_init+0xa8>
    96b8:	e59f0030 	ldr	r0, [pc, #48]	; 96f0 <uart_init+0xac>
    96bc:	ebfffa58 	bl	8024 <PUT32>
    96c0:	e3a01003 	mov	r1, #3, 0
    96c4:	e1a00004 	mov	r0, r4
    96c8:	ebfffa55 	bl	8024 <PUT32>
    96cc:	eb00016f 	bl	9c90 <dev_barrier>
    96d0:	e8bd8010 	pop	{r4, pc}
    96d4:	20215004 	eorcs	r5, r1, r4
    96d8:	20215060 	eorcs	r5, r1, r0, rrx
    96dc:	20215044 	eorcs	r5, r1, r4, asr #32
    96e0:	2021504c 	eorcs	r5, r1, ip, asr #32
    96e4:	20215050 	eorcs	r5, r1, r0, asr r0
    96e8:	20215048 	eorcs	r5, r1, r8, asr #32
    96ec:	0000010e 	andeq	r0, r0, lr, lsl #2
    96f0:	20215068 	eorcs	r5, r1, r8, rrx

000096f4 <uart_can_getc>:
    96f4:	e92d4010 	push	{r4, lr}
    96f8:	e59f0008 	ldr	r0, [pc, #8]	; 9708 <uart_can_getc+0x14>
    96fc:	ebfffa4a 	bl	802c <GET32>
    9700:	e2000001 	and	r0, r0, #1, 0
    9704:	e8bd8010 	pop	{r4, pc}
    9708:	20215064 	eorcs	r5, r1, r4, rrx

0000970c <uart_can_putc>:
    970c:	e92d4010 	push	{r4, lr}
    9710:	e59f0010 	ldr	r0, [pc, #16]	; 9728 <uart_can_putc+0x1c>
    9714:	ebfffa44 	bl	802c <GET32>
    9718:	e3100002 	tst	r0, #2, 0
    971c:	13a00001 	movne	r0, #1, 0
    9720:	03a00000 	moveq	r0, #0, 0
    9724:	e8bd8010 	pop	{r4, pc}
    9728:	20215064 	eorcs	r5, r1, r4, rrx

0000972c <uart_getc>:
    972c:	e92d4010 	push	{r4, lr}
    9730:	eb000156 	bl	9c90 <dev_barrier>
    9734:	ebffffee 	bl	96f4 <uart_can_getc>
    9738:	e3500000 	cmp	r0, #0, 0
    973c:	0afffffc 	beq	9734 <uart_getc+0x8>
    9740:	e59f0010 	ldr	r0, [pc, #16]	; 9758 <uart_getc+0x2c>
    9744:	ebfffa38 	bl	802c <GET32>
    9748:	e6ef4070 	uxtb	r4, r0
    974c:	eb00014f 	bl	9c90 <dev_barrier>
    9750:	e1a00004 	mov	r0, r4
    9754:	e8bd8010 	pop	{r4, pc}
    9758:	20215040 	eorcs	r5, r1, r0, asr #32

0000975c <uart_putc>:
    975c:	e92d4010 	push	{r4, lr}
    9760:	e1a04000 	mov	r4, r0
    9764:	eb000149 	bl	9c90 <dev_barrier>
    9768:	ebffffe7 	bl	970c <uart_can_putc>
    976c:	e3500000 	cmp	r0, #0, 0
    9770:	0afffffc 	beq	9768 <uart_putc+0xc>
    9774:	e6ef1074 	uxtb	r1, r4
    9778:	e59f0008 	ldr	r0, [pc, #8]	; 9788 <uart_putc+0x2c>
    977c:	ebfffa28 	bl	8024 <PUT32>
    9780:	eb000142 	bl	9c90 <dev_barrier>
    9784:	e8bd8010 	pop	{r4, pc}
    9788:	20215040 	eorcs	r5, r1, r0, asr #32

0000978c <uart_has_data>:
    978c:	e92d4010 	push	{r4, lr}
    9790:	eb00013e 	bl	9c90 <dev_barrier>
    9794:	ebffffd6 	bl	96f4 <uart_can_getc>
    9798:	e8bd8010 	pop	{r4, pc}

0000979c <uart_tx_is_empty>:
    979c:	e92d4010 	push	{r4, lr}
    97a0:	eb00013a 	bl	9c90 <dev_barrier>
    97a4:	e59f000c 	ldr	r0, [pc, #12]	; 97b8 <uart_tx_is_empty+0x1c>
    97a8:	ebfffa1f 	bl	802c <GET32>
    97ac:	e1a004a0 	lsr	r0, r0, #9
    97b0:	e2000001 	and	r0, r0, #1, 0
    97b4:	e8bd8010 	pop	{r4, pc}
    97b8:	20215064 	eorcs	r5, r1, r4, rrx

000097bc <uart_flush_tx>:
    97bc:	e92d4010 	push	{r4, lr}
    97c0:	ebfffff5 	bl	979c <uart_tx_is_empty>
    97c4:	e3500000 	cmp	r0, #0, 0
    97c8:	0afffffc 	beq	97c0 <uart_flush_tx+0x4>
    97cc:	e8bd8010 	pop	{r4, pc}

000097d0 <uart_disable>:
    97d0:	e92d4010 	push	{r4, lr}
    97d4:	ebfffff8 	bl	97bc <uart_flush_tx>
    97d8:	eb00012c 	bl	9c90 <dev_barrier>
    97dc:	e3e01001 	mvn	r1, #1, 0
    97e0:	e59f0008 	ldr	r0, [pc, #8]	; 97f0 <uart_disable+0x20>
    97e4:	ebffff86 	bl	9604 <and_in32>
    97e8:	eb000128 	bl	9c90 <dev_barrier>
    97ec:	e8bd8010 	pop	{r4, pc}
    97f0:	20215004 	eorcs	r5, r1, r4

000097f4 <kmalloc_heap_end>:
    97f4:	e59f3004 	ldr	r3, [pc, #4]	; 9800 <kmalloc_heap_end+0xc>
    97f8:	e5930000 	ldr	r0, [r3]
    97fc:	e12fff1e 	bx	lr
    9800:	0000a624 	andeq	sl, r0, r4, lsr #12

00009804 <kmalloc_heap_start>:
    9804:	e59f3004 	ldr	r3, [pc, #4]	; 9810 <kmalloc_heap_start+0xc>
    9808:	e5930004 	ldr	r0, [r3, #4]
    980c:	e12fff1e 	bx	lr
    9810:	0000a624 	andeq	sl, r0, r4, lsr #12

00009814 <kmalloc_heap_ptr>:
    9814:	e59f3004 	ldr	r3, [pc, #4]	; 9820 <kmalloc_heap_ptr+0xc>
    9818:	e5930008 	ldr	r0, [r3, #8]
    981c:	e12fff1e 	bx	lr
    9820:	0000a624 	andeq	sl, r0, r4, lsr #12

00009824 <kmalloc_init_set_start>:
    9824:	e52de004 	push	{lr}		; (str lr, [sp, #-4]!)
    9828:	e24dd00c 	sub	sp, sp, #12, 0
    982c:	e3510000 	cmp	r1, #0, 0
    9830:	0a00000a 	beq	9860 <kmalloc_init_set_start+0x3c>
    9834:	e59f306c 	ldr	r3, [pc, #108]	; 98a8 <kmalloc_init_set_start+0x84>
    9838:	e5933008 	ldr	r3, [r3, #8]
    983c:	e1530000 	cmp	r3, r0
    9840:	8a00000e 	bhi	9880 <kmalloc_init_set_start+0x5c>
    9844:	e59f305c 	ldr	r3, [pc, #92]	; 98a8 <kmalloc_init_set_start+0x84>
    9848:	e5830008 	str	r0, [r3, #8]
    984c:	e5830004 	str	r0, [r3, #4]
    9850:	e0800001 	add	r0, r0, r1
    9854:	e5830000 	str	r0, [r3]
    9858:	e28dd00c 	add	sp, sp, #12, 0
    985c:	e49df004 	pop	{pc}		; (ldr pc, [sp], #4)
    9860:	e59f3044 	ldr	r3, [pc, #68]	; 98ac <kmalloc_init_set_start+0x88>
    9864:	e58d3000 	str	r3, [sp]
    9868:	e3a03030 	mov	r3, #48, 0	; 0x30
    986c:	e59f203c 	ldr	r2, [pc, #60]	; 98b0 <kmalloc_init_set_start+0x8c>
    9870:	e59f103c 	ldr	r1, [pc, #60]	; 98b4 <kmalloc_init_set_start+0x90>
    9874:	e59f003c 	ldr	r0, [pc, #60]	; 98b8 <kmalloc_init_set_start+0x94>
    9878:	ebfffd12 	bl	8cc8 <printk>
    987c:	ebffff04 	bl	9494 <clean_reboot>
    9880:	e59f3020 	ldr	r3, [pc, #32]	; 98a8 <kmalloc_init_set_start+0x84>
    9884:	e5933000 	ldr	r3, [r3]
    9888:	e58d3004 	str	r3, [sp, #4]
    988c:	e58d0000 	str	r0, [sp]
    9890:	e3a03034 	mov	r3, #52, 0	; 0x34
    9894:	e59f2014 	ldr	r2, [pc, #20]	; 98b0 <kmalloc_init_set_start+0x8c>
    9898:	e59f1014 	ldr	r1, [pc, #20]	; 98b4 <kmalloc_init_set_start+0x90>
    989c:	e59f0018 	ldr	r0, [pc, #24]	; 98bc <kmalloc_init_set_start+0x98>
    98a0:	ebfffd08 	bl	8cc8 <printk>
    98a4:	ebfffefa 	bl	9494 <clean_reboot>
    98a8:	0000a624 	andeq	sl, r0, r4, lsr #12
    98ac:	0000a42c 	andeq	sl, r0, ip, lsr #8
    98b0:	0000a5b8 			; <UNDEFINED> instruction: 0x0000a5b8
    98b4:	0000a420 	andeq	sl, r0, r0, lsr #8
    98b8:	00009e68 	andeq	r9, r0, r8, ror #28
    98bc:	0000a438 	andeq	sl, r0, r8, lsr r4

000098c0 <kmalloc_init>:
    98c0:	e92d4010 	push	{r4, lr}
    98c4:	e59f303c 	ldr	r3, [pc, #60]	; 9908 <kmalloc_init+0x48>
    98c8:	e5933000 	ldr	r3, [r3]
    98cc:	e3530000 	cmp	r3, #0, 0
    98d0:	1a000006 	bne	98f0 <kmalloc_init+0x30>
    98d4:	e59f302c 	ldr	r3, [pc, #44]	; 9908 <kmalloc_init+0x48>
    98d8:	e3a02001 	mov	r2, #1, 0
    98dc:	e5832000 	str	r2, [r3]
    98e0:	e3a01201 	mov	r1, #268435456	; 0x10000000
    98e4:	e3a00601 	mov	r0, #1048576	; 0x100000
    98e8:	ebffffcd 	bl	9824 <kmalloc_init_set_start>
    98ec:	e8bd8010 	pop	{r4, pc}
    98f0:	e3a03040 	mov	r3, #64, 0	; 0x40
    98f4:	e59f2010 	ldr	r2, [pc, #16]	; 990c <kmalloc_init+0x4c>
    98f8:	e59f1010 	ldr	r1, [pc, #16]	; 9910 <kmalloc_init+0x50>
    98fc:	e59f0010 	ldr	r0, [pc, #16]	; 9914 <kmalloc_init+0x54>
    9900:	ebfffcf0 	bl	8cc8 <printk>
    9904:	ebfffee2 	bl	9494 <clean_reboot>
    9908:	0000aa60 	andeq	sl, r0, r0, ror #20
    990c:	0000a5d0 	ldrdeq	sl, [r0], -r0
    9910:	0000a420 	andeq	sl, r0, r0, lsr #8
    9914:	0000a47c 	andeq	sl, r0, ip, ror r4

00009918 <kmalloc_notzero>:
    9918:	e52de004 	push	{lr}		; (str lr, [sp, #-4]!)
    991c:	e24dd00c 	sub	sp, sp, #12, 0
    9920:	e3500000 	cmp	r0, #0, 0
    9924:	0a00000a 	beq	9954 <kmalloc_notzero+0x3c>
    9928:	e2800007 	add	r0, r0, #7, 0
    992c:	e3c03007 	bic	r3, r0, #7, 0
    9930:	e59f2060 	ldr	r2, [pc, #96]	; 9998 <kmalloc_notzero+0x80>
    9934:	e5920008 	ldr	r0, [r2, #8]
    9938:	e0801003 	add	r1, r0, r3
    993c:	e5821008 	str	r1, [r2, #8]
    9940:	e5922000 	ldr	r2, [r2]
    9944:	e1510002 	cmp	r1, r2
    9948:	8a000009 	bhi	9974 <kmalloc_notzero+0x5c>
    994c:	e28dd00c 	add	sp, sp, #12, 0
    9950:	e49df004 	pop	{pc}		; (ldr pc, [sp], #4)
    9954:	e59f3040 	ldr	r3, [pc, #64]	; 999c <kmalloc_notzero+0x84>
    9958:	e58d3000 	str	r3, [sp]
    995c:	e3a03048 	mov	r3, #72, 0	; 0x48
    9960:	e59f2038 	ldr	r2, [pc, #56]	; 99a0 <kmalloc_notzero+0x88>
    9964:	e59f1038 	ldr	r1, [pc, #56]	; 99a4 <kmalloc_notzero+0x8c>
    9968:	e59f0038 	ldr	r0, [pc, #56]	; 99a8 <kmalloc_notzero+0x90>
    996c:	ebfffcd5 	bl	8cc8 <printk>
    9970:	ebfffec7 	bl	9494 <clean_reboot>
    9974:	e0422000 	sub	r2, r2, r0
    9978:	e58d2004 	str	r2, [sp, #4]
    997c:	e58d3000 	str	r3, [sp]
    9980:	e3a0304e 	mov	r3, #78, 0	; 0x4e
    9984:	e59f2014 	ldr	r2, [pc, #20]	; 99a0 <kmalloc_notzero+0x88>
    9988:	e59f1014 	ldr	r1, [pc, #20]	; 99a4 <kmalloc_notzero+0x8c>
    998c:	e59f0018 	ldr	r0, [pc, #24]	; 99ac <kmalloc_notzero+0x94>
    9990:	ebfffccc 	bl	8cc8 <printk>
    9994:	ebfffebe 	bl	9494 <clean_reboot>
    9998:	0000a624 	andeq	sl, r0, r4, lsr #12
    999c:	0000a430 	andeq	sl, r0, r0, lsr r4
    99a0:	0000a5e0 	andeq	sl, r0, r0, ror #11
    99a4:	0000a420 	andeq	sl, r0, r0, lsr #8
    99a8:	00009e68 	andeq	r9, r0, r8, ror #28
    99ac:	0000a4ac 	andeq	sl, r0, ip, lsr #9

000099b0 <kmalloc>:
    99b0:	e92d4030 	push	{r4, r5, lr}
    99b4:	e24dd00c 	sub	sp, sp, #12, 0
    99b8:	e2504000 	subs	r4, r0, #0, 0
    99bc:	0a000008 	beq	99e4 <kmalloc+0x34>
    99c0:	e1a00004 	mov	r0, r4
    99c4:	ebffffd3 	bl	9918 <kmalloc_notzero>
    99c8:	e1a05000 	mov	r5, r0
    99cc:	e1a02004 	mov	r2, r4
    99d0:	e3a01000 	mov	r1, #0, 0
    99d4:	ebfffcb5 	bl	8cb0 <memset>
    99d8:	e1a00005 	mov	r0, r5
    99dc:	e28dd00c 	add	sp, sp, #12, 0
    99e0:	e8bd8030 	pop	{r4, r5, pc}
    99e4:	e59f3018 	ldr	r3, [pc, #24]	; 9a04 <kmalloc+0x54>
    99e8:	e58d3000 	str	r3, [sp]
    99ec:	e3a03054 	mov	r3, #84, 0	; 0x54
    99f0:	e59f2010 	ldr	r2, [pc, #16]	; 9a08 <kmalloc+0x58>
    99f4:	e59f1010 	ldr	r1, [pc, #16]	; 9a0c <kmalloc+0x5c>
    99f8:	e59f0010 	ldr	r0, [pc, #16]	; 9a10 <kmalloc+0x60>
    99fc:	ebfffcb1 	bl	8cc8 <printk>
    9a00:	ebfffea3 	bl	9494 <clean_reboot>
    9a04:	0000a430 	andeq	sl, r0, r0, lsr r4
    9a08:	0000a5f0 	strdeq	sl, [r0], -r0
    9a0c:	0000a420 	andeq	sl, r0, r0, lsr #8
    9a10:	00009e68 	andeq	r9, r0, r8, ror #28

00009a14 <kmalloc_aligned>:
    9a14:	e52de004 	push	{lr}		; (str lr, [sp, #-4]!)
    9a18:	e24dd00c 	sub	sp, sp, #12, 0
    9a1c:	e3500000 	cmp	r0, #0, 0
    9a20:	0a000014 	beq	9a78 <kmalloc_aligned+0x64>
    9a24:	e2613000 	rsb	r3, r1, #0, 0
    9a28:	e1d13003 	bics	r3, r1, r3
    9a2c:	1a000019 	bne	9a98 <kmalloc_aligned+0x84>
    9a30:	e3510008 	cmp	r1, #8, 0
    9a34:	33a01008 	movcc	r1, #8, 0
    9a38:	e59f30c0 	ldr	r3, [pc, #192]	; 9b00 <kmalloc_aligned+0xec>
    9a3c:	e5932008 	ldr	r2, [r3, #8]
    9a40:	e2613000 	rsb	r3, r1, #0, 0
    9a44:	e1d1c003 	bics	ip, r1, r3
    9a48:	1a00001b 	bne	9abc <kmalloc_aligned+0xa8>
    9a4c:	e0822001 	add	r2, r2, r1
    9a50:	e2422001 	sub	r2, r2, #1, 0
    9a54:	e0033002 	and	r3, r3, r2
    9a58:	e2411001 	sub	r1, r1, #1, 0
    9a5c:	e1110003 	tst	r1, r3
    9a60:	1a00001d 	bne	9adc <kmalloc_aligned+0xc8>
    9a64:	e59f2094 	ldr	r2, [pc, #148]	; 9b00 <kmalloc_aligned+0xec>
    9a68:	e5823008 	str	r3, [r2, #8]
    9a6c:	ebffffcf 	bl	99b0 <kmalloc>
    9a70:	e28dd00c 	add	sp, sp, #12, 0
    9a74:	e49df004 	pop	{pc}		; (ldr pc, [sp], #4)
    9a78:	e59f3084 	ldr	r3, [pc, #132]	; 9b04 <kmalloc_aligned+0xf0>
    9a7c:	e58d3000 	str	r3, [sp]
    9a80:	e3a0305f 	mov	r3, #95, 0	; 0x5f
    9a84:	e59f207c 	ldr	r2, [pc, #124]	; 9b08 <kmalloc_aligned+0xf4>
    9a88:	e59f107c 	ldr	r1, [pc, #124]	; 9b0c <kmalloc_aligned+0xf8>
    9a8c:	e59f007c 	ldr	r0, [pc, #124]	; 9b10 <kmalloc_aligned+0xfc>
    9a90:	ebfffc8c 	bl	8cc8 <printk>
    9a94:	ebfffe7e 	bl	9494 <clean_reboot>
    9a98:	eb000046 	bl	9bb8 <rpi_reset_putc>
    9a9c:	e59f3070 	ldr	r3, [pc, #112]	; 9b14 <kmalloc_aligned+0x100>
    9aa0:	e58d3000 	str	r3, [sp]
    9aa4:	e3a03060 	mov	r3, #96, 0	; 0x60
    9aa8:	e59f2058 	ldr	r2, [pc, #88]	; 9b08 <kmalloc_aligned+0xf4>
    9aac:	e59f1058 	ldr	r1, [pc, #88]	; 9b0c <kmalloc_aligned+0xf8>
    9ab0:	e59f0060 	ldr	r0, [pc, #96]	; 9b18 <kmalloc_aligned+0x104>
    9ab4:	ebfffc83 	bl	8cc8 <printk>
    9ab8:	ebfffe75 	bl	9494 <clean_reboot>
    9abc:	e59f3058 	ldr	r3, [pc, #88]	; 9b1c <kmalloc_aligned+0x108>
    9ac0:	e58d3000 	str	r3, [sp]
    9ac4:	e3a03011 	mov	r3, #17, 0
    9ac8:	e59f2050 	ldr	r2, [pc, #80]	; 9b20 <kmalloc_aligned+0x10c>
    9acc:	e59f1038 	ldr	r1, [pc, #56]	; 9b0c <kmalloc_aligned+0xf8>
    9ad0:	e59f0038 	ldr	r0, [pc, #56]	; 9b10 <kmalloc_aligned+0xfc>
    9ad4:	ebfffc7b 	bl	8cc8 <printk>
    9ad8:	ebfffe6d 	bl	9494 <clean_reboot>
    9adc:	eb000035 	bl	9bb8 <rpi_reset_putc>
    9ae0:	e59f303c 	ldr	r3, [pc, #60]	; 9b24 <kmalloc_aligned+0x110>
    9ae4:	e58d3000 	str	r3, [sp]
    9ae8:	e3a03068 	mov	r3, #104, 0	; 0x68
    9aec:	e59f2014 	ldr	r2, [pc, #20]	; 9b08 <kmalloc_aligned+0xf4>
    9af0:	e59f1014 	ldr	r1, [pc, #20]	; 9b0c <kmalloc_aligned+0xf8>
    9af4:	e59f002c 	ldr	r0, [pc, #44]	; 9b28 <kmalloc_aligned+0x114>
    9af8:	ebfffc72 	bl	8cc8 <printk>
    9afc:	ebfffe64 	bl	9494 <clean_reboot>
    9b00:	0000a624 	andeq	sl, r0, r4, lsr #12
    9b04:	0000a430 	andeq	sl, r0, r0, lsr r4
    9b08:	0000a5f8 	strdeq	sl, [r0], -r8
    9b0c:	0000a420 	andeq	sl, r0, r0, lsr #8
    9b10:	00009e68 	andeq	r9, r0, r8, ror #28
    9b14:	0000a520 	andeq	sl, r0, r0, lsr #10
    9b18:	0000a4ec 	andeq	sl, r0, ip, ror #9
    9b1c:	0000a534 	andeq	sl, r0, r4, lsr r5
    9b20:	0000a608 	andeq	sl, r0, r8, lsl #12
    9b24:	0000a56c 	andeq	sl, r0, ip, ror #10
    9b28:	0000a540 	andeq	sl, r0, r0, asr #10

00009b2c <kfree>:
    9b2c:	e12fff1e 	bx	lr

00009b30 <kfree_all>:
    9b30:	e59f3008 	ldr	r3, [pc, #8]	; 9b40 <kfree_all+0x10>
    9b34:	e5932004 	ldr	r2, [r3, #4]
    9b38:	e5832008 	str	r2, [r3, #8]
    9b3c:	e12fff1e 	bx	lr
    9b40:	0000a624 	andeq	sl, r0, r4, lsr #12

00009b44 <kfree_pop>:
    9b44:	e59f3048 	ldr	r3, [pc, #72]	; 9b94 <kfree_pop+0x50>
    9b48:	e5933004 	ldr	r3, [r3, #4]
    9b4c:	e1530000 	cmp	r3, r0
    9b50:	8a000006 	bhi	9b70 <kfree_pop+0x2c>
    9b54:	e59f3038 	ldr	r3, [pc, #56]	; 9b94 <kfree_pop+0x50>
    9b58:	e5933000 	ldr	r3, [r3]
    9b5c:	e1530000 	cmp	r3, r0
    9b60:	3a000002 	bcc	9b70 <kfree_pop+0x2c>
    9b64:	e59f3028 	ldr	r3, [pc, #40]	; 9b94 <kfree_pop+0x50>
    9b68:	e5830008 	str	r0, [r3, #8]
    9b6c:	e12fff1e 	bx	lr
    9b70:	e52de004 	push	{lr}		; (str lr, [sp, #-4]!)
    9b74:	e24dd00c 	sub	sp, sp, #12, 0
    9b78:	e58d0000 	str	r0, [sp]
    9b7c:	e3a03077 	mov	r3, #119, 0	; 0x77
    9b80:	e59f2010 	ldr	r2, [pc, #16]	; 9b98 <kfree_pop+0x54>
    9b84:	e59f1010 	ldr	r1, [pc, #16]	; 9b9c <kfree_pop+0x58>
    9b88:	e59f0010 	ldr	r0, [pc, #16]	; 9ba0 <kfree_pop+0x5c>
    9b8c:	ebfffc4d 	bl	8cc8 <printk>
    9b90:	ebfffe3f 	bl	9494 <clean_reboot>
    9b94:	0000a624 	andeq	sl, r0, r4, lsr #12
    9b98:	0000a610 	andeq	sl, r0, r0, lsl r6
    9b9c:	0000a420 	andeq	sl, r0, r0, lsr #8
    9ba0:	0000a588 	andeq	sl, r0, r8, lsl #11

00009ba4 <internal_putchar>:
    9ba4:	e92d4010 	push	{r4, lr}
    9ba8:	e1a04000 	mov	r4, r0
    9bac:	ebfffeea 	bl	975c <uart_putc>
    9bb0:	e1a00004 	mov	r0, r4
    9bb4:	e8bd8010 	pop	{r4, pc}

00009bb8 <rpi_reset_putc>:
    9bb8:	e59f3008 	ldr	r3, [pc, #8]	; 9bc8 <rpi_reset_putc+0x10>
    9bbc:	e59f2008 	ldr	r2, [pc, #8]	; 9bcc <rpi_reset_putc+0x14>
    9bc0:	e5832000 	str	r2, [r3]
    9bc4:	e12fff1e 	bx	lr
    9bc8:	0000a630 	andeq	sl, r0, r0, lsr r6
    9bcc:	00009ba4 	andeq	r9, r0, r4, lsr #23

00009bd0 <rpi_set_putc>:
    9bd0:	e59f3004 	ldr	r3, [pc, #4]	; 9bdc <rpi_set_putc+0xc>
    9bd4:	e5830000 	str	r0, [r3]
    9bd8:	e12fff1e 	bx	lr
    9bdc:	0000a630 	andeq	sl, r0, r0, lsr r6

00009be0 <strcat>:
    9be0:	e1a02000 	mov	r2, r0
    9be4:	e1a03002 	mov	r3, r2
    9be8:	e2822001 	add	r2, r2, #1, 0
    9bec:	e5d3c000 	ldrb	ip, [r3]
    9bf0:	e35c0000 	cmp	ip, #0, 0
    9bf4:	1afffffa 	bne	9be4 <strcat+0x4>
    9bf8:	e2433001 	sub	r3, r3, #1, 0
    9bfc:	e5d12000 	ldrb	r2, [r1]
    9c00:	e2811001 	add	r1, r1, #1, 0
    9c04:	e5e32001 	strb	r2, [r3, #1]!
    9c08:	e3520000 	cmp	r2, #0, 0
    9c0c:	1afffffa 	bne	9bfc <strcat+0x1c>
    9c10:	e12fff1e 	bx	lr

00009c14 <strcmp>:
    9c14:	e5d03000 	ldrb	r3, [r0]
    9c18:	e3530000 	cmp	r3, #0, 0
    9c1c:	0a000004 	beq	9c34 <strcmp+0x20>
    9c20:	e5d12000 	ldrb	r2, [r1]
    9c24:	e1530002 	cmp	r3, r2
    9c28:	02800001 	addeq	r0, r0, #1, 0
    9c2c:	02811001 	addeq	r1, r1, #1, 0
    9c30:	0afffff7 	beq	9c14 <strcmp>
    9c34:	e5d10000 	ldrb	r0, [r1]
    9c38:	e0430000 	sub	r0, r3, r0
    9c3c:	e12fff1e 	bx	lr

00009c40 <strcpy>:
    9c40:	e1a0c000 	mov	ip, r0
    9c44:	e5d12000 	ldrb	r2, [r1]
    9c48:	e2811001 	add	r1, r1, #1, 0
    9c4c:	e5cc2000 	strb	r2, [ip]
    9c50:	e28cc001 	add	ip, ip, #1, 0
    9c54:	e3520000 	cmp	r2, #0, 0
    9c58:	1afffff9 	bne	9c44 <strcpy+0x4>
    9c5c:	e12fff1e 	bx	lr

00009c60 <strncmp>:
    9c60:	e3520000 	cmp	r2, #0, 0
    9c64:	e2422001 	sub	r2, r2, #1, 0
    9c68:	0a000005 	beq	9c84 <strncmp+0x24>
    9c6c:	e4d03001 	ldrb	r3, [r0], #1
    9c70:	e4d1c001 	ldrb	ip, [r1], #1
    9c74:	e153000c 	cmp	r3, ip
    9c78:	0afffff8 	beq	9c60 <strncmp>
    9c7c:	e043000c 	sub	r0, r3, ip
    9c80:	e12fff1e 	bx	lr
    9c84:	e3a00000 	mov	r0, #0, 0
    9c88:	e12fff1e 	bx	lr

00009c8c <reboot_callout>:
    9c8c:	e12fff1e 	bx	lr

00009c90 <dev_barrier>:
    9c90:	ea000002 	b	9ca0 <dsb>

00009c94 <dmb>:
    9c94:	e3a00000 	mov	r0, #0, 0
    9c98:	ee070fba 	mcr	15, 0, r0, cr7, cr10, {5}
    9c9c:	e12fff1e 	bx	lr

00009ca0 <dsb>:
    9ca0:	ee070f9a 	mcr	15, 0, r0, cr7, cr10, {4}
    9ca4:	e12fff1e 	bx	lr

00009ca8 <gpio_set_function>:
    9ca8:	e350001f 	cmp	r0, #31, 0
    9cac:	812fff1e 	bxhi	lr
    9cb0:	e92d4070 	push	{r4, r5, r6, lr}
    9cb4:	e1a05001 	mov	r5, r1
    9cb8:	e3d13007 	bics	r3, r1, #7, 0
    9cbc:	18bd8070 	popne	{r4, r5, r6, pc}
    9cc0:	e59f3040 	ldr	r3, [pc, #64]	; 9d08 <gpio_set_function+0x60>
    9cc4:	e0832093 	umull	r2, r3, r3, r0
    9cc8:	e1a031a3 	lsr	r3, r3, #3
    9ccc:	e1a02003 	mov	r2, r3
    9cd0:	e0833103 	add	r3, r3, r3, lsl #2
    9cd4:	e0403083 	sub	r3, r0, r3, lsl #1
    9cd8:	e0834083 	add	r4, r3, r3, lsl #1
    9cdc:	e2820302 	add	r0, r2, #134217728	; 0x8000000
    9ce0:	e2800702 	add	r0, r0, #524288	; 0x80000
    9ce4:	e1a06100 	lsl	r6, r0, #2
    9ce8:	e1a00006 	mov	r0, r6
    9cec:	ebfff8ce 	bl	802c <GET32>
    9cf0:	e3a01007 	mov	r1, #7, 0
    9cf4:	e1c01411 	bic	r1, r0, r1, lsl r4
    9cf8:	e1811415 	orr	r1, r1, r5, lsl r4
    9cfc:	e1a00006 	mov	r0, r6
    9d00:	ebfff8c7 	bl	8024 <PUT32>
    9d04:	e8bd8070 	pop	{r4, r5, r6, pc}
    9d08:	cccccccd 	stclgt	12, cr12, [ip], {205}	; 0xcd

00009d0c <gpio_set_output>:
    9d0c:	e92d4010 	push	{r4, lr}
    9d10:	e3a01001 	mov	r1, #1, 0
    9d14:	ebffffe3 	bl	9ca8 <gpio_set_function>
    9d18:	e8bd8010 	pop	{r4, pc}

00009d1c <gpio_set_on>:
    9d1c:	e350001f 	cmp	r0, #31, 0
    9d20:	812fff1e 	bxhi	lr
    9d24:	e92d4010 	push	{r4, lr}
    9d28:	e3a01001 	mov	r1, #1, 0
    9d2c:	e1a01011 	lsl	r1, r1, r0
    9d30:	e59f0004 	ldr	r0, [pc, #4]	; 9d3c <gpio_set_on+0x20>
    9d34:	ebfff8ba 	bl	8024 <PUT32>
    9d38:	e8bd8010 	pop	{r4, pc}
    9d3c:	2020001c 	eorcs	r0, r0, ip, lsl r0

00009d40 <gpio_set_off>:
    9d40:	e350001f 	cmp	r0, #31, 0
    9d44:	812fff1e 	bxhi	lr
    9d48:	e92d4010 	push	{r4, lr}
    9d4c:	e3a01001 	mov	r1, #1, 0
    9d50:	e1a01011 	lsl	r1, r1, r0
    9d54:	e59f0004 	ldr	r0, [pc, #4]	; 9d60 <gpio_set_off+0x20>
    9d58:	ebfff8b1 	bl	8024 <PUT32>
    9d5c:	e8bd8010 	pop	{r4, pc}
    9d60:	20200028 	eorcs	r0, r0, r8, lsr #32

00009d64 <gpio_set_input>:
    9d64:	e92d4010 	push	{r4, lr}
    9d68:	e3a01000 	mov	r1, #0, 0
    9d6c:	ebffffcd 	bl	9ca8 <gpio_set_function>
    9d70:	e8bd8010 	pop	{r4, pc}

00009d74 <gpio_write>:
    9d74:	e92d4010 	push	{r4, lr}
    9d78:	e3510000 	cmp	r1, #0, 0
    9d7c:	0a000001 	beq	9d88 <gpio_write+0x14>
    9d80:	ebffffe5 	bl	9d1c <gpio_set_on>
    9d84:	e8bd8010 	pop	{r4, pc}
    9d88:	ebffffec 	bl	9d40 <gpio_set_off>
    9d8c:	e8bd8010 	pop	{r4, pc}

00009d90 <gpio_read>:
    9d90:	e350001f 	cmp	r0, #31, 0
    9d94:	8a000007 	bhi	9db8 <gpio_read+0x28>
    9d98:	e92d4010 	push	{r4, lr}
    9d9c:	e200401f 	and	r4, r0, #31, 0
    9da0:	e59f3018 	ldr	r3, [pc, #24]	; 9dc0 <gpio_read+0x30>
    9da4:	e08302a0 	add	r0, r3, r0, lsr #5
    9da8:	ebfff89f 	bl	802c <GET32>
    9dac:	e1a00430 	lsr	r0, r0, r4
    9db0:	e2000001 	and	r0, r0, #1, 0
    9db4:	e8bd8010 	pop	{r4, pc}
    9db8:	e3e00000 	mvn	r0, #0, 0
    9dbc:	e12fff1e 	bx	lr
    9dc0:	20200034 	eorcs	r0, r0, r4, lsr r0

00009dc4 <__code_end__>:
    9dc4:	00000000 	andeq	r0, r0, r0

Disassembly of section .rodata:

00009dc8 <__FUNCTION__.4032-0x8c>:
    9dc8:	74736574 	ldrbtvc	r6, [r3], #-1396	; 0xfffffa8c
    9dcc:	00000a31 	andeq	r0, r0, r1, lsr sl
    9dd0:	74736574 	ldrbtvc	r6, [r3], #-1396	; 0xfffffa8c
    9dd4:	2e322d73 	mrccs	13, 1, r2, cr2, cr3, {3}
    9dd8:	61702f30 	cmnvs	r0, r0, lsr pc
    9ddc:	2d317472 	cfldrscs	mvf7, [r1, #-456]!	; 0xfffffe38
    9de0:	74736574 	ldrbtvc	r6, [r3], #-1396	; 0xfffffa8c
    9de4:	00632e31 	rsbeq	r2, r3, r1, lsr lr
    9de8:	43415254 	movtmi	r5, #4692	; 0x1254
    9dec:	6c613a45 			; <UNDEFINED> instruction: 0x6c613a45
    9df0:	20636f6c 	rsbcs	r6, r3, ip, ror #30
    9df4:	75746572 	ldrbvc	r6, [r4, #-1394]!	; 0xfffffa8e
    9df8:	64656e72 	strbtvs	r6, [r5], #-3698	; 0xfffff18e
    9dfc:	0a702520 	beq	1c13284 <__bss_end__+0x1c0881c>
    9e00:	00000000 	andeq	r0, r0, r0
    9e04:	303d7025 	eorscc	r7, sp, r5, lsr #32
    9e08:	0a666678 	beq	19a37f0 <__bss_end__+0x1998d88>
    9e0c:	00000000 	andeq	r0, r0, r0
    9e10:	494e4150 	stmdbmi	lr, {r4, r6, r8, lr}^
    9e14:	73253a43 			; <UNDEFINED> instruction: 0x73253a43
    9e18:	3a73253a 	bcc	1cd3308 <__bss_end__+0x1cc88a0>
    9e1c:	693a6425 	ldmdbvs	sl!, {r0, r2, r5, sl, sp, lr}
    9e20:	6c61766e 	stclvs	6, cr7, [r1], #-440	; 0xfffffe48
    9e24:	65206469 	strvs	r6, [r0, #-1129]!	; 0xfffffb97
    9e28:	726f7272 	rsbvc	r7, pc, #536870919	; 0x20000007
    9e2c:	0a0a2121 	beq	2922b8 <__bss_end__+0x287850>
    9e30:	00000000 	andeq	r0, r0, r0
    9e34:	43415254 	movtmi	r5, #4692	; 0x1254
    9e38:	55533a45 	ldrbpl	r3, [r3, #-2629]	; 0xfffff5bb
    9e3c:	53454343 	movtpl	r4, #21315	; 0x5343
    9e40:	65682053 	strbvs	r2, [r8, #-83]!	; 0xffffffad
    9e44:	63207061 			; <UNDEFINED> instruction: 0x63207061
    9e48:	6b636568 	blvs	18e33f0 <__bss_end__+0x18d8988>
    9e4c:	6f206465 	svcvs	0x00206465
    9e50:	000a7475 	andeq	r7, sl, r5, ror r4

00009e54 <__FUNCTION__.4032>:
    9e54:	6d746f6e 	ldclvs	15, cr6, [r4, #-440]!	; 0xfffffe48
    9e58:	006e6961 	rsbeq	r6, lr, r1, ror #18
    9e5c:	6c616b63 			; <UNDEFINED> instruction: 0x6c616b63
    9e60:	2e636f6c 	cdpcs	15, 6, cr6, cr3, cr12, {3}
    9e64:	00000063 	andeq	r0, r0, r3, rrx
    9e68:	494e4150 	stmdbmi	lr, {r4, r6, r8, lr}^
    9e6c:	73253a43 			; <UNDEFINED> instruction: 0x73253a43
    9e70:	3a73253a 	bcc	1cd3360 <__bss_end__+0x1cc88f8>
    9e74:	253a6425 	ldrcs	r6, [sl, #-1061]!	; 0xfffffbdb
    9e78:	00000a73 	andeq	r0, r0, r3, ror sl
    9e7c:	0000006c 	andeq	r0, r0, ip, rrx
    9e80:	5f434f4c 	svcpl	0x00434f4c
    9e84:	494e4150 	stmdbmi	lr, {r4, r6, r8, lr}^
    9e88:	25203a43 	strcs	r3, [r0, #-2627]!	; 0xfffff5bd
    9e8c:	73253a73 			; <UNDEFINED> instruction: 0x73253a73
    9e90:	3a64253a 	bcc	1913380 <__bss_end__+0x1908918>
    9e94:	00000000 	andeq	r0, r0, r0
    9e98:	65657266 	strbvs	r7, [r5, #-614]!	; 0xfffffd9a
    9e9c:	20676e69 	rsbcs	r6, r7, r9, ror #28
    9ea0:	6c616e75 	stclvs	14, cr6, [r1], #-468	; 0xfffffe2c
    9ea4:	61636f6c 	cmnvs	r3, ip, ror #30
    9ea8:	20646574 	rsbcs	r6, r4, r4, ror r5
    9eac:	6f6d656d 	svcvs	0x006d656d
    9eb0:	203a7972 	eorscs	r7, sl, r2, ror r9
    9eb4:	6464615b 	strbtvs	r6, [r4], #-347	; 0xfffffea5
    9eb8:	203d2072 	eorscs	r2, sp, r2, ror r0
    9ebc:	73207025 			; <UNDEFINED> instruction: 0x73207025
    9ec0:	65746174 	ldrbvs	r6, [r4, #-372]!	; 0xfffffe8c
    9ec4:	5d64253d 	cfstr64pl	mvdx2, [r4, #-244]!	; 0xffffff0c
    9ec8:	0000000a 	andeq	r0, r0, sl
    9ecc:	253a7325 	ldrcs	r7, [sl, #-805]!	; 0xfffffcdb
    9ed0:	64253a73 	strtvs	r3, [r5], #-2675	; 0xfffff58d
    9ed4:	0000003a 	andeq	r0, r0, sl, lsr r0
    9ed8:	65657266 	strbvs	r7, [r5, #-614]!	; 0xfffffd9a
    9edc:	20676e69 	rsbcs	r6, r7, r9, ror #28
    9ee0:	636f6c62 	cmnvs	pc, #25088	; 0x6200
    9ee4:	203d206b 	eorscs	r2, sp, fp, rrx
    9ee8:	5b206425 	blpl	822f84 <__bss_end__+0x81851c>
    9eec:	72646461 	rsbvc	r6, r4, #1627389952	; 0x61000000
    9ef0:	25203d20 	strcs	r3, [r0, #-3360]!	; 0xfffff2e0
    9ef4:	000a5d70 	andeq	r5, sl, r0, ror sp
    9ef8:	705f6b63 	subsvc	r6, pc, r3, ror #22
    9efc:	695f7274 	ldmdbvs	pc, {r2, r4, r5, r6, r9, ip, sp, lr}^	; <UNPREDICTABLE>
    9f00:	6c615f73 	stclvs	15, cr5, [r1], #-460	; 0xfffffe34
    9f04:	65636f6c 	strbvs	r6, [r3, #-3948]!	; 0xfffff094
    9f08:	64612864 	strbtvs	r2, [r1], #-2148	; 0xfffff79c
    9f0c:	20297264 	eorcs	r7, r9, r4, ror #4
    9f10:	30203d21 	eorcc	r3, r0, r1, lsr #26
    9f14:	00000000 	andeq	r0, r0, r0
    9f18:	5f6b6321 	svcpl	0x006b6321
    9f1c:	5f727470 	svcpl	0x00727470
    9f20:	615f7369 	cmpvs	pc, r9, ror #6
    9f24:	636f6c6c 	cmnvs	pc, #108, 24	; 0x6c00
    9f28:	61286465 			; <UNDEFINED> instruction: 0x61286465
    9f2c:	29726464 	ldmdbcs	r2!, {r2, r5, r6, sl, sp, lr}^
    9f30:	00000000 	andeq	r0, r0, r0
    9f34:	6f6c6c61 	svcvs	0x006c6c61
    9f38:	69746163 	ldmdbvs	r4!, {r0, r1, r5, r6, r8, sp, lr}^
    9f3c:	6220676e 	eorvs	r6, r0, #28835840	; 0x1b80000
    9f40:	6b636f6c 	blvs	18e5cf8 <__bss_end__+0x18db290>
    9f44:	25203d20 	strcs	r3, [r0, #-3360]!	; 0xfffff2e0
    9f48:	615b2064 	cmpvs	fp, r4, rrx
    9f4c:	20726464 	rsbscs	r6, r2, r4, ror #8
    9f50:	7025203d 	eorvc	r2, r5, sp, lsr r0
    9f54:	00000a5d 	andeq	r0, r0, sp, asr sl

00009f58 <__FUNCTION__.4051>:
    9f58:	7473696c 	ldrbtvc	r6, [r3], #-2412	; 0xfffff694
    9f5c:	7070615f 	rsbsvc	r6, r0, pc, asr r1
    9f60:	00646e65 	rsbeq	r6, r4, r5, ror #28

00009f64 <__FUNCTION__.4105>:
    9f64:	72666b63 	rsbvc	r6, r6, #101376	; 0x18c00
    9f68:	00006565 	andeq	r6, r0, r5, ror #10
    9f6c:	2d2d2d2d 	stccs	13, cr2, [sp, #-180]!	; 0xffffff4c
    9f70:	2d2d2d2d 	stccs	13, cr2, [sp, #-180]!	; 0xffffff4c
    9f74:	2d2d2d2d 	stccs	13, cr2, [sp, #-180]!	; 0xffffff4c
    9f78:	2d2d2d2d 	stccs	13, cr2, [sp, #-180]!	; 0xffffff4c
    9f7c:	2d2d2d2d 	stccs	13, cr2, [sp, #-180]!	; 0xffffff4c
    9f80:	2d2d2d2d 	stccs	13, cr2, [sp, #-180]!	; 0xffffff4c
    9f84:	2d2d2d2d 	stccs	13, cr2, [sp, #-180]!	; 0xffffff4c
    9f88:	2d2d2d2d 	stccs	13, cr2, [sp, #-180]!	; 0xffffff4c
    9f8c:	2d2d2d2d 	stccs	13, cr2, [sp, #-180]!	; 0xffffff4c
    9f90:	2d2d2d2d 	stccs	13, cr2, [sp, #-180]!	; 0xffffff4c
    9f94:	2d2d2d2d 	stccs	13, cr2, [sp, #-180]!	; 0xffffff4c
    9f98:	2d2d2d2d 	stccs	13, cr2, [sp, #-180]!	; 0xffffff4c
    9f9c:	2d2d2d2d 	stccs	13, cr2, [sp, #-180]!	; 0xffffff4c
    9fa0:	2d2d2d2d 	stccs	13, cr2, [sp, #-180]!	; 0xffffff4c
    9fa4:	00000a2d 	andeq	r0, r0, sp, lsr #20
    9fa8:	63656863 	cmnvs	r5, #6488064	; 0x630000
    9fac:	676e696b 	strbvs	r6, [lr, -fp, ror #18]!
    9fb0:	726f6620 	rsbvc	r6, pc, #32, 12	; 0x2000000
    9fb4:	61656c20 	cmnvs	r5, r0, lsr #24
    9fb8:	0a3a736b 	beq	ea6d6c <__bss_end__+0xe9c304>
    9fbc:	00000000 	andeq	r0, r0, r0
    9fc0:	43415254 	movtmi	r5, #4692	; 0x1254
    9fc4:	656c3a45 	strbvs	r3, [ip, #-2629]!	; 0xfffff5bb
    9fc8:	66206b61 	strtvs	r6, [r0], -r1, ror #22
    9fcc:	646e756f 	strbtvs	r7, [lr], #-1391	; 0xfffffa91
    9fd0:	726f6620 	rsbvc	r6, pc, #32, 12	; 0x2000000
    9fd4:	6f6c6220 	svcvs	0x006c6220
    9fd8:	203a6b63 	eorscs	r6, sl, r3, ror #22
    9fdc:	5b206425 	blpl	823078 <__bss_end__+0x818610>
    9fe0:	72646461 	rsbvc	r6, r4, #1627389952	; 0x61000000
    9fe4:	25203d20 	strcs	r3, [r0, #-3360]!	; 0xfffff2e0
    9fe8:	000a5d70 	andeq	r5, sl, r0, ror sp
    9fec:	43415254 	movtmi	r5, #4692	; 0x1254
    9ff0:	47093a45 	strmi	r3, [r9, -r5, asr #20]
    9ff4:	68433a43 	stmdavs	r3, {r0, r1, r6, r9, fp, ip, sp}^
    9ff8:	656b6365 	strbvs	r6, [fp, #-869]!	; 0xfffffc9b
    9ffc:	64252064 	strtvs	r2, [r5], #-100	; 0xffffff9c
    a000:	6f6c6220 	svcvs	0x006c6220
    a004:	2e736b63 	vsubcs.f64	d22, d3, d19
    a008:	0000000a 	andeq	r0, r0, sl
    a00c:	43415254 	movtmi	r5, #4692	; 0x1254
    a010:	09093a45 	stmdbeq	r9, {r0, r2, r6, r9, fp, ip, sp}
    a014:	533a4347 	teqpl	sl, #469762049	; 0x1c000001
    a018:	45434355 	strbmi	r4, [r3, #-853]	; 0xfffffcab
    a01c:	203a5353 	eorscs	r5, sl, r3, asr r3
    a020:	6c206f4e 	stcvs	15, cr6, [r0], #-312	; 0xfffffec8
    a024:	736b6165 	cmnvc	fp, #1073741849	; 0x40000019
    a028:	756f6620 	strbvc	r6, [pc, #-1568]!	; 9a10 <kmalloc+0x60>
    a02c:	0a21646e 	beq	8631ec <__bss_end__+0x858784>
    a030:	00000000 	andeq	r0, r0, r0
    a034:	43415254 	movtmi	r5, #4692	; 0x1254
    a038:	09093a45 	stmdbeq	r9, {r0, r2, r6, r9, fp, ip, sp}
    a03c:	453a4347 	ldrmi	r4, [sl, #-839]!	; 0xfffffcb9
    a040:	524f5252 	subpl	r5, pc, #536870917	; 0x20000005
    a044:	25203a53 	strcs	r3, [r0, #-2643]!	; 0xfffff5ad
    a048:	72652064 	rsbvc	r2, r5, #100, 0	; 0x64
    a04c:	73726f72 	cmnvc	r2, #456	; 0x1c8
    a050:	6425202c 	strtvs	r2, [r5], #-44	; 0xffffffd4
    a054:	79616d20 	stmdbvc	r1!, {r5, r8, sl, fp, sp, lr}^
    a058:	655f6562 	ldrbvs	r6, [pc, #-1378]	; 9afe <kmalloc_aligned+0xea>
    a05c:	726f7272 	rsbvc	r7, pc, #536870919	; 0x20000007
    a060:	00000a73 	andeq	r0, r0, r3, ror sl
    a064:	2d2d2d2d 	stccs	13, cr2, [sp, #-180]!	; 0xffffff4c
    a068:	2d2d2d2d 	stccs	13, cr2, [sp, #-180]!	; 0xffffff4c
    a06c:	2d2d2d2d 	stccs	13, cr2, [sp, #-180]!	; 0xffffff4c
    a070:	2d2d2d2d 	stccs	13, cr2, [sp, #-180]!	; 0xffffff4c
    a074:	2d2d2d2d 	stccs	13, cr2, [sp, #-180]!	; 0xffffff4c
    a078:	2d2d2d2d 	stccs	13, cr2, [sp, #-180]!	; 0xffffff4c
    a07c:	2d2d2d2d 	stccs	13, cr2, [sp, #-180]!	; 0xffffff4c
    a080:	2d2d2d2d 	stccs	13, cr2, [sp, #-180]!	; 0xffffff4c
    a084:	2d2d2d2d 	stccs	13, cr2, [sp, #-180]!	; 0xffffff4c
    a088:	2d2d2d2d 	stccs	13, cr2, [sp, #-180]!	; 0xffffff4c
    a08c:	2d2d2d2d 	stccs	13, cr2, [sp, #-180]!	; 0xffffff4c
    a090:	2d2d2d2d 	stccs	13, cr2, [sp, #-180]!	; 0xffffff4c
    a094:	2d2d2d2d 	stccs	13, cr2, [sp, #-180]!	; 0xffffff4c
    a098:	2d2d2d2d 	stccs	13, cr2, [sp, #-180]!	; 0xffffff4c
    a09c:	000a2d2d 	andeq	r2, sl, sp, lsr #26
    a0a0:	706d6f63 	rsbvc	r6, sp, r3, ror #30
    a0a4:	69746361 	ldmdbvs	r4!, {r0, r5, r6, r8, r9, sp, lr}^
    a0a8:	0a3a676e 	beq	ea3e68 <__bss_end__+0xe99400>
    a0ac:	00000000 	andeq	r0, r0, r0
    a0b0:	43415254 	movtmi	r5, #4692	; 0x1254
    a0b4:	656c3a45 	strbvs	r3, [ip, #-2629]!	; 0xfffff5bb
    a0b8:	66206b61 	strtvs	r6, [r0], -r1, ror #22
    a0bc:	646e756f 	strbtvs	r7, [lr], #-1391	; 0xfffffa91
    a0c0:	726f6620 	rsbvc	r6, pc, #32, 12	; 0x2000000
    a0c4:	6f6c6220 	svcvs	0x006c6220
    a0c8:	203a6b63 	eorscs	r6, sl, r3, ror #22
    a0cc:	5b206425 	blpl	823168 <__bss_end__+0x818700>
    a0d0:	72646461 	rsbvc	r6, r4, #1627389952	; 0x61000000
    a0d4:	25203d20 	strcs	r3, [r0, #-3360]!	; 0xfffff2e0
    a0d8:	202e5d64 	eorcs	r5, lr, r4, ror #26
    a0dc:	65657246 	strbvs	r7, [r5, #-582]!	; 0xfffffdba
    a0e0:	2e676e69 	cdpcs	14, 6, cr6, cr7, cr9, {3}
    a0e4:	0000000a 	andeq	r0, r0, sl
    a0e8:	43415254 	movtmi	r5, #4692	; 0x1254
    a0ec:	47093a45 	strmi	r3, [r9, -r5, asr #20]
    a0f0:	68433a43 	stmdavs	r3, {r0, r1, r6, r9, fp, ip, sp}^
    a0f4:	656b6365 	strbvs	r6, [fp, #-869]!	; 0xfffffc9b
    a0f8:	64252064 	strtvs	r2, [r5], #-100	; 0xffffff9c
    a0fc:	6f6c6220 	svcvs	0x006c6220
    a100:	2c736b63 			; <UNDEFINED> instruction: 0x2c736b63
    a104:	65726620 	ldrbvs	r6, [r2, #-1568]!	; 0xfffff9e0
    a108:	25206465 	strcs	r6, [r0, #-1125]!	; 0xfffffb9b
    a10c:	25202c64 	strcs	r2, [r0, #-3172]!	; 0xfffff39c
    a110:	79622064 	stmdbvc	r2!, {r2, r5, r6, sp}^
    a114:	0a736574 	beq	1ce36ec <__bss_end__+0x1cd8c84>
    a118:	00000000 	andeq	r0, r0, r0
    a11c:	672d6b63 	strvs	r6, [sp, -r3, ror #22]!
    a120:	00632e63 	rsbeq	r2, r3, r3, ror #28
    a124:	00653c70 	rsbeq	r3, r5, r0, ror ip
    a128:	67696c61 	strbvs	r6, [r9, -r1, ror #24]!
    a12c:	2864656e 	stmdacs	r4!, {r1, r2, r3, r5, r6, r8, sl, sp, lr}^
    a130:	29342c70 	ldmdbcs	r4!, {r4, r5, r6, sl, fp, sp}
    a134:	00000000 	andeq	r0, r0, r0
    a138:	67696c61 	strbvs	r6, [r9, -r1, ror #24]!
    a13c:	2864656e 	stmdacs	r4!, {r1, r2, r3, r5, r6, r8, sl, sp, lr}^
    a140:	29342c65 	ldmdbcs	r4!, {r0, r2, r5, r6, sl, fp, sp}
    a144:	00000000 	andeq	r0, r0, r0
    a148:	43415254 	movtmi	r5, #4692	; 0x1254
    a14c:	6e693a45 	vnmulvs.f32	s7, s18, s10
    a150:	72627320 	rsbvc	r7, r2, #32, 6	; 0x80000000
    a154:	00000a6b 	andeq	r0, r0, fp, ror #20
    a158:	72636e69 	rsbvc	r6, r3, #1680	; 0x690
    a15c:	6e656d65 	cdpvs	13, 6, cr6, cr5, cr5, {3}
    a160:	203e2074 	eorscs	r2, lr, r4, ror r0
    a164:	00000030 	andeq	r0, r0, r0, lsr r0
    a168:	494e4150 	stmdbmi	lr, {r4, r6, r8, lr}^
    a16c:	73253a43 			; <UNDEFINED> instruction: 0x73253a43
    a170:	3a73253a 	bcc	1cd3660 <__bss_end__+0x1cc8bf8>
    a174:	6e3a6425 	cdpvs	4, 3, cr6, cr10, cr5, {1}
    a178:	6820746f 	stmdavs	r0!, {r0, r1, r2, r3, r5, r6, sl, ip, sp, lr}
    a17c:	6c646e61 	stclvs	14, cr6, [r4], #-388	; 0xfffffe7c
    a180:	0a676e69 	beq	19e5b2c <__bss_end__+0x19db0c4>
    a184:	0000000a 	andeq	r0, r0, sl
    a188:	43415254 	movtmi	r5, #4692	; 0x1254
    a18c:	614d3a45 	cmpvs	sp, r5, asr #20
    a190:	6e696b72 	vmovvs.8	d9[7], r6
    a194:	2e2e2e67 	cdpcs	14, 2, cr2, cr14, cr7, {3}
    a198:	00000000 	andeq	r0, r0, r0
    a19c:	656e6f44 	strbvs	r6, [lr, #-3908]!	; 0xfffff0bc
    a1a0:	00000a21 	andeq	r0, r0, r1, lsr #20
    a1a4:	494e4150 	stmdbmi	lr, {r4, r6, r8, lr}^
    a1a8:	73253a43 			; <UNDEFINED> instruction: 0x73253a43
    a1ac:	3a73253a 	bcc	1cd369c <__bss_end__+0x1cc8c34>
    a1b0:	473a6425 	ldrmi	r6, [sl, -r5, lsr #8]!
    a1b4:	73203a43 			; <UNDEFINED> instruction: 0x73203a43
    a1b8:	6c756f68 	ldclvs	15, cr6, [r5], #-416	; 0xfffffe60
    a1bc:	61682064 	cmnvs	r8, r4, rrx
    a1c0:	6e206576 	mcrvs	5, 1, r6, cr0, cr6, {3}
    a1c4:	656c206f 	strbvs	r2, [ip, #-111]!	; 0xffffff91
    a1c8:	21736b61 	cmncs	r3, r1, ror #22
    a1cc:	00000a0a 	andeq	r0, r0, sl, lsl #20
    a1d0:	43415254 	movtmi	r5, #4692	; 0x1254
    a1d4:	43473a45 	movtmi	r3, #31301	; 0x7a45
    a1d8:	5553203a 	ldrbpl	r2, [r3, #-58]	; 0xffffffc6
    a1dc:	53454343 	movtpl	r4, #21315	; 0x5343
    a1e0:	6e203a53 			; <UNDEFINED> instruction: 0x6e203a53
    a1e4:	656c206f 	strbvs	r2, [ip, #-111]!	; 0xffffff91
    a1e8:	21736b61 	cmncs	r3, r1, ror #22
    a1ec:	0000000a 	andeq	r0, r0, sl
    a1f0:	494e4150 	stmdbmi	lr, {r4, r6, r8, lr}^
    a1f4:	73253a43 			; <UNDEFINED> instruction: 0x73253a43
    a1f8:	3a73253a 	bcc	1cd36e8 <__bss_end__+0x1cc8c80>
    a1fc:	473a6425 	ldrmi	r6, [sl, -r5, lsr #8]!
    a200:	73203a43 			; <UNDEFINED> instruction: 0x73203a43
    a204:	6c756f68 	ldclvs	15, cr6, [r5], #-416	; 0xfffffe60
    a208:	61682064 	cmnvs	r8, r4, rrx
    a20c:	6c206576 	cfstr32vs	mvfx6, [r0], #-472	; 0xfffffe28
    a210:	736b6165 	cmnvc	fp, #1073741849	; 0x40000019
    a214:	000a0a21 	andeq	r0, sl, r1, lsr #20
    a218:	43415254 	movtmi	r5, #4692	; 0x1254
    a21c:	43473a45 	movtmi	r3, #31301	; 0x7a45
    a220:	5553203a 	ldrbpl	r2, [r3, #-58]	; 0xffffffc6
    a224:	53454343 	movtpl	r4, #21315	; 0x5343
    a228:	66203a53 			; <UNDEFINED> instruction: 0x66203a53
    a22c:	646e756f 	strbtvs	r7, [lr], #-1391	; 0xfffffa91
    a230:	20642520 	rsbcs	r2, r4, r0, lsr #10
    a234:	6b61656c 	blvs	18637ec <__bss_end__+0x1858d84>
    a238:	000a2173 	andeq	r2, sl, r3, ror r1
    a23c:	494e4150 	stmdbmi	lr, {r4, r6, r8, lr}^
    a240:	73253a43 			; <UNDEFINED> instruction: 0x73253a43
    a244:	3a73253a 	bcc	1cd3734 <__bss_end__+0x1cc8ccc>
    a248:	643a6425 	ldrtvs	r6, [sl], #-1061	; 0xfffffbdb
    a24c:	6e206469 	cdpvs	4, 2, cr6, cr0, cr9, {3}
    a250:	6920746f 	stmdbvs	r0!, {r0, r1, r2, r3, r5, r6, sl, ip, sp, lr}
    a254:	656c706d 	strbvs	r7, [ip, #-109]!	; 0xffffff93
    a258:	746e656d 	strbtvc	r6, [lr], #-1389	; 0xfffffa93
    a25c:	6d756420 	cfldrdvs	mvd6, [r5, #-128]!	; 0xffffff80
    a260:	65725f70 	ldrbvs	r5, [r2, #-3952]!	; 0xfffff090
    a264:	0a217367 	beq	867008 <__bss_end__+0x85c5a0>
    a268:	0000000a 	andeq	r0, r0, sl

0000a26c <__FUNCTION__.4053>:
    a26c:	6b72616d 	blvs	1ca2828 <__bss_end__+0x1c97dc0>
    a270:	00000000 	andeq	r0, r0, r0

0000a274 <__FUNCTION__.4040>:
    a274:	6b726273 	blvs	1ca2c48 <__bss_end__+0x1c981e0>
    a278:	00000000 	andeq	r0, r0, r0

0000a27c <__FUNCTION__.4098>:
    a27c:	63656863 	cmnvs	r5, #6488064	; 0x630000
    a280:	6f6e5f6b 	svcvs	0x006e5f6b
    a284:	61656c5f 	cmnvs	r5, pc, asr ip
    a288:	0000006b 	andeq	r0, r0, fp, rrx

0000a28c <__FUNCTION__.4103>:
    a28c:	63656863 	cmnvs	r5, #6488064	; 0x630000
    a290:	68735f6b 	ldmdavs	r3!, {r0, r1, r3, r5, r6, r8, r9, sl, fp, ip, lr}^
    a294:	646c756f 	strbtvs	r7, [ip], #-1391	; 0xfffffa91
    a298:	61656c5f 	cmnvs	r5, pc, asr ip
    a29c:	0000006b 	andeq	r0, r0, fp, rrx

0000a2a0 <__FUNCTION__.4121>:
    a2a0:	6c706d69 	ldclvs	13, cr6, [r0], #-420	; 0xfffffe5c
    a2a4:	6e656d65 	cdpvs	13, 6, cr6, cr5, cr5, {3}
    a2a8:	68745f74 	ldmdavs	r4!, {r2, r4, r5, r6, r8, r9, sl, fp, ip, lr}^
    a2ac:	00007369 	andeq	r7, r0, r9, ror #6
    a2b0:	696c2f2e 	stmdbvs	ip!, {r1, r2, r3, r5, r8, r9, sl, fp, sp}^
    a2b4:	762f6362 	strtvc	r6, [pc], -r2, ror #6
    a2b8:	72702d61 	rsbsvc	r2, r0, #6208	; 0x1840
    a2bc:	6b746e69 	blvs	1d25c68 <__bss_end__+0x1d1b200>
    a2c0:	0000632e 	andeq	r6, r0, lr, lsr #6
    a2c4:	33323130 	teqcc	r2, #12
    a2c8:	37363534 			; <UNDEFINED> instruction: 0x37363534
    a2cc:	00003938 	andeq	r3, r0, r8, lsr r9
    a2d0:	33323130 	teqcc	r2, #12
    a2d4:	37363534 			; <UNDEFINED> instruction: 0x37363534
    a2d8:	62613938 	rsbvs	r3, r1, #56, 18	; 0xe0000
    a2dc:	66656463 	strbtvs	r6, [r5], -r3, ror #8
    a2e0:	00000000 	andeq	r0, r0, r0
    a2e4:	00003130 	andeq	r3, r0, r0, lsr r1
    a2e8:	63747570 	cmnvs	r4, #112, 10	; 0x1c000000
    a2ec:	0070665f 	rsbseq	r6, r0, pc, asr r6
    a2f0:	74646977 	strbtvc	r6, [r4], #-2423	; 0xfffff689
    a2f4:	203c2068 	eorscs	r2, ip, r8, rrx
    a2f8:	00003233 	andeq	r3, r0, r3, lsr r2
    a2fc:	00786c6c 	rsbseq	r6, r8, ip, ror #24
    a300:	00646c6c 	rsbeq	r6, r4, ip, ror #24
    a304:	253d3078 	ldrcs	r3, [sp, #-120]!	; 0xffffff88
    a308:	00000a78 	andeq	r0, r0, r8, ror sl
    a30c:	253d3178 	ldrcs	r3, [sp, #-376]!	; 0xfffffe88
    a310:	00000a78 	andeq	r0, r0, r8, ror sl
    a314:	6e727473 	mrcvs	4, 3, r7, cr2, cr3, {3}
    a318:	28706d63 	ldmdacs	r0!, {r0, r1, r5, r6, r8, sl, fp, sp, lr}^
    a31c:	202c7974 	eorcs	r7, ip, r4, ror r9
    a320:	786c6c22 	stmdavc	ip!, {r1, r5, sl, fp, sp, lr}^
    a324:	33202c22 			; <UNDEFINED> instruction: 0x33202c22
    a328:	3d3d2029 	ldccc	0, cr2, [sp, #-164]!	; 0xffffff5c
    a32c:	7c203020 	stcvc	0, cr3, [r0], #-128	; 0xffffff80
    a330:	7473207c 	ldrbtvc	r2, [r3], #-124	; 0xffffff84
    a334:	6d636e72 	stclvs	14, cr6, [r3, #-456]!	; 0xfffffe38
    a338:	79742870 	ldmdbvc	r4!, {r4, r5, r6, fp, sp}^
    a33c:	6c22202c 	stcvs	0, cr2, [r2], #-176	; 0xffffff50
    a340:	2c22646c 	cfstrscs	mvf6, [r2], #-432	; 0xfffffe50
    a344:	20293320 	eorcs	r3, r9, r0, lsr #6
    a348:	30203d3d 	eorcc	r3, r0, sp, lsr sp
    a34c:	00000000 	andeq	r0, r0, r0
    a350:	494e4150 	stmdbmi	lr, {r4, r6, r8, lr}^
    a354:	73253a43 			; <UNDEFINED> instruction: 0x73253a43
    a358:	3a73253a 	bcc	1cd3848 <__bss_end__+0x1cc8de0>
    a35c:	693a6425 	ldmdbvs	sl!, {r0, r2, r5, sl, sp, lr}
    a360:	736f706d 	cmnvc	pc, #109, 0	; 0x6d
    a364:	6c626973 			; <UNDEFINED> instruction: 0x6c626973
    a368:	66203a65 	strtvs	r3, [r0], -r5, ror #20
    a36c:	3c3d746d 	cfldrscc	mvf7, [sp], #-436	; 0xfffffe4c
    a370:	0a3e7325 	beq	fa700c <__bss_end__+0xf9c5a4>
    a374:	0000000a 	andeq	r0, r0, sl
    a378:	494e4150 	stmdbmi	lr, {r4, r6, r8, lr}^
    a37c:	73253a43 			; <UNDEFINED> instruction: 0x73253a43
    a380:	3a73253a 	bcc	1cd3870 <__bss_end__+0x1cc8e08>
    a384:	663a6425 	ldrtvs	r6, [sl], -r5, lsr #8
    a388:	74616f6c 	strbtvc	r6, [r1], #-3948	; 0xfffff094
    a38c:	746f6e20 	strbtvc	r6, [pc], #-3616	; a394 <__FUNCTION__.4121+0xf4>
    a390:	616e6520 	cmnvs	lr, r0, lsr #10
    a394:	64656c62 	strbtvs	r6, [r5], #-3170	; 0xfffff39e
    a398:	0a212121 	beq	852824 <__bss_end__+0x847dbc>
    a39c:	00000000 	andeq	r0, r0, r0
    a3a0:	6e697270 	mcrvs	2, 3, r7, cr9, cr0, {3}
    a3a4:	203a6b74 	eorscs	r6, sl, r4, ror fp
    a3a8:	20746f6e 	rsbscs	r6, r4, lr, ror #30
    a3ac:	646e6168 	strbtvs	r6, [lr], #-360	; 0xfffffe98
    a3b0:	676e696c 	strbvs	r6, [lr, -ip, ror #18]!
    a3b4:	65707320 	ldrbvs	r7, [r0, #-800]!	; 0xfffffce0
    a3b8:	69666963 	stmdbvs	r6!, {r0, r1, r5, r6, r8, fp, sp, lr}^
    a3bc:	27207265 	strcs	r7, [r0, -r5, ror #4]!
    a3c0:	20276325 	eorcs	r6, r7, r5, lsr #6
    a3c4:	63736128 	cmnvs	r3, #10
    a3c8:	253d6969 	ldrcs	r6, [sp, #-2409]!	; 0xfffff697
    a3cc:	000a2964 	andeq	r2, sl, r4, ror #18
    a3d0:	494e4150 	stmdbmi	lr, {r4, r6, r8, lr}^
    a3d4:	73253a43 			; <UNDEFINED> instruction: 0x73253a43
    a3d8:	3a73253a 	bcc	1cd38c8 <__bss_end__+0x1cc8e60>
    a3dc:	703a6425 	eorsvc	r6, sl, r5, lsr #8
    a3e0:	746e6972 	strbtvc	r6, [lr], #-2418	; 0xfffff68e
    a3e4:	7265206b 	rsbvc	r2, r5, #107, 0	; 0x6b
    a3e8:	0a726f72 	beq	1ca61b8 <__bss_end__+0x1c9b750>
    a3ec:	0000000a 	andeq	r0, r0, sl

0000a3f0 <__FUNCTION__.4008>:
    a3f0:	74696d65 	strbtvc	r6, [r9], #-3429	; 0xfffff29b
    a3f4:	00000000 	andeq	r0, r0, r0

0000a3f8 <__FUNCTION__.3956>:
    a3f8:	5f697072 	svcpl	0x00697072
    a3fc:	5f746573 	svcpl	0x00746573
    a400:	7074756f 	rsbsvc	r7, r4, pc, ror #10
    a404:	00007475 	andeq	r7, r0, r5, ror r4

0000a408 <__FUNCTION__.4034>:
    a408:	705f6176 	subsvc	r6, pc, r6, ror r1	; <UNPREDICTABLE>
    a40c:	746e6972 	strbtvc	r6, [lr], #-2418	; 0xfffff68e
    a410:	0000006b 	andeq	r0, r0, fp, rrx
    a414:	454e4f44 	strbmi	r4, [lr, #-3908]	; 0xfffff0bc
    a418:	0a212121 	beq	8528a4 <__bss_end__+0x847e3c>
    a41c:	00000000 	andeq	r0, r0, r0
    a420:	6c616d6b 	stclvs	13, cr6, [r1], #-428	; 0xfffffe54
    a424:	2e636f6c 	cdpcs	15, 6, cr6, cr3, cr12, {3}
    a428:	00000063 	andeq	r0, r0, r3, rrx
    a42c:	5f78616d 	svcpl	0x0078616d
    a430:	7479626e 	ldrbtvc	r6, [r9], #-622	; 0xfffffd92
    a434:	00007365 	andeq	r7, r0, r5, ror #6
    a438:	494e4150 	stmdbmi	lr, {r4, r6, r8, lr}^
    a43c:	73253a43 			; <UNDEFINED> instruction: 0x73253a43
    a440:	3a73253a 	bcc	1cd3930 <__bss_end__+0x1cc8ec8>
    a444:	733a6425 	teqvc	sl, #620756992	; 0x25000000
    a448:	69747465 	ldmdbvs	r4!, {r0, r2, r5, r6, sl, ip, sp, lr}^
    a44c:	6820676e 	stmdavs	r0!, {r1, r2, r3, r5, r6, r8, r9, sl, sp, lr}
    a450:	20706165 	rsbscs	r6, r0, r5, ror #2
    a454:	25206f74 	strcs	r6, [r0, #-3956]!	; 0xfffff08c
    a458:	77203a70 			; <UNDEFINED> instruction: 0x77203a70
    a45c:	206c6c69 	rsbcs	r6, ip, r9, ror #24
    a460:	20746968 	rsbscs	r6, r4, r8, ror #18
    a464:	20656874 	rsbcs	r6, r5, r4, ror r8
    a468:	20646c6f 	rsbcs	r6, r4, pc, ror #24
    a46c:	70616568 	rsbvc	r6, r1, r8, ror #10
    a470:	20746120 	rsbscs	r6, r4, r0, lsr #2
    a474:	0a0a7025 	beq	2a6510 <__bss_end__+0x29baa8>
    a478:	00000000 	andeq	r0, r0, r0
    a47c:	494e4150 	stmdbmi	lr, {r4, r6, r8, lr}^
    a480:	73253a43 			; <UNDEFINED> instruction: 0x73253a43
    a484:	3a73253a 	bcc	1cd3974 <__bss_end__+0x1cc8f0c>
    a488:	613a6425 	teqvs	sl, r5, lsr #8
    a48c:	6165726c 	cmnvs	r5, ip, ror #4
    a490:	63207964 			; <UNDEFINED> instruction: 0x63207964
    a494:	656c6c61 	strbvs	r6, [ip, #-3169]!	; 0xfffff39f
    a498:	6d6b2064 	stclvs	0, cr2, [fp, #-400]!	; 0xfffffe70
    a49c:	6f6c6c61 	svcvs	0x006c6c61
    a4a0:	6e695f63 	cdpvs	15, 6, cr5, cr9, cr3, {3}
    a4a4:	0a0a7469 	beq	2a7650 <__bss_end__+0x29cbe8>
    a4a8:	00000000 	andeq	r0, r0, r0
    a4ac:	494e4150 	stmdbmi	lr, {r4, r6, r8, lr}^
    a4b0:	73253a43 			; <UNDEFINED> instruction: 0x73253a43
    a4b4:	3a73253a 	bcc	1cd39a4 <__bss_end__+0x1cc8f3c>
    a4b8:	253a6425 	ldrcs	r6, [sl, #-1061]!	; 0xfffffbdb
    a4bc:	626e2064 	rsbvs	r2, lr, #100, 0	; 0x64
    a4c0:	73657479 	cmnvc	r5, #2030043136	; 0x79000000
    a4c4:	63786520 	cmnvs	r8, #32, 10	; 0x8000000
    a4c8:	65646565 	strbvs	r6, [r4, #-1381]!	; 0xfffffa9b
    a4cc:	69732064 	ldmdbvs	r3!, {r2, r5, r6, sp}^
    a4d0:	6f20657a 	svcvs	0x0020657a
    a4d4:	65682066 	strbvs	r2, [r8, #-102]!	; 0xffffff9a
    a4d8:	62207061 	eorvs	r7, r0, #97, 0	; 0x61
    a4dc:	75252079 	strvc	r2, [r5, #-121]!	; 0xffffff87
    a4e0:	79626e20 	stmdbvc	r2!, {r5, r9, sl, fp, sp, lr}^
    a4e4:	0a736574 	beq	1ce3abc <__bss_end__+0x1cd9054>
    a4e8:	0000000a 	andeq	r0, r0, sl
    a4ec:	4f525245 	svcmi	0x00525245
    a4f0:	73253a52 			; <UNDEFINED> instruction: 0x73253a52
    a4f4:	3a73253a 	bcc	1cd39e4 <__bss_end__+0x1cc8f7c>
    a4f8:	203a6425 	eorscs	r6, sl, r5, lsr #8
    a4fc:	534c4146 	movtpl	r4, #49478	; 0xc146
    a500:	253c2845 	ldrcs	r2, [ip, #-2117]!	; 0xfffff7bb
    a504:	3a293e73 	bcc	a59ed8 <__bss_end__+0xa4f470>
    a508:	73736120 	cmnvc	r3, #8
    a50c:	6e696d75 	mcrvs	13, 3, r6, cr9, cr5, {3}
    a510:	6f702067 	svcvs	0x00702067
    a514:	20726577 	rsbscs	r6, r2, r7, ror r5
    a518:	7420666f 	strtvc	r6, [r0], #-1647	; 0xfffff991
    a51c:	000a6f77 	andeq	r6, sl, r7, ror pc
    a520:	705f7369 	subsvc	r7, pc, r9, ror #6
    a524:	2832776f 	ldmdacs	r2!, {r0, r1, r2, r3, r5, r6, r8, r9, sl, ip, sp, lr}
    a528:	67696c61 	strbvs	r6, [r9, -r1, ror #24]!
    a52c:	6e656d6e 	cdpvs	13, 6, cr6, cr5, cr14, {3}
    a530:	00002974 	andeq	r2, r0, r4, ror r9
    a534:	705f7369 	subsvc	r7, pc, r9, ror #6
    a538:	2832776f 	ldmdacs	r2!, {r0, r1, r2, r3, r5, r6, r8, r9, sl, ip, sp, lr}
    a53c:	0000296e 	andeq	r2, r0, lr, ror #18
    a540:	4f525245 	svcmi	0x00525245
    a544:	73253a52 			; <UNDEFINED> instruction: 0x73253a52
    a548:	3a73253a 	bcc	1cd3a38 <__bss_end__+0x1cc8fd0>
    a54c:	203a6425 	eorscs	r6, sl, r5, lsr #8
    a550:	534c4146 	movtpl	r4, #49478	; 0xc146
    a554:	253c2845 	ldrcs	r2, [ip, #-2117]!	; 0xfffff7bb
    a558:	3a293e73 	bcc	a59f2c <__bss_end__+0xa4f4c4>
    a55c:	706d6920 	rsbvc	r6, sp, r0, lsr #18
    a560:	6973736f 	ldmdbvs	r3!, {r0, r1, r2, r3, r5, r6, r8, r9, ip, sp, lr}^
    a564:	0a656c62 	beq	19656f4 <__bss_end__+0x195ac8c>
    a568:	00000000 	andeq	r0, r0, r0
    a56c:	615f7369 	cmpvs	pc, r9, ror #6
    a570:	6e67696c 	vnmulvs.f16	s13, s14, s25	; <UNPREDICTABLE>
    a574:	68286465 	stmdavs	r8!, {r0, r2, r5, r6, sl, sp, lr}
    a578:	6c61202c 	stclvs	0, cr2, [r1], #-176	; 0xffffff50
    a57c:	6d6e6769 	stclvs	7, cr6, [lr, #-420]!	; 0xfffffe5c
    a580:	29746e65 	ldmdbcs	r4!, {r0, r2, r5, r6, r9, sl, fp, sp, lr}^
    a584:	00000000 	andeq	r0, r0, r0
    a588:	494e4150 	stmdbmi	lr, {r4, r6, r8, lr}^
    a58c:	73253a43 			; <UNDEFINED> instruction: 0x73253a43
    a590:	3a73253a 	bcc	1cd3a80 <__bss_end__+0x1cc9018>
    a594:	703a6425 	eorsvc	r6, sl, r5, lsr #8
    a598:	746e696f 	strbtvc	r6, [lr], #-2415	; 0xfffff691
    a59c:	25207265 	strcs	r7, [r0, #-613]!	; 0xfffffd9b
    a5a0:	61772070 	cmnvs	r7, r0, ror r0
    a5a4:	656e2073 	strbvs	r2, [lr, #-115]!	; 0xffffff8d
    a5a8:	20726576 	rsbscs	r6, r2, r6, ror r5
    a5ac:	6f6c6c61 	svcvs	0x006c6c61
    a5b0:	65746163 	ldrbvs	r6, [r4, #-355]!	; 0xfffffe9d
    a5b4:	000a0a64 	andeq	r0, sl, r4, ror #20

0000a5b8 <__FUNCTION__.7>:
    a5b8:	6c616d6b 	stclvs	13, cr6, [r1], #-428	; 0xfffffe54
    a5bc:	5f636f6c 	svcpl	0x00636f6c
    a5c0:	74696e69 	strbtvc	r6, [r9], #-3689	; 0xfffff197
    a5c4:	7465735f 	strbtvc	r7, [r5], #-863	; 0xfffffca1
    a5c8:	6174735f 	cmnvs	r4, pc, asr r3
    a5cc:	00007472 	andeq	r7, r0, r2, ror r4

0000a5d0 <__FUNCTION__.5>:
    a5d0:	6c616d6b 	stclvs	13, cr6, [r1], #-428	; 0xfffffe54
    a5d4:	5f636f6c 	svcpl	0x00636f6c
    a5d8:	74696e69 	strbtvc	r6, [r9], #-3689	; 0xfffff197
    a5dc:	00000000 	andeq	r0, r0, r0

0000a5e0 <__FUNCTION__.4>:
    a5e0:	6c616d6b 	stclvs	13, cr6, [r1], #-428	; 0xfffffe54
    a5e4:	5f636f6c 	svcpl	0x00636f6c
    a5e8:	7a746f6e 	bvc	1d263a8 <__bss_end__+0x1d1b940>
    a5ec:	006f7265 	rsbeq	r7, pc, r5, ror #4

0000a5f0 <__FUNCTION__.2>:
    a5f0:	6c616d6b 	stclvs	13, cr6, [r1], #-428	; 0xfffffe54
    a5f4:	00636f6c 	rsbeq	r6, r3, ip, ror #30

0000a5f8 <__FUNCTION__.1>:
    a5f8:	6c616d6b 	stclvs	13, cr6, [r1], #-428	; 0xfffffe54
    a5fc:	5f636f6c 	svcpl	0x00636f6c
    a600:	67696c61 	strbvs	r6, [r9, -r1, ror #24]!
    a604:	0064656e 	rsbeq	r6, r4, lr, ror #10

0000a608 <__FUNCTION__.3>:
    a608:	6e756f72 	mrcvs	15, 3, r6, cr5, cr2, {3}
    a60c:	00707564 	rsbseq	r7, r0, r4, ror #10

0000a610 <__FUNCTION__.0>:
    a610:	6572666b 	ldrbvs	r6, [r2, #-1643]!	; 0xfffff995
    a614:	6f705f65 	svcvs	0x00705f65
    a618:	Address 0x000000000000a618 is out of bounds.


Disassembly of section .data:

0000a61c <__data_start__>:
    a61c:	00000001 	andeq	r0, r0, r1

0000a620 <putk>:
    a620:	00008d20 	andeq	r8, r0, r0, lsr #26

0000a624 <heap_end>:
    a624:	0020aa68 	eoreq	sl, r0, r8, ror #20

0000a628 <heap_start>:
    a628:	0000aa68 	andeq	sl, r0, r8, ror #20

0000a62c <heap>:
    a62c:	0000aa68 	andeq	sl, r0, r8, ror #20

0000a630 <rpi_putchar>:
    a630:	00009ba4 	andeq	r9, r0, r4, lsr #23

Disassembly of section .bss:

0000a638 <__bss_start__>:
    a638:	00000000 	andeq	r0, r0, r0

0000a63c <alloc_list>:
    a63c:	00000000 	andeq	r0, r0, r0

0000a640 <heap_start>:
    a640:	00000000 	andeq	r0, r0, r0

0000a644 <heap_end>:
    a644:	00000000 	andeq	r0, r0, r0

0000a648 <init_p>:
	...

0000a650 <freep>:
	...

0000a658 <base>:
	...

0000a660 <buf.3948>:
	...

0000aa60 <init_p.6>:
	...

Disassembly of section .ARM.attributes:

00000000 <.ARM.attributes>:
   0:	00002a41 	andeq	r2, r0, r1, asr #20
   4:	61656100 	cmnvs	r5, r0, lsl #2
   8:	01006962 	tsteq	r0, r2, ror #18
   c:	00000020 	andeq	r0, r0, r0, lsr #32
  10:	4b5a3605 	blmi	168d82c <__bss_end__+0x1682dc4>
  14:	08070600 	stmdaeq	r7, {r9, sl}
  18:	12010901 	andne	r0, r1, #16384	; 0x4000
  1c:	15011404 	strne	r1, [r1, #-1028]	; 0xfffffbfc
  20:	18031701 	stmdane	r3, {r0, r8, r9, sl, ip}
  24:	22011a01 	andcs	r1, r1, #4096	; 0x1000
  28:	Address 0x0000000000000028 is out of bounds.


Disassembly of section .comment:

00000000 <.comment>:
   0:	3a434347 	bcc	10d0d24 <__bss_end__+0x10c62bc>
   4:	4e472820 	cdpmi	8, 4, cr2, cr7, cr0, {1}
   8:	6f542055 	svcvs	0x00542055
   c:	20736c6f 	rsbscs	r6, r3, pc, ror #24
  10:	20726f66 	rsbscs	r6, r2, r6, ror #30
  14:	206d7241 	rsbcs	r7, sp, r1, asr #4
  18:	65626d45 	strbvs	r6, [r2, #-3397]!	; 0xfffff2bb
  1c:	64656464 	strbtvs	r6, [r5], #-1124	; 0xfffffb9c
  20:	6f725020 	svcvs	0x00725020
  24:	73736563 	cmnvc	r3, #415236096	; 0x18c00000
  28:	2073726f 	rsbscs	r7, r3, pc, ror #4
  2c:	30322d39 	eorscc	r2, r2, r9, lsr sp
  30:	712d3931 			; <UNDEFINED> instruction: 0x712d3931
  34:	616d2d34 	cmnvs	sp, r4, lsr sp
  38:	29726f6a 	ldmdbcs	r2!, {r1, r3, r5, r6, r8, r9, sl, fp, sp, lr}^
  3c:	322e3920 	eorcc	r3, lr, #32, 18	; 0x80000
  40:	3220312e 	eorcc	r3, r0, #-2147483637	; 0x8000000b
  44:	31393130 	teqcc	r9, r0, lsr r1
  48:	20353230 	eorscs	r3, r5, r0, lsr r2
  4c:	6c657228 	sfmvs	f7, 2, [r5], #-160	; 0xffffff60
  50:	65736165 	ldrbvs	r6, [r3, #-357]!	; 0xfffffe9b
  54:	415b2029 	cmpmi	fp, r9, lsr #32
  58:	612f4d52 			; <UNDEFINED> instruction: 0x612f4d52
  5c:	392d6d72 	pushcc	{r1, r4, r5, r6, r8, sl, fp, sp, lr}
  60:	6172622d 	cmnvs	r2, sp, lsr #4
  64:	2068636e 	rsbcs	r6, r8, lr, ror #6
  68:	69766572 	ldmdbvs	r6!, {r1, r4, r5, r6, r8, sl, sp, lr}^
  6c:	6e6f6973 			; <UNDEFINED> instruction: 0x6e6f6973
  70:	37373220 	ldrcc	r3, [r7, -r0, lsr #4]!
  74:	5d393935 			; <UNDEFINED> instruction: 0x5d393935
  78:	43434700 	movtmi	r4, #14080	; 0x3700
  7c:	4728203a 			; <UNDEFINED> instruction: 0x4728203a
  80:	4120554e 			; <UNDEFINED> instruction: 0x4120554e
  84:	45206d72 	strmi	r6, [r0, #-3442]!	; 0xfffff28e
  88:	6465626d 	strbtvs	r6, [r5], #-621	; 0xfffffd93
  8c:	20646564 	rsbcs	r6, r4, r4, ror #10
  90:	6c6f6f54 	stclvs	15, cr6, [pc], #-336	; ffffff48 <__bss_end__+0xffff54e0>
  94:	69616863 	stmdbvs	r1!, {r0, r1, r5, r6, fp, sp, lr}^
  98:	3031206e 	eorscc	r2, r1, lr, rrx
  9c:	322d332e 	eorcc	r3, sp, #-1207959552	; 0xb8000000
  a0:	2e313230 	mrccs	2, 1, r3, cr1, cr0, {1}
  a4:	20293031 	eorcs	r3, r9, r1, lsr r0
  a8:	332e3031 			; <UNDEFINED> instruction: 0x332e3031
  ac:	3220312e 	eorcc	r3, r0, #-2147483637	; 0x8000000b
  b0:	30313230 	eorscc	r3, r1, r0, lsr r2
  b4:	20343238 	eorscs	r3, r4, r8, lsr r2
  b8:	6c657228 	sfmvs	f7, 2, [r5], #-160	; 0xffffff60
  bc:	65736165 	ldrbvs	r6, [r3, #-357]!	; 0xfffffe9b
  c0:	Address 0x00000000000000c0 is out of bounds.


Disassembly of section .debug_info:

00000000 <.debug_info>:
       0:	0000044d 	andeq	r0, r0, sp, asr #8
       4:	00000004 	andeq	r0, r0, r4
       8:	01040000 	mrseq	r0, (UNDEF: 4)
       c:	000001b0 			; <UNDEFINED> instruction: 0x000001b0
      10:	0000ef0c 	andeq	lr, r0, ip, lsl #30
      14:	00010700 	andeq	r0, r1, r0, lsl #14
      18:	00803800 	addeq	r3, r0, r0, lsl #16
      1c:	0000d400 	andeq	sp, r0, r0, lsl #8
      20:	00000000 	andeq	r0, r0, r0
      24:	05040200 	streq	r0, [r4, #-512]	; 0xfffffe00
      28:	00746e69 	rsbseq	r6, r4, r9, ror #28
      2c:	c9070403 	stmdbgt	r7, {r0, r1, sl}
      30:	03000000 	movweq	r0, #0
      34:	005d0601 	subseq	r0, sp, r1, lsl #12
      38:	02030000 	andeq	r0, r3, #0, 0
      3c:	00018005 	andeq	r8, r1, r5
      40:	05040300 	streq	r0, [r4, #-768]	; 0xfffffd00
      44:	00000164 	andeq	r0, r0, r4, ror #2
      48:	5f050803 	svcpl	0x00050803
      4c:	04000001 	streq	r0, [r0], #-1
      50:	000000d6 	ldrdeq	r0, [r0], -r6
      54:	5b182e03 	blpl	60b868 <__bss_end__+0x600e00>
      58:	03000000 	movweq	r0, #0
      5c:	005b0801 	subseq	r0, fp, r1, lsl #16
      60:	94040000 	strls	r0, [r4], #-0
      64:	03000001 	movweq	r0, #1
      68:	006e1931 	rsbeq	r1, lr, r1, lsr r9
      6c:	02030000 	andeq	r0, r3, #0, 0
      70:	00007607 	andeq	r7, r0, r7, lsl #12
      74:	019d0400 	orrseq	r0, sp, r0, lsl #8
      78:	34030000 	strcc	r0, [r3], #-0
      7c:	00008119 	andeq	r8, r0, r9, lsl r1
      80:	07040300 	streq	r0, [r4, -r0, lsl #6]
      84:	000000c4 	andeq	r0, r0, r4, asr #1
      88:	bf070803 	svclt	0x00070803
      8c:	05000000 	streq	r0, [r0, #-0]
      90:	00000025 	andeq	r0, r0, r5, lsr #32
      94:	0000009e 	muleq	r0, lr, r0
      98:	00002506 	andeq	r2, r0, r6, lsl #10
      9c:	6d070000 	stcvs	0, cr0, [r7, #-0]
      a0:	04000001 	streq	r0, [r0], #-1
      a4:	00aa0e1c 	adceq	r0, sl, ip, lsl lr
      a8:	04080000 	streq	r0, [r8], #-0
      ac:	0000008f 	andeq	r0, r0, pc, lsl #1
      b0:	00002505 	andeq	r2, r0, r5, lsl #10
      b4:	0000bf00 	andeq	fp, r0, r0, lsl #30
      b8:	00bf0600 	adcseq	r0, pc, r0, lsl #12
      bc:	08000000 	stmdaeq	r0, {}	; <UNPREDICTABLE>
      c0:	0000cc04 	andeq	ip, r0, r4, lsl #24
      c4:	08010300 	stmdaeq	r1, {r8, r9}
      c8:	00000064 	andeq	r0, r0, r4, rrx
      cc:	0000c509 	andeq	ip, r0, r9, lsl #10
      d0:	06ac0700 	strteq	r0, [ip], r0, lsl #14
      d4:	21040000 	mrscs	r0, (UNDEF: 4)
      d8:	0000dd0e 	andeq	sp, r0, lr, lsl #26
      dc:	b0040800 	andlt	r0, r4, r0, lsl #16
      e0:	0a000000 	beq	e8 <__code_start__-0x7f18>
      e4:	0904020c 	stmdbeq	r4, {r2, r3, r9}
      e8:	00000114 	andeq	r0, r0, r4, lsl r1
      ec:	0000560b 	andeq	r5, r0, fp, lsl #12
      f0:	11060200 	mrsne	r0, LR_usr
      f4:	000000bf 	strheq	r0, [r0], -pc	; <UNPREDICTABLE>
      f8:	00a20b00 	adceq	r0, r2, r0, lsl #22
      fc:	07020000 	streq	r0, [r2, -r0]
     100:	0000bf11 	andeq	fp, r0, r1, lsl pc
     104:	260b0400 	strcs	r0, [fp], -r0, lsl #8
     108:	02000000 	andeq	r0, r0, #0, 0
     10c:	002c0e08 	eoreq	r0, ip, r8, lsl #28
     110:	00080000 	andeq	r0, r8, r0
     114:	00018a04 	andeq	r8, r1, r4, lsl #20
     118:	03090200 	movweq	r0, #37376	; 0x9200
     11c:	000000e3 	andeq	r0, r0, r3, ror #1
     120:	0002700c 	andeq	r7, r2, ip
     124:	110c0500 	tstne	ip, r0, lsl #10
     128:	0000002c 	andeq	r0, r0, ip, lsr #32
     12c:	00890d01 	addeq	r0, r9, r1, lsl #26
     130:	05a80000 	streq	r0, [r8, #0]!
     134:	01bd1010 			; <UNDEFINED> instruction: 0x01bd1010
     138:	130b0000 	movwne	r0, #45056	; 0xb000
     13c:	05000000 	streq	r0, [r0, #-0]
     140:	01bd1411 			; <UNDEFINED> instruction: 0x01bd1411
     144:	0b000000 	bleq	14c <__code_start__-0x7eb4>
     148:	0000003a 	andeq	r0, r0, sl, lsr r0
     14c:	750e1205 	strvc	r1, [lr, #-517]	; 0xfffffdfb
     150:	04000000 	streq	r0, [r0], #-0
     154:	0000200b 	andeq	r2, r0, fp
     158:	0e130500 	cfmul32eq	mvfx0, mvfx3, mvfx0
     15c:	00000075 	andeq	r0, r0, r5, ror r0
     160:	02750b08 	rsbseq	r0, r5, #8, 22	; 0x2000
     164:	17050000 	strne	r0, [r5, -r0]
     168:	0000750e 	andeq	r7, r0, lr, lsl #10
     16c:	de0b0c00 	cdple	12, 0, cr0, cr11, cr0, {0}
     170:	05000000 	streq	r0, [r0, #-0]
     174:	01140f19 	tsteq	r4, r9, lsl pc
     178:	0b100000 	bleq	400180 <__bss_end__+0x3f5718>
     17c:	00000265 	andeq	r0, r0, r5, ror #4
     180:	750e1c05 	strvc	r1, [lr, #-3077]	; 0xfffff3fb
     184:	1c000000 	stcne	0, cr0, [r0], {-0}
     188:	00027e0b 	andeq	r7, r2, fp, lsl #28
     18c:	0e1d0500 	cfmul32eq	mvfx0, mvfx13, mvfx0
     190:	00000075 	andeq	r0, r0, r5, ror r0
     194:	002d0b20 	eoreq	r0, sp, r0, lsr #22
     198:	1f050000 	svcne	0x00050000
     19c:	0000620e 	andeq	r6, r0, lr, lsl #4
     1a0:	e80b2400 	stmda	fp, {sl, sp}
     1a4:	05000000 	streq	r0, [r0, #-0]
     1a8:	00620b20 	rsbeq	r0, r2, r0, lsr #22
     1ac:	0e260000 	cdpeq	0, 2, cr0, cr6, cr0, {0}
     1b0:	00317a72 	eorseq	r7, r1, r2, ror sl
     1b4:	c30d2205 	movwgt	r2, #53765	; 0xd205
     1b8:	28000001 	stmdacs	r0, {r0}
     1bc:	2d040800 	stccs	8, cr0, [r4, #-0]
     1c0:	0f000001 	svceq	0x00000001
     1c4:	0000004f 	andeq	r0, r0, pc, asr #32
     1c8:	000001d3 	ldrdeq	r0, [r0], -r3
     1cc:	00002c10 	andeq	r2, r0, r0, lsl ip
     1d0:	04007f00 	streq	r7, [r0], #-3840	; 0xfffff100
     1d4:	0000000d 	andeq	r0, r0, sp
     1d8:	2d032305 	stccs	3, cr2, [r3, #-20]	; 0xffffffec
     1dc:	11000001 	tstne	r0, r1
     1e0:	000000b4 	strheq	r0, [r0], -r4
     1e4:	eb0f2505 	bl	3c9600 <__bss_end__+0x3beb98>
     1e8:	08000001 	stmdaeq	r0, {r0}
     1ec:	0001d304 	andeq	sp, r1, r4, lsl #6
     1f0:	01a60c00 			; <UNDEFINED> instruction: 0x01a60c00
     1f4:	26050000 	strcs	r0, [r5], -r0
     1f8:	0001eb0f 	andeq	lr, r1, pc, lsl #22
     1fc:	00070000 	andeq	r0, r7, r0
     200:	05000000 	streq	r0, [r0, #-0]
     204:	002c11ac 	eoreq	r1, ip, ip, lsr #3
     208:	32120000 	andscc	r0, r2, #0, 0
     20c:	01000000 	mrseq	r0, (UNDEF: 0)
     210:	8038060d 	eorshi	r0, r8, sp, lsl #12
     214:	00d40000 	sbcseq	r0, r4, r0
     218:	9c010000 	stcls	0, cr0, [r1], {-0}
     21c:	000003ab 	andeq	r0, r0, fp, lsr #7
     220:	01007013 	tsteq	r0, r3, lsl r0
     224:	03ab0b10 			; <UNDEFINED> instruction: 0x03ab0b10
     228:	00060000 	andeq	r0, r6, r0
     22c:	00000000 	andeq	r0, r0, r0
     230:	a7140000 	ldrge	r0, [r4, -r0]
     234:	c1000000 	mrsgt	r0, (UNDEF: 0)
     238:	05000003 	streq	r0, [r0, #-3]
     23c:	009e5403 	addseq	r5, lr, r3, lsl #8
     240:	03c61500 	biceq	r1, r6, #0, 10
     244:	80480000 	subhi	r0, r8, r0
     248:	48010000 	stmdami	r1, {}	; <UNPREDICTABLE>
     24c:	18000080 	stmdane	r0, {r7}
     250:	01000000 	mrseq	r0, (UNDEF: 0)
     254:	02820f10 	addeq	r0, r2, #16, 30	; 0x40
     258:	ef160000 	svc	0x00160000
     25c:	31000003 	tstcc	r0, r3
     260:	2f000000 	svccs	0x00000000
     264:	16000000 	strne	r0, [r0], -r0
     268:	000003e3 	andeq	r0, r0, r3, ror #7
     26c:	00000047 	andeq	r0, r0, r7, asr #32
     270:	00000045 	andeq	r0, r0, r5, asr #32
     274:	0003d716 	andeq	sp, r3, r6, lsl r7
     278:	00006100 	andeq	r6, r0, r0, lsl #2
     27c:	00005f00 	andeq	r5, r0, r0, lsl #30
     280:	c6150000 	ldrgt	r0, [r5], -r0
     284:	90000003 	andls	r0, r0, r3
     288:	01000080 	smlabbeq	r0, r0, r0, r0
     28c:	00008090 	muleq	r0, r0, r0
     290:	00000010 	andeq	r0, r0, r0, lsl r0
     294:	c3051301 	movwgt	r1, #21249	; 0x5301
     298:	16000002 	strne	r0, [r0], -r2
     29c:	000003ef 	andeq	r0, r0, pc, ror #7
     2a0:	0000007b 	andeq	r0, r0, fp, ror r0
     2a4:	00000079 	andeq	r0, r0, r9, ror r0
     2a8:	0003e316 	andeq	lr, r3, r6, lsl r3
     2ac:	00009100 	andeq	r9, r0, r0, lsl #2
     2b0:	00008f00 	andeq	r8, r0, r0, lsl #30
     2b4:	03d71600 	bicseq	r1, r7, #0, 12
     2b8:	00ab0000 	adceq	r0, fp, r0
     2bc:	00a90000 	adceq	r0, r9, r0
     2c0:	17000000 	strne	r0, [r0, -r0]
     2c4:	00008048 	andeq	r8, r0, r8, asr #32
     2c8:	00000408 	andeq	r0, r0, r8, lsl #8
     2cc:	000002da 	ldrdeq	r0, [r0], -sl
     2d0:	05500118 	ldrbeq	r0, [r0, #-280]	; 0xfffffee8
     2d4:	009dc803 	addseq	ip, sp, r3, lsl #16
     2d8:	70170000 	andsvc	r0, r7, r0
     2dc:	14000080 	strne	r0, [r0], #-128	; 0xffffff80
     2e0:	ed000004 	stc	0, cr0, [r0, #-16]
     2e4:	18000002 	stmdane	r0, {r1}
     2e8:	34015001 	strcc	r5, [r1], #-1
     2ec:	80801700 	addhi	r1, r0, r0, lsl #14
     2f0:	04080000 	streq	r0, [r8], #-0
     2f4:	030a0000 	movweq	r0, #40960	; 0xa000
     2f8:	01180000 	tsteq	r8, r0
     2fc:	e8030550 	stmda	r3, {r4, r6, r8, sl}
     300:	1800009d 	stmdane	r0, {r0, r2, r3, r4, r7}
     304:	74025101 	strvc	r5, [r2], #-257	; 0xfffffeff
     308:	90170000 	andsls	r0, r7, r0
     30c:	20000080 	andcs	r0, r0, r0, lsl #1
     310:	28000004 	stmdacs	r0, {r2}
     314:	18000003 	stmdane	r0, {r0, r1}
     318:	74025001 	strvc	r5, [r2], #-1
     31c:	51011800 	tstpl	r1, r0, lsl #16
     320:	01183001 	tsteq	r8, r1
     324:	00340152 	eorseq	r0, r4, r2, asr r1
     328:	0080b017 	addeq	fp, r0, r7, lsl r0
     32c:	00042c00 	andeq	r2, r4, r0, lsl #24
     330:	00033c00 	andeq	r3, r3, r0, lsl #24
     334:	50011800 	andpl	r1, r1, r0, lsl #16
     338:	00007402 	andeq	r7, r0, r2, lsl #8
     33c:	0080bc17 	addeq	fp, r0, r7, lsl ip
     340:	00040800 	andeq	r0, r4, r0, lsl #16
     344:	00035900 	andeq	r5, r3, r0, lsl #18
     348:	50011800 	andpl	r1, r1, r0, lsl #16
     34c:	9e040305 	cdpls	3, 0, cr0, cr4, cr5, {0}
     350:	01180000 	tsteq	r8, r0
     354:	ff080251 			; <UNDEFINED> instruction: 0xff080251
     358:	80c01900 	sbchi	r1, r0, r0, lsl #18
     35c:	04380000 	ldrteq	r0, [r8], #-0
     360:	d0170000 	andsle	r0, r7, r0
     364:	08000080 	stmdaeq	r0, {r7}
     368:	79000004 	stmdbvc	r0, {r2}
     36c:	18000003 	stmdane	r0, {r0, r1}
     370:	03055001 	movweq	r5, #20481	; 0x5001
     374:	00009e34 	andeq	r9, r0, r4, lsr lr
     378:	80ec1700 	rschi	r1, ip, r0, lsl #14
     37c:	04080000 	streq	r0, [r8], #-0
     380:	03a10000 			; <UNDEFINED> instruction: 0x03a10000
     384:	01180000 	tsteq	r8, r0
     388:	10030550 	andne	r0, r3, r0, asr r5
     38c:	1800009e 	stmdane	r0, {r1, r2, r3, r4, r7}
     390:	76025101 	strvc	r5, [r2], -r1, lsl #2
     394:	52011800 	andpl	r1, r1, #0, 16
     398:	18007502 	stmdane	r0, {r1, r8, sl, ip, sp, lr}
     39c:	48015301 	stmdami	r1, {r0, r8, r9, ip, lr}
     3a0:	80f01900 	rscshi	r1, r0, r0, lsl #18
     3a4:	04440000 	strbeq	r0, [r4], #-0
     3a8:	08000000 	stmdaeq	r0, {}	; <UNPREDICTABLE>
     3ac:	0000c504 	andeq	ip, r0, r4, lsl #10
     3b0:	00cc0f00 	sbceq	r0, ip, r0, lsl #30
     3b4:	03c10000 	biceq	r0, r1, #0, 0
     3b8:	2c100000 	ldccs	0, cr0, [r0], {-0}
     3bc:	07000000 	streq	r0, [r0, -r0]
     3c0:	03b10900 			; <UNDEFINED> instruction: 0x03b10900
     3c4:	901a0000 	andsls	r0, sl, r0
     3c8:	02000000 	andeq	r0, r0, #0, 0
     3cc:	01140b0c 	tsteq	r4, ip, lsl #22
     3d0:	fc030000 	stc2	0, cr0, [r3], {-0}
     3d4:	1b000003 	blne	3e8 <__code_start__-0x7c18>
     3d8:	00000056 	andeq	r0, r0, r6, asr r0
     3dc:	bf220c02 	svclt	0x00220c02
     3e0:	1b000000 	blne	3e8 <__code_start__-0x7c18>
     3e4:	000000a2 	andeq	r0, r0, r2, lsr #1
     3e8:	bf340c02 	svclt	0x00340c02
     3ec:	1b000000 	blne	3f4 <__code_start__-0x7c0c>
     3f0:	00000026 	andeq	r0, r0, r6, lsr #32
     3f4:	2c430c02 	mcrrcs	12, 0, r0, r3, cr2
     3f8:	00000000 	andeq	r0, r0, r0
     3fc:	089e0a1c 	ldmeq	lr, {r2, r3, r4, r9, fp}
     400:	6d746f6e 	ldclvs	15, cr6, [r4, #-440]!	; 0xfffffe48
     404:	006e6961 	rsbeq	r6, lr, r1, ror #18
     408:	00066e1d 	andeq	r6, r6, sp, lsl lr
     40c:	00066e00 	andeq	r6, r6, r0, lsl #28
     410:	06280400 	strteq	r0, [r8], -r0, lsl #8
     414:	0000181d 	andeq	r1, r0, sp, lsl r8
     418:	00001800 	andeq	r1, r0, r0, lsl #16
     41c:	08500500 	ldmdaeq	r0, {r8, sl}^
     420:	00009b1d 	andeq	r9, r0, sp, lsl fp
     424:	00009b00 	andeq	r9, r0, r0, lsl #22
     428:	07f70400 	ldrbeq	r0, [r7, r0, lsl #8]!
     42c:	0001791d 	andeq	r7, r1, sp, lsl r9
     430:	00017900 	andeq	r7, r1, r0, lsl #18
     434:	07510500 	ldrbeq	r0, [r1, -r0, lsl #10]
     438:	0000471d 	andeq	r4, r0, sp, lsl r7
     43c:	00004700 	andeq	r4, r0, r0, lsl #14
     440:	055c0500 	ldrbeq	r0, [ip, #-1280]	; 0xfffffb00
     444:	0000691d 	andeq	r6, r0, sp, lsl r9
     448:	00006900 	andeq	r6, r0, r0, lsl #18
     44c:	066e0400 	strbteq	r0, [lr], -r0, lsl #8
     450:	00098300 	andeq	r8, r9, r0, lsl #6
     454:	a5000400 	strge	r0, [r0, #-1024]	; 0xfffffc00
     458:	04000001 	streq	r0, [r0], #-1
     45c:	0001b001 	andeq	fp, r1, r1
     460:	03200c00 	nopeq	{0}	; <UNPREDICTABLE>
     464:	01070000 	mrseq	r0, (UNDEF: 7)
     468:	810c0000 	mrshi	r0, (UNDEF: 12)
     46c:	04180000 	ldreq	r0, [r8], #-0
     470:	01770000 	cmneq	r7, r0
     474:	04020000 	streq	r0, [r2], #-0
     478:	746e6905 	strbtvc	r6, [lr], #-2309	; 0xfffff6fb
     47c:	07040300 	streq	r0, [r4, -r0, lsl #6]
     480:	000000c9 	andeq	r0, r0, r9, asr #1
     484:	00002c04 	andeq	r2, r0, r4, lsl #24
     488:	06010300 	streq	r0, [r1], -r0, lsl #6
     48c:	0000005d 	andeq	r0, r0, sp, asr r0
     490:	80050203 	andhi	r0, r5, r3, lsl #4
     494:	03000001 	movweq	r0, #1
     498:	01640504 	cmneq	r4, r4, lsl #10
     49c:	08030000 	stmdaeq	r3, {}	; <UNPREDICTABLE>
     4a0:	00015f05 	andeq	r5, r1, r5, lsl #30
     4a4:	00d60500 	sbcseq	r0, r6, r0, lsl #10
     4a8:	2e030000 	cdpcs	0, 0, cr0, cr3, cr0, {0}
     4ac:	00006018 	andeq	r6, r0, r8, lsl r0
     4b0:	08010300 	stmdaeq	r1, {r8, r9}
     4b4:	0000005b 	andeq	r0, r0, fp, asr r0
     4b8:	00019405 	andeq	r9, r1, r5, lsl #8
     4bc:	19310300 	ldmdbne	r1!, {r8, r9}
     4c0:	00000073 	andeq	r0, r0, r3, ror r0
     4c4:	76070203 	strvc	r0, [r7], -r3, lsl #4
     4c8:	05000000 	streq	r0, [r0, #-0]
     4cc:	0000019d 	muleq	r0, sp, r1
     4d0:	86193403 	ldrhi	r3, [r9], -r3, lsl #8
     4d4:	03000000 	movweq	r0, #0
     4d8:	00c40704 	sbceq	r0, r4, r4, lsl #14
     4dc:	08030000 	stmdaeq	r3, {}	; <UNPREDICTABLE>
     4e0:	0000bf07 	andeq	fp, r0, r7, lsl #30
     4e4:	00250600 	eoreq	r0, r5, r0, lsl #12
     4e8:	00a30000 	adceq	r0, r3, r0
     4ec:	25070000 	strcs	r0, [r7, #-0]
     4f0:	00000000 	andeq	r0, r0, r0
     4f4:	00016d08 	andeq	r6, r1, r8, lsl #26
     4f8:	0e1c0400 	cfmulseq	mvf0, mvf12, mvf0
     4fc:	000000af 	andeq	r0, r0, pc, lsr #1
     500:	00940409 	addseq	r0, r4, r9, lsl #8
     504:	25060000 	strcs	r0, [r6, #-0]
     508:	c4000000 	strgt	r0, [r0], #-0
     50c:	07000000 	streq	r0, [r0, -r0]
     510:	000000c4 	andeq	r0, r0, r4, asr #1
     514:	d1040900 	tstle	r4, r0, lsl #18
     518:	03000000 	movweq	r0, #0
     51c:	00640801 	rsbeq	r0, r4, r1, lsl #16
     520:	ca040000 	bgt	100528 <__bss_end__+0xf5ac0>
     524:	08000000 	stmdaeq	r0, {}	; <UNPREDICTABLE>
     528:	000006ac 	andeq	r0, r0, ip, lsr #13
     52c:	e20e2104 	and	r2, lr, #1
     530:	09000000 	stmdbeq	r0, {}	; <UNPREDICTABLE>
     534:	0000b504 	andeq	fp, r0, r4, lsl #10
     538:	050c0a00 	streq	r0, [ip, #-2560]	; 0xfffff600
     53c:	01190904 	tsteq	r9, r4, lsl #18
     540:	560b0000 	strpl	r0, [fp], -r0
     544:	05000000 	streq	r0, [r0, #-0]
     548:	00c41106 	sbceq	r1, r4, r6, lsl #2
     54c:	0b000000 	bleq	554 <__code_start__-0x7aac>
     550:	000000a2 	andeq	r0, r0, r2, lsr #1
     554:	c4110705 	ldrgt	r0, [r1], #-1797	; 0xfffff8fb
     558:	04000000 	streq	r0, [r0], #-0
     55c:	0000260b 	andeq	r2, r0, fp, lsl #12
     560:	0e080500 	cfsh32eq	mvfx0, mvfx8, #0
     564:	0000002c 	andeq	r0, r0, ip, lsr #32
     568:	8a050008 	bhi	140590 <__bss_end__+0x135b28>
     56c:	05000001 	streq	r0, [r0, #-1]
     570:	00e80309 	rsceq	r0, r8, r9, lsl #6
     574:	070c0000 	streq	r0, [ip, -r0]
     578:	00006001 	andeq	r6, r0, r1
     57c:	0e090200 	cdpeq	2, 0, cr0, cr9, cr0, {0}
     580:	00000140 	andeq	r0, r0, r0, asr #2
     584:	0003330d 	andeq	r3, r3, sp, lsl #6
     588:	af0d0b00 	svcge	0x000d0b00
     58c:	0c000002 	stceq	0, cr0, [r0], {2}
     590:	01070c00 	tsteq	r7, r0, lsl #24
     594:	00000060 	andeq	r0, r0, r0, rrx
     598:	5b060a02 	blpl	182da8 <__bss_end__+0x178340>
     59c:	0d000001 	stceq	0, cr0, [r0, #-4]
     5a0:	000002cd 	andeq	r0, r0, sp, asr #5
     5a4:	02c10d80 	sbceq	r0, r1, #128, 26	; 0x2000
     5a8:	00fe0000 	rscseq	r0, lr, r0
     5ac:	0002700e 	andeq	r7, r2, lr
     5b0:	110c0200 	mrsne	r0, R12_fiq
     5b4:	0000002c 	andeq	r0, r0, ip, lsr #32
     5b8:	a61c0305 	ldrge	r0, [ip], -r5, lsl #6
     5bc:	890f0000 	stmdbhi	pc, {}	; <UNPREDICTABLE>
     5c0:	a8000000 	stmdage	r0, {}	; <UNPREDICTABLE>
     5c4:	fd101002 	ldc2	0, cr1, [r0, #-8]
     5c8:	0b000001 	bleq	5d4 <__code_start__-0x7a2c>
     5cc:	00000013 	andeq	r0, r0, r3, lsl r0
     5d0:	fd141102 	ldc2	1, cr1, [r4, #-8]
     5d4:	00000001 	andeq	r0, r0, r1
     5d8:	00003a0b 	andeq	r3, r0, fp, lsl #20
     5dc:	0e120200 	cdpeq	2, 1, cr0, cr2, cr0, {0}
     5e0:	0000007a 	andeq	r0, r0, sl, ror r0
     5e4:	00200b04 	eoreq	r0, r0, r4, lsl #22
     5e8:	13020000 	movwne	r0, #8192	; 0x2000
     5ec:	00007a0e 	andeq	r7, r0, lr, lsl #20
     5f0:	750b0800 	strvc	r0, [fp, #-2048]	; 0xfffff800
     5f4:	02000002 	andeq	r0, r0, #2, 0
     5f8:	007a0e17 	rsbseq	r0, sl, r7, lsl lr
     5fc:	0b0c0000 	bleq	300604 <__bss_end__+0x2f5b9c>
     600:	000000de 	ldrdeq	r0, [r0], -lr
     604:	190f1902 	stmdbne	pc, {r1, r8, fp, ip}	; <UNPREDICTABLE>
     608:	10000001 	andne	r0, r0, r1
     60c:	0002650b 	andeq	r6, r2, fp, lsl #10
     610:	0e1c0200 	cdpeq	2, 1, cr0, cr12, cr0, {0}
     614:	0000007a 	andeq	r0, r0, sl, ror r0
     618:	027e0b1c 	rsbseq	r0, lr, #28, 22	; 0x7000
     61c:	1d020000 	stcne	0, cr0, [r2, #-0]
     620:	00007a0e 	andeq	r7, r0, lr, lsl #20
     624:	2d0b2000 	stccs	0, cr2, [fp, #-0]
     628:	02000000 	andeq	r0, r0, #0, 0
     62c:	00670e1f 	rsbeq	r0, r7, pc, lsl lr
     630:	0b240000 	bleq	900638 <__bss_end__+0x8f5bd0>
     634:	000000e8 	andeq	r0, r0, r8, ror #1
     638:	670b2002 	strvs	r2, [fp, -r2]
     63c:	26000000 	strcs	r0, [r0], -r0
     640:	317a7210 	cmncc	sl, r0, lsl r2
     644:	0d220200 	sfmeq	f0, 4, [r2, #-0]
     648:	00000203 	andeq	r0, r0, r3, lsl #4
     64c:	04090028 	streq	r0, [r9], #-40	; 0xffffffd8
     650:	0000016d 	andeq	r0, r0, sp, ror #2
     654:	00005411 	andeq	r5, r0, r1, lsl r4
     658:	00021300 	andeq	r1, r2, r0, lsl #6
     65c:	002c1200 	eoreq	r1, ip, r0, lsl #4
     660:	007f0000 	rsbseq	r0, pc, r0
     664:	00000d05 	andeq	r0, r0, r5, lsl #26
     668:	03230200 			; <UNDEFINED> instruction: 0x03230200
     66c:	0000016d 	andeq	r0, r0, sp, ror #2
     670:	0000b40e 	andeq	fp, r0, lr, lsl #8
     674:	0f250200 	svceq	0x00250200
     678:	00000231 	andeq	r0, r0, r1, lsr r2
     67c:	a63c0305 	ldrtge	r0, [ip], -r5, lsl #6
     680:	04090000 	streq	r0, [r9], #-0
     684:	00000213 	andeq	r0, r0, r3, lsl r2
     688:	0001a60e 	andeq	sl, r1, lr, lsl #12
     68c:	0f260200 	svceq	0x00260200
     690:	00000231 	andeq	r0, r0, r1, lsr r2
     694:	a6380305 	ldrtge	r0, [r8], -r5, lsl #6
     698:	04130000 	ldreq	r0, [r3], #-0
     69c:	00000008 	andeq	r0, r0, r8
     6a0:	11ac0200 			; <UNDEFINED> instruction: 0x11ac0200
     6a4:	0000002c 	andeq	r0, r0, ip, lsr #32
     6a8:	00032a14 	andeq	r2, r3, r4, lsl sl
     6ac:	17080100 	strne	r0, [r8, -r0, lsl #2]
     6b0:	00000033 	andeq	r0, r0, r3, lsr r0
     6b4:	001815fe 			; <UNDEFINED> instruction: 0x001815fe
     6b8:	97010000 	strls	r0, [r1, -r0]
     6bc:	00024908 	andeq	r4, r2, r8, lsl #18
     6c0:	00844800 	addeq	r4, r4, r0, lsl #16
     6c4:	0000dc00 	andeq	sp, r0, r0, lsl #24
     6c8:	b09c0100 	addslt	r0, ip, r0, lsl #2
     6cc:	16000003 	strne	r0, [r0], -r3
     6d0:	00000356 	andeq	r0, r0, r6, asr r3
     6d4:	7a1a9701 	bvc	6a62e0 <__bss_end__+0x69b878>
     6d8:	c9000000 	stmdbgt	r0, {}	; <UNPREDICTABLE>
     6dc:	c3000000 	movwgt	r0, #0
     6e0:	17000000 	strne	r0, [r0, -r0]
     6e4:	9701006c 	strls	r0, [r1, -ip, rrx]
     6e8:	0001192c 	andeq	r1, r1, ip, lsr #18
     6ec:	64910200 	ldrvs	r0, [r1], #512	; 0x200
     6f0:	01006818 	tsteq	r0, r8, lsl r8
     6f4:	02310c99 	eorseq	r0, r1, #39168	; 0x9900
     6f8:	00fb0000 	rscseq	r0, fp, r0
     6fc:	00f50000 	rscseq	r0, r5, r0
     700:	1e190000 	cdpne	0, 1, cr0, cr9, cr0, {0}
     704:	84000009 	strhi	r0, [r0], #-9
     708:	01000084 	smlabbeq	r0, r4, r0, r0
     70c:	00008484 	andeq	r8, r0, r4, lsl #9
     710:	00000008 	andeq	r0, r0, r8
     714:	e8119c01 	ldmda	r1, {r0, sl, fp, ip, pc}
     718:	1a000002 	bne	728 <__code_start__-0x78d8>
     71c:	0000092f 	andeq	r0, r0, pc, lsr #18
     720:	00000129 	andeq	r0, r0, r9, lsr #2
     724:	00000127 	andeq	r0, r0, r7, lsr #2
     728:	00848c1b 	addeq	r8, r4, fp, lsl ip
     72c:	00078f00 	andeq	r8, r7, r0, lsl #30
     730:	50011c00 	andpl	r1, r1, r0, lsl #24
     734:	00007402 	andeq	r7, r0, r2, lsl #8
     738:	84641d00 	strbthi	r1, [r4], #-3328	; 0xfffff300
     73c:	09560000 	ldmdbeq	r6, {}^	; <UNPREDICTABLE>
     740:	02fd0000 	rscseq	r0, sp, #0, 0
     744:	011c0000 	tsteq	ip, r0
     748:	a8760350 	ldmdage	r6!, {r4, r6, r8, r9}^
     74c:	741d0002 	ldrvc	r0, [sp], #-2
     750:	62000084 	andvs	r0, r0, #132, 0	; 0x84
     754:	1c000009 	stcne	0, cr0, [r0], {9}
     758:	1c000003 	stcne	0, cr0, [r0], {3}
     75c:	74025001 	strvc	r5, [r2], #-1
     760:	51011c00 	tstpl	r1, r0, lsl #24
     764:	011c3001 	tsteq	ip, r1
     768:	a8080252 	stmdage	r8, {r1, r4, r6, r9}
     76c:	84841d00 	strhi	r1, [r4], #3328	; 0xd00
     770:	09620000 	stmdbeq	r2!, {}^	; <UNPREDICTABLE>
     774:	033c0000 	teqeq	ip, #0, 0
     778:	011c0000 	tsteq	ip, r0
     77c:	28740250 	ldmdacs	r4!, {r4, r6, r9}^
     780:	0251011c 	subseq	r0, r1, #7
     784:	011cfe08 	tsteq	ip, r8, lsl #28	; <UNPREDICTABLE>
     788:	80080252 	andhi	r0, r8, r2, asr r2
     78c:	84981d00 	ldrhi	r1, [r8], #3328	; 0xd00
     790:	09620000 	stmdbeq	r2!, {}^	; <UNPREDICTABLE>
     794:	03560000 	cmpeq	r6, #0, 0
     798:	011c0000 	tsteq	ip, r0
     79c:	fe080251 	mcr2	2, 0, r0, cr8, cr1, {2}
     7a0:	0252011c 	subseq	r0, r2, #7
     7a4:	1d008008 	stcne	0, cr8, [r0, #-32]	; 0xffffffe0
     7a8:	000084e4 	andeq	r8, r0, r4, ror #9
     7ac:	0000096e 	andeq	r0, r0, lr, ror #18
     7b0:	00000382 	andeq	r0, r0, r2, lsl #7
     7b4:	0550011c 	ldrbeq	r0, [r0, #-284]	; 0xfffffee4
     7b8:	009ecc03 	addseq	ip, lr, r3, lsl #24
     7bc:	51011c00 	tstpl	r1, r0, lsl #24
     7c0:	06007503 	streq	r7, [r0], -r3, lsl #10
     7c4:	0352011c 	cmpeq	r2, #7
     7c8:	1c066091 	stcne	0, cr6, [r6], {145}	; 0x91
     7cc:	91035301 	tstls	r3, r1, lsl #6
     7d0:	1d000664 	stcne	6, cr0, [r0, #-400]	; 0xfffffe70
     7d4:	000084f8 	strdeq	r8, [r0], -r8	; <UNPREDICTABLE>
     7d8:	0000096e 	andeq	r0, r0, lr, ror #18
     7dc:	0000039f 	muleq	r0, pc, r3	; <UNPREDICTABLE>
     7e0:	0550011c 	ldrbeq	r0, [r0, #-284]	; 0xfffffee4
     7e4:	009f3403 	addseq	r3, pc, r3, lsl #8
     7e8:	52011c00 	andpl	r1, r1, #0, 24
     7ec:	00007502 	andeq	r7, r0, r2, lsl #10
     7f0:	0085081b 	addeq	r0, r5, fp, lsl r8
     7f4:	00086300 	andeq	r6, r8, r0, lsl #6
     7f8:	51011c00 	tstpl	r1, r0, lsl #24
     7fc:	00007402 	andeq	r7, r0, r2, lsl #8
     800:	01791e00 	cmneq	r9, r0, lsl #28
     804:	87010000 	strhi	r0, [r1, -r0]
     808:	00833807 	addeq	r3, r3, r7, lsl #16
     80c:	00011000 	andeq	r1, r1, r0
     810:	6a9c0100 	bvs	fe700c18 <__bss_end__+0xfe6f61b0>
     814:	16000005 	strne	r0, [r0], -r5
     818:	00000b2b 	andeq	r0, r0, fp, lsr #22
     81c:	49158701 	ldmdbmi	r5, {r0, r8, r9, sl, pc}
     820:	40000002 	andmi	r0, r0, r2
     824:	3c000001 	stccc	0, cr0, [r0], {1}
     828:	17000001 	strne	r0, [r0, -r1]
     82c:	8701006c 	strhi	r0, [r1, -ip, rrx]
     830:	00011925 	andeq	r1, r1, r5, lsr #18
     834:	6c910200 	lfmvs	f0, 4, [r1], {0}
     838:	01006818 	tsteq	r0, r8, lsl r8
     83c:	02310c88 	eorseq	r0, r1, #136, 24	; 0x8800
     840:	01600000 	cmneq	r0, r0
     844:	015e0000 	cmpeq	lr, r0
     848:	a71f0000 	ldrge	r0, [pc, -r0]
     84c:	7a000000 	bvc	854 <__code_start__-0x77ac>
     850:	05000005 	streq	r0, [r0, #-5]
     854:	009f6403 	addseq	r6, pc, r3, lsl #8
     858:	836c1d00 	cmnhi	ip, #0, 26
     85c:	096e0000 	stmdbeq	lr!, {}^	; <UNPREDICTABLE>
     860:	04340000 	ldrteq	r0, [r4], #-0
     864:	011c0000 	tsteq	ip, r0
     868:	cc030550 	cfstr32gt	mvfx0, [r3], {80}	; 0x50
     86c:	1c00009e 	stcne	0, cr0, [r0], {158}	; 0x9e
     870:	91035101 	tstls	r3, r1, lsl #2
     874:	011c0664 	tsteq	ip, r4, ror #12
     878:	68910352 	ldmvs	r1, {r1, r4, r6, r8, r9}
     87c:	53011c06 	movwpl	r1, #7174	; 0x1c06
     880:	066c9103 	strbteq	r9, [ip], -r3, lsl #2
     884:	837c1d00 	cmnhi	ip, #0, 26
     888:	096e0000 	stmdbeq	lr!, {}^	; <UNPREDICTABLE>
     88c:	04510000 	ldrbeq	r0, [r1], #-0
     890:	011c0000 	tsteq	ip, r0
     894:	d8030550 	stmdale	r3, {r4, r6, r8, sl}
     898:	1c00009e 	stcne	0, cr0, [r0], {158}	; 0x9e
     89c:	74025201 	strvc	r5, [r2], #-513	; 0xfffffdff
     8a0:	841d0000 	ldrhi	r0, [sp], #-0
     8a4:	d6000083 	strle	r0, [r0], -r3, lsl #1
     8a8:	65000006 	strvs	r0, [r0, #-6]
     8ac:	1c000004 	stcne	0, cr0, [r0], {4}
     8b0:	74025001 	strvc	r5, [r2], #-1
     8b4:	a41d0000 	ldrge	r0, [sp], #-0
     8b8:	62000083 	andvs	r0, r0, #131, 0	; 0x83
     8bc:	7f000009 	svcvc	0x00000009
     8c0:	1c000004 	stcne	0, cr0, [r0], {4}
     8c4:	74025001 	strvc	r5, [r2], #-1
     8c8:	51011c00 	tstpl	r1, r0, lsl #24
     8cc:	00fe0802 	rscseq	r0, lr, r2, lsl #16
     8d0:	0083ac1d 	addeq	sl, r3, sp, lsl ip
     8d4:	0006d600 	andeq	sp, r6, r0, lsl #12
     8d8:	00049300 	andeq	r9, r4, r0, lsl #6
     8dc:	50011c00 	andpl	r1, r1, r0, lsl #24
     8e0:	00007402 	andeq	r7, r0, r2, lsl #8
     8e4:	0083d01d 	addeq	sp, r3, sp, lsl r0
     8e8:	00096e00 	andeq	r6, r9, r0, lsl #28
     8ec:	0004bf00 	andeq	fp, r4, r0, lsl #30
     8f0:	50011c00 	andpl	r1, r1, r0, lsl #24
     8f4:	9e800305 	cdpls	3, 8, cr0, cr0, cr5, {0}
     8f8:	011c0000 	tsteq	ip, r0
     8fc:	64910351 	ldrvs	r0, [r1], #849	; 0x351
     900:	52011c06 	andpl	r1, r1, #1536	; 0x600
     904:	06689103 	strbteq	r9, [r8], -r3, lsl #2
     908:	0353011c 	cmpeq	r3, #7
     90c:	00066c91 	muleq	r6, r1, ip
     910:	0083e01d 	addeq	lr, r3, sp, lsl r0
     914:	00096e00 	andeq	r6, r9, r0, lsl #28
     918:	0004dc00 	andeq	sp, r4, r0, lsl #24
     91c:	50011c00 	andpl	r1, r1, r0, lsl #24
     920:	9e980305 	cdpls	3, 9, cr0, cr8, cr5, {0}
     924:	011c0000 	tsteq	ip, r0
     928:	00740251 	rsbseq	r0, r4, r1, asr r2
     92c:	83e42000 	mvnhi	r2, #0, 0
     930:	097a0000 	ldmdbeq	sl!, {}^	; <UNPREDICTABLE>
     934:	001d0000 	andseq	r0, sp, r0
     938:	6e000084 	cdpvs	0, 0, cr0, cr0, cr4, {4}
     93c:	1e000009 	cdpne	0, 0, cr0, cr0, cr9, {0}
     940:	1c000005 	stcne	0, cr0, [r0], {5}
     944:	03055001 	movweq	r5, #20481	; 0x5001
     948:	00009e68 	andeq	r9, r0, r8, ror #28
     94c:	0551011c 	ldrbeq	r0, [r1, #-284]	; 0xfffffee4
     950:	009e5c03 	addseq	r5, lr, r3, lsl #24
     954:	52011c00 	andpl	r1, r1, #0, 24
     958:	9f640305 	svcls	0x00640305
     95c:	011c0000 	tsteq	ip, r0
     960:	8d080253 	sfmhi	f0, 4, [r8, #-332]	; 0xfffffeb4
     964:	007d021c 	rsbseq	r0, sp, ip, lsl r2
     968:	9ef80305 	cdpls	3, 15, cr0, cr8, cr5, {0}
     96c:	20000000 	andcs	r0, r0, r0
     970:	00008404 	andeq	r8, r0, r4, lsl #8
     974:	0000097a 	andeq	r0, r0, sl, ror r9
     978:	0084201d 	addeq	r2, r4, sp, lsl r0
     97c:	00096e00 	andeq	r6, r9, r0, lsl #28
     980:	00056000 	andeq	r6, r5, r0
     984:	50011c00 	andpl	r1, r1, r0, lsl #24
     988:	9e680305 	cdpls	3, 6, cr0, cr8, cr5, {0}
     98c:	011c0000 	tsteq	ip, r0
     990:	5c030551 	cfstr32pl	mvfx0, [r3], {81}	; 0x51
     994:	1c00009e 	stcne	0, cr0, [r0], {158}	; 0x9e
     998:	03055201 	movweq	r5, #20993	; 0x5201
     99c:	00009f64 	andeq	r9, r0, r4, ror #30
     9a0:	0253011c 	subseq	r0, r3, #7
     9a4:	021c9008 	andseq	r9, ip, #8, 0
     9a8:	0305007d 	movweq	r0, #20605	; 0x507d
     9ac:	00009f18 	andeq	r9, r0, r8, lsl pc
     9b0:	84242000 	strthi	r2, [r4], #-0
     9b4:	097a0000 	ldmdbeq	sl!, {}^	; <UNPREDICTABLE>
     9b8:	11000000 	mrsne	r0, (UNDEF: 0)
     9bc:	000000d1 	ldrdeq	r0, [r0], -r1
     9c0:	0000057a 	andeq	r0, r0, sl, ror r5
     9c4:	00002c12 	andeq	r2, r0, r2, lsl ip
     9c8:	04000600 	streq	r0, [r0], #-1536	; 0xfffffa00
     9cc:	0000056a 	andeq	r0, r0, sl, ror #10
     9d0:	00004715 	andeq	r4, r0, r5, lsl r7
     9d4:	05740100 	ldrbeq	r0, [r4, #-256]!	; 0xffffff00
     9d8:	00000025 	andeq	r0, r0, r5, lsr #32
     9dc:	000082e8 	andeq	r8, r0, r8, ror #5
     9e0:	00000050 	andeq	r0, r0, r0, asr r0
     9e4:	05ef9c01 	strbeq	r9, [pc, #3073]!	; 15ed <__code_start__-0x6a13>
     9e8:	1b210000 	blne	8409f0 <__bss_end__+0x835f88>
     9ec:	01000003 	tsteq	r0, r3
     9f0:	02310975 	eorseq	r0, r1, #1916928	; 0x1d4000
     9f4:	017a0000 	cmneq	sl, r0
     9f8:	01760000 	cmneq	r6, r0
     9fc:	f8210000 			; <UNDEFINED> instruction: 0xf8210000
     a00:	01000002 	tsteq	r0, r2
     a04:	002c0b76 	eoreq	r0, ip, r6, ror fp
     a08:	019c0000 	orrseq	r0, ip, r0
     a0c:	01980000 	orrseq	r0, r8, r0
     a10:	f0200000 			; <UNDEFINED> instruction: 0xf0200000
     a14:	4d000082 	stcmi	0, cr0, [r0, #-520]	; 0xfffffdf8
     a18:	1d000008 	stcne	0, cr0, [r0, #-32]	; 0xffffffe0
     a1c:	00008304 	andeq	r8, r0, r4, lsl #6
     a20:	000005ef 	andeq	r0, r0, pc, ror #11
     a24:	000005de 	ldrdeq	r0, [r0], -lr
     a28:	0250011c 	subseq	r0, r0, #7
     a2c:	1b000074 	blne	c04 <__code_start__-0x73fc>
     a30:	0000831c 	andeq	r8, r0, ip, lsl r3
     a34:	00000646 	andeq	r0, r0, r6, asr #12
     a38:	0250011c 	subseq	r0, r0, #7
     a3c:	00000074 	andeq	r0, r0, r4, ror r0
     a40:	0002e915 	andeq	lr, r2, r5, lsl r9
     a44:	05660100 	strbeq	r0, [r6, #-256]!	; 0xffffff00
     a48:	00000025 	andeq	r0, r0, r5, lsr #32
     a4c:	0000829c 	muleq	r0, ip, r2
     a50:	0000004c 	andeq	r0, r0, ip, asr #32
     a54:	06409c01 	strbeq	r9, [r0], -r1, lsl #24
     a58:	68220000 	stmdavs	r2!, {}	; <UNPREDICTABLE>
     a5c:	1b660100 	blne	1980e64 <__bss_end__+0x19763fc>
     a60:	00000231 	andeq	r0, r0, r1, lsr r2
     a64:	000001c7 	andeq	r0, r0, r7, asr #3
     a68:	000001bb 			; <UNDEFINED> instruction: 0x000001bb
     a6c:	000aa823 	andeq	sl, sl, r3, lsr #16
     a70:	0b6b0100 	bleq	1ac0e78 <__bss_end__+0x1ab6410>
     a74:	00000640 	andeq	r0, r0, r0, asr #12
     a78:	00003024 	andeq	r3, r0, r4, lsr #32
     a7c:	00691800 	rsbeq	r1, r9, r0, lsl #16
     a80:	2c106c01 	ldccs	12, cr6, [r0], {1}
     a84:	1e000000 	cdpne	0, 0, cr0, cr0, cr0, {0}
     a88:	1a000002 	bne	a98 <__code_start__-0x7568>
     a8c:	00000002 	andeq	r0, r0, r2
     a90:	54040900 	strpl	r0, [r4], #-2304	; 0xfffff700
     a94:	15000000 	strne	r0, [r0, #-0]
     a98:	00000367 	andeq	r0, r0, r7, ror #6
     a9c:	25055801 	strcs	r5, [r5, #-2049]	; 0xfffff7ff
     aa0:	48000000 	stmdami	r0, {}	; <UNPREDICTABLE>
     aa4:	54000082 	strpl	r0, [r0], #-130	; 0xffffff7e
     aa8:	01000000 	mrseq	r0, (UNDEF: 0)
     aac:	0006d69c 	muleq	r6, ip, r6
     ab0:	00682200 	rsbeq	r2, r8, r0, lsl #4
     ab4:	311e5801 	tstcc	lr, r1, lsl #16
     ab8:	40000002 	andmi	r0, r0, r2
     abc:	3c000002 	stccc	0, cr0, [r0], {2}
     ac0:	18000002 	stmdane	r0, {r1}
     ac4:	00327a72 	eorseq	r7, r2, r2, ror sl
     ac8:	400b5901 	andmi	r5, fp, r1, lsl #18
     acc:	64000006 	strvs	r0, [r0], #-6
     ad0:	5e000002 	cdppl	0, 0, cr0, cr0, cr2, {0}
     ad4:	25000002 	strcs	r0, [r0, #-2]
     ad8:	00000018 	andeq	r0, r0, r8, lsl r0
     adc:	000006a2 	andeq	r0, r0, r2, lsr #13
     ae0:	01006918 	tsteq	r0, r8, lsl r9
     ae4:	002c105c 	eoreq	r1, ip, ip, asr r0
     ae8:	02910000 	addseq	r0, r1, #0, 0
     aec:	028d0000 	addeq	r0, sp, #0, 0
     af0:	26000000 	strcs	r0, [r0], -r0
     af4:	0000091e 	andeq	r0, r0, lr, lsl r9
     af8:	00008250 	andeq	r8, r0, r0, asr r2
     afc:	00825001 	addeq	r5, r2, r1
     b00:	00000400 	andeq	r0, r0, r0, lsl #8
     b04:	11590100 	cmpne	r9, r0, lsl #2
     b08:	00092f1a 	andeq	r2, r9, sl, lsl pc
     b0c:	0002b400 	andeq	fp, r2, r0, lsl #8
     b10:	0002b000 	andeq	fp, r2, r0
     b14:	82541b00 	subshi	r1, r4, #0, 22
     b18:	078f0000 	streq	r0, [pc, r0]
     b1c:	011c0000 	tsteq	ip, r0
     b20:	00740250 	rsbseq	r0, r4, r0, asr r2
     b24:	15000000 	strne	r0, [r0, #-0]
     b28:	000002fd 	strdeq	r0, [r0], -sp
     b2c:	31084d01 	tstcc	r8, r1, lsl #26
     b30:	f8000002 			; <UNDEFINED> instruction: 0xf8000002
     b34:	50000081 	andpl	r0, r0, r1, lsl #1
     b38:	01000000 	mrseq	r0, (UNDEF: 0)
     b3c:	0007549c 	muleq	r7, ip, r4
     b40:	74702200 	ldrbtvc	r2, [r0], #-512	; 0xfffffe00
     b44:	4d010072 	stcmi	0, cr0, [r1, #-456]	; 0xfffffe38
     b48:	00024920 	andeq	r4, r2, r0, lsr #18
     b4c:	0002d600 	andeq	sp, r2, r0, lsl #12
     b50:	0002d200 	andeq	sp, r2, r0, lsl #4
     b54:	82002700 	andhi	r2, r0, #0, 14
     b58:	00400000 	subeq	r0, r0, r0
     b5c:	68180000 	ldmdavs	r8, {}	; <UNPREDICTABLE>
     b60:	104e0100 	subne	r0, lr, r0, lsl #2
     b64:	00000231 	andeq	r0, r0, r1, lsr r2
     b68:	000002fc 	strdeq	r0, [r0], -ip
     b6c:	000002f4 	strdeq	r0, [r0], -r4
     b70:	00820420 	addeq	r0, r2, r0, lsr #8
     b74:	00084d00 	andeq	r4, r8, r0, lsl #26
     b78:	82141d00 	andshi	r1, r4, #0, 26
     b7c:	08200000 	stmdaeq	r0!, {}	; <UNPREDICTABLE>
     b80:	073c0000 	ldreq	r0, [ip, -r0]!
     b84:	011c0000 	tsteq	ip, r0
     b88:	00740250 	rsbseq	r0, r4, r0, asr r2
     b8c:	822c1b00 	eorhi	r1, ip, #0, 22
     b90:	07540000 	ldrbeq	r0, [r4, -r0]
     b94:	011c0000 	tsteq	ip, r0
     b98:	00740250 	rsbseq	r0, r4, r0, asr r2
     b9c:	0251011c 	subseq	r0, r1, #7
     ba0:	00000075 	andeq	r0, r0, r5, ror r0
     ba4:	028a1500 	addeq	r1, sl, #0, 10
     ba8:	45010000 	strmi	r0, [r1, #-0]
     bac:	00002c0a 	andeq	r2, r0, sl, lsl #24
     bb0:	0081c000 	addeq	ip, r1, r0
     bb4:	00003800 	andeq	r3, r0, r0, lsl #16
     bb8:	8f9c0100 	svchi	0x009c0100
     bbc:	22000007 	andcs	r0, r0, #7, 0
     bc0:	45010068 	strmi	r0, [r1, #-104]	; 0xffffff98
     bc4:	00023121 	andeq	r3, r2, r1, lsr #2
     bc8:	00033a00 	andeq	r3, r3, r0, lsl #20
     bcc:	00033000 	andeq	r3, r3, r0
     bd0:	74701700 	ldrbtvc	r1, [r0], #-1792	; 0xfffff900
     bd4:	45010072 	strmi	r0, [r1, #-114]	; 0xffffff8e
     bd8:	0002492a 	andeq	r4, r2, sl, lsr #18
     bdc:	00510100 	subseq	r0, r1, r0, lsl #2
     be0:	00034815 	andeq	r4, r3, r5, lsl r8
     be4:	07400100 	strbeq	r0, [r0, -r0, lsl #2]
     be8:	00000249 	andeq	r0, r0, r9, asr #4
     bec:	000081a8 	andeq	r8, r0, r8, lsr #3
     bf0:	00000018 	andeq	r0, r0, r8, lsl r0
     bf4:	07f39c01 	ldrbeq	r9, [r3, r1, lsl #24]!
     bf8:	68220000 	stmdavs	r2!, {}	; <UNPREDICTABLE>
     bfc:	19400100 	stmdbne	r0, {r8}^
     c00:	00000231 	andeq	r0, r0, r1, lsr r2
     c04:	00000386 	andeq	r0, r0, r6, lsl #7
     c08:	00000382 	andeq	r0, r0, r2, lsl #7
     c0c:	00093a19 	andeq	r3, r9, r9, lsl sl
     c10:	0081b400 	addeq	fp, r1, r0, lsl #8
     c14:	81b40000 			; <UNDEFINED> instruction: 0x81b40000
     c18:	00040000 	andeq	r0, r4, r0
     c1c:	41010000 	mrsmi	r0, (UNDEF: 1)
     c20:	0007e226 	andeq	lr, r7, r6, lsr #4
     c24:	094b1a00 	stmdbeq	fp, {r9, fp, ip}^
     c28:	03a60000 			; <UNDEFINED> instruction: 0x03a60000
     c2c:	03a40000 			; <UNDEFINED> instruction: 0x03a40000
     c30:	1b000000 	blne	c38 <__code_start__-0x73c8>
     c34:	000081b4 			; <UNDEFINED> instruction: 0x000081b4
     c38:	000007f3 	strdeq	r0, [r0], -r3
     c3c:	0250011c 	subseq	r0, r0, #7
     c40:	00000074 	andeq	r0, r0, r4, ror r0
     c44:	00033b15 	andeq	r3, r3, r5, lsl fp
     c48:	073b0100 	ldreq	r0, [fp, -r0, lsl #2]!
     c4c:	00000249 	andeq	r0, r0, r9, asr #4
     c50:	000081a0 	andeq	r8, r0, r0, lsr #3
     c54:	00000008 	andeq	r0, r0, r8
     c58:	08209c01 	stmdaeq	r0!, {r0, sl, fp, ip, pc}
     c5c:	68220000 	stmdavs	r2!, {}	; <UNPREDICTABLE>
     c60:	1b3b0100 	blne	ec1068 <__bss_end__+0xeb6600>
     c64:	00000231 	andeq	r0, r0, r1, lsr r2
     c68:	000003bd 			; <UNDEFINED> instruction: 0x000003bd
     c6c:	000003b9 			; <UNDEFINED> instruction: 0x000003b9
     c70:	030f1500 	movweq	r1, #62720	; 0xf500
     c74:	34010000 	strcc	r0, [r1], #-0
     c78:	00023108 	andeq	r3, r2, r8, lsl #2
     c7c:	00819000 	addeq	r9, r1, r0
     c80:	00001000 	andeq	r1, r0, r0
     c84:	4d9c0100 	ldfmis	f0, [ip]
     c88:	22000008 	andcs	r0, r0, #8, 0
     c8c:	34010070 	strcc	r0, [r1], #-112	; 0xffffff90
     c90:	0002311b 	andeq	r3, r2, fp, lsl r1
     c94:	0003e200 	andeq	lr, r3, r0, lsl #4
     c98:	0003de00 	andeq	sp, r3, r0, lsl #28
     c9c:	dc280000 	stcle	0, cr0, [r8], #-0
     ca0:	01000002 	tsteq	r0, r2
     ca4:	0231082f 	eorseq	r0, r1, #3080192	; 0x2f0000
     ca8:	81800000 	orrhi	r0, r0, r0
     cac:	00100000 	andseq	r0, r0, r0
     cb0:	9c010000 	stcls	0, cr0, [r1], {-0}
     cb4:	0002b529 	andeq	fp, r2, r9, lsr #10
     cb8:	0d1f0100 	ldfeqs	f0, [pc, #-0]	; cc0 <__code_start__-0x7340>
     cbc:	0000810c 	andeq	r8, r0, ip, lsl #2
     cc0:	00000074 	andeq	r0, r0, r4, ror r0
     cc4:	09099c01 	stmdbeq	r9, {r0, sl, fp, ip, pc}
     cc8:	6c220000 	stcvs	0, cr0, [r2], #-0
     ccc:	201f0100 	andscs	r0, pc, r0, lsl #2
     cd0:	00000231 	andeq	r0, r0, r1, lsr r2
     cd4:	00000407 	andeq	r0, r0, r7, lsl #8
     cd8:	00000403 	andeq	r0, r0, r3, lsl #8
     cdc:	01006822 	tsteq	r0, r2, lsr #16
     ce0:	02312a1f 	eorseq	r2, r1, #126976	; 0x1f000
     ce4:	042c0000 	strteq	r0, [ip], #-0
     ce8:	04280000 	strteq	r0, [r8], #-0
     cec:	a71f0000 	ldrge	r0, [pc, -r0]
     cf0:	19000000 	stmdbne	r0, {}	; <UNPREDICTABLE>
     cf4:	05000009 	streq	r0, [r0, #-9]
     cf8:	009f5803 	addseq	r5, pc, r3, lsl #16
     cfc:	00002400 	andeq	r2, r0, r0, lsl #8
     d00:	9a210000 	bls	840d08 <__bss_end__+0x8362a0>
     d04:	01000002 	tsteq	r0, r2
     d08:	02310a27 	eorseq	r0, r1, #159744	; 0x27000
     d0c:	044f0000 	strbeq	r0, [pc], #-0	; d14 <__code_start__-0x72ec>
     d10:	044d0000 	strbeq	r0, [sp], #-0
     d14:	681d0000 	ldmdavs	sp, {}	; <UNPREDICTABLE>
     d18:	6e000081 	cdpvs	0, 0, cr0, cr0, cr1, {4}
     d1c:	fe000009 	cdp2	0, 0, cr0, cr0, cr9, {0}
     d20:	1c000008 	stcne	0, cr0, [r0], {8}
     d24:	03055001 	movweq	r5, #20481	; 0x5001
     d28:	00009e68 	andeq	r9, r0, r8, ror #28
     d2c:	0551011c 	ldrbeq	r0, [r1, #-284]	; 0xfffffee4
     d30:	009e5c03 	addseq	r5, lr, r3, lsl #24
     d34:	52011c00 	andpl	r1, r1, #0, 24
     d38:	9f580305 	svcls	0x00580305
     d3c:	011c0000 	tsteq	ip, r0
     d40:	26080253 			; <UNDEFINED> instruction: 0x26080253
     d44:	007d021c 	rsbseq	r0, sp, ip, lsl r2
     d48:	9e7c0305 	cdpls	3, 7, cr0, cr12, cr5, {0}
     d4c:	20000000 	andcs	r0, r0, r0
     d50:	0000816c 	andeq	r8, r0, ip, ror #2
     d54:	0000097a 	andeq	r0, r0, sl, ror r9
     d58:	d1110000 	tstle	r1, r0
     d5c:	19000000 	stmdbne	r0, {}	; <UNPREDICTABLE>
     d60:	12000009 	andne	r0, r0, #9, 0
     d64:	0000002c 	andeq	r0, r0, ip, lsr #32
     d68:	0904000b 	stmdbeq	r4, {r0, r1, r3}
     d6c:	2a000009 	bcs	d98 <__code_start__-0x7268>
     d70:	000002a4 	andeq	r0, r0, r4, lsr #5
     d74:	40184302 	andsmi	r4, r8, r2, lsl #6
     d78:	03000006 	movweq	r0, #6
     d7c:	0000093a 	andeq	r0, r0, sl, lsr r9
     d80:	0200682b 	andeq	r6, r0, #2818048	; 0x2b0000
     d84:	02312a43 	eorseq	r2, r1, #274432	; 0x43000
     d88:	2a000000 	bcs	d90 <__code_start__-0x7270>
     d8c:	00000353 	andeq	r0, r0, r3, asr r3
     d90:	2c183502 	cfldr32cs	mvfx3, [r8], {2}
     d94:	03000000 	movweq	r0, #0
     d98:	00000956 	andeq	r0, r0, r6, asr r9
     d9c:	0200682b 	andeq	r6, r0, #2818048	; 0x2b0000
     da0:	02312935 	eorseq	r2, r1, #868352	; 0xd4000
     da4:	2c000000 	stccs	0, cr0, [r0], {-0}
     da8:	0000035d 	andeq	r0, r0, sp, asr r3
     dac:	0000035d 	andeq	r0, r0, sp, asr r3
     db0:	2c071e06 	stccs	14, cr1, [r7], {6}
     db4:	0000009b 	muleq	r0, fp, r0
     db8:	0000009b 	muleq	r0, fp, r0
     dbc:	2c07f704 	stccs	7, cr15, [r7], {4}
     dc0:	0000066e 	andeq	r0, r0, lr, ror #12
     dc4:	0000066e 	andeq	r0, r0, lr, ror #12
     dc8:	2c062804 	stccs	8, cr2, [r6], {4}
     dcc:	00000069 	andeq	r0, r0, r9, rrx
     dd0:	00000069 	andeq	r0, r0, r9, rrx
     dd4:	00066e04 	andeq	r6, r6, r4, lsl #28
     dd8:	00000c35 	andeq	r0, r0, r5, lsr ip
     ddc:	04520004 	ldrbeq	r0, [r2], #-4
     de0:	01040000 	mrseq	r0, (UNDEF: 4)
     de4:	000001b0 			; <UNDEFINED> instruction: 0x000001b0
     de8:	0004670c 	andeq	r6, r4, ip, lsl #14
     dec:	00010700 	andeq	r0, r1, r0, lsl #14
     df0:	00852400 	addeq	r2, r5, r0, lsl #8
     df4:	00059c00 	andeq	r9, r5, r0, lsl #24
     df8:	00060000 	andeq	r0, r6, r0
     dfc:	05040200 	streq	r0, [r4, #-512]	; 0xfffffe00
     e00:	00746e69 	rsbseq	r6, r4, r9, ror #28
     e04:	c9070403 	stmdbgt	r7, {r0, r1, sl}
     e08:	04000000 	streq	r0, [r0], #-0
     e0c:	0000002c 	andeq	r0, r0, ip, lsr #32
     e10:	5d060103 	stfpls	f0, [r6, #-12]
     e14:	03000000 	movweq	r0, #0
     e18:	01800502 	orreq	r0, r0, r2, lsl #10
     e1c:	04030000 	streq	r0, [r3], #-0
     e20:	00016405 	andeq	r6, r1, r5, lsl #8
     e24:	05080300 	streq	r0, [r8, #-768]	; 0xfffffd00
     e28:	0000015f 	andeq	r0, r0, pc, asr r1
     e2c:	0000d605 	andeq	sp, r0, r5, lsl #12
     e30:	182e0200 	stmdane	lr!, {r9}
     e34:	00000060 	andeq	r0, r0, r0, rrx
     e38:	5b080103 	blpl	20124c <__bss_end__+0x1f67e4>
     e3c:	05000000 	streq	r0, [r0, #-0]
     e40:	00000194 	muleq	r0, r4, r1
     e44:	73193102 	tstvc	r9, #-2147483648	; 0x80000000
     e48:	03000000 	movweq	r0, #0
     e4c:	00760702 	rsbseq	r0, r6, r2, lsl #14
     e50:	9d050000 	stcls	0, cr0, [r5, #-0]
     e54:	02000001 	andeq	r0, r0, #1, 0
     e58:	00861934 	addeq	r1, r6, r4, lsr r9
     e5c:	04030000 	streq	r0, [r3], #-0
     e60:	0000c407 	andeq	ip, r0, r7, lsl #8
     e64:	07080300 	streq	r0, [r8, -r0, lsl #6]
     e68:	000000bf 	strheq	r0, [r0], -pc	; <UNPREDICTABLE>
     e6c:	00002506 	andeq	r2, r0, r6, lsl #10
     e70:	0000a300 	andeq	sl, r0, r0, lsl #6
     e74:	00250700 	eoreq	r0, r5, r0, lsl #14
     e78:	08000000 	stmdaeq	r0, {}	; <UNPREDICTABLE>
     e7c:	0000016d 	andeq	r0, r0, sp, ror #2
     e80:	af0e1c03 	svcge	0x000e1c03
     e84:	09000000 	stmdbeq	r0, {}	; <UNPREDICTABLE>
     e88:	00009404 	andeq	r9, r0, r4, lsl #8
     e8c:	00250600 	eoreq	r0, r5, r0, lsl #12
     e90:	00c40000 	sbceq	r0, r4, r0
     e94:	c4070000 	strgt	r0, [r7], #-0
     e98:	00000000 	andeq	r0, r0, r0
     e9c:	00d10409 	sbcseq	r0, r1, r9, lsl #8
     ea0:	01030000 	mrseq	r0, (UNDEF: 3)
     ea4:	00006408 	andeq	r6, r0, r8, lsl #8
     ea8:	00ca0400 	sbceq	r0, sl, r0, lsl #8
     eac:	ac080000 	stcge	0, cr0, [r8], {-0}
     eb0:	03000006 	movweq	r0, #6
     eb4:	00e20e21 	rsceq	r0, r2, r1, lsr #28
     eb8:	04090000 	streq	r0, [r9], #-0
     ebc:	000000b5 	strheq	r0, [r0], -r5
     ec0:	04040c0a 	streq	r0, [r4], #-3082	; 0xfffff3f6
     ec4:	00011909 	andeq	r1, r1, r9, lsl #18
     ec8:	00560b00 	subseq	r0, r6, r0, lsl #22
     ecc:	06040000 	streq	r0, [r4], -r0
     ed0:	0000c411 	andeq	ip, r0, r1, lsl r4
     ed4:	a20b0000 	andge	r0, fp, #0, 0
     ed8:	04000000 	streq	r0, [r0], #-0
     edc:	00c41107 	sbceq	r1, r4, r7, lsl #2
     ee0:	0b040000 	bleq	100ee8 <__bss_end__+0xf6480>
     ee4:	00000026 	andeq	r0, r0, r6, lsr #32
     ee8:	2c0e0804 	stccs	8, cr0, [lr], {4}
     eec:	08000000 	stmdaeq	r0, {}	; <UNPREDICTABLE>
     ef0:	018a0500 	orreq	r0, sl, r0, lsl #10
     ef4:	09040000 	stmdbeq	r4, {}	; <UNPREDICTABLE>
     ef8:	0000e803 	andeq	lr, r0, r3, lsl #16
     efc:	01070c00 	tsteq	r7, r0, lsl #24
     f00:	00000060 	andeq	r0, r0, r0, rrx
     f04:	400e0905 	andmi	r0, lr, r5, lsl #18
     f08:	0d000001 	stceq	0, cr0, [r0, #-4]
     f0c:	00000333 	andeq	r0, r0, r3, lsr r3
     f10:	02af0d0b 	adceq	r0, pc, #704	; 0x2c0
     f14:	000c0000 	andeq	r0, ip, r0
     f18:	0002700e 	andeq	r7, r2, lr
     f1c:	110c0500 	tstne	ip, r0, lsl #10
     f20:	0000002c 	andeq	r0, r0, ip, lsr #32
     f24:	00890f01 	addeq	r0, r9, r1, lsl #30
     f28:	05a80000 	streq	r0, [r8, #0]!
     f2c:	01dd1010 	bicseq	r1, sp, r0, lsl r0
     f30:	130b0000 	movwne	r0, #45056	; 0xb000
     f34:	05000000 	streq	r0, [r0, #-0]
     f38:	01dd1411 	bicseq	r1, sp, r1, lsl r4
     f3c:	0b000000 	bleq	f44 <__code_start__-0x70bc>
     f40:	0000003a 	andeq	r0, r0, sl, lsr r0
     f44:	7a0e1205 	bvc	385760 <__bss_end__+0x37acf8>
     f48:	04000000 	streq	r0, [r0], #-0
     f4c:	0000200b 	andeq	r2, r0, fp
     f50:	0e130500 	cfmul32eq	mvfx0, mvfx3, mvfx0
     f54:	0000007a 	andeq	r0, r0, sl, ror r0
     f58:	02750b08 	rsbseq	r0, r5, #8, 22	; 0x2000
     f5c:	17050000 	strne	r0, [r5, -r0]
     f60:	00007a0e 	andeq	r7, r0, lr, lsl #20
     f64:	de0b0c00 	cdple	12, 0, cr0, cr11, cr0, {0}
     f68:	05000000 	streq	r0, [r0, #-0]
     f6c:	01190f19 	tsteq	r9, r9, lsl pc
     f70:	0b100000 	bleq	400f78 <__bss_end__+0x3f6510>
     f74:	00000265 	andeq	r0, r0, r5, ror #4
     f78:	7a0e1c05 	bvc	387f94 <__bss_end__+0x37d52c>
     f7c:	1c000000 	stcne	0, cr0, [r0], {-0}
     f80:	00027e0b 	andeq	r7, r2, fp, lsl #28
     f84:	0e1d0500 	cfmul32eq	mvfx0, mvfx13, mvfx0
     f88:	0000007a 	andeq	r0, r0, sl, ror r0
     f8c:	002d0b20 	eoreq	r0, sp, r0, lsr #22
     f90:	1f050000 	svcne	0x00050000
     f94:	0000670e 	andeq	r6, r0, lr, lsl #14
     f98:	e80b2400 	stmda	fp, {sl, sp}
     f9c:	05000000 	streq	r0, [r0, #-0]
     fa0:	00670b20 	rsbeq	r0, r7, r0, lsr #22
     fa4:	10260000 	eorne	r0, r6, r0
     fa8:	00317a72 	eorseq	r7, r1, r2, ror sl
     fac:	e30d2205 	movw	r2, #53765	; 0xd205
     fb0:	28000001 	stmdacs	r0, {r0}
     fb4:	4d040900 	vstrmi.16	s0, [r4, #-0]	; <UNPREDICTABLE>
     fb8:	11000001 	tstne	r0, r1
     fbc:	00000054 	andeq	r0, r0, r4, asr r0
     fc0:	000001f3 	strdeq	r0, [r0], -r3
     fc4:	00002c12 	andeq	r2, r0, r2, lsl ip
     fc8:	05007f00 	streq	r7, [r0, #-3840]	; 0xfffff100
     fcc:	0000000d 	andeq	r0, r0, sp
     fd0:	4d032305 	stcmi	3, cr2, [r3, #-20]	; 0xffffffec
     fd4:	13000001 	movwne	r0, #1
     fd8:	000000b4 	strheq	r0, [r0], -r4
     fdc:	0b0f2505 	bleq	3ca3f8 <__bss_end__+0x3bf990>
     fe0:	09000002 	stmdbeq	r0, {r1}
     fe4:	0001f304 	andeq	pc, r1, r4, lsl #6
     fe8:	01a60e00 			; <UNDEFINED> instruction: 0x01a60e00
     fec:	26050000 	strcs	r0, [r5], -r0
     ff0:	00020b0f 	andeq	r0, r2, pc, lsl #22
     ff4:	04140000 	ldreq	r0, [r4], #-0
     ff8:	00000008 	andeq	r0, r0, r8
     ffc:	11ac0500 			; <UNDEFINED> instruction: 0x11ac0500
    1000:	0000002c 	andeq	r0, r0, ip, lsr #32
    1004:	000b1415 	andeq	r1, fp, r5, lsl r4
    1008:	0f100100 	svceq	0x00100100
    100c:	0000021e 	andeq	r0, r0, lr, lsl r2
    1010:	a6400305 	strbge	r0, [r0], -r5, lsl #6
    1014:	75150000 	ldrvc	r0, [r5, #-0]
    1018:	0100000b 	tsteq	r0, fp
    101c:	021e0f11 	andseq	r0, lr, #68	; 0x44
    1020:	03050000 	movweq	r0, #20480	; 0x5000
    1024:	0000a644 	andeq	sl, r0, r4, asr #12
    1028:	0003c715 	andeq	ip, r3, r5, lsl r7
    102c:	0c120100 	ldfeqs	f0, [r2], {-0}
    1030:	00000025 	andeq	r0, r0, r5, lsr #32
    1034:	a6480305 	strbge	r0, [r8], -r5, lsl #6
    1038:	98160000 	ldmdals	r6, {}	; <UNPREDICTABLE>
    103c:	01000003 	tsteq	r0, r3
    1040:	8a9806ff 	bhi	fe602c44 <__bss_end__+0xfe5f81dc>
    1044:	00280000 	eoreq	r0, r8, r0
    1048:	9c010000 	stcls	0, cr0, [r1], {-0}
    104c:	000002c1 	andeq	r0, r0, r1, asr #5
    1050:	0000a717 	andeq	sl, r0, r7, lsl r7
    1054:	0002d100 	andeq	sp, r2, r0, lsl #2
    1058:	a0030500 	andge	r0, r3, r0, lsl #10
    105c:	180000a2 	stmdane	r0, {r1, r5, r7}
    1060:	00008ab0 			; <UNDEFINED> instruction: 0x00008ab0
    1064:	00000bcc 	andeq	r0, r0, ip, asr #23
    1068:	000002b7 			; <UNDEFINED> instruction: 0x000002b7
    106c:	05500119 	ldrbeq	r0, [r0, #-281]	; 0xfffffee7
    1070:	00a23c03 	adceq	r3, r2, r3, lsl #24
    1074:	51011900 	tstpl	r1, r0, lsl #18
    1078:	a11c0305 	tstge	ip, r5, lsl #6
    107c:	01190000 	tsteq	r9, r0
    1080:	a0030552 	andge	r0, r3, r2, asr r5
    1084:	190000a2 	stmdbne	r0, {r1, r5, r7}
    1088:	0a035301 	beq	d5c94 <__bss_end__+0xcb22c>
    108c:	1a000100 	bne	1494 <__code_start__-0x6b6c>
    1090:	00008ab4 			; <UNDEFINED> instruction: 0x00008ab4
    1094:	00000bd8 	ldrdeq	r0, [r0], -r8
    1098:	00d11100 	sbcseq	r1, r1, r0, lsl #2
    109c:	02d10000 	sbcseq	r0, r1, #0, 0
    10a0:	2c120000 	ldccs	0, cr0, [r2], {-0}
    10a4:	0e000000 	cdpeq	0, 0, cr0, cr0, cr0, {0}
    10a8:	02c10400 	sbceq	r0, r1, #0, 8
    10ac:	f21b0000 	vhadd.s16	d0, d11, d0
    10b0:	01000003 	tsteq	r0, r3
    10b4:	002c0af6 	strdeq	r0, [ip], -r6	; <UNPREDICTABLE>
    10b8:	8a880000 	bhi	fe2010c0 <__bss_end__+0xfe1f6658>
    10bc:	00100000 	andseq	r0, r0, r0
    10c0:	9c010000 	stcls	0, cr0, [r1], {-0}
    10c4:	00000317 	andeq	r0, r0, r7, lsl r3
    10c8:	0003561c 	andeq	r5, r3, ip, lsl r6
    10cc:	0ef80100 	cdpeq	1, 15, cr0, cr8, cr0, {0}
    10d0:	0000002c 	andeq	r0, r0, ip, lsr #32
    10d4:	00000464 	andeq	r0, r0, r4, ror #8
    10d8:	00000462 	andeq	r0, r0, r2, ror #8
    10dc:	008a901a 	addeq	r9, sl, sl, lsl r0
    10e0:	0005dd00 	andeq	sp, r5, r0, lsl #26
    10e4:	8a941a00 	bhi	fe5078ec <__bss_end__+0xfe4fce84>
    10e8:	03170000 	tsteq	r7, #0, 0
    10ec:	1d000000 	stcne	0, cr0, [r0, #-0]
    10f0:	000004c6 	andeq	r0, r0, r6, asr #9
    10f4:	2c11df01 	ldccs	15, cr13, [r1], {1}
    10f8:	64000000 	strvs	r0, [r0], #-0
    10fc:	bc000086 	stclt	0, cr0, [r0], {134}	; 0x86
    1100:	01000000 	mrseq	r0, (UNDEF: 0)
    1104:	00040f9c 	muleq	r4, ip, pc	; <UNPREDICTABLE>
    1108:	03bf1c00 			; <UNDEFINED> instruction: 0x03bf1c00
    110c:	e0010000 	and	r0, r1, r0
    1110:	00002c0b 	andeq	r2, r0, fp, lsl #24
    1114:	00047b00 	andeq	r7, r4, r0, lsl #22
    1118:	00047700 	andeq	r7, r4, r0, lsl #14
    111c:	043e1c00 	ldrteq	r1, [lr], #-3072	; 0xfffff400
    1120:	e0010000 	and	r0, r1, r0
    1124:	00002c18 	andeq	r2, r0, r8, lsl ip
    1128:	00049e00 	andeq	r9, r4, r0, lsl #28
    112c:	00049a00 	andeq	r9, r4, r0, lsl #20
    1130:	03ce1c00 	biceq	r1, lr, #0, 24
    1134:	e0010000 	and	r0, r1, r0
    1138:	00002c22 	andeq	r2, r0, r2, lsr #24
    113c:	0004c100 	andeq	ip, r4, r0, lsl #2
    1140:	0004bd00 	andeq	fp, r4, r0, lsl #26
    1144:	031b1c00 	tsteq	fp, #0, 24
    1148:	e4010000 	str	r0, [r1], #-0
    114c:	00020b09 	andeq	r0, r2, r9, lsl #22
    1150:	0004ee00 	andeq	lr, r4, r0, lsl #28
    1154:	0004e000 	andeq	lr, r4, r0
    1158:	86701800 	ldrbthi	r1, [r0], -r0, lsl #16
    115c:	0bcc0000 	bleq	ff301164 <__bss_end__+0xff2f66fc>
    1160:	03980000 	orrseq	r0, r8, #0, 0
    1164:	01190000 	tsteq	r9, r0
    1168:	6c030550 	cfstr32vs	mvfx0, [r3], {80}	; 0x50
    116c:	0000009f 	muleq	r0, pc, r0	; <UNPREDICTABLE>
    1170:	00867818 	addeq	r7, r6, r8, lsl r8
    1174:	000bcc00 	andeq	ip, fp, r0, lsl #24
    1178:	0003af00 	andeq	sl, r3, r0, lsl #30
    117c:	50011900 	andpl	r1, r1, r0, lsl #18
    1180:	a0a00305 	adcge	r0, r0, r5, lsl #6
    1184:	1a000000 	bne	118c <__code_start__-0x6e74>
    1188:	0000867c 	andeq	r8, r0, ip, ror r6
    118c:	00000be4 	andeq	r0, r0, r4, ror #23
    1190:	00869818 	addeq	r9, r6, r8, lsl r8
    1194:	000bf000 	andeq	pc, fp, r0
    1198:	0003cc00 	andeq	ip, r3, r0, lsl #24
    119c:	50011900 	andpl	r1, r1, r0, lsl #18
    11a0:	00007402 	andeq	r7, r0, r2, lsl #8
    11a4:	0086f018 	addeq	pc, r6, r8, lsl r0	; <UNPREDICTABLE>
    11a8:	000bcc00 	andeq	ip, fp, r0, lsl #24
    11ac:	0003e900 	andeq	lr, r3, r0, lsl #18
    11b0:	50011900 	andpl	r1, r1, r0, lsl #18
    11b4:	a0b00305 	adcsge	r0, r0, r5, lsl #6
    11b8:	01190000 	tsteq	r9, r0
    11bc:	00740252 	rsbseq	r0, r4, r2, asr r2
    11c0:	87081e00 	strhi	r1, [r8, -r0, lsl #28]
    11c4:	0bcc0000 	bleq	ff3011cc <__bss_end__+0xff2f6764>
    11c8:	01190000 	tsteq	r9, r0
    11cc:	e8030550 	stmda	r3, {r4, r6, r8, sl}
    11d0:	190000a0 	stmdbne	r0, {r5, r7}
    11d4:	75025101 	strvc	r5, [r2, #-257]	; 0xfffffeff
    11d8:	52011900 	andpl	r1, r1, #0, 18
    11dc:	19007702 	stmdbne	r0, {r1, r8, r9, sl, ip, sp, lr}
    11e0:	76025301 	strvc	r5, [r2], -r1, lsl #6
    11e4:	1b000000 	blne	11ec <__code_start__-0x6e14>
    11e8:	0000046f 	andeq	r0, r0, pc, ror #8
    11ec:	2c0ad001 	stccs	0, cr13, [sl], {1}
    11f0:	38000000 	stmdacc	r0, {}	; <UNPREDICTABLE>
    11f4:	5000008a 	andpl	r0, r0, sl, lsl #1
    11f8:	01000000 	mrseq	r0, (UNDEF: 0)
    11fc:	0004b59c 	muleq	r4, ip, r5
    1200:	04021c00 	streq	r1, [r2], #-3072	; 0xfffff400
    1204:	d5010000 	strle	r0, [r1, #-0]
    1208:	00002c0e 	andeq	r2, r0, lr, lsl #24
    120c:	00054900 	andeq	r4, r5, r0, lsl #18
    1210:	00054300 	andeq	r4, r5, r0, lsl #6
    1214:	00a71700 	adceq	r1, r7, r0, lsl #14
    1218:	04c50000 	strbeq	r0, [r5], #0
    121c:	03050000 	movweq	r0, #20480	; 0x5000
    1220:	0000a28c 	andeq	sl, r0, ip, lsl #5
    1224:	008a4418 	addeq	r4, sl, r8, lsl r4
    1228:	00056700 	andeq	r6, r5, r0, lsl #14
    122c:	00045f00 	andeq	r5, r4, r0, lsl #30
    1230:	50011900 	andpl	r1, r1, r0, lsl #18
    1234:	18003101 	stmdane	r0, {r0, r8, ip, sp}
    1238:	00008a58 	andeq	r8, r0, r8, asr sl
    123c:	00000bcc 	andeq	r0, r0, ip, asr #23
    1240:	0000047c 	andeq	r0, r0, ip, ror r4
    1244:	05500119 	ldrbeq	r0, [r0, #-281]	; 0xfffffee7
    1248:	00a21803 	adceq	r1, r2, r3, lsl #16
    124c:	51011900 	tstpl	r1, r0, lsl #18
    1250:	00007402 	andeq	r7, r0, r2, lsl #8
    1254:	008a7418 	addeq	r7, sl, r8, lsl r4
    1258:	000bcc00 	andeq	ip, fp, r0, lsl #24
    125c:	0004ab00 	andeq	sl, r4, r0, lsl #22
    1260:	50011900 	andpl	r1, r1, r0, lsl #18
    1264:	a1f00305 	mvnsge	r0, r5, lsl #6
    1268:	01190000 	tsteq	r9, r0
    126c:	1c030551 	cfstr32ne	mvfx0, [r3], {81}	; 0x51
    1270:	190000a1 	stmdbne	r0, {r0, r5, r7}
    1274:	03055201 	movweq	r5, #20993	; 0x5201
    1278:	0000a28c 	andeq	sl, r0, ip, lsl #5
    127c:	02530119 	subseq	r0, r3, #1073741830	; 0x40000006
    1280:	1a00d708 	bne	36ea8 <__bss_end__+0x2c440>
    1284:	00008a78 	andeq	r8, r0, r8, ror sl
    1288:	00000bd8 	ldrdeq	r0, [r0], -r8
    128c:	00d11100 	sbcseq	r1, r1, r0, lsl #2
    1290:	04c50000 	strbeq	r0, [r5], #0
    1294:	2c120000 	ldccs	0, cr0, [r2], {-0}
    1298:	11000000 	mrsne	r0, (UNDEF: 0)
    129c:	04b50400 	ldrteq	r0, [r5], #1024	; 0x400
    12a0:	30160000 	andscc	r0, r6, r0
    12a4:	01000004 	tsteq	r0, r4
    12a8:	89f006c3 	ldmibhi	r0!, {r0, r1, r6, r7, r9, sl}^
    12ac:	00480000 	subeq	r0, r8, r0
    12b0:	9c010000 	stcls	0, cr0, [r1], {-0}
    12b4:	00000552 	andeq	r0, r0, r2, asr r5
    12b8:	0000a717 	andeq	sl, r0, r7, lsl r7
    12bc:	00056200 	andeq	r6, r5, r0, lsl #4
    12c0:	7c030500 	cfstr32vc	mvfx0, [r3], {-0}
    12c4:	180000a2 	stmdane	r0, {r1, r5, r7}
    12c8:	000089fc 	strdeq	r8, [r0], -ip
    12cc:	00000567 	andeq	r0, r0, r7, ror #10
    12d0:	00000502 	andeq	r0, r0, r2, lsl #10
    12d4:	01500119 	cmpeq	r0, r9, lsl r1
    12d8:	0c180031 	ldceq	0, cr0, [r8], {49}	; 0x31
    12dc:	cc00008a 	stcgt	0, cr0, [r0], {138}	; 0x8a
    12e0:	1900000b 	stmdbne	r0, {r0, r1, r3}
    12e4:	19000005 	stmdbne	r0, {r0, r2}
    12e8:	03055001 	movweq	r5, #20481	; 0x5001
    12ec:	0000a1d0 	ldrdeq	sl, [r0], -r0
    12f0:	8a241800 	bhi	9072f8 <__bss_end__+0x8fc890>
    12f4:	0bcc0000 	bleq	ff3012fc <__bss_end__+0xff2f6894>
    12f8:	05480000 	strbeq	r0, [r8, #-0]
    12fc:	01190000 	tsteq	r9, r0
    1300:	a4030550 	strge	r0, [r3], #-1360	; 0xfffffab0
    1304:	190000a1 	stmdbne	r0, {r0, r5, r7}
    1308:	03055101 	movweq	r5, #20737	; 0x5101
    130c:	0000a11c 	andeq	sl, r0, ip, lsl r1
    1310:	05520119 	ldrbeq	r0, [r2, #-281]	; 0xfffffee7
    1314:	00a27c03 	adceq	r7, r2, r3, lsl #24
    1318:	53011900 	movwpl	r1, #6400	; 0x1900
    131c:	00c90802 	sbceq	r0, r9, r2, lsl #16
    1320:	008a281a 	addeq	r2, sl, sl, lsl r8
    1324:	000bd800 	andeq	sp, fp, r0, lsl #16
    1328:	d1110000 	tstle	r1, r0
    132c:	62000000 	andvs	r0, r0, #0, 0
    1330:	12000005 	andne	r0, r0, #5, 0
    1334:	0000002c 	andeq	r0, r0, ip, lsr #32
    1338:	5204000d 	andpl	r0, r4, #13, 0
    133c:	1b000005 	blne	1358 <__code_start__-0x6ca8>
    1340:	00000416 	andeq	r0, r0, r6, lsl r4
    1344:	2c0abb01 			; <UNDEFINED> instruction: 0x2c0abb01
    1348:	c0000000 	andgt	r0, r0, r0
    134c:	30000089 	andcc	r0, r0, r9, lsl #1
    1350:	01000000 	mrseq	r0, (UNDEF: 0)
    1354:	0005dd9c 	muleq	r5, ip, sp
    1358:	04d11f00 	ldrbeq	r1, [r1], #3840	; 0xf00
    135c:	bb010000 	bllt	41364 <__bss_end__+0x368fc>
    1360:	0000251c 	andeq	r2, r0, ip, lsl r5
    1364:	00057600 	andeq	r7, r5, r0, lsl #12
    1368:	00057200 	andeq	r7, r5, r0, lsl #4
    136c:	89d01800 	ldmibhi	r0, {fp, ip}^
    1370:	0bcc0000 	bleq	ff301378 <__bss_end__+0xff2f6910>
    1374:	05ac0000 	streq	r0, [ip, #0]!
    1378:	01190000 	tsteq	r9, r0
    137c:	88030550 	stmdahi	r3, {r4, r6, r8, sl}
    1380:	000000a1 	andeq	r0, r0, r1, lsr #1
    1384:	0089d41a 	addeq	sp, r9, sl, lsl r4
    1388:	0005dd00 	andeq	sp, r5, r0, lsl #26
    138c:	89dc1800 	ldmibhi	ip, {fp, ip}^
    1390:	0bcc0000 	bleq	ff301398 <__bss_end__+0xff2f6930>
    1394:	05cc0000 	strbeq	r0, [ip]
    1398:	01190000 	tsteq	r9, r0
    139c:	9c030550 	cfstr32ls	mvfx0, [r3], {80}	; 0x50
    13a0:	000000a1 	andeq	r0, r0, r1, lsr #1
    13a4:	0089e41e 	addeq	lr, r9, lr, lsl r4
    13a8:	0006ff00 	andeq	pc, r6, r0, lsl #30
    13ac:	50011900 	andpl	r1, r1, r0, lsl #18
    13b0:	00007402 	andeq	r7, r0, r2, lsl #8
    13b4:	038f2000 	orreq	r2, pc, #0, 0
    13b8:	93010000 	movwls	r0, #4096	; 0x1000
    13bc:	00887c0d 	addeq	r7, r8, sp, lsl #24
    13c0:	00009000 	andeq	r9, r0, r0
    13c4:	d49c0100 	ldrle	r0, [ip], #256	; 0x100
    13c8:	15000006 	strne	r0, [r0, #-6]
    13cc:	000003fd 	strdeq	r0, [r0], -sp
    13d0:	d40e9d01 	strle	r9, [lr], #-3329	; 0xfffff2ff
    13d4:	03000006 	movweq	r0, #6
    13d8:	217fb891 			; <UNDEFINED> instruction: 0x217fb891
    13dc:	000000a7 	andeq	r0, r0, r7, lsr #1
    13e0:	000006f4 	strdeq	r0, [r0], -r4
    13e4:	00037922 	andeq	r7, r3, r2, lsr #18
    13e8:	0fae0100 	svceq	0x00ae0100
    13ec:	000006f9 	strdeq	r0, [r0], -r9
    13f0:	08000000 	stmdaeq	r0, {}	; <UNPREDICTABLE>
    13f4:	0003a708 	andeq	sl, r3, r8, lsl #14
    13f8:	15b20100 	ldrne	r0, [r2, #256]!	; 0x100
    13fc:	0000007a 	andeq	r0, r0, sl, ror r0
    1400:	00048108 	andeq	r8, r4, r8, lsl #2
    1404:	24b20100 	ldrtcs	r0, [r2], #256	; 0x100
    1408:	0000007a 	andeq	r0, r0, sl, ror r0
    140c:	0004b708 	andeq	fp, r4, r8, lsl #14
    1410:	15b50100 	ldrne	r0, [r5, #256]!	; 0x100
    1414:	0000007a 	andeq	r0, r0, sl, ror r0
    1418:	00040908 	andeq	r0, r4, r8, lsl #18
    141c:	25b50100 	ldrcs	r0, [r5, #256]!	; 0x100
    1420:	0000007a 	andeq	r0, r0, sl, ror r0
    1424:	00888423 	addeq	r8, r8, r3, lsr #8
    1428:	00002400 	andeq	r2, r0, r0, lsl #8
    142c:	00067e00 	andeq	r7, r6, r0, lsl #28
    1430:	00682400 	rsbeq	r2, r8, r0, lsl #8
    1434:	0b109701 	bleq	427040 <__bss_end__+0x41c5d8>
    1438:	98000002 	stmdals	r0, {r1}
    143c:	94000005 	strls	r0, [r0], #-5
    1440:	1a000005 	bne	145c <__code_start__-0x6ba4>
    1444:	00008888 	andeq	r8, r0, r8, lsl #17
    1448:	00000be4 	andeq	r0, r0, r4, ror #23
    144c:	0088a41a 	addeq	sl, r8, sl, lsl r4
    1450:	000bf000 	andeq	pc, fp, r0
    1454:	b0180000 	andslt	r0, r8, r0
    1458:	fc000088 	stc2	0, cr0, [r0], {136}	; 0x88
    145c:	9200000b 	andls	r0, r0, #11, 0
    1460:	19000006 	stmdbne	r0, {r1, r2}
    1464:	7d025001 	stcvc	0, cr5, [r2, #-4]
    1468:	d0180000 	andsle	r0, r8, r0
    146c:	50000088 	andpl	r0, r0, r8, lsl #1
    1470:	ac000008 	stcge	0, cr0, [r0], {8}
    1474:	19000006 	stmdbne	r0, {r1, r2}
    1478:	7d025001 	stcvc	0, cr5, [r2, #-4]
    147c:	51011900 	tstpl	r1, r0, lsl #18
    1480:	00709102 	rsbseq	r9, r0, r2, lsl #2
    1484:	0088dc18 	addeq	sp, r8, r8, lsl ip
    1488:	00085000 	andeq	r5, r8, r0
    148c:	0006c100 	andeq	ip, r6, r0, lsl #2
    1490:	51011900 	tstpl	r1, r0, lsl #18
    1494:	24474003 	strbcs	r4, [r7], #-3
    1498:	88e81a00 	stmiahi	r8!, {r9, fp, ip}^
    149c:	08500000 	ldmdaeq	r0, {}^	; <UNPREDICTABLE>
    14a0:	f41a0000 			; <UNDEFINED> instruction: 0xf41a0000
    14a4:	50000088 	andpl	r0, r0, r8, lsl #1
    14a8:	00000008 	andeq	r0, r0, r8
    14ac:	00007a11 	andeq	r7, r0, r1, lsl sl
    14b0:	0006e400 	andeq	lr, r6, r0, lsl #8
    14b4:	002c1200 	eoreq	r1, ip, r0, lsl #4
    14b8:	000f0000 	andeq	r0, pc, r0
    14bc:	0000d111 	andeq	sp, r0, r1, lsl r1
    14c0:	0006f400 	andeq	pc, r6, r0, lsl #8
    14c4:	002c1200 	eoreq	r1, ip, r0, lsl #4
    14c8:	00080000 	andeq	r0, r8, r0
    14cc:	0006e404 	andeq	lr, r6, r4, lsl #8
    14d0:	7a040900 	bvc	1038d8 <__bss_end__+0xf8e70>
    14d4:	1d000000 	stcne	0, cr0, [r0, #-0]
    14d8:	000004ac 	andeq	r0, r0, ip, lsr #9
    14dc:	2c116901 			; <UNDEFINED> instruction: 0x2c116901
    14e0:	60000000 	andvs	r0, r0, r0
    14e4:	04000085 	streq	r0, [r0], #-133	; 0xffffff7b
    14e8:	01000001 	tsteq	r0, r1
    14ec:	0008509c 	muleq	r8, ip, r0
    14f0:	04d11f00 	ldrbeq	r1, [r1], #3840	; 0xf00
    14f4:	69010000 	stmdbvs	r1, {}	; <UNPREDICTABLE>
    14f8:	00002520 	andeq	r2, r0, r0, lsr #10
    14fc:	0005ba00 	andeq	fp, r5, r0, lsl #20
    1500:	0005b600 	andeq	fp, r5, r0, lsl #12
    1504:	03bf1c00 			; <UNDEFINED> instruction: 0x03bf1c00
    1508:	6a010000 	bvs	41510 <__bss_end__+0x36aa8>
    150c:	00002c0b 	andeq	r2, r0, fp, lsl #24
    1510:	0005df00 	andeq	sp, r5, r0, lsl #30
    1514:	0005db00 	andeq	sp, r5, r0, lsl #22
    1518:	03eb1c00 	mvneq	r1, #0, 24
    151c:	6a010000 	bvs	41524 <__bss_end__+0x36abc>
    1520:	00002c18 	andeq	r2, r0, r8, lsl ip
    1524:	00060200 	andeq	r0, r6, r0, lsl #4
    1528:	0005fe00 	andeq	pc, r5, r0, lsl #28
    152c:	03e51c00 	mvneq	r1, #0, 24
    1530:	6a010000 	bvs	41538 <__bss_end__+0x36ad0>
    1534:	00002c24 	andeq	r2, r0, r4, lsr #24
    1538:	00062500 	andeq	r2, r6, r0, lsl #10
    153c:	00062100 	andeq	r2, r6, r0, lsl #2
    1540:	031b1c00 	tsteq	fp, #0, 24
    1544:	6f010000 	svcvs	0x00010000
    1548:	00020b09 	andeq	r0, r2, r9, lsl #22
    154c:	00064c00 	andeq	r4, r6, r0, lsl #24
    1550:	00064400 	andeq	r4, r6, r0, lsl #8
    1554:	856c1800 	strbhi	r1, [ip, #-2048]!	; 0xfffff800
    1558:	0bcc0000 	bleq	ff301560 <__bss_end__+0xff2f6af8>
    155c:	07940000 	ldreq	r0, [r4, r0]
    1560:	01190000 	tsteq	r9, r0
    1564:	6c030550 	cfstr32vs	mvfx0, [r3], {80}	; 0x50
    1568:	0000009f 	muleq	r0, pc, r0	; <UNPREDICTABLE>
    156c:	00857418 	addeq	r7, r5, r8, lsl r4
    1570:	000bcc00 	andeq	ip, fp, r0, lsl #24
    1574:	0007ab00 	andeq	sl, r7, r0, lsl #22
    1578:	50011900 	andpl	r1, r1, r0, lsl #18
    157c:	9fa80305 	svcls	0x00a80305
    1580:	1a000000 	bne	1588 <__code_start__-0x6a78>
    1584:	00008578 	andeq	r8, r0, r8, ror r5
    1588:	00000be4 	andeq	r0, r0, r4, ror #23
    158c:	0085b818 	addeq	fp, r5, r8, lsl r8
    1590:	000bcc00 	andeq	ip, fp, r0, lsl #24
    1594:	0007d100 	andeq	sp, r7, r0, lsl #2
    1598:	50011900 	andpl	r1, r1, r0, lsl #18
    159c:	9fc00305 	svcls	0x00c00305
    15a0:	01190000 	tsteq	r9, r0
    15a4:	00740252 	rsbseq	r0, r4, r2, asr r2
    15a8:	85c01800 	strbhi	r1, [r0, #2048]	; 0x800
    15ac:	0bf00000 	bleq	ffc015b4 <__bss_end__+0xffbf6b4c>
    15b0:	07e50000 	strbeq	r0, [r5, r0]!
    15b4:	01190000 	tsteq	r9, r0
    15b8:	00740250 	rsbseq	r0, r4, r0, asr r2
    15bc:	86141800 	ldrhi	r1, [r4], -r0, lsl #16
    15c0:	0bcc0000 	bleq	ff3015c8 <__bss_end__+0xff2f6b60>
    15c4:	08020000 	stmdaeq	r2, {}	; <UNPREDICTABLE>
    15c8:	01190000 	tsteq	r9, r0
    15cc:	ec030550 	cfstr32	mvfx0, [r3], {80}	; 0x50
    15d0:	1900009f 	stmdbne	r0, {r0, r1, r2, r3, r4, r7}
    15d4:	75025101 	strvc	r5, [r2, #-257]	; 0xfffffeff
    15d8:	24180000 	ldrcs	r0, [r8], #-0
    15dc:	cc000086 	stcgt	0, cr0, [r0], {134}	; 0x86
    15e0:	1900000b 	stmdbne	r0, {r0, r1, r3}
    15e4:	19000008 	stmdbne	r0, {r3}
    15e8:	03055001 	movweq	r5, #20481	; 0x5001
    15ec:	0000a00c 	andeq	sl, r0, ip
    15f0:	862c1800 	strthi	r1, [ip], -r0, lsl #16
    15f4:	0bcc0000 	bleq	ff3015fc <__bss_end__+0xff2f6b94>
    15f8:	08300000 	ldmdaeq	r0!, {}	; <UNPREDICTABLE>
    15fc:	01190000 	tsteq	r9, r0
    1600:	64030550 	strvs	r0, [r3], #-1360	; 0xfffffab0
    1604:	000000a0 	andeq	r0, r0, r0, lsr #1
    1608:	0086441e 	addeq	r4, r6, lr, lsl r4
    160c:	000bcc00 	andeq	ip, fp, r0, lsl #24
    1610:	50011900 	andpl	r1, r1, r0, lsl #18
    1614:	a0340305 	eorsge	r0, r4, r5, lsl #6
    1618:	01190000 	tsteq	r9, r0
    161c:	00770251 	rsbseq	r0, r7, r1, asr r2
    1620:	02520119 	subseq	r0, r2, #1073741830	; 0x40000006
    1624:	00000076 	andeq	r0, r0, r6, ror r0
    1628:	00002d20 	andeq	r2, r0, r0, lsr #26
    162c:	0d4b0100 	stfeqe	f0, [fp, #-0]
    1630:	00008748 	andeq	r8, r0, r8, asr #14
    1634:	00000134 	andeq	r0, r0, r4, lsr r1
    1638:	0a0a9c01 	beq	2a8644 <__bss_end__+0x29dbdc>
    163c:	70250000 	eorvc	r0, r5, r0
    1640:	1c4b0100 	stfnee	f0, [fp], {-0}
    1644:	000006f9 	strdeq	r0, [r0], -r9
    1648:	0000068e 	andeq	r0, r0, lr, lsl #13
    164c:	00000680 	andeq	r0, r0, r0, lsl #13
    1650:	01006525 	tsteq	r0, r5, lsr #10
    1654:	06f9294b 	ldrbteq	r2, [r9], fp, asr #18
    1658:	06f90000 	ldrbteq	r0, [r9], r0
    165c:	06e90000 	strbteq	r0, [r9], r0
    1660:	a7170000 	ldrge	r0, [r7, -r0]
    1664:	1a000000 	bne	166c <__code_start__-0x6994>
    1668:	0500000a 	streq	r0, [r0, #-10]
    166c:	00a26c03 	adceq	r6, r2, r3, lsl #24
    1670:	03b51c00 			; <UNDEFINED> instruction: 0x03b51c00
    1674:	51010000 	mrspl	r0, (UNDEF: 1)
    1678:	00003311 	andeq	r3, r0, r1, lsl r3
    167c:	00076b00 	andeq	r6, r7, r0, lsl #22
    1680:	00076500 	andeq	r6, r7, r0, lsl #10
    1684:	00502600 	subseq	r2, r0, r0, lsl #12
    1688:	09430000 	stmdbeq	r3, {}^	; <UNPREDICTABLE>
    168c:	69240000 	stmdbvs	r4!, {}	; <UNPREDICTABLE>
    1690:	10520100 	subsne	r0, r2, r0, lsl #2
    1694:	0000002c 	andeq	r0, r0, ip, lsr #32
    1698:	000007a1 	andeq	r0, r0, r1, lsr #15
    169c:	0000079d 	muleq	r0, sp, r7
    16a0:	00006827 	andeq	r6, r0, r7, lsr #16
    16a4:	04451c00 	strbeq	r1, [r5], #-3072	; 0xfffff400
    16a8:	53010000 	movwpl	r0, #4096	; 0x1000
    16ac:	00020b0a 	andeq	r0, r2, sl, lsl #22
    16b0:	0007c600 	andeq	ip, r7, r0, lsl #12
    16b4:	0007c000 	andeq	ip, r7, r0
    16b8:	00802600 	addeq	r2, r0, r0, lsl #12
    16bc:	09380000 	ldmdbeq	r8!, {}	; <UNPREDICTABLE>
    16c0:	831c0000 	tsthi	ip, #0, 0
    16c4:	01000003 	tsteq	r0, r3
    16c8:	06f90e5e 	usateq	r0, #25, lr, asr #28
    16cc:	07f30000 	ldrbeq	r0, [r3, r0]!
    16d0:	07ef0000 	strbeq	r0, [pc, r0]!
    16d4:	4f1c0000 	svcmi	0x001c0000
    16d8:	01000004 	tsteq	r0, r4
    16dc:	06f90e5f 	usateq	r0, #25, pc, asr #28	; <UNPREDICTABLE>
    16e0:	08180000 	ldmdaeq	r8, {}	; <UNPREDICTABLE>
    16e4:	08140000 	ldmdaeq	r4, {}	; <UNPREDICTABLE>
    16e8:	f4180000 			; <UNDEFINED> instruction: 0xf4180000
    16ec:	50000087 	andpl	r0, r0, r7, lsl #1
    16f0:	27000008 	strcs	r0, [r0, -r8]
    16f4:	19000009 	stmdbne	r0, {r0, r3}
    16f8:	74035001 	strvc	r5, [r3], #-1
    16fc:	1e0001a8 	adfnedp	f0, f0, #0.0
    1700:	00008834 	andeq	r8, r0, r4, lsr r8
    1704:	00000c08 	andeq	r0, r0, r8, lsl #24
    1708:	02500119 	subseq	r0, r0, #1073741830	; 0x40000006
    170c:	00000074 	andeq	r0, r0, r4, ror r0
    1710:	00880c1a 	addeq	r0, r8, sl, lsl ip
    1714:	000a1f00 	andeq	r1, sl, r0, lsl #30
    1718:	18000000 	stmdane	r0, {}	; <UNPREDICTABLE>
    171c:	00008794 	muleq	r0, r4, r7
    1720:	00000bcc 	andeq	r0, r0, ip, asr #23
    1724:	0000097c 	andeq	r0, r0, ip, ror r9
    1728:	05500119 	ldrbeq	r0, [r0, #-281]	; 0xfffffee7
    172c:	009e6803 	addseq	r6, lr, r3, lsl #16
    1730:	51011900 	tstpl	r1, r0, lsl #18
    1734:	a11c0305 	tstge	ip, r5, lsl #6
    1738:	01190000 	tsteq	r9, r0
    173c:	6c030552 	cfstr32vs	mvfx0, [r3], {82}	; 0x52
    1740:	190000a2 	stmdbne	r0, {r1, r5, r7}
    1744:	08025301 	stmdaeq	r2, {r0, r8, r9, ip, lr}
    1748:	7d02194c 	vstrvc.16	s2, [r2, #-152]	; 0xffffff68	; <UNPREDICTABLE>
    174c:	24030500 	strcs	r0, [r3], #-1280	; 0xfffffb00
    1750:	000000a1 	andeq	r0, r0, r1, lsr #1
    1754:	0087981a 	addeq	r9, r7, sl, lsl r8
    1758:	000bd800 	andeq	sp, fp, r0, lsl #16
    175c:	87b41800 	ldrhi	r1, [r4, r0, lsl #16]!
    1760:	0bcc0000 	bleq	ff301768 <__bss_end__+0xff2f6d00>
    1764:	09be0000 	ldmibeq	lr!, {}	; <UNPREDICTABLE>
    1768:	01190000 	tsteq	r9, r0
    176c:	68030550 	stmdavs	r3, {r4, r6, r8, sl}
    1770:	1900009e 	stmdbne	r0, {r1, r2, r3, r4, r7}
    1774:	03055101 	movweq	r5, #20737	; 0x5101
    1778:	0000a11c 	andeq	sl, r0, ip, lsl r1
    177c:	05520119 	ldrbeq	r0, [r2, #-281]	; 0xfffffee7
    1780:	00a26c03 	adceq	r6, r2, r3, lsl #24
    1784:	53011900 	movwpl	r1, #6400	; 0x1900
    1788:	194e0802 	stmdbne	lr, {r1, fp}^
    178c:	05007d02 	streq	r7, [r0, #-3330]	; 0xfffff2fe
    1790:	00a12803 	adceq	r2, r1, r3, lsl #16
    1794:	b81a0000 	ldmdalt	sl, {}	; <UNPREDICTABLE>
    1798:	d8000087 	stmdale	r0, {r0, r1, r2, r7}
    179c:	1800000b 	stmdane	r0, {r0, r1, r3}
    17a0:	000087d4 	ldrdeq	r8, [r0], -r4
    17a4:	00000bcc 	andeq	r0, r0, ip, asr #23
    17a8:	00000a00 	andeq	r0, r0, r0, lsl #20
    17ac:	05500119 	ldrbeq	r0, [r0, #-281]	; 0xfffffee7
    17b0:	009e6803 	addseq	r6, lr, r3, lsl #16
    17b4:	51011900 	tstpl	r1, r0, lsl #18
    17b8:	a11c0305 	tstge	ip, r5, lsl #6
    17bc:	01190000 	tsteq	r9, r0
    17c0:	6c030552 	cfstr32vs	mvfx0, [r3], {82}	; 0x52
    17c4:	190000a2 	stmdbne	r0, {r1, r5, r7}
    17c8:	08025301 	stmdaeq	r2, {r0, r8, r9, ip, lr}
    17cc:	7d02194f 	vstrvc.16	s2, [r2, #-158]	; 0xffffff62	; <UNPREDICTABLE>
    17d0:	38030500 	stmdacc	r3, {r8, sl}
    17d4:	000000a1 	andeq	r0, r0, r1, lsr #1
    17d8:	0087d81a 	addeq	sp, r7, sl, lsl r8
    17dc:	000bd800 	andeq	sp, fp, r0, lsl #16
    17e0:	d1110000 	tstle	r1, r0
    17e4:	1a000000 	bne	17ec <__code_start__-0x6814>
    17e8:	1200000a 	andne	r0, r0, #10, 0
    17ec:	0000002c 	andeq	r0, r0, ip, lsr #32
    17f0:	0a040004 	beq	101808 <__bss_end__+0xf6da0>
    17f4:	1d00000a 	stcne	0, cr0, [r0, #-40]	; 0xffffffd8
    17f8:	00000429 	andeq	r0, r0, r9, lsr #8
    17fc:	0b0f3801 	bleq	3cf808 <__bss_end__+0x3c4da0>
    1800:	20000002 	andcs	r0, r0, r2
    1804:	28000087 	stmdacs	r0, {r0, r1, r2, r7}
    1808:	01000000 	mrseq	r0, (UNDEF: 0)
    180c:	000a849c 	muleq	sl, ip, r4
    1810:	0b2b1f00 	bleq	ac9418 <__bss_end__+0xabe9b0>
    1814:	38010000 	stmdacc	r1, {}	; <UNPREDICTABLE>
    1818:	00007a1f 	andeq	r7, r0, pc, lsl sl
    181c:	00083f00 	andeq	r3, r8, r0, lsl #30
    1820:	00083b00 	andeq	r3, r8, r0, lsl #22
    1824:	00702400 	rsbseq	r2, r0, r0, lsl #8
    1828:	1e0b3901 	vmlane.f16	s6, s22, s2	; <UNPREDICTABLE>
    182c:	61000002 	tstvs	r0, r2
    1830:	5d000008 	stcpl	0, cr0, [r0, #-32]	; 0xffffffe0
    1834:	18000008 	stmdane	r0, {r3}
    1838:	0000872c 	andeq	r8, r0, ip, lsr #14
    183c:	00000a84 	andeq	r0, r0, r4, lsl #21
    1840:	00000a73 	andeq	r0, r0, r3, ror sl
    1844:	02500119 	subseq	r0, r0, #1073741830	; 0x40000006
    1848:	1e000074 	mcrne	0, 0, r0, cr0, cr4, {3}
    184c:	0000873c 	andeq	r8, r0, ip, lsr r7
    1850:	00000c14 	andeq	r0, r0, r4, lsl ip
    1854:	02500119 	subseq	r0, r0, #1073741830	; 0x40000006
    1858:	00000074 	andeq	r0, r0, r4, ror r0
    185c:	0004591d 	andeq	r5, r4, sp, lsl r9
    1860:	0c280100 	stfeqs	f0, [r8], #-0
    1864:	00000025 	andeq	r0, r0, r5, lsr #32
    1868:	00008524 	andeq	r8, r0, r4, lsr #10
    186c:	0000003c 	andeq	r0, r0, ip, lsr r0
    1870:	0ab19c01 	beq	fec6887c <__bss_end__+0xfec5de14>
    1874:	70250000 	eorvc	r0, r5, r0
    1878:	1a280100 	bne	a01c80 <__bss_end__+0x9f7218>
    187c:	0000021e 	andeq	r0, r0, lr, lsl r2
    1880:	0000088b 	andeq	r0, r0, fp, lsl #17
    1884:	0000087f 	andeq	r0, r0, pc, ror r8
    1888:	04241b00 	strteq	r1, [r4], #-2816	; 0xfffff500
    188c:	13010000 	movwne	r0, #4096	; 0x1000
    1890:	00021e07 	andeq	r1, r2, r7, lsl #28
    1894:	00890c00 	addeq	r0, r9, r0, lsl #24
    1898:	0000b400 	andeq	fp, r0, r0, lsl #8
    189c:	cc9c0100 	ldfgts	f0, [ip], {0}
    18a0:	1f00000b 	svcne	0x0000000b
    18a4:	000003db 	ldrdeq	r0, [r0], -fp
    18a8:	46111301 	ldrmi	r1, [r1], -r1, lsl #6
    18ac:	e2000000 	and	r0, r0, #0, 0
    18b0:	de000008 	cdple	0, 0, cr0, cr0, cr8, {0}
    18b4:	17000008 	strne	r0, [r0, -r8]
    18b8:	000000a7 	andeq	r0, r0, r7, lsr #1
    18bc:	00000a1a 	andeq	r0, r0, sl, lsl sl
    18c0:	a2740305 	rsbsge	r0, r4, #335544320	; 0x14000000
    18c4:	38230000 	stmdacc	r3!, {}	; <UNPREDICTABLE>
    18c8:	24000089 	strcs	r0, [r0], #-137	; 0xffffff77
    18cc:	28000000 	stmdacs	r0, {}	; <UNPREDICTABLE>
    18d0:	1c00000b 	stcne	0, cr0, [r0], {11}
    18d4:	00000461 	andeq	r0, r0, r1, ror #8
    18d8:	2c121901 			; <UNDEFINED> instruction: 0x2c121901
    18dc:	02000000 	andeq	r0, r0, #0, 0
    18e0:	00000009 	andeq	r0, r0, r9
    18e4:	1e000009 	cdpne	0, 0, cr0, cr0, cr9, {0}
    18e8:	00008954 	andeq	r8, r0, r4, asr r9
    18ec:	00000c20 	andeq	r0, r0, r0, lsr #24
    18f0:	03500119 	cmpeq	r0, #1073741830	; 0x40000006
    18f4:	19244040 	stmdbne	r4!, {r6, lr}
    18f8:	40035101 	andmi	r5, r3, r1, lsl #2
    18fc:	00002440 	andeq	r2, r0, r0, asr #8
    1900:	00892018 	addeq	r2, r9, r8, lsl r0
    1904:	000bcc00 	andeq	ip, fp, r0, lsl #24
    1908:	000b3f00 	andeq	r3, fp, r0, lsl #30
    190c:	50011900 	andpl	r1, r1, r0, lsl #18
    1910:	a1480305 	cmpge	r8, r5, lsl #6
    1914:	18000000 	stmdane	r0, {}	; <UNPREDICTABLE>
    1918:	00008964 	andeq	r8, r0, r4, ror #18
    191c:	00000c2c 	andeq	r0, r0, ip, lsr #24
    1920:	00000b53 	andeq	r0, r0, r3, asr fp
    1924:	02500119 	subseq	r0, r0, #1073741830	; 0x40000006
    1928:	18000074 	stmdane	r0, {r2, r4, r5, r6}
    192c:	00008988 	andeq	r8, r0, r8, lsl #19
    1930:	00000bcc 	andeq	r0, r0, ip, asr #23
    1934:	00000b8b 	andeq	r0, r0, fp, lsl #23
    1938:	05500119 	ldrbeq	r0, [r0, #-281]	; 0xfffffee7
    193c:	009e6803 	addseq	r6, lr, r3, lsl #16
    1940:	51011900 	tstpl	r1, r0, lsl #18
    1944:	a11c0305 	tstge	ip, r5, lsl #6
    1948:	01190000 	tsteq	r9, r0
    194c:	74030552 	strvc	r0, [r3], #-1362	; 0xfffffaae
    1950:	190000a2 	stmdbne	r0, {r1, r5, r7}
    1954:	45015301 	strmi	r5, [r1, #-769]	; 0xfffffcff
    1958:	007d0219 	rsbseq	r0, sp, r9, lsl r2
    195c:	a1580305 	cmpge	r8, r5, lsl #6
    1960:	1a000000 	bne	1968 <__code_start__-0x6698>
    1964:	0000898c 	andeq	r8, r0, ip, lsl #19
    1968:	00000bd8 	ldrdeq	r0, [r0], -r8
    196c:	0089a018 	addeq	sl, r9, r8, lsl r0
    1970:	000bcc00 	andeq	ip, fp, r0, lsl #24
    1974:	000bc200 	andeq	ip, fp, r0, lsl #4
    1978:	50011900 	andpl	r1, r1, r0, lsl #18
    197c:	a1680305 	cmnge	r8, r5, lsl #6
    1980:	01190000 	tsteq	r9, r0
    1984:	1c030551 	cfstr32ne	mvfx0, [r3], {81}	; 0x51
    1988:	190000a1 	stmdbne	r0, {r0, r5, r7}
    198c:	03055201 	movweq	r5, #20993	; 0x5201
    1990:	0000a274 	andeq	sl, r0, r4, ror r2
    1994:	01530119 	cmpeq	r3, r9, lsl r1
    1998:	a41a0047 	ldrge	r0, [sl], #-71	; 0xffffffb9
    199c:	d8000089 	stmdale	r0, {r0, r3, r7}
    19a0:	0000000b 	andeq	r0, r0, fp
    19a4:	00066e28 	andeq	r6, r6, r8, lsr #28
    19a8:	00066e00 	andeq	r6, r6, r0, lsl #28
    19ac:	06280300 	strteq	r0, [r8], -r0, lsl #6
    19b0:	00006928 	andeq	r6, r0, r8, lsr #18
    19b4:	00006900 	andeq	r6, r0, r0, lsl #18
    19b8:	066e0300 	strbteq	r0, [lr], -r0, lsl #6
    19bc:	0002dc28 	andeq	sp, r2, r8, lsr #24
    19c0:	0002dc00 	andeq	sp, r2, r0, lsl #24
    19c4:	082f0500 	stmdaeq	pc!, {r8, sl}	; <UNPREDICTABLE>
    19c8:	00030f28 	andeq	r0, r3, r8, lsr #30
    19cc:	00030f00 	andeq	r0, r3, r0, lsl #30
    19d0:	08320500 	ldmdaeq	r2!, {r8, sl}
    19d4:	0003f828 	andeq	pc, r3, r8, lsr #16
    19d8:	0003f800 	andeq	pc, r3, r0, lsl #16
    19dc:	06900100 	ldreq	r0, [r0], r0, lsl #2
    19e0:	00028a28 	andeq	r8, r2, r8, lsr #20
    19e4:	00028a00 	andeq	r8, r2, r0, lsl #20
    19e8:	01490500 	cmpeq	r9, r0, lsl #10
    19ec:	0002fd28 	andeq	pc, r2, r8, lsr #26
    19f0:	0002fd00 	andeq	pc, r2, r0, lsl #26
    19f4:	084c0500 	stmdaeq	ip, {r8, sl}^
    19f8:	00049528 	andeq	r9, r4, r8, lsr #10
    19fc:	00049500 	andeq	r9, r4, r0, lsl #10
    1a00:	06830300 	streq	r0, [r3], r0, lsl #6
    1a04:	00048d28 	andeq	r8, r4, r8, lsr #26
    1a08:	00048d00 	andeq	r8, r4, r0, lsl #26
    1a0c:	077c0300 	ldrbeq	r0, [ip, -r0, lsl #6]!
    1a10:	0002da00 	andeq	sp, r2, r0, lsl #20
    1a14:	ae000400 	cfcpysge	mvf0, mvf0
    1a18:	04000006 	streq	r0, [r0], #-6
    1a1c:	0001b001 	andeq	fp, r1, r1
    1a20:	050d0c00 	streq	r0, [sp, #-3072]	; 0xfffff400
    1a24:	01070000 	mrseq	r0, (UNDEF: 7)
    1a28:	8b040000 	blhi	101a30 <__bss_end__+0xf6fc8>
    1a2c:	01ac0000 			; <UNDEFINED> instruction: 0x01ac0000
    1a30:	0bd20000 	bleq	ff481a38 <__bss_end__+0xff476fd0>
    1a34:	04020000 	streq	r0, [r2], #-0
    1a38:	746e6905 	strbtvc	r6, [lr], #-2309	; 0xfffff6fb
    1a3c:	07040300 	streq	r0, [r4, -r0, lsl #6]
    1a40:	000000c9 	andeq	r0, r0, r9, asr #1
    1a44:	5d060103 	stfpls	f0, [r6, #-12]
    1a48:	03000000 	movweq	r0, #0
    1a4c:	01800502 	orreq	r0, r0, r2, lsl #10
    1a50:	04030000 	streq	r0, [r3], #-0
    1a54:	00016405 	andeq	r6, r1, r5, lsl #8
    1a58:	05080300 	streq	r0, [r8, #-768]	; 0xfffffd00
    1a5c:	0000015f 	andeq	r0, r0, pc, asr r1
    1a60:	5b080103 	blpl	201e74 <__bss_end__+0x1f740c>
    1a64:	03000000 	movweq	r0, #0
    1a68:	00760702 	rsbseq	r0, r6, r2, lsl #14
    1a6c:	04030000 	streq	r0, [r3], #-0
    1a70:	0000c407 	andeq	ip, r0, r7, lsl #8
    1a74:	07080300 	streq	r0, [r8, -r0, lsl #6]
    1a78:	000000bf 	strheq	r0, [r0], -pc	; <UNPREDICTABLE>
    1a7c:	00002504 	andeq	r2, r0, r4, lsl #10
    1a80:	00007a00 	andeq	r7, r0, r0, lsl #20
    1a84:	00250500 	eoreq	r0, r5, r0, lsl #10
    1a88:	06000000 	streq	r0, [r0], -r0
    1a8c:	0000016d 	andeq	r0, r0, sp, ror #2
    1a90:	860e1c02 	strhi	r1, [lr], -r2, lsl #24
    1a94:	07000000 	streq	r0, [r0, -r0]
    1a98:	00006b04 	andeq	r6, r0, r4, lsl #22
    1a9c:	00250400 	eoreq	r0, r5, r0, lsl #8
    1aa0:	009b0000 	addseq	r0, fp, r0
    1aa4:	9b050000 	blls	141aac <__bss_end__+0x137044>
    1aa8:	00000000 	andeq	r0, r0, r0
    1aac:	00a80407 	adceq	r0, r8, r7, lsl #8
    1ab0:	01030000 	mrseq	r0, (UNDEF: 3)
    1ab4:	00006408 	andeq	r6, r0, r8, lsl #8
    1ab8:	00a10800 	adceq	r0, r1, r0, lsl #16
    1abc:	ac060000 	stcge	0, cr0, [r6], {-0}
    1ac0:	02000006 	andeq	r0, r0, #6, 0
    1ac4:	00b90e21 	adcseq	r0, r9, r1, lsr #28
    1ac8:	04070000 	streq	r0, [r7], #-0
    1acc:	0000008c 	andeq	r0, r0, ip, lsl #1
    1ad0:	0004f209 	andeq	pc, r4, r9, lsl #4
    1ad4:	05010800 	streq	r0, [r1, #-2048]	; 0xfffff800
    1ad8:	0000ec07 	andeq	lr, r0, r7, lsl #24
    1adc:	00640a00 	rsbeq	r0, r4, r0, lsl #20
    1ae0:	ec100601 	ldc	6, cr0, [r0], {1}
    1ae4:	0a000000 	beq	1aec <__code_start__-0x6514>
    1ae8:	07010070 	smlsdxeq	r1, r0, r0, r0
    1aec:	0000f30f 	andeq	pc, r0, pc, lsl #6
    1af0:	70660a00 	rsbvc	r0, r6, r0, lsl #20
    1af4:	10080100 	andne	r0, r8, r0, lsl #2
    1af8:	000000f6 	strdeq	r0, [r0], -r6
    1afc:	04080300 	streq	r0, [r8], #-768	; 0xfffffd00
    1b00:	00000519 	andeq	r0, r0, r9, lsl r5
    1b04:	070c040b 	streq	r0, [ip, -fp, lsl #8]
    1b08:	0000f504 	andeq	pc, r0, r4, lsl #10
    1b0c:	01080d00 	tsteq	r8, r0, lsl #26
    1b10:	0120020c 			; <UNDEFINED> instruction: 0x0120020c
    1b14:	700e0000 	andvc	r0, lr, r0
    1b18:	01007274 	tsteq	r0, r4, ror r2
    1b1c:	0142150d 	cmpeq	r2, sp, lsl #10
    1b20:	0f000000 	svceq	0x00000000
    1b24:	00000531 	andeq	r0, r0, r1, lsr r5
    1b28:	2c100e01 	ldccs	14, cr0, [r0], {1}
    1b2c:	04000000 	streq	r0, [r0], #-0
    1b30:	04e50900 	strbteq	r0, [r5], #2304	; 0x900
    1b34:	01080000 	mrseq	r0, (UNDEF: 8)
    1b38:	01420f0b 	cmpeq	r2, fp, lsl #30
    1b3c:	730a0000 	movwvc	r0, #40960	; 0xa000
    1b40:	060f0100 	streq	r0, [pc], -r0, lsl #2
    1b44:	000000fc 	strdeq	r0, [r0], -ip
    1b48:	0100780a 	tsteq	r0, sl, lsl #16
    1b4c:	00bf1010 	adcseq	r1, pc, r0, lsl r0	; <UNPREDICTABLE>
    1b50:	07000000 	streq	r0, [r0, -r0]
    1b54:	00012004 	andeq	r2, r1, r4
    1b58:	05361000 	ldreq	r1, [r6, #-0]!
    1b5c:	11010000 	mrsne	r0, (UNDEF: 1)
    1b60:	00012003 	andeq	r2, r1, r3
    1b64:	05201100 	streq	r1, [r0, #-256]!	; 0xffffff00
    1b68:	13010000 	movwne	r0, #4096	; 0x1000
    1b6c:	0001480f 	andeq	r4, r1, pc, lsl #16
    1b70:	58030500 	stmdapl	r3, {r8, sl}
    1b74:	110000a6 	smlatbne	r0, r6, r0, r0
    1b78:	00000500 	andeq	r0, r0, r0, lsl #10
    1b7c:	78101401 	ldmdavc	r0, {r0, sl, ip}
    1b80:	05000001 	streq	r0, [r0, #-1]
    1b84:	00a65003 	adceq	r5, r6, r3
    1b88:	48040700 	stmdami	r4, {r8, r9, sl}
    1b8c:	12000001 	andne	r0, r0, #1, 0
    1b90:	000004f8 	strdeq	r0, [r0], -r8
    1b94:	04065301 	streq	r5, [r6], #-769	; 0xfffffcff
    1b98:	bc00008b 	stclt	0, cr0, [r0], {139}	; 0x8b
    1b9c:	01000000 	mrseq	r0, (UNDEF: 0)
    1ba0:	0001c89c 	muleq	r1, ip, r8
    1ba4:	74701300 	ldrbtvc	r1, [r0], #-768	; 0xfffffd00
    1ba8:	53010072 	movwpl	r0, #4210	; 0x1072
    1bac:	0000f314 	andeq	pc, r0, r4, lsl r3	; <UNPREDICTABLE>
    1bb0:	14500100 	ldrbne	r0, [r0], #-256	; 0xffffff00
    1bb4:	01007062 	tsteq	r0, r2, rrx
    1bb8:	01780a54 	cmneq	r8, r4, asr sl
    1bbc:	09200000 	stmdbeq	r0!, {}	; <UNPREDICTABLE>
    1bc0:	09180000 	ldmdbeq	r8, {}	; <UNPREDICTABLE>
    1bc4:	70140000 	andsvc	r0, r4, r0
    1bc8:	0f540100 	svceq	0x00540100
    1bcc:	00000178 	andeq	r0, r0, r8, ror r1
    1bd0:	0000095c 	andeq	r0, r0, ip, asr r9
    1bd4:	00000958 	andeq	r0, r0, r8, asr r9
    1bd8:	035d1500 	cmpeq	sp, #0, 10
    1bdc:	2d010000 	stccs	0, cr0, [r1, #-0]
    1be0:	0000f307 	andeq	pc, r0, r7, lsl #6
    1be4:	008c0400 	addeq	r0, ip, r0, lsl #8
    1be8:	0000ac00 	andeq	sl, r0, r0, lsl #24
    1bec:	579c0100 	ldrpl	r0, [ip, r0, lsl #2]
    1bf0:	16000002 	strne	r0, [r0], -r2
    1bf4:	00000356 	andeq	r0, r0, r6, asr r3
    1bf8:	2c1a2d01 	ldccs	13, cr2, [sl], {1}
    1bfc:	82000000 	andhi	r0, r0, #0, 0
    1c00:	7a000009 	bvc	1c2c <__code_start__-0x63d4>
    1c04:	14000009 	strne	r0, [r0], #-9
    1c08:	2e010070 	mcrcs	0, 0, r0, cr1, cr0, {3}
    1c0c:	0001780a 	andeq	r7, r1, sl, lsl #16
    1c10:	0009ca00 	andeq	ip, r9, r0, lsl #20
    1c14:	0009bc00 	andeq	fp, r9, r0, lsl #24
    1c18:	04ec1700 	strbteq	r1, [ip], #1792	; 0x700
    1c1c:	2e010000 	cdpcs	0, 0, cr0, cr1, cr0, {0}
    1c20:	0001780e 	andeq	r7, r1, lr, lsl #16
    1c24:	000a2c00 	andeq	r2, sl, r0, lsl #24
    1c28:	000a2200 	andeq	r2, sl, r0, lsl #4
    1c2c:	05061700 	streq	r1, [r6, #-1792]	; 0xfffff900
    1c30:	2f010000 	svccs	0x00010000
    1c34:	00002c0b 	andeq	r2, r0, fp, lsl #24
    1c38:	000a7200 	andeq	r7, sl, r0, lsl #4
    1c3c:	000a7000 	andeq	r7, sl, r0
    1c40:	05251800 	streq	r1, [r5, #-2048]!	; 0xfffff800
    1c44:	30010000 	andcc	r0, r1, r0
    1c48:	0001780a 	andeq	r7, r1, sl, lsl #16
    1c4c:	00024600 	andeq	r4, r2, r0, lsl #12
    1c50:	002c0500 	eoreq	r0, ip, r0, lsl #10
    1c54:	19000000 	stmdbne	r0, {}	; <UNPREDICTABLE>
    1c58:	00008ca0 	andeq	r8, r0, r0, lsr #25
    1c5c:	00000257 	andeq	r0, r0, r7, asr r2
    1c60:	0250011a 	subseq	r0, r0, #-2147483642	; 0x80000006
    1c64:	00000074 	andeq	r0, r0, r4, ror r0
    1c68:	0005251b 	andeq	r2, r5, fp, lsl r5
    1c6c:	10190100 	andsne	r0, r9, r0, lsl #2
    1c70:	00000178 	andeq	r0, r0, r8, ror r1
    1c74:	00008bc0 	andeq	r8, r0, r0, asr #23
    1c78:	00000044 	andeq	r0, r0, r4, asr #32
    1c7c:	02cb9c01 	sbceq	r9, fp, #256	; 0x100
    1c80:	691c0000 	ldmdbvs	ip, {}	; <UNPREDICTABLE>
    1c84:	0100636e 	tsteq	r0, lr, ror #6
    1c88:	002c2519 	eoreq	r2, ip, r9, lsl r5
    1c8c:	0a890000 	beq	fe241c94 <__bss_end__+0xfe23722c>
    1c90:	0a850000 	beq	fe141c98 <__bss_end__+0xfe137230>
    1c94:	63140000 	tstvs	r4, #0, 0
    1c98:	1a010070 	bne	41e60 <__bss_end__+0x373f8>
    1c9c:	0002cb08 	andeq	ip, r2, r8, lsl #22
    1ca0:	000aad00 	andeq	sl, sl, r0, lsl #26
    1ca4:	000aa700 	andeq	sl, sl, r0, lsl #14
    1ca8:	70751400 	rsbsvc	r1, r5, r0, lsl #8
    1cac:	0a1b0100 	beq	6c20b4 <__bss_end__+0x6b764c>
    1cb0:	00000178 	andeq	r0, r0, r8, ror r1
    1cb4:	00000adc 	ldrdeq	r0, [r0], -ip
    1cb8:	00000ad8 	ldrdeq	r0, [r0], -r8
    1cbc:	008bd81d 	addeq	sp, fp, sp, lsl r8
    1cc0:	0002d100 	andeq	sp, r2, r0, lsl #2
    1cc4:	0002c100 	andeq	ip, r2, r0, lsl #2
    1cc8:	50011a00 	andpl	r1, r1, r0, lsl #20
    1ccc:	33007404 	movwcc	r7, #1028	; 0x404
    1cd0:	ec1e0024 	ldc	0, cr0, [lr], {36}	; 0x24
    1cd4:	7e00008b 	cdpvc	0, 0, cr0, cr0, cr11, {4}
    1cd8:	00000001 	andeq	r0, r0, r1
    1cdc:	00a10407 	adceq	r0, r1, r7, lsl #8
    1ce0:	241f0000 	ldrcs	r0, [pc], #-0	; 1ce8 <__code_start__-0x6318>
    1ce4:	24000004 	strcs	r0, [r0], #-4
    1ce8:	03000004 	movweq	r0, #4
    1cec:	3a000b1a 	bcc	495c <__code_start__-0x36a4>
    1cf0:	04000001 	streq	r0, [r0], #-1
    1cf4:	00089c00 	andeq	r9, r8, r0, lsl #24
    1cf8:	3d010400 	cfstrscc	mvf0, [r1, #-0]
    1cfc:	0c000005 	stceq	0, cr0, [r0], {5}
    1d00:	0000060e 	andeq	r0, r0, lr, lsl #12
    1d04:	0000061e 	andeq	r0, r0, lr, lsl r6
    1d08:	00008cb0 			; <UNDEFINED> instruction: 0x00008cb0
    1d0c:	00000018 	andeq	r0, r0, r8, lsl r0
    1d10:	00000e28 	andeq	r0, r0, r8, lsr #28
    1d14:	69050402 	stmdbvs	r5, {r1, sl}
    1d18:	0300746e 	movweq	r7, #1134	; 0x46e
    1d1c:	00000607 	andeq	r0, r0, r7, lsl #12
    1d20:	3817d103 	ldmdacc	r7, {r0, r1, r8, ip, lr, pc}
    1d24:	04000000 	streq	r0, [r0], #-0
    1d28:	00c90704 	sbceq	r0, r9, r4, lsl #14
    1d2c:	01040000 	mrseq	r0, (UNDEF: 4)
    1d30:	00005d06 	andeq	r5, r0, r6, lsl #26
    1d34:	05020400 	streq	r0, [r2, #-1024]	; 0xfffffc00
    1d38:	00000180 	andeq	r0, r0, r0, lsl #3
    1d3c:	64050404 	strvs	r0, [r5], #-1028	; 0xfffffbfc
    1d40:	04000001 	streq	r0, [r0], #-1
    1d44:	015f0508 	cmpeq	pc, r8, lsl #10
    1d48:	01040000 	mrseq	r0, (UNDEF: 4)
    1d4c:	00005b08 	andeq	r5, r0, r8, lsl #22
    1d50:	07020400 	streq	r0, [r2, -r0, lsl #8]
    1d54:	00000076 	andeq	r0, r0, r6, ror r0
    1d58:	c4070404 	strgt	r0, [r7], #-1028	; 0xfffffbfc
    1d5c:	04000000 	streq	r0, [r0], #-0
    1d60:	00bf0708 	adcseq	r0, pc, r8, lsl #14
    1d64:	25050000 	strcs	r0, [r5, #-0]
    1d68:	86000000 	strhi	r0, [r0], -r0
    1d6c:	06000000 	streq	r0, [r0], -r0
    1d70:	00000025 	andeq	r0, r0, r5, lsr #32
    1d74:	016d0700 	cmneq	sp, r0, lsl #14
    1d78:	1c020000 	stcne	0, cr0, [r2], {-0}
    1d7c:	0000920e 	andeq	r9, r0, lr, lsl #4
    1d80:	77040800 	strvc	r0, [r4, -r0, lsl #16]
    1d84:	05000000 	streq	r0, [r0, #-0]
    1d88:	00000025 	andeq	r0, r0, r5, lsr #32
    1d8c:	000000a7 	andeq	r0, r0, r7, lsr #1
    1d90:	0000a706 	andeq	sl, r0, r6, lsl #14
    1d94:	04080000 	streq	r0, [r8], #-0
    1d98:	000000b4 	strheq	r0, [r0], -r4
    1d9c:	64080104 	strvs	r0, [r8], #-260	; 0xfffffefc
    1da0:	09000000 	stmdbeq	r0, {}	; <UNPREDICTABLE>
    1da4:	000000ad 	andeq	r0, r0, sp, lsr #1
    1da8:	0006ac07 	andeq	sl, r6, r7, lsl #24
    1dac:	0e210200 	cdpeq	2, 2, cr0, cr1, cr0, {0}
    1db0:	000000c5 	andeq	r0, r0, r5, asr #1
    1db4:	00980408 	addseq	r0, r8, r8, lsl #8
    1db8:	9b0a0000 	blls	281dc0 <__bss_end__+0x277358>
    1dbc:	01000000 	mrseq	r0, (UNDEF: 0)
    1dc0:	01350704 	teqeq	r5, r4, lsl #14
    1dc4:	8cb00000 	ldchi	0, cr0, [r0]
    1dc8:	00180000 	andseq	r0, r8, r0
    1dcc:	9c010000 	stcls	0, cr0, [r1], {-0}
    1dd0:	00000135 	andeq	r0, r0, r5, lsr r1
    1dd4:	00705f0b 	rsbseq	r5, r0, fp, lsl #30
    1dd8:	35140401 	ldrcc	r0, [r4, #-1025]	; 0xfffffbff
    1ddc:	01000001 	tsteq	r0, r1
    1de0:	00630b50 	rsbeq	r0, r3, r0, asr fp
    1de4:	251c0401 	ldrcs	r0, [ip, #-1025]	; 0xfffffbff
    1de8:	01000000 	mrseq	r0, (UNDEF: 0)
    1dec:	006e0c51 	rsbeq	r0, lr, r1, asr ip
    1df0:	2c260401 	cfstrscs	mvf0, [r6], #-4
    1df4:	00000000 	andeq	r0, r0, r0
    1df8:	fc00000b 	stc2	0, cr0, [r0], {11}
    1dfc:	0d00000a 	stceq	0, cr0, [r0, #-40]	; 0xffffffd8
    1e00:	05010070 	streq	r0, [r1, #-112]	; 0xffffff90
    1e04:	0001370b 	andeq	r3, r1, fp, lsl #14
    1e08:	000b2900 	andeq	r2, fp, r0, lsl #18
    1e0c:	000b2100 	andeq	r2, fp, r0, lsl #2
    1e10:	00650d00 	rsbeq	r0, r5, r0, lsl #26
    1e14:	37140501 	ldrcc	r0, [r4, -r1, lsl #10]
    1e18:	61000001 	tstvs	r0, r1
    1e1c:	5f00000b 	svcpl	0x0000000b
    1e20:	0000000b 	andeq	r0, r0, fp
    1e24:	0408040e 	streq	r0, [r8], #-1038	; 0xfffffbf2
    1e28:	000000ad 	andeq	r0, r0, sp, lsr #1
    1e2c:	00019d00 	andeq	r9, r1, r0, lsl #26
    1e30:	68000400 	stmdavs	r0, {sl}
    1e34:	04000009 	streq	r0, [r0], #-9
    1e38:	00053d01 	andeq	r3, r5, r1, lsl #26
    1e3c:	06930c00 	ldreq	r0, [r3], r0, lsl #24
    1e40:	061e0000 	ldreq	r0, [lr], -r0
    1e44:	8cc80000 	stclhi	0, cr0, [r8], {0}
    1e48:	00580000 	subseq	r0, r8, r0
    1e4c:	0f400000 	svceq	0x00400000
    1e50:	75020000 	strvc	r0, [r2, #-0]
    1e54:	02000006 	andeq	r0, r0, #6, 0
    1e58:	00311b28 	eorseq	r1, r1, r8, lsr #22
    1e5c:	84030000 	strhi	r0, [r3], #-0
    1e60:	04000006 	streq	r0, [r0], #-6
    1e64:	00480004 	subeq	r0, r8, r4
    1e68:	8e040000 	cdphi	0, 0, cr0, cr4, cr0, {0}
    1e6c:	48000006 	stmdami	r0, {r1, r2}
    1e70:	00000000 	andeq	r0, r0, r0
    1e74:	02040500 	andeq	r0, r4, #0, 10
    1e78:	00000686 	andeq	r0, r0, r6, lsl #13
    1e7c:	25186302 	ldrcs	r6, [r8, #-770]	; 0xfffffcfe
    1e80:	06000000 	streq	r0, [r0], -r0
    1e84:	6e690504 	cdpvs	5, 6, cr0, cr9, cr4, {0}
    1e88:	04070074 	streq	r0, [r7], #-116	; 0xffffff8c
    1e8c:	0000c907 	andeq	ip, r0, r7, lsl #18
    1e90:	06010700 	streq	r0, [r1], -r0, lsl #14
    1e94:	0000005d 	andeq	r0, r0, sp, asr r0
    1e98:	80050207 	andhi	r0, r5, r7, lsl #4
    1e9c:	07000001 	streq	r0, [r0, -r1]
    1ea0:	01640504 	cmneq	r4, r4, lsl #10
    1ea4:	08070000 	stmdaeq	r7, {}	; <UNPREDICTABLE>
    1ea8:	00015f05 	andeq	r5, r1, r5, lsl #30
    1eac:	08010700 	stmdaeq	r1, {r8, r9, sl}
    1eb0:	0000005b 	andeq	r0, r0, fp, asr r0
    1eb4:	76070207 	strvc	r0, [r7], -r7, lsl #4
    1eb8:	07000000 	streq	r0, [r0, -r0]
    1ebc:	00c40704 	sbceq	r0, r4, r4, lsl #14
    1ec0:	08070000 	stmdaeq	r7, {}	; <UNPREDICTABLE>
    1ec4:	0000bf07 	andeq	fp, r0, r7, lsl #30
    1ec8:	00560800 	subseq	r0, r6, r0, lsl #16
    1ecc:	00ab0000 	adceq	r0, fp, r0
    1ed0:	56090000 	strpl	r0, [r9], -r0
    1ed4:	00000000 	andeq	r0, r0, r0
    1ed8:	00016d0a 	andeq	r6, r1, sl, lsl #26
    1edc:	0e1c0300 	cdpeq	3, 1, cr0, cr12, cr0, {0}
    1ee0:	000000b7 	strheq	r0, [r0], -r7
    1ee4:	009c040b 	addseq	r0, ip, fp, lsl #8
    1ee8:	56080000 	strpl	r0, [r8], -r0
    1eec:	cc000000 	stcgt	0, cr0, [r0], {-0}
    1ef0:	09000000 	stmdbeq	r0, {}	; <UNPREDICTABLE>
    1ef4:	000000cc 	andeq	r0, r0, ip, asr #1
    1ef8:	d9040b00 	stmdble	r4, {r8, r9, fp}
    1efc:	07000000 	streq	r0, [r0, -r0]
    1f00:	00640801 	rsbeq	r0, r4, r1, lsl #16
    1f04:	d20c0000 	andle	r0, ip, #0, 0
    1f08:	0a000000 	beq	1f10 <__code_start__-0x60f0>
    1f0c:	000006ac 	andeq	r0, r0, ip, lsr #13
    1f10:	ea0e2103 	b	38a324 <__bss_end__+0x37f8bc>
    1f14:	0b000000 	bleq	1f1c <__code_start__-0x60e4>
    1f18:	0000bd04 	andeq	fp, r0, r4, lsl #26
    1f1c:	066e0d00 	strbteq	r0, [lr], -r0, lsl #26
    1f20:	06010000 	streq	r0, [r1], -r0
    1f24:	00005605 	andeq	r5, r0, r5, lsl #12
    1f28:	008cc800 	addeq	ip, ip, r0, lsl #16
    1f2c:	00005800 	andeq	r5, r0, r0, lsl #16
    1f30:	839c0100 	orrshi	r0, ip, #0
    1f34:	0e000001 	cdpeq	0, 0, cr0, cr0, cr1, {0}
    1f38:	00746d66 	rsbseq	r6, r4, r6, ror #26
    1f3c:	cc180601 	ldcgt	6, cr0, [r8], {1}
    1f40:	02000000 	andeq	r0, r0, #0, 0
    1f44:	100f7091 	mulne	pc, r1, r0	; <UNPREDICTABLE>
    1f48:	00667562 	rsbeq	r7, r6, r2, ror #10
    1f4c:	83110801 	tsthi	r1, #65536	; 0x10000
    1f50:	05000001 	streq	r0, [r0, #-1]
    1f54:	00a66003 	adceq	r6, r6, r3
    1f58:	06661100 	strbteq	r1, [r6], -r0, lsl #2
    1f5c:	09010000 	stmdbeq	r1, {}	; <UNPREDICTABLE>
    1f60:	00004a0d 	andeq	r4, r0, sp, lsl #20
    1f64:	5c910200 	lfmpl	f0, 4, [r1], {0}
    1f68:	007a7312 	rsbseq	r7, sl, r2, lsl r3
    1f6c:	560d0c01 	strpl	r0, [sp], -r1, lsl #24
    1f70:	7a000000 	bvc	1f78 <__code_start__-0x6088>
    1f74:	7400000b 	strvc	r0, [r0], #-11
    1f78:	1300000b 	movwne	r0, #11
    1f7c:	00008cf0 	strdeq	r8, [r0], -r0
    1f80:	00000194 	muleq	r0, r4, r1
    1f84:	00000176 	andeq	r0, r0, r6, ror r1
    1f88:	02500114 	subseq	r0, r0, #5
    1f8c:	01140075 	tsteq	r4, r5, ror r0
    1f90:	000a0351 	andeq	r0, sl, r1, asr r3
    1f94:	52011404 	andpl	r1, r1, #4, 8	; 0x4000000
    1f98:	06489103 	strbeq	r9, [r8], -r3, lsl #2
    1f9c:	02530114 	subseq	r0, r3, #5
    1fa0:	15004c91 	strne	r4, [r0, #-3217]	; 0xfffff36f
    1fa4:	00008d04 	andeq	r8, r0, r4, lsl #26
    1fa8:	02500114 	subseq	r0, r0, #5
    1fac:	00000075 	andeq	r0, r0, r5, ror r0
    1fb0:	0000d216 	andeq	sp, r0, r6, lsl r2
    1fb4:	00019400 	andeq	r9, r1, r0, lsl #8
    1fb8:	005d1700 	subseq	r1, sp, r0, lsl #14
    1fbc:	03ff0000 	mvnseq	r0, #0, 0
    1fc0:	066b1800 	strbteq	r1, [fp], -r0, lsl #16
    1fc4:	066b0000 	strbteq	r0, [fp], -r0
    1fc8:	02050000 	andeq	r0, r5, #0, 0
    1fcc:	00f30005 	rscseq	r0, r3, r5
    1fd0:	00040000 	andeq	r0, r4, r0
    1fd4:	00000aaa 	andeq	r0, r0, sl, lsr #21
    1fd8:	053d0104 	ldreq	r0, [sp, #-260]!	; 0xfffffefc
    1fdc:	b10c0000 	mrslt	r0, (UNDEF: 12)
    1fe0:	1e000006 	cdpne	0, 0, cr0, cr0, cr6, {0}
    1fe4:	20000006 	andcs	r0, r0, r6
    1fe8:	3400008d 	strcc	r0, [r0], #-141	; 0xffffff73
    1fec:	77000000 	strvc	r0, [r0, -r0]
    1ff0:	02000010 	andeq	r0, r0, #16, 0
    1ff4:	6e690504 	cdpvs	5, 6, cr0, cr9, cr4, {0}
    1ff8:	04030074 	streq	r0, [r3], #-116	; 0xffffff8c
    1ffc:	0000c907 	andeq	ip, r0, r7, lsl #18
    2000:	06010300 	streq	r0, [r1], -r0, lsl #6
    2004:	0000005d 	andeq	r0, r0, sp, asr r0
    2008:	80050203 	andhi	r0, r5, r3, lsl #4
    200c:	03000001 	movweq	r0, #1
    2010:	01640504 	cmneq	r4, r4, lsl #10
    2014:	08030000 	stmdaeq	r3, {}	; <UNPREDICTABLE>
    2018:	00015f05 	andeq	r5, r1, r5, lsl #30
    201c:	08010300 	stmdaeq	r1, {r8, r9}
    2020:	0000005b 	andeq	r0, r0, fp, asr r0
    2024:	76070203 	strvc	r0, [r7], -r3, lsl #4
    2028:	03000000 	movweq	r0, #0
    202c:	00c40704 	sbceq	r0, r4, r4, lsl #14
    2030:	08030000 	stmdaeq	r3, {}	; <UNPREDICTABLE>
    2034:	0000bf07 	andeq	fp, r0, r7, lsl #30
    2038:	00250400 	eoreq	r0, r5, r0, lsl #8
    203c:	007a0000 	rsbseq	r0, sl, r0
    2040:	25050000 	strcs	r0, [r5, #-0]
    2044:	00000000 	andeq	r0, r0, r0
    2048:	00016d06 	andeq	r6, r1, r6, lsl #26
    204c:	0e1c0200 	cdpeq	2, 1, cr0, cr12, cr0, {0}
    2050:	00000086 	andeq	r0, r0, r6, lsl #1
    2054:	006b0407 	rsbeq	r0, fp, r7, lsl #8
    2058:	25040000 	strcs	r0, [r4, #-0]
    205c:	9b000000 	blls	2064 <__code_start__-0x5f9c>
    2060:	05000000 	streq	r0, [r0, #-0]
    2064:	0000009b 	muleq	r0, fp, r0
    2068:	a8040700 	stmdage	r4, {r8, r9, sl}
    206c:	03000000 	movweq	r0, #0
    2070:	00640801 	rsbeq	r0, r4, r1, lsl #16
    2074:	a1080000 	mrsge	r0, (UNDEF: 8)
    2078:	06000000 	streq	r0, [r0], -r0
    207c:	000006ac 	andeq	r0, r0, ip, lsr #13
    2080:	b90e2102 	stmdblt	lr, {r1, r8, sp}
    2084:	07000000 	streq	r0, [r0, -r0]
    2088:	00008c04 	andeq	r8, r0, r4, lsl #24
    208c:	00ad0900 	adceq	r0, sp, r0, lsl #18
    2090:	0c010000 	stceq	0, cr0, [r1], {-0}
    2094:	20030507 	andcs	r0, r3, r7, lsl #10
    2098:	0a0000a6 	beq	2338 <__code_start__-0x5cc8>
    209c:	000006a3 	andeq	r0, r0, r3, lsr #13
    20a0:	25050401 	strcs	r0, [r5, #-1025]	; 0xfffffbff
    20a4:	20000000 	andcs	r0, r0, r0
    20a8:	3400008d 	strcc	r0, [r0], #-141	; 0xffffff73
    20ac:	01000000 	mrseq	r0, (UNDEF: 0)
    20b0:	00700b9c 			; <UNDEFINED> instruction: 0x00700b9c
    20b4:	9b1f0401 	blls	7c30c0 <__bss_end__+0x7b8658>
    20b8:	a7000000 	strge	r0, [r0, -r0]
    20bc:	a300000b 	movwge	r0, #11
    20c0:	0000000b 	andeq	r0, r0, fp
    20c4:	000ad700 	andeq	sp, sl, r0, lsl #14
    20c8:	48000400 	stmdami	r0, {sl}
    20cc:	0400000b 	streq	r0, [r0], #-11
    20d0:	00053d01 	andeq	r3, r5, r1, lsl #26
    20d4:	06d00c00 	ldrbeq	r0, [r0], r0, lsl #24
    20d8:	061e0000 	ldreq	r0, [lr], -r0
    20dc:	8d540000 	ldclhi	0, cr0, [r4, #-0]
    20e0:	07400000 	strbeq	r0, [r0, -r0]
    20e4:	11460000 	mrsne	r0, (UNDEF: 70)
    20e8:	04020000 	streq	r0, [r2], #-0
    20ec:	746e6905 	strbtvc	r6, [lr], #-2309	; 0xfffff6fb
    20f0:	07040300 	streq	r0, [r4, -r0, lsl #6]
    20f4:	000000c9 	andeq	r0, r0, r9, asr #1
    20f8:	5d060103 	stfpls	f0, [r6, #-12]
    20fc:	03000000 	movweq	r0, #0
    2100:	01800502 	orreq	r0, r0, r2, lsl #10
    2104:	04030000 	streq	r0, [r3], #-0
    2108:	00016405 	andeq	r6, r1, r5, lsl #8
    210c:	05080300 	streq	r0, [r8, #-768]	; 0xfffffd00
    2110:	0000015f 	andeq	r0, r0, pc, asr r1
    2114:	5b080103 	blpl	202528 <__bss_end__+0x1f7ac0>
    2118:	03000000 	movweq	r0, #0
    211c:	00760702 	rsbseq	r0, r6, r2, lsl #14
    2120:	9d040000 	stcls	0, cr0, [r4, #-0]
    2124:	02000001 	andeq	r0, r0, #1, 0
    2128:	00691934 	rsbeq	r1, r9, r4, lsr r9
    212c:	04030000 	streq	r0, [r3], #-0
    2130:	0000c407 	andeq	ip, r0, r7, lsl #8
    2134:	06c70400 	strbeq	r0, [r7], r0, lsl #8
    2138:	37020000 	strcc	r0, [r2, -r0]
    213c:	00007c19 	andeq	r7, r0, r9, lsl ip
    2140:	07080300 	streq	r0, [r8, -r0, lsl #6]
    2144:	000000bf 	strheq	r0, [r0], -pc	; <UNPREDICTABLE>
    2148:	00002505 	andeq	r2, r0, r5, lsl #10
    214c:	00009200 	andeq	r9, r0, r0, lsl #4
    2150:	00250600 	eoreq	r0, r5, r0, lsl #12
    2154:	07000000 	streq	r0, [r0, -r0]
    2158:	0000016d 	andeq	r0, r0, sp, ror #2
    215c:	9e0e1c03 	cdpls	12, 0, cr1, cr14, cr3, {0}
    2160:	08000000 	stmdaeq	r0, {}	; <UNPREDICTABLE>
    2164:	00008304 	andeq	r8, r0, r4, lsl #6
    2168:	00250500 	eoreq	r0, r5, r0, lsl #10
    216c:	00b30000 	adcseq	r0, r3, r0
    2170:	b3060000 	movwlt	r0, #24576	; 0x6000
    2174:	00000000 	andeq	r0, r0, r0
    2178:	00c00408 	sbceq	r0, r0, r8, lsl #8
    217c:	01030000 	mrseq	r0, (UNDEF: 3)
    2180:	00006408 	andeq	r6, r0, r8, lsl #8
    2184:	00b90900 	adcseq	r0, r9, r0, lsl #18
    2188:	ac070000 	stcge	0, cr0, [r7], {-0}
    218c:	03000006 	movweq	r0, #6
    2190:	00d10e21 	sbcseq	r0, r1, r1, lsr #28
    2194:	04080000 	streq	r0, [r8], #-0
    2198:	000000a4 	andeq	r0, r0, r4, lsr #1
    219c:	0006e307 	andeq	lr, r6, r7, lsl #6
    21a0:	0d0b0400 	cfstrseq	mvf0, [fp, #-0]
    21a4:	000000b9 	strheq	r0, [r0], -r9
    21a8:	00073507 	andeq	r3, r7, r7, lsl #10
    21ac:	0d0c0400 	cfstrseq	mvf0, [ip, #-0]
    21b0:	000000b9 	strheq	r0, [r0], -r9
    21b4:	0003a707 	andeq	sl, r3, r7, lsl #14
    21b8:	0d0d0400 	cfstrseq	mvf0, [sp, #-0]
    21bc:	000000b9 	strheq	r0, [r0], -r9
    21c0:	00048107 	andeq	r8, r4, r7, lsl #2
    21c4:	0d0e0400 	cfstrseq	mvf0, [lr, #-0]
    21c8:	000000b9 	strheq	r0, [r0], -r9
    21cc:	0004b707 	andeq	fp, r4, r7, lsl #14
    21d0:	0d0f0400 	cfstrseq	mvf0, [pc, #-0]	; 21d8 <__code_start__-0x5e28>
    21d4:	000000b9 	strheq	r0, [r0], -r9
    21d8:	00040907 	andeq	r0, r4, r7, lsl #18
    21dc:	0d100400 	cfldrseq	mvf0, [r0, #-0]
    21e0:	000000b9 	strheq	r0, [r0], -r9
    21e4:	00076507 	andeq	r6, r7, r7, lsl #10
    21e8:	0d110400 	cfldrseq	mvf0, [r1, #-0]
    21ec:	000000b9 	strheq	r0, [r0], -r9
    21f0:	00070007 	andeq	r0, r7, r7
    21f4:	0d120400 	cfldrseq	mvf0, [r2, #-0]
    21f8:	000000b9 	strheq	r0, [r0], -r9
    21fc:	00067504 	andeq	r7, r6, r4, lsl #10
    2200:	1b280500 	blne	a03608 <__bss_end__+0x9f8ba0>
    2204:	00000143 	andeq	r0, r0, r3, asr #2
    2208:	0006840a 	andeq	r8, r6, sl, lsl #8
    220c:	00060400 	andeq	r0, r6, r0, lsl #8
    2210:	0000015a 	andeq	r0, r0, sl, asr r1
    2214:	00068e0b 	andeq	r8, r6, fp, lsl #28
    2218:	00015a00 	andeq	r5, r1, r0, lsl #20
    221c:	0c000000 	stceq	0, cr0, [r0], {-0}
    2220:	06860404 	streq	r0, [r6], r4, lsl #8
    2224:	63050000 	movwvs	r0, #20480	; 0x5000
    2228:	00013718 	andeq	r3, r1, r8, lsl r7
    222c:	066b0d00 	strbteq	r0, [fp], -r0, lsl #26
    2230:	81010000 	mrshi	r0, (UNDEF: 1)
    2234:	00002505 	andeq	r2, r0, r5, lsl #10
    2238:	008fdc00 	addeq	sp, pc, r0, lsl #24
    223c:	0004b800 	andeq	fp, r4, r0, lsl #16
    2240:	179c0100 	ldrne	r0, [ip, r0, lsl #2]
    2244:	0e000007 	cdpeq	0, 0, cr0, cr0, cr7, {0}
    2248:	00667562 	rsbeq	r7, r6, r2, ror #10
    224c:	17158101 	ldrne	r8, [r5, -r1, lsl #2]
    2250:	cb000007 	blgt	2274 <__code_start__-0x5d8c>
    2254:	c500000b 	strgt	r0, [r0, #-11]
    2258:	0e00000b 	cdpeq	0, 0, cr0, cr0, cr11, {0}
    225c:	8101006e 	tsthi	r1, lr, rrx
    2260:	0000251e 	andeq	r2, r0, lr, lsl r5
    2264:	000bfd00 	andeq	pc, fp, r0, lsl #26
    2268:	000bf700 	andeq	pc, fp, r0, lsl #14
    226c:	6d660e00 	stclvs	14, cr0, [r6, #-0]
    2270:	81010074 	tsthi	r1, r4, ror r0
    2274:	0000b32d 	andeq	fp, r0, sp, lsr #6
    2278:	000c3700 	andeq	r3, ip, r0, lsl #14
    227c:	000c2b00 	andeq	r2, ip, r0, lsl #22
    2280:	06660f00 	strbteq	r0, [r6], -r0, lsl #30
    2284:	81010000 	mrshi	r0, (UNDEF: 1)
    2288:	00015c3a 	andeq	r5, r1, sl, lsr ip
    228c:	d4910300 	ldrle	r0, [r1], #768	; 0x300
    2290:	0070107d 	rsbseq	r1, r0, sp, ror r0
    2294:	17088201 	strne	r8, [r8, -r1, lsl #4]
    2298:	95000007 	strls	r0, [r0, #-7]
    229c:	8100000c 	tsthi	r0, ip
    22a0:	1000000c 	andne	r0, r0, ip
    22a4:	82010065 	andhi	r0, r1, #101, 0	; 0x65
    22a8:	00071712 	andeq	r1, r7, r2, lsl r7
    22ac:	000d1700 	andeq	r1, sp, r0, lsl #14
    22b0:	000d1300 	andeq	r1, sp, r0, lsl #6
    22b4:	30781000 	rsbscc	r1, r8, r0
    22b8:	0e830100 	rmfeqs	f0, f3, f0
    22bc:	0000005d 	andeq	r0, r0, sp, asr r0
    22c0:	00000d44 	andeq	r0, r0, r4, asr #26
    22c4:	00000d3e 	andeq	r0, r0, lr, lsr sp
    22c8:	00317810 	eorseq	r7, r1, r0, lsl r8
    22cc:	5d118301 	ldcpl	3, cr8, [r1, #-4]
    22d0:	71000000 	mrsvc	r0, (UNDEF: 0)
    22d4:	6d00000d 	stcvs	0, cr0, [r0, #-52]	; 0xffffffcc
    22d8:	1100000d 	tstne	r0, sp
    22dc:	0000071e 	andeq	r0, r0, lr, lsl r7
    22e0:	b3118601 	tstlt	r1, #1048576	; 0x100000
    22e4:	93000000 	movwls	r0, #0
    22e8:	8f00000d 	svchi	0x0000000d
    22ec:	1200000d 	andne	r0, r0, #13, 0
    22f0:	000000a7 	andeq	r0, r0, r7, lsr #1
    22f4:	0000072d 	andeq	r0, r0, sp, lsr #14
    22f8:	a4080305 	strge	r0, [r8], #-773	; 0xfffffcfb
    22fc:	44130000 	ldrmi	r0, [r3], #-0
    2300:	00000090 	muleq	r0, r0, r0
    2304:	10000004 	andne	r0, r0, r4
    2308:	91010073 	tstls	r1, r3, ror r0
    230c:	0007170a 	andeq	r1, r7, sl, lsl #14
    2310:	000dc900 	andeq	ip, sp, r0, lsl #18
    2314:	000db300 	andeq	fp, sp, r0, lsl #6
    2318:	756e1400 	strbvc	r1, [lr, #-1024]!	; 0xfffffc00
    231c:	9101006d 	tstls	r1, sp, rrx
    2320:	0007320d 	andeq	r3, r7, sp, lsl #4
    2324:	d8910300 	ldmle	r1, {r8, r9}
    2328:	0772157d 			; <UNDEFINED> instruction: 0x0772157d
    232c:	91010000 	mrsls	r0, (UNDEF: 1)
    2330:	00073217 	andeq	r3, r7, r7, lsl r2
    2334:	d8910300 	ldmle	r1, {r8, r9}
    2338:	06f2117e 			; <UNDEFINED> instruction: 0x06f2117e
    233c:	92010000 	andls	r0, r1, #0, 0
    2340:	00002c0d 	andeq	r2, r0, sp, lsl #24
    2344:	000e5000 	andeq	r5, lr, r0
    2348:	000e4a00 	andeq	r4, lr, r0, lsl #20
    234c:	910c1600 	tstls	ip, r0, lsl #12
    2350:	01a40000 			; <UNDEFINED> instruction: 0x01a40000
    2354:	05390000 	ldreq	r0, [r9, #-0]!
    2358:	74100000 	ldrvc	r0, [r0], #-0
    235c:	9e010079 	mcrls	0, 0, r0, cr1, cr9, {3}
    2360:	0000b31d 	andeq	fp, r0, sp, lsl r3
    2364:	000e8400 	andeq	r8, lr, r0, lsl #8
    2368:	000e7a00 	andeq	r7, lr, r0, lsl #20
    236c:	78781700 	ldmdavc	r8!, {r8, r9, sl, ip}^
    2370:	1aa20100 	bne	fe882778 <__bss_end__+0xfe877d10>
    2374:	00000070 	andeq	r0, r0, r0, ror r0
    2378:	00911c18 	addseq	r1, r1, r8, lsl ip
    237c:	000a9200 	andeq	r9, sl, r0, lsl #4
    2380:	0002d500 	andeq	sp, r2, r0, lsl #10
    2384:	50011900 	andpl	r1, r1, r0, lsl #18
    2388:	19007602 	stmdbne	r0, {r1, r9, sl, ip, sp, lr}
    238c:	03055101 	movweq	r5, #20737	; 0x5101
    2390:	0000a2fc 	strdeq	sl, [r0], -ip
    2394:	01520119 	cmpeq	r2, r9, lsl r1
    2398:	34180033 	ldrcc	r0, [r8], #-51	; 0xffffffcd
    239c:	92000091 	andls	r0, r0, #145, 0	; 0x91
    23a0:	f700000a 			; <UNDEFINED> instruction: 0xf700000a
    23a4:	19000002 	stmdbne	r0, {r1}
    23a8:	76025001 	strvc	r5, [r2], -r1
    23ac:	51011900 	tstpl	r1, r0, lsl #18
    23b0:	a3000305 	movwge	r0, #773	; 0x305
    23b4:	01190000 	tsteq	r9, r0
    23b8:	00330152 	eorseq	r0, r3, r2, asr r1
    23bc:	00916818 	addseq	r6, r1, r8, lsl r8
    23c0:	000a9e00 	andeq	r9, sl, r0, lsl #28
    23c4:	00031400 	andeq	r1, r3, r0, lsl #8
    23c8:	50011900 	andpl	r1, r1, r0, lsl #18
    23cc:	a3040305 	movwge	r0, #17157	; 0x4305
    23d0:	01190000 	tsteq	r9, r0
    23d4:	00770251 	rsbseq	r0, r7, r1, asr r2
    23d8:	91741800 	cmnls	r4, r0, lsl #16
    23dc:	0a9e0000 	beq	fe7823e4 <__bss_end__+0xfe77797c>
    23e0:	03310000 	teqeq	r1, #0, 0
    23e4:	01190000 	tsteq	r9, r0
    23e8:	0c030550 	cfstr32eq	mvfx0, [r3], {80}	; 0x50
    23ec:	190000a3 	stmdbne	r0, {r0, r1, r5, r7}
    23f0:	7a025101 	bvc	967fc <__bss_end__+0x8bd94>
    23f4:	84180000 	ldrhi	r0, [r8], #-0
    23f8:	92000091 	andls	r0, r0, #145, 0	; 0x91
    23fc:	5300000a 	movwpl	r0, #10
    2400:	19000003 	stmdbne	r0, {r0, r1}
    2404:	76025001 	strvc	r5, [r2], -r1
    2408:	51011900 	tstpl	r1, r0, lsl #18
    240c:	a2fc0305 	rscsge	r0, ip, #335544320	; 0x14000000
    2410:	01190000 	tsteq	r9, r0
    2414:	00330152 	eorseq	r0, r3, r2, asr r1
    2418:	00919c18 	addseq	r9, r1, r8, lsl ip
    241c:	000a9200 	andeq	r9, sl, r0, lsl #4
    2420:	00037500 	andeq	r7, r3, r0, lsl #10
    2424:	50011900 	andpl	r1, r1, r0, lsl #18
    2428:	19007602 	stmdbne	r0, {r1, r9, sl, ip, sp, lr}
    242c:	03055101 	movweq	r5, #20737	; 0x5101
    2430:	0000a300 	andeq	sl, r0, r0, lsl #6
    2434:	01520119 	cmpeq	r2, r9, lsl r1
    2438:	c4180033 	ldrgt	r0, [r8], #-51	; 0xffffffcd
    243c:	42000091 	andmi	r0, r0, #145, 0	; 0x91
    2440:	a9000007 	stmdbge	r0, {r0, r1, r2}
    2444:	19000003 	stmdbne	r0, {r0, r1}
    2448:	3a015001 	bcc	56454 <__bss_end__+0x4b9ec>
    244c:	03510119 	cmpeq	r1, #1073741830	; 0x40000006
    2450:	197dd091 	ldmdbne	sp!, {r0, r4, r7, ip, lr, pc}^
    2454:	08025201 	stmdaeq	r2, {r0, r9, ip, lr}
    2458:	53011980 	movwpl	r1, #6528	; 0x1980
    245c:	19007702 	stmdbne	r0, {r1, r8, r9, sl, ip, sp, lr}
    2460:	02007d02 	andeq	r7, r0, #128	; 0x80
    2464:	02190075 	andseq	r0, r9, #117, 0	; 0x75
    2468:	7602047d 			; <UNDEFINED> instruction: 0x7602047d
    246c:	e4180000 	ldr	r0, [r8], #-0
    2470:	42000091 	andmi	r0, r0, #145, 0	; 0x91
    2474:	dd000007 	stcle	0, cr0, [r0, #-28]	; 0xffffffe4
    2478:	19000003 	stmdbne	r0, {r0, r1}
    247c:	3a015001 	bcc	56488 <__bss_end__+0x4ba20>
    2480:	03510119 	cmpeq	r1, #1073741830	; 0x40000006
    2484:	197ed091 	ldmdbne	lr!, {r0, r4, r7, ip, lr, pc}^
    2488:	08025201 	stmdaeq	r2, {r0, r9, ip, lr}
    248c:	53011980 	movwpl	r1, #6528	; 0x1980
    2490:	19007a02 	stmdbne	r0, {r1, r9, fp, ip, sp, lr}
    2494:	02007d02 	andeq	r7, r0, #128	; 0x80
    2498:	02190075 	andseq	r0, r9, #117, 0	; 0x75
    249c:	7602047d 			; <UNDEFINED> instruction: 0x7602047d
    24a0:	f0180000 			; <UNDEFINED> instruction: 0xf0180000
    24a4:	aa000091 	bge	26f0 <__code_start__-0x5910>
    24a8:	fb00000a 	blx	24da <__code_start__-0x5b26>
    24ac:	19000003 	stmdbne	r0, {r0, r1}
    24b0:	91035001 	tstls	r3, r1
    24b4:	01197dd0 			; <UNDEFINED> instruction: 0x01197dd0
    24b8:	64030551 	strvs	r0, [r3], #-1361	; 0xfffffaaf
    24bc:	000000a1 	andeq	r0, r0, r1, lsr #1
    24c0:	00920418 	addseq	r0, r2, r8, lsl r4
    24c4:	000ab600 	andeq	fp, sl, r0, lsl #12
    24c8:	00041700 	andeq	r1, r4, r0, lsl #14
    24cc:	50011900 	andpl	r1, r1, r0, lsl #18
    24d0:	7dd09103 	ldfvcp	f1, [r0, #12]
    24d4:	03510119 	cmpeq	r1, #1073741830	; 0x40000006
    24d8:	007ed091 			; <UNDEFINED> instruction: 0x007ed091
    24dc:	00922818 	addseq	r2, r2, r8, lsl r8
    24e0:	000a9e00 	andeq	r9, sl, r0, lsl #28
    24e4:	00045000 	andeq	r5, r4, r0
    24e8:	50011900 	andpl	r1, r1, r0, lsl #18
    24ec:	9e680305 	cdpls	3, 6, cr0, cr8, cr5, {0}
    24f0:	01190000 	tsteq	r9, r0
    24f4:	b0030551 	andlt	r0, r3, r1, asr r5
    24f8:	190000a2 	stmdbne	r0, {r1, r5, r7}
    24fc:	03055201 	movweq	r5, #20993	; 0x5201
    2500:	0000a408 	andeq	sl, r0, r8, lsl #8
    2504:	02530119 	subseq	r0, r3, #1073741830	; 0x40000006
    2508:	02199f08 	andseq	r9, r9, #8, 30
    250c:	0305007d 	movweq	r0, #20605	; 0x507d
    2510:	0000a314 	andeq	sl, r0, r4, lsl r3
    2514:	922c1a00 	eorls	r1, ip, #0, 20
    2518:	0ac20000 	beq	ff082520 <__bss_end__+0xff077ab8>
    251c:	4c180000 	ldcmi	0, cr0, [r8], {-0}
    2520:	42000092 	andmi	r0, r0, #146, 0	; 0x92
    2524:	8d000007 	stchi	0, cr0, [r0, #-28]	; 0xffffffe4
    2528:	19000004 	stmdbne	r0, {r2}
    252c:	40015001 	andmi	r5, r1, r1
    2530:	03510119 	cmpeq	r1, #1073741830	; 0x40000006
    2534:	197dd091 	ldmdbne	sp!, {r0, r4, r7, ip, lr, pc}^
    2538:	08025201 	stmdaeq	r2, {r0, r9, ip, lr}
    253c:	53011980 	movwpl	r1, #6528	; 0x1980
    2540:	19007702 	stmdbne	r0, {r1, r8, r9, sl, ip, sp, lr}
    2544:	02007d02 	andeq	r7, r0, #128	; 0x80
    2548:	02190075 	andseq	r0, r9, #117, 0	; 0x75
    254c:	7602047d 			; <UNDEFINED> instruction: 0x7602047d
    2550:	6c180000 	ldcvs	0, cr0, [r8], {-0}
    2554:	42000092 	andmi	r0, r0, #146, 0	; 0x92
    2558:	c1000007 	tstgt	r0, r7
    255c:	19000004 	stmdbne	r0, {r2}
    2560:	40015001 	andmi	r5, r1, r1
    2564:	03510119 	cmpeq	r1, #1073741830	; 0x40000006
    2568:	197ed091 	ldmdbne	lr!, {r0, r4, r7, ip, lr, pc}^
    256c:	08025201 	stmdaeq	r2, {r0, r9, ip, lr}
    2570:	53011980 	movwpl	r1, #6528	; 0x1980
    2574:	19007a02 	stmdbne	r0, {r1, r9, fp, ip, sp, lr}
    2578:	02007d02 	andeq	r7, r0, #128	; 0x80
    257c:	02190075 	andseq	r0, r9, #117, 0	; 0x75
    2580:	7602047d 			; <UNDEFINED> instruction: 0x7602047d
    2584:	78180000 	ldmdavc	r8, {}	; <UNPREDICTABLE>
    2588:	ce000092 	mcrgt	0, 0, r0, cr0, cr2, {4}
    258c:	dd00000a 	stcle	0, cr0, [r0, #-40]	; 0xffffffd8
    2590:	19000004 	stmdbne	r0, {r2}
    2594:	91035001 	tstls	r3, r1
    2598:	01197dd0 			; <UNDEFINED> instruction: 0x01197dd0
    259c:	d2910351 	addsle	r0, r1, #1140850689	; 0x44000001
    25a0:	8c18007e 	ldchi	0, cr0, [r8], {126}	; 0x7e
    25a4:	ce000092 	mcrgt	0, 0, r0, cr0, cr2, {4}
    25a8:	f900000a 			; <UNDEFINED> instruction: 0xf900000a
    25ac:	19000004 	stmdbne	r0, {r2}
    25b0:	91035001 	tstls	r3, r1
    25b4:	01197dd0 			; <UNDEFINED> instruction: 0x01197dd0
    25b8:	d0910351 	addsle	r0, r1, r1, asr r3
    25bc:	ac18007e 	ldcge	0, cr0, [r8], {126}	; 0x7e
    25c0:	9e000092 	mcrls	0, 0, r0, cr0, cr2, {4}
    25c4:	2f00000a 	svccs	0x0000000a
    25c8:	19000005 	stmdbne	r0, {r0, r2}
    25cc:	03055001 	movweq	r5, #20481	; 0x5001
    25d0:	0000a350 	andeq	sl, r0, r0, asr r3
    25d4:	05510119 	ldrbeq	r0, [r1, #-281]	; 0xfffffee7
    25d8:	00a2b003 	adceq	fp, r2, r3
    25dc:	52011900 	andpl	r1, r1, #0, 18
    25e0:	a4080305 	strge	r0, [r8], #-773	; 0xfffffcfb
    25e4:	01190000 	tsteq	r9, r0
    25e8:	b6080253 			; <UNDEFINED> instruction: 0xb6080253
    25ec:	007d0219 	rsbseq	r0, sp, r9, lsl r2
    25f0:	00007602 	andeq	r7, r0, r2, lsl #12
    25f4:	0092b01a 	addseq	fp, r2, sl, lsl r0
    25f8:	000ac200 	andeq	ip, sl, r0, lsl #4
    25fc:	5c180000 	ldcpl	0, cr0, [r8], {-0}
    2600:	c0000090 	mulgt	r0, r0, r0
    2604:	4d000009 	stcmi	0, cr0, [r0, #-36]	; 0xffffffdc
    2608:	19000005 	stmdbne	r0, {r0, r2}
    260c:	77025001 	strvc	r5, [r2, -r1]
    2610:	08180000 	ldmdaeq	r8, {}	; <UNPREDICTABLE>
    2614:	9e000091 	mcrls	0, 0, r0, cr0, cr1, {4}
    2618:	8600000a 	strhi	r0, [r0], -sl
    261c:	19000005 	stmdbne	r0, {r0, r2}
    2620:	03055001 	movweq	r5, #20481	; 0x5001
    2624:	00009e68 	andeq	r9, r0, r8, ror #28
    2628:	05510119 	ldrbeq	r0, [r1, #-281]	; 0xfffffee7
    262c:	00a2b003 	adceq	fp, r2, r3
    2630:	52011900 	andpl	r1, r1, #0, 18
    2634:	a4080305 	strge	r0, [r8], #-773	; 0xfffffcfb
    2638:	01190000 	tsteq	r9, r0
    263c:	98080253 	stmdals	r8, {r0, r1, r4, r6, r9}
    2640:	007d0219 	rsbseq	r0, sp, r9, lsl r2
    2644:	a2f00305 	rscsge	r0, r0, #335544320	; 0x14000000
    2648:	1a000000 	bne	2650 <__code_start__-0x59b0>
    264c:	0000910c 	andeq	r9, r0, ip, lsl #2
    2650:	00000ac2 	andeq	r0, r0, r2, asr #21
    2654:	0092c418 	addseq	ip, r2, r8, lsl r4
    2658:	000a9e00 	andeq	r9, sl, r0, lsl #28
    265c:	0005be00 	andeq	fp, r5, r0, lsl #28
    2660:	50011900 	andpl	r1, r1, r0, lsl #18
    2664:	a3780305 	cmnge	r8, #335544320	; 0x14000000
    2668:	01190000 	tsteq	r9, r0
    266c:	b0030551 	andlt	r0, r3, r1, asr r5
    2670:	190000a2 	stmdbne	r0, {r1, r5, r7}
    2674:	03055201 	movweq	r5, #20993	; 0x5201
    2678:	0000a408 	andeq	sl, r0, r8, lsl #8
    267c:	02530119 	subseq	r0, r3, #1073741830	; 0x40000006
    2680:	1a00be08 	bne	31ea8 <__bss_end__+0x27440>
    2684:	000092c8 	andeq	r9, r0, r8, asr #5
    2688:	00000ac2 	andeq	r0, r0, r2, asr #21
    268c:	0092f418 	addseq	pc, r2, r8, lsl r4	; <UNPREDICTABLE>
    2690:	00074200 	andeq	r4, r7, r0, lsl #4
    2694:	0005f400 	andeq	pc, r5, r0, lsl #8
    2698:	50011900 	andpl	r1, r1, r0, lsl #18
    269c:	01193a01 	tsteq	r9, r1, lsl #20
    26a0:	d0910351 	addsle	r0, r1, r1, asr r3
    26a4:	5201197d 	andpl	r1, r1, #2048000	; 0x1f4000
    26a8:	19800802 	stmibne	r0, {r1, fp}
    26ac:	02007d02 	andeq	r7, r0, #128	; 0x80
    26b0:	02190075 	andseq	r0, r9, #117, 0	; 0x75
    26b4:	3101047d 	tstcc	r1, sp, ror r4
    26b8:	932c1800 			; <UNDEFINED> instruction: 0x932c1800
    26bc:	07420000 	strbeq	r0, [r2, -r0]
    26c0:	06210000 	strteq	r0, [r1], -r0
    26c4:	01190000 	tsteq	r9, r0
    26c8:	193a0150 	ldmdbne	sl!, {r4, r6, r8}
    26cc:	91035101 	tstls	r3, r1, lsl #2
    26d0:	01197dd0 			; <UNDEFINED> instruction: 0x01197dd0
    26d4:	80080252 	andhi	r0, r8, r2, asr r2
    26d8:	007d0219 	rsbseq	r0, sp, r9, lsl r2
    26dc:	19007502 	stmdbne	r0, {r1, r8, sl, ip, sp, lr}
    26e0:	01047d02 	tsteq	r4, r2, lsl #26
    26e4:	60180030 	andsvs	r0, r8, r0, lsr r0
    26e8:	42000093 	andmi	r0, r0, #147, 0	; 0x93
    26ec:	4e000007 	cdpmi	0, 0, cr0, cr0, cr7, {0}
    26f0:	19000006 	stmdbne	r0, {r1, r2}
    26f4:	40015001 	andmi	r5, r1, r1
    26f8:	03510119 	cmpeq	r1, #1073741830	; 0x40000006
    26fc:	197dd091 	ldmdbne	sp!, {r0, r4, r7, ip, lr, pc}^
    2700:	08025201 	stmdaeq	r2, {r0, r9, ip, lr}
    2704:	7d021980 	vstrvc.16	s2, [r2, #-256]	; 0xffffff00	; <UNPREDICTABLE>
    2708:	00750200 	rsbseq	r0, r5, r0, lsl #4
    270c:	047d0219 	ldrbteq	r0, [sp], #-537	; 0xfffffde7
    2710:	18003001 	stmdane	r0, {r0, ip, sp}
    2714:	00009394 	muleq	r0, r4, r3
    2718:	00000742 	andeq	r0, r0, r2, asr #14
    271c:	0000067b 	andeq	r0, r0, fp, ror r6
    2720:	01500119 	cmpeq	r0, r9, lsl r1
    2724:	51011932 	tstpl	r1, r2, lsr r9
    2728:	7dd09103 	ldfvcp	f1, [r0, #12]
    272c:	02520119 	subseq	r0, r2, #1073741830	; 0x40000006
    2730:	02198008 	andseq	r8, r9, #8, 0
    2734:	7502007d 	strvc	r0, [r2, #-125]	; 0xffffff83
    2738:	7d021900 	vstrvc.16	s2, [r2, #-0]	; <UNPREDICTABLE>
    273c:	00300104 	eorseq	r0, r0, r4, lsl #2
    2740:	0093dc18 	addseq	sp, r3, r8, lsl ip
    2744:	00074200 	andeq	r4, r7, r0, lsl #4
    2748:	0006a800 	andeq	sl, r6, r0, lsl #16
    274c:	50011900 	andpl	r1, r1, r0, lsl #18
    2750:	01193801 	tsteq	r9, r1, lsl #16
    2754:	d0910351 	addsle	r0, r1, r1, asr r3
    2758:	5201197d 	andpl	r1, r1, #2048000	; 0x1f4000
    275c:	19800802 	stmibne	r0, {r1, fp}
    2760:	02007d02 	andeq	r7, r0, #128	; 0x80
    2764:	02190075 	andseq	r0, r9, #117, 0	; 0x75
    2768:	3001047d 	andcc	r0, r1, sp, ror r4
    276c:	93fc1800 	mvnsls	r1, #0, 16
    2770:	0a9e0000 	beq	fe782778 <__bss_end__+0xfe777d10>
    2774:	06cb0000 	strbeq	r0, [fp], r0
    2778:	01190000 	tsteq	r9, r0
    277c:	a0030550 	andge	r0, r3, r0, asr r5
    2780:	190000a3 	stmdbne	r0, {r0, r1, r5, r7}
    2784:	7a025101 	bvc	96b90 <__bss_end__+0x8c128>
    2788:	52011900 	andpl	r1, r1, #0, 18
    278c:	00007a02 	andeq	r7, r0, r2, lsl #20
    2790:	00940c1b 	addseq	r0, r4, fp, lsl ip
    2794:	0006dd00 	andeq	sp, r6, r0, lsl #26
    2798:	50011900 	andpl	r1, r1, r0, lsl #18
    279c:	7dc89104 	stfvcp	f1, [r8, #16]
    27a0:	20180006 	andscs	r0, r8, r6
    27a4:	9e000094 	mcrls	0, 0, r0, cr0, cr4, {4}
    27a8:	0c00000a 	stceq	0, cr0, [r0], {10}
    27ac:	19000007 	stmdbne	r0, {r0, r1, r2}
    27b0:	03055001 	movweq	r5, #20481	; 0x5001
    27b4:	0000a3d0 	ldrdeq	sl, [r0], -r0
    27b8:	05510119 	ldrbeq	r0, [r1, #-281]	; 0xfffffee7
    27bc:	00a2b003 	adceq	fp, r2, r3
    27c0:	52011900 	andpl	r1, r1, #0, 18
    27c4:	a4080305 	strge	r0, [r8], #-773	; 0xfffffcfb
    27c8:	01190000 	tsteq	r9, r0
    27cc:	e2080253 	and	r0, r8, #805306373	; 0x30000005
    27d0:	94241a00 	strtls	r1, [r4], #-2560	; 0xfffff600
    27d4:	0ac20000 	beq	ff0827dc <__bss_end__+0xff077d74>
    27d8:	00000000 	andeq	r0, r0, r0
    27dc:	00b90408 	adcseq	r0, r9, r8, lsl #8
    27e0:	c01c0000 	andsgt	r0, ip, r0
    27e4:	2d000000 	stccs	0, cr0, [r0, #-0]
    27e8:	1d000007 	stcne	0, cr0, [r0, #-28]	; 0xffffffe4
    27ec:	0000002c 	andeq	r0, r0, ip, lsr #32
    27f0:	1d090009 	stcne	0, cr0, [r9, #-36]	; 0xffffffdc
    27f4:	1c000007 	stcne	0, cr0, [r0], {7}
    27f8:	000000b9 	strheq	r0, [r0], -r9
    27fc:	00000742 	andeq	r0, r0, r2, asr #14
    2800:	00002c1d 	andeq	r2, r0, sp, lsl ip
    2804:	1e007f00 	cdpne	15, 0, cr7, cr0, cr0, {0}
    2808:	00000742 	andeq	r0, r0, r2, asr #14
    280c:	17014901 	strne	r4, [r1, -r1, lsl #18]
    2810:	c4000007 	strgt	r0, [r0], #-7
    2814:	b400008d 	strlt	r0, [r0], #-141	; 0xffffff73
    2818:	01000001 	tsteq	r0, r1
    281c:	0008ab9c 	muleq	r8, ip, fp
    2820:	05201f00 	streq	r1, [r0, #-3840]!	; 0xfffff100
    2824:	49010000 	stmdbmi	r1, {}	; <UNPREDICTABLE>
    2828:	00002c0f 	andeq	r2, r0, pc, lsl #24
    282c:	000ecd00 	andeq	ip, lr, r0, lsl #26
    2830:	000ec700 	andeq	ip, lr, r0, lsl #14
    2834:	73640e00 	cmnvc	r4, #0, 28
    2838:	49010074 	stmdbmi	r1, {r2, r4, r5, r6}
    283c:	0007171b 	andeq	r1, r7, fp, lsl r7
    2840:	000f0b00 	andeq	r0, pc, r0, lsl #22
    2844:	000efb00 	andeq	pc, lr, r0, lsl #22
    2848:	006e0e00 	rsbeq	r0, lr, r0, lsl #28
    284c:	25244901 	strcs	r4, [r4, #-2305]!	; 0xfffff6ff
    2850:	6f000000 	svcvs	0x00000000
    2854:	6b00000f 	blvs	2898 <__code_start__-0x5768>
    2858:	0e00000f 	cdpeq	0, 0, cr0, cr0, cr15, {0}
    285c:	006c6176 	rsbeq	r6, ip, r6, ror r1
    2860:	252b4901 	strcs	r4, [fp, #-2305]!	; 0xfffff6ff
    2864:	99000000 	stmdbls	r0, {}	; <UNPREDICTABLE>
    2868:	8d00000f 	stchi	0, cr0, [r0, #-60]	; 0xffffffc4
    286c:	1f00000f 	svcne	0x0000000f
    2870:	000006f2 	strdeq	r0, [r0], -r2
    2874:	25344901 	ldrcs	r4, [r4, #-2305]!	; 0xfffff6ff
    2878:	ef000000 	svc	0x00000000
    287c:	e900000f 	stmdb	r0, {r0, r1, r2, r3}
    2880:	0f00000f 	svceq	0x0000000f
    2884:	0000077f 	andeq	r0, r0, pc, ror r7
    2888:	253f4901 	ldrcs	r4, [pc, #-2305]!	; 1f8f <__code_start__-0x6071>
    288c:	02000000 	andeq	r0, r0, #0, 0
    2890:	62140491 	andsvs	r0, r4, #-1862270976	; 0x91000000
    2894:	01006675 	tsteq	r0, r5, ror r6
    2898:	08ab074e 	stmiaeq	fp!, {r1, r2, r3, r6, r8, r9, sl}
    289c:	91030000 	mrsls	r0, (UNDEF: 3)
    28a0:	70107fa8 	andsvc	r7, r0, r8, lsr #31
    28a4:	114e0100 	mrsne	r0, (UNDEF: 94)
    28a8:	00000717 	andeq	r0, r0, r7, lsl r7
    28ac:	00001039 	andeq	r1, r0, r9, lsr r0
    28b0:	00001019 	andeq	r1, r0, r9, lsl r0
    28b4:	01007510 	tsteq	r0, r0, lsl r5
    28b8:	002c0b4f 	eoreq	r0, ip, pc, asr #22
    28bc:	111f0000 	tstne	pc, r0
    28c0:	110b0000 	mrsne	r0, (UNDEF: 11)
    28c4:	a7120000 	ldrge	r0, [r2, -r0]
    28c8:	cb000000 	blgt	28d0 <__code_start__-0x5730>
    28cc:	05000008 	streq	r0, [r0, #-8]
    28d0:	00a3f003 	adceq	pc, r3, r3
    28d4:	8e301600 	cfmsuba32hi	mvax0, mvax1, mvfx0, mvfx0
    28d8:	00780000 	rsbseq	r0, r8, r0
    28dc:	08320000 	ldmdaeq	r2!, {}	; <UNPREDICTABLE>
    28e0:	2f110000 	svccs	0x00110000
    28e4:	01000007 	tsteq	r0, r7
    28e8:	002c0d54 	eoreq	r0, ip, r4, asr sp
    28ec:	11a00000 	movne	r0, r0
    28f0:	11980000 	orrsne	r0, r8, r0
    28f4:	18000000 	stmdane	r0, {}	; <UNPREDICTABLE>
    28f8:	00008ee8 	andeq	r8, r0, r8, ror #29
    28fc:	0000095d 	andeq	r0, r0, sp, asr r9
    2900:	00000847 	andeq	r0, r0, r7, asr #16
    2904:	03510119 	cmpeq	r1, #1073741830	; 0x40000006
    2908:	007fa091 			; <UNDEFINED> instruction: 0x007fa091
    290c:	008efc18 	addeq	pc, lr, r8, lsl ip	; <UNPREDICTABLE>
    2910:	0008d000 	andeq	sp, r8, r0
    2914:	00086800 	andeq	r6, r8, r0, lsl #16
    2918:	50011900 	andpl	r1, r1, r0, lsl #18
    291c:	19007502 	stmdbne	r0, {r1, r8, sl, ip, sp, lr}
    2920:	74025101 	strvc	r5, [r2], #-257	; 0xfffffeff
    2924:	53011900 	movwpl	r1, #6400	; 0x1900
    2928:	7fa09103 	svcvc	0x00a09103
    292c:	8f541800 	svchi	0x00541800
    2930:	0a9e0000 	beq	fe782938 <__bss_end__+0xfe777ed0>
    2934:	08a10000 	stmiaeq	r1!, {}	; <UNPREDICTABLE>
    2938:	01190000 	tsteq	r9, r0
    293c:	68030550 	stmdavs	r3, {r4, r6, r8, sl}
    2940:	1900009e 	stmdbne	r0, {r1, r2, r3, r4, r7}
    2944:	03055101 	movweq	r5, #20737	; 0x5101
    2948:	0000a2b0 			; <UNDEFINED> instruction: 0x0000a2b0
    294c:	05520119 	ldrbeq	r0, [r2, #-281]	; 0xfffffee7
    2950:	00a3f003 	adceq	pc, r3, r3
    2954:	53011900 	movwpl	r1, #6400	; 0x1900
    2958:	19790802 	ldmdbne	r9!, {r1, fp}^
    295c:	05007d02 	streq	r7, [r0, #-3330]	; 0xfffff2fe
    2960:	00a16403 	adceq	r6, r1, r3, lsl #8
    2964:	581a0000 	ldmdapl	sl, {}	; <UNPREDICTABLE>
    2968:	c200008f 	andgt	r0, r0, #143, 0	; 0x8f
    296c:	0000000a 	andeq	r0, r0, sl
    2970:	0000b91c 	andeq	fp, r0, ip, lsl r9
    2974:	0008bb00 	andeq	fp, r8, r0, lsl #22
    2978:	002c1d00 	eoreq	r1, ip, r0, lsl #26
    297c:	003f0000 	eorseq	r0, pc, r0
    2980:	0000c01c 	andeq	ip, r0, ip, lsl r0
    2984:	0008cb00 	andeq	ip, r8, r0, lsl #22
    2988:	002c1d00 	eoreq	r1, ip, r0, lsl #26
    298c:	00040000 	andeq	r0, r4, r0
    2990:	0008bb09 	andeq	fp, r8, r9, lsl #22
    2994:	074f1e00 	strbeq	r1, [pc, -r0, lsl #28]
    2998:	38010000 	stmdacc	r1, {}	; <UNPREDICTABLE>
    299c:	0007170e 	andeq	r1, r7, lr, lsl #14
    29a0:	008d8c00 	addeq	r8, sp, r0, lsl #24
    29a4:	00003800 	andeq	r3, r0, r0, lsl #16
    29a8:	5d9c0100 	ldfpls	f0, [ip]
    29ac:	0e000009 	cdpeq	0, 0, cr0, cr0, cr9, {0}
    29b0:	00747364 	rsbseq	r7, r4, r4, ror #6
    29b4:	171c3801 	ldrne	r3, [ip, -r1, lsl #16]
    29b8:	e1000007 	tst	r0, r7
    29bc:	d7000011 	smladle	r0, r1, r0, r0
    29c0:	0e000011 	mcreq	0, 0, r0, cr0, cr1, {0}
    29c4:	3801006e 	stmdacc	r1, {r1, r2, r3, r5, r6}
    29c8:	00002525 	andeq	r2, r0, r5, lsr #10
    29cc:	00122800 	andseq	r2, r2, r0, lsl #16
    29d0:	00122400 	andseq	r2, r2, r0, lsl #8
    29d4:	00700e00 	rsbseq	r0, r0, r0, lsl #28
    29d8:	172e3801 	strne	r3, [lr, -r1, lsl #16]!
    29dc:	51000007 	tstpl	r0, r7
    29e0:	49000012 	stmdbmi	r0, {r1, r4}
    29e4:	1f000012 	svcne	0x00000012
    29e8:	00000389 	andeq	r0, r0, r9, lsl #7
    29ec:	17373801 	ldrne	r3, [r7, -r1, lsl #16]!
    29f0:	8b000007 	blhi	2a14 <__code_start__-0x55ec>
    29f4:	87000012 	smladhi	r0, r2, r0, r0
    29f8:	10000012 	andne	r0, r0, r2, lsl r0
    29fc:	006e656c 	rsbeq	r6, lr, ip, ror #10
    2a00:	25063a01 	strcs	r3, [r6, #-2561]	; 0xfffff5ff
    2a04:	b1000000 	mrslt	r0, (UNDEF: 0)
    2a08:	a9000012 	stmdbge	r0, {r1, r4}
    2a0c:	10000012 	andne	r0, r0, r2, lsl r0
    2a10:	3e010073 	mcrcc	0, 0, r0, cr1, cr3, {3}
    2a14:	00071708 	andeq	r1, r7, r8, lsl #14
    2a18:	0012ff00 	andseq	pc, r2, r0, lsl #30
    2a1c:	0012fd00 	andseq	pc, r2, r0, lsl #26
    2a20:	70200000 	eorvc	r0, r0, r0
    2a24:	01006461 	tsteq	r0, r1, ror #8
    2a28:	07170e2e 	ldreq	r0, [r7, -lr, lsr #28]
    2a2c:	8d680000 	stclhi	0, cr0, [r8, #-0]
    2a30:	00240000 	eoreq	r0, r4, r0
    2a34:	9c010000 	stcls	0, cr0, [r1], {-0}
    2a38:	000009c0 	andeq	r0, r0, r0, asr #19
    2a3c:	0100700e 	tsteq	r0, lr
    2a40:	0717182e 	ldreq	r1, [r7, -lr, lsr #16]
    2a44:	13180000 	tstne	r8, #0, 0
    2a48:	13120000 	tstne	r2, #0, 0
    2a4c:	201f0000 	andscs	r0, pc, r0
    2a50:	01000005 	tsteq	r0, r5
    2a54:	0717222e 	ldreq	r2, [r7, -lr, lsr #4]
    2a58:	13470000 	movtne	r0, #28672	; 0x7000
    2a5c:	13430000 	movtne	r0, #12288	; 0x3000
    2a60:	f20f0000 	vhadd.s8	d0, d15, d0
    2a64:	01000006 	tsteq	r0, r6
    2a68:	00252c2e 	eoreq	r2, r5, lr, lsr #24
    2a6c:	52010000 	andpl	r0, r1, #0, 0
    2a70:	6e656c10 	mcrvs	12, 3, r6, cr5, cr0, {0}
    2a74:	062f0100 	strteq	r0, [pc], -r0, lsl #2
    2a78:	00000025 	andeq	r0, r0, r5, lsr #32
    2a7c:	0000136a 	andeq	r1, r0, sl, ror #6
    2a80:	00001368 	andeq	r1, r0, r8, ror #6
    2a84:	06bf1e00 	ldrteq	r1, [pc], r0, lsl #28
    2a88:	27010000 	strcs	r0, [r1, -r0]
    2a8c:	0000250c 	andeq	r2, r0, ip, lsl #10
    2a90:	008d5400 	addeq	r5, sp, r0, lsl #8
    2a94:	00001400 	andeq	r1, r0, r0, lsl #8
    2a98:	ed9c0100 	ldfs	f0, [ip]
    2a9c:	0e000009 	cdpeq	0, 0, cr0, cr0, cr9, {0}
    2aa0:	27010063 	strcs	r0, [r1, -r3, rrx]
    2aa4:	00002518 	andeq	r2, r0, r8, lsl r5
    2aa8:	00138300 	andseq	r8, r3, r0, lsl #6
    2aac:	00137d00 	andseq	r7, r3, r0, lsl #26
    2ab0:	0f210000 	svceq	0x00210000
    2ab4:	01000007 	tsteq	r0, r7
    2ab8:	8f78061f 	svchi	0x0078061f
    2abc:	00640000 	rsbeq	r0, r4, r0
    2ac0:	9c010000 	stcls	0, cr0, [r1], {-0}
    2ac4:	00000a7d 	andeq	r0, r0, sp, ror sl
    2ac8:	0006f81f 	andeq	pc, r6, pc, lsl r8	; <UNPREDICTABLE>
    2acc:	1b1f0100 	blne	7c2ed4 <__bss_end__+0x7b846c>
    2ad0:	0000009e 	muleq	r0, lr, r0
    2ad4:	000013b5 			; <UNDEFINED> instruction: 0x000013b5
    2ad8:	000013b1 			; <UNDEFINED> instruction: 0x000013b1
    2adc:	0007471f 	andeq	r4, r7, pc, lsl r7
    2ae0:	301f0100 	andscc	r0, pc, r0, lsl #2
    2ae4:	000000d1 	ldrdeq	r0, [r0], -r1
    2ae8:	000013da 	ldrdeq	r1, [r0], -sl
    2aec:	000013d6 	ldrdeq	r1, [r0], -r6
    2af0:	0000a712 	andeq	sl, r0, r2, lsl r7
    2af4:	000a8d00 	andeq	r8, sl, r0, lsl #26
    2af8:	f8030500 			; <UNDEFINED> instruction: 0xf8030500
    2afc:	180000a3 	stmdane	r0, {r0, r1, r5, r7}
    2b00:	00008fc0 	andeq	r8, r0, r0, asr #31
    2b04:	00000a9e 	muleq	r0, lr, sl
    2b08:	00000a73 	andeq	r0, r0, r3, ror sl
    2b0c:	05500119 	ldrbeq	r0, [r0, #-281]	; 0xfffffee7
    2b10:	009e6803 	addseq	r6, lr, r3, lsl #16
    2b14:	51011900 	tstpl	r1, r0, lsl #18
    2b18:	a2b00305 	adcsge	r0, r0, #335544320	; 0x14000000
    2b1c:	01190000 	tsteq	r9, r0
    2b20:	f8030552 			; <UNDEFINED> instruction: 0xf8030552
    2b24:	190000a3 	stmdbne	r0, {r0, r1, r5, r7}
    2b28:	08025301 	stmdaeq	r2, {r0, r8, r9, ip, lr}
    2b2c:	7d021920 	vstrvc.16	s2, [r2, #-64]	; 0xffffffc0	; <UNPREDICTABLE>
    2b30:	e8030500 	stmda	r3, {r8, sl}
    2b34:	000000a2 	andeq	r0, r0, r2, lsr #1
    2b38:	008fc41a 	addeq	ip, pc, sl, lsl r4	; <UNPREDICTABLE>
    2b3c:	000ac200 	andeq	ip, sl, r0, lsl #4
    2b40:	c01c0000 	andsgt	r0, ip, r0
    2b44:	8d000000 	stchi	0, cr0, [r0, #-0]
    2b48:	1d00000a 	stcne	0, cr0, [r0, #-40]	; 0xffffffd8
    2b4c:	0000002c 	andeq	r0, r0, ip, lsr #32
    2b50:	7d09000e 	stcvc	0, cr0, [r9, #-56]	; 0xffffffc8
    2b54:	2200000a 	andcs	r0, r0, #10, 0
    2b58:	00000777 	andeq	r0, r0, r7, ror r7
    2b5c:	00000777 	andeq	r0, r0, r7, ror r7
    2b60:	2205f003 	andcs	pc, r5, #3, 0
    2b64:	0000066e 	andeq	r0, r0, lr, ror #12
    2b68:	0000066e 	andeq	r0, r0, lr, ror #12
    2b6c:	22062803 	andcs	r2, r6, #196608	; 0x30000
    2b70:	0000075e 	andeq	r0, r0, lr, asr r7
    2b74:	0000075e 	andeq	r0, r0, lr, asr r7
    2b78:	2205ef03 	andcs	lr, r5, #3, 30
    2b7c:	00000728 	andeq	r0, r0, r8, lsr #14
    2b80:	00000728 	andeq	r0, r0, r8, lsr #14
    2b84:	2207f203 	andcs	pc, r7, #805306368	; 0x30000000
    2b88:	00000069 	andeq	r0, r0, r9, rrx
    2b8c:	00000069 	andeq	r0, r0, r9, rrx
    2b90:	22066e03 	andcs	r6, r6, #3, 28	; 0x30
    2b94:	00000757 	andeq	r0, r0, r7, asr r7
    2b98:	00000757 	andeq	r0, r0, r7, asr r7
    2b9c:	0007f303 	andeq	pc, r7, r3, lsl #6
    2ba0:	0000012f 	andeq	r0, r0, pc, lsr #2
    2ba4:	0d520004 	ldcleq	0, cr0, [r2, #-16]
    2ba8:	01040000 	mrseq	r0, (UNDEF: 4)
    2bac:	0000053d 	andeq	r0, r0, sp, lsr r5
    2bb0:	00079c0c 	andeq	r9, r7, ip, lsl #24
    2bb4:	00061e00 	andeq	r1, r6, r0, lsl #28
    2bb8:	00949400 	addseq	r9, r4, r0, lsl #8
    2bbc:	00002c00 	andeq	r2, r0, r0, lsl #24
    2bc0:	00176700 	andseq	r6, r7, r0, lsl #14
    2bc4:	05040200 	streq	r0, [r4, #-512]	; 0xfffffe00
    2bc8:	00746e69 	rsbseq	r6, r4, r9, ror #28
    2bcc:	c9070403 	stmdbgt	r7, {r0, r1, sl}
    2bd0:	03000000 	movweq	r0, #0
    2bd4:	005d0601 	subseq	r0, sp, r1, lsl #12
    2bd8:	02030000 	andeq	r0, r3, #0, 0
    2bdc:	00018005 	andeq	r8, r1, r5
    2be0:	05040300 	streq	r0, [r4, #-768]	; 0xfffffd00
    2be4:	00000164 	andeq	r0, r0, r4, ror #2
    2be8:	5f050803 	svcpl	0x00050803
    2bec:	03000001 	movweq	r0, #1
    2bf0:	005b0801 	subseq	r0, fp, r1, lsl #16
    2bf4:	02030000 	andeq	r0, r3, #0, 0
    2bf8:	00007607 	andeq	r7, r0, r7, lsl #12
    2bfc:	07040300 	streq	r0, [r4, -r0, lsl #6]
    2c00:	000000c4 	andeq	r0, r0, r4, asr #1
    2c04:	bf070803 	svclt	0x00070803
    2c08:	04000000 	streq	r0, [r0], #-0
    2c0c:	00000025 	andeq	r0, r0, r5, lsr #32
    2c10:	0000007a 	andeq	r0, r0, sl, ror r0
    2c14:	00002505 	andeq	r2, r0, r5, lsl #10
    2c18:	6d060000 	stcvs	0, cr0, [r6, #-0]
    2c1c:	02000001 	andeq	r0, r0, #1, 0
    2c20:	00860e1c 	addeq	r0, r6, ip, lsl lr
    2c24:	04070000 	streq	r0, [r7], #-0
    2c28:	0000006b 	andeq	r0, r0, fp, rrx
    2c2c:	00002504 	andeq	r2, r0, r4, lsl #10
    2c30:	00009b00 	andeq	r9, r0, r0, lsl #22
    2c34:	009b0500 	addseq	r0, fp, r0, lsl #10
    2c38:	07000000 	streq	r0, [r0, -r0]
    2c3c:	0000a804 	andeq	sl, r0, r4, lsl #16
    2c40:	08010300 	stmdaeq	r1, {r8, r9}
    2c44:	00000064 	andeq	r0, r0, r4, rrx
    2c48:	0000a108 	andeq	sl, r0, r8, lsl #2
    2c4c:	06ac0600 	strteq	r0, [ip], r0, lsl #12
    2c50:	21020000 	mrscs	r0, (UNDEF: 2)
    2c54:	0000b90e 	andeq	fp, r0, lr, lsl #18
    2c58:	8c040700 	stchi	7, cr0, [r4], {-0}
    2c5c:	09000000 	stmdbeq	r0, {}	; <UNPREDICTABLE>
    2c60:	00000069 	andeq	r0, r0, r9, rrx
    2c64:	94060401 	strls	r0, [r6], #-1025	; 0xfffffbff
    2c68:	2c000094 	stccs	0, cr0, [r0], {148}	; 0x94
    2c6c:	01000000 	mrseq	r0, (UNDEF: 0)
    2c70:	00010e9c 	muleq	r1, ip, lr
    2c74:	94a80a00 	strtls	r0, [r8], #2560	; 0xa00
    2c78:	00e80000 	rsceq	r0, r8, r0
    2c7c:	010b0000 	mrseq	r0, (UNDEF: 11)
    2c80:	14030550 	strne	r0, [r3], #-1360	; 0xfffffab0
    2c84:	000000a4 	andeq	r0, r0, r4, lsr #1
    2c88:	0094ac0c 	addseq	sl, r4, ip, lsl #24
    2c8c:	00010e00 	andeq	r0, r1, r0, lsl #28
    2c90:	94b40d00 	ldrtls	r0, [r4], #3328	; 0xd00
    2c94:	011a0000 	tsteq	sl, r0
    2c98:	01040000 	mrseq	r0, (UNDEF: 4)
    2c9c:	010b0000 	mrseq	r0, (UNDEF: 11)
    2ca0:	003a0150 	eorseq	r0, sl, r0, asr r1
    2ca4:	0094b80c 	addseq	fp, r4, ip, lsl #16
    2ca8:	00012600 	andeq	r2, r1, r0, lsl #12
    2cac:	b70e0000 	strlt	r0, [lr, -r0]
    2cb0:	b7000007 	strlt	r0, [r0, -r7]
    2cb4:	02000007 	andeq	r0, r0, #7, 0
    2cb8:	930e064d 	movwls	r0, #58957	; 0xe64d
    2cbc:	93000007 	movwls	r0, #7
    2cc0:	02000007 	andeq	r0, r0, #7, 0
    2cc4:	880e0658 	stmdahi	lr, {r3, r4, r6, r9, sl}
    2cc8:	88000007 	stmdahi	r0, {r0, r1, r2}
    2ccc:	02000007 	andeq	r0, r0, #7, 0
    2cd0:	8900066b 	stmdbhi	r0, {r0, r1, r3, r5, r6, r9, sl}
    2cd4:	04000001 	streq	r0, [r0], #-1
    2cd8:	000e1200 	andeq	r1, lr, r0, lsl #4
    2cdc:	3d010400 	cfstrscc	mvf0, [r1, #-0]
    2ce0:	0c000005 	stceq	0, cr0, [r0], {5}
    2ce4:	000007ed 	andeq	r0, r0, sp, ror #15
    2ce8:	0000061e 	andeq	r0, r0, lr, lsl r6
    2cec:	000094c0 	andeq	r9, r0, r0, asr #9
    2cf0:	0000003c 	andeq	r0, r0, ip, lsr r0
    2cf4:	00001810 	andeq	r1, r0, r0, lsl r8
    2cf8:	69050402 	stmdbvs	r5, {r1, sl}
    2cfc:	0300746e 	movweq	r7, #1134	; 0x46e
    2d00:	00c90704 	sbceq	r0, r9, r4, lsl #14
    2d04:	01030000 	mrseq	r0, (UNDEF: 3)
    2d08:	00005d06 	andeq	r5, r0, r6, lsl #26
    2d0c:	05020300 	streq	r0, [r2, #-768]	; 0xfffffd00
    2d10:	00000180 	andeq	r0, r0, r0, lsl #3
    2d14:	64050403 	strvs	r0, [r5], #-1027	; 0xfffffbfd
    2d18:	03000001 	movweq	r0, #1
    2d1c:	015f0508 	cmpeq	pc, r8, lsl #10
    2d20:	01030000 	mrseq	r0, (UNDEF: 3)
    2d24:	00005b08 	andeq	r5, r0, r8, lsl #22
    2d28:	07020300 	streq	r0, [r2, -r0, lsl #6]
    2d2c:	00000076 	andeq	r0, r0, r6, ror r0
    2d30:	c4070403 	strgt	r0, [r7], #-1027	; 0xfffffbfd
    2d34:	03000000 	movweq	r0, #0
    2d38:	00bf0708 	adcseq	r0, pc, r8, lsl #14
    2d3c:	25040000 	strcs	r0, [r4, #-0]
    2d40:	7a000000 	bvc	2d48 <__code_start__-0x52b8>
    2d44:	05000000 	streq	r0, [r0, #-0]
    2d48:	00000025 	andeq	r0, r0, r5, lsr #32
    2d4c:	016d0600 	cmneq	sp, r0, lsl #12
    2d50:	1c020000 	stcne	0, cr0, [r2], {-0}
    2d54:	0000860e 	andeq	r8, r0, lr, lsl #12
    2d58:	6b040700 	blvs	104960 <__bss_end__+0xf9ef8>
    2d5c:	04000000 	streq	r0, [r0], #-0
    2d60:	00000025 	andeq	r0, r0, r5, lsr #32
    2d64:	0000009b 	muleq	r0, fp, r0
    2d68:	00009b05 	andeq	r9, r0, r5, lsl #22
    2d6c:	04070000 	streq	r0, [r7], #-0
    2d70:	000000a8 	andeq	r0, r0, r8, lsr #1
    2d74:	64080103 	strvs	r0, [r8], #-259	; 0xfffffefd
    2d78:	08000000 	stmdaeq	r0, {}	; <UNPREDICTABLE>
    2d7c:	000000a1 	andeq	r0, r0, r1, lsr #1
    2d80:	0006ac06 	andeq	sl, r6, r6, lsl #24
    2d84:	0e210200 	cdpeq	2, 2, cr0, cr1, cr0, {0}
    2d88:	000000b9 	strheq	r0, [r0], -r9
    2d8c:	008c0407 	addeq	r0, ip, r7, lsl #8
    2d90:	c5090000 	strgt	r0, [r9, #-0]
    2d94:	01000007 	tsteq	r0, r7
    2d98:	94c00604 	strbls	r0, [r0], #1540	; 0x604
    2d9c:	003c0000 	eorseq	r0, ip, r0
    2da0:	9c010000 	stcls	0, cr0, [r1], {-0}
    2da4:	00000154 	andeq	r0, r0, r4, asr r1
    2da8:	0003a706 	andeq	sl, r3, r6, lsl #14
    2dac:	10050100 	andne	r0, r5, r0, lsl #2
    2db0:	00000025 	andeq	r0, r0, r5, lsr #32
    2db4:	00048106 	andeq	r8, r4, r6, lsl #2
    2db8:	1f050100 	svcne	0x00050100
    2dbc:	00000025 	andeq	r0, r0, r5, lsr #32
    2dc0:	0000320a 	andeq	r3, r0, sl, lsl #4
    2dc4:	07060100 	streq	r0, [r6, -r0, lsl #2]
    2dc8:	7373620b 	cmnvc	r3, #-1342177280	; 0xb0000000
    2dcc:	0a0a0100 	beq	2831d4 <__bss_end__+0x27876c>
    2dd0:	00000154 	andeq	r0, r0, r4, asr r1
    2dd4:	00001401 	andeq	r1, r0, r1, lsl #8
    2dd8:	000013fb 	strdeq	r1, [r0], -fp
    2ddc:	0007cd0c 	andeq	ip, r7, ip, lsl #26
    2de0:	0a0b0100 	beq	2c31e8 <__bss_end__+0x2b8780>
    2de4:	00000154 	andeq	r0, r0, r4, asr r1
    2de8:	0094e40d 	addseq	lr, r4, sp, lsl #8
    2dec:	00000800 	andeq	r0, r0, r0, lsl #16
    2df0:	00012f00 	andeq	r2, r1, r0, lsl #30
    2df4:	6e690e00 	cdpvs	14, 6, cr0, cr9, cr0, {0}
    2df8:	05140100 	ldreq	r0, [r4, #-256]	; 0xffffff00
    2dfc:	0000002c 	andeq	r0, r0, ip, lsr #32
    2e00:	c80f0001 	stmdagt	pc, {r0}	; <UNPREDICTABLE>
    2e04:	5a000094 	bpl	305c <__code_start__-0x4fa4>
    2e08:	0f000001 	svceq	0x00000001
    2e0c:	000094e4 	andeq	r9, r0, r4, ror #9
    2e10:	00000167 	andeq	r0, r0, r7, ror #2
    2e14:	0094f00f 	addseq	pc, r4, pc
    2e18:	00017300 	andeq	r7, r1, r0, lsl #6
    2e1c:	94f40f00 	ldrbtls	r0, [r4], #3840	; 0xf00
    2e20:	01800000 	orreq	r0, r0, r0
    2e24:	07000000 	streq	r0, [r0, -r0]
    2e28:	00002504 	andeq	r2, r0, r4, lsl #10
    2e2c:	07df1000 	ldrbeq	r1, [pc, r0]
    2e30:	07df0000 	ldrbeq	r0, [pc, r0]
    2e34:	36020000 	strcc	r0, [r2], -r0
    2e38:	d5110601 	ldrle	r0, [r1, #-1537]	; 0xfffff9ff
    2e3c:	d5000007 	strle	r0, [r0, #-7]
    2e40:	02000007 	andeq	r0, r0, #7, 0
    2e44:	3210063b 	andscc	r0, r0, #61865984	; 0x3b00000
    2e48:	32000000 	andcc	r0, r0, #0, 0
    2e4c:	02000000 	andeq	r0, r0, #0, 0
    2e50:	1106010a 	tstne	r6, sl, lsl #2
    2e54:	00000069 	andeq	r0, r0, r9, rrx
    2e58:	00000069 	andeq	r0, r0, r9, rrx
    2e5c:	00066e02 	andeq	r6, r6, r2, lsl #28
    2e60:	000000ce 	andeq	r0, r0, lr, asr #1
    2e64:	0f0e0004 	svceq	0x000e0004
    2e68:	01040000 	mrseq	r0, (UNDEF: 4)
    2e6c:	0000053d 	andeq	r0, r0, sp, lsr r5
    2e70:	0008020c 	andeq	r0, r8, ip, lsl #4
    2e74:	00061e00 	andeq	r1, r6, r0, lsl #28
    2e78:	0094fc00 	addseq	pc, r4, r0, lsl #24
    2e7c:	00000400 	andeq	r0, r0, r0, lsl #8
    2e80:	0018d300 	andseq	sp, r8, r0, lsl #6
    2e84:	05040200 	streq	r0, [r4, #-512]	; 0xfffffe00
    2e88:	00746e69 	rsbseq	r6, r4, r9, ror #28
    2e8c:	c9070403 	stmdbgt	r7, {r0, r1, sl}
    2e90:	03000000 	movweq	r0, #0
    2e94:	005d0601 	subseq	r0, sp, r1, lsl #12
    2e98:	02030000 	andeq	r0, r3, #0, 0
    2e9c:	00018005 	andeq	r8, r1, r5
    2ea0:	05040300 	streq	r0, [r4, #-768]	; 0xfffffd00
    2ea4:	00000164 	andeq	r0, r0, r4, ror #2
    2ea8:	5f050803 	svcpl	0x00050803
    2eac:	03000001 	movweq	r0, #1
    2eb0:	005b0801 	subseq	r0, fp, r1, lsl #16
    2eb4:	02030000 	andeq	r0, r3, #0, 0
    2eb8:	00007607 	andeq	r7, r0, r7, lsl #12
    2ebc:	07040300 	streq	r0, [r4, -r0, lsl #6]
    2ec0:	000000c4 	andeq	r0, r0, r4, asr #1
    2ec4:	bf070803 	svclt	0x00070803
    2ec8:	04000000 	streq	r0, [r0], #-0
    2ecc:	00000025 	andeq	r0, r0, r5, lsr #32
    2ed0:	0000007a 	andeq	r0, r0, sl, ror r0
    2ed4:	00002505 	andeq	r2, r0, r5, lsl #10
    2ed8:	6d060000 	stcvs	0, cr0, [r6, #-0]
    2edc:	02000001 	andeq	r0, r0, #1, 0
    2ee0:	00860e1c 	addeq	r0, r6, ip, lsl lr
    2ee4:	04070000 	streq	r0, [r7], #-0
    2ee8:	0000006b 	andeq	r0, r0, fp, rrx
    2eec:	00002504 	andeq	r2, r0, r4, lsl #10
    2ef0:	00009b00 	andeq	r9, r0, r0, lsl #22
    2ef4:	009b0500 	addseq	r0, fp, r0, lsl #10
    2ef8:	07000000 	streq	r0, [r0, -r0]
    2efc:	0000a804 	andeq	sl, r0, r4, lsl #16
    2f00:	08010300 	stmdaeq	r1, {r8, r9}
    2f04:	00000064 	andeq	r0, r0, r4, rrx
    2f08:	0000a108 	andeq	sl, r0, r8, lsl #2
    2f0c:	06ac0600 	strteq	r0, [ip], r0, lsl #12
    2f10:	21020000 	mrscs	r0, (UNDEF: 2)
    2f14:	0000b90e 	andeq	fp, r0, lr, lsl #18
    2f18:	8c040700 	stchi	7, cr0, [r4], {-0}
    2f1c:	09000000 	stmdbeq	r0, {}	; <UNPREDICTABLE>
    2f20:	000007df 	ldrdeq	r0, [r0], -pc	; <UNPREDICTABLE>
    2f24:	fc060401 	stc2	4, cr0, [r6], {1}
    2f28:	04000094 	streq	r0, [r0], #-148	; 0xffffff6c
    2f2c:	01000000 	mrseq	r0, (UNDEF: 0)
    2f30:	0236009c 	eorseq	r0, r6, #156, 0	; 0x9c
    2f34:	00040000 	andeq	r0, r4, r0
    2f38:	00000f87 	andeq	r0, r0, r7, lsl #31
    2f3c:	053d0104 	ldreq	r0, [sp, #-260]!	; 0xfffffefc
    2f40:	4a0c0000 	bmi	302f48 <__bss_end__+0x2f84e0>
    2f44:	1e000008 	cdpne	0, 0, cr0, cr0, cr8, {0}
    2f48:	98000006 	stmdals	r0, {r1, r2}
    2f4c:	00000000 	andeq	r0, r0, r0
    2f50:	7a000000 	bvc	2f58 <__code_start__-0x50a8>
    2f54:	02000019 	andeq	r0, r0, #25, 0
    2f58:	6e690504 	cdpvs	5, 6, cr0, cr9, cr4, {0}
    2f5c:	25030074 	strcs	r0, [r3, #-116]	; 0xffffff8c
    2f60:	04000000 	streq	r0, [r0], #-0
    2f64:	00c90704 	sbceq	r0, r9, r4, lsl #14
    2f68:	01040000 	mrseq	r0, (UNDEF: 4)
    2f6c:	00005d06 	andeq	r5, r0, r6, lsl #26
    2f70:	05020400 	streq	r0, [r2, #-1024]	; 0xfffffc00
    2f74:	00000180 	andeq	r0, r0, r0, lsl #3
    2f78:	64050404 	strvs	r0, [r5], #-1028	; 0xfffffbfc
    2f7c:	04000001 	streq	r0, [r0], #-1
    2f80:	015f0508 	cmpeq	pc, r8, lsl #10
    2f84:	01040000 	mrseq	r0, (UNDEF: 4)
    2f88:	00005b08 	andeq	r5, r0, r8, lsl #22
    2f8c:	07020400 	streq	r0, [r2, -r0, lsl #8]
    2f90:	00000076 	andeq	r0, r0, r6, ror r0
    2f94:	c4070404 	strgt	r0, [r7], #-1028	; 0xfffffbfc
    2f98:	04000000 	streq	r0, [r0], #-0
    2f9c:	00bf0708 	adcseq	r0, pc, r8, lsl #14
    2fa0:	25050000 	strcs	r0, [r5, #-0]
    2fa4:	7f000000 	svcvc	0x00000000
    2fa8:	06000000 	streq	r0, [r0], -r0
    2fac:	00000025 	andeq	r0, r0, r5, lsr #32
    2fb0:	016d0700 	cmneq	sp, r0, lsl #14
    2fb4:	1c020000 	stcne	0, cr0, [r2], {-0}
    2fb8:	00008b0e 	andeq	r8, r0, lr, lsl #22
    2fbc:	70040800 	andvc	r0, r4, r0, lsl #16
    2fc0:	05000000 	streq	r0, [r0, #-0]
    2fc4:	00000025 	andeq	r0, r0, r5, lsr #32
    2fc8:	000000a0 	andeq	r0, r0, r0, lsr #1
    2fcc:	0000a006 	andeq	sl, r0, r6
    2fd0:	04080000 	streq	r0, [r8], #-0
    2fd4:	000000ad 	andeq	r0, r0, sp, lsr #1
    2fd8:	64080104 	strvs	r0, [r8], #-260	; 0xfffffefc
    2fdc:	03000000 	movweq	r0, #0
    2fe0:	000000a6 	andeq	r0, r0, r6, lsr #1
    2fe4:	0006ac07 	andeq	sl, r6, r7, lsl #24
    2fe8:	0e210200 	cdpeq	2, 2, cr0, cr1, cr0, {0}
    2fec:	000000be 	strheq	r0, [r0], -lr
    2ff0:	00910408 	addseq	r0, r1, r8, lsl #8
    2ff4:	6e090000 	cdpvs	0, 0, cr0, cr9, cr0, {0}
    2ff8:	01000008 	tsteq	r0, r8
    2ffc:	0031110d 	eorseq	r1, r1, sp, lsl #2
    3000:	880a0000 	stmdahi	sl, {}	; <UNPREDICTABLE>
    3004:	01000007 	tsteq	r0, r7
    3008:	952c061f 	strls	r0, [ip, #-1567]!	; 0xfffff9e1
    300c:	00540000 	subseq	r0, r4, r0
    3010:	9c010000 	stcls	0, cr0, [r1], {-0}
    3014:	000001ae 	andeq	r0, r0, lr, lsr #3
    3018:	0008920b 	andeq	r9, r8, fp, lsl #4
    301c:	0f2c0100 	svceq	0x002c0100
    3020:	0000002c 	andeq	r0, r0, ip, lsr #32
    3024:	0000142e 	andeq	r1, r0, lr, lsr #8
    3028:	0000142c 	andeq	r1, r0, ip, lsr #8
    302c:	00082d0b 	andeq	r2, r8, fp, lsl #26
    3030:	0f2d0100 	svceq	0x002d0100
    3034:	0000002c 	andeq	r0, r0, ip, lsr #32
    3038:	00001448 	andeq	r1, r0, r8, asr #8
    303c:	00001446 	andeq	r1, r0, r6, asr #8
    3040:	00085f0b 	andeq	r5, r8, fp, lsl #30
    3044:	0f2e0100 	svceq	0x002e0100
    3048:	0000002c 	andeq	r0, r0, ip, lsr #32
    304c:	00001462 	andeq	r1, r0, r2, ror #8
    3050:	00001460 	andeq	r1, r0, r0, ror #8
    3054:	0008790b 	andeq	r7, r8, fp, lsl #18
    3058:	0f2f0100 	svceq	0x002f0100
    305c:	0000002c 	andeq	r0, r0, ip, lsr #32
    3060:	0000147b 	andeq	r1, r0, fp, ror r4
    3064:	00001479 	andeq	r1, r0, r9, ror r4
    3068:	0095340c 	addseq	r3, r5, ip, lsl #8
    306c:	0001d900 	andeq	sp, r1, r0, lsl #18
    3070:	95400c00 	strbls	r0, [r0, #-3072]	; 0xfffff400
    3074:	02080000 	andeq	r0, r8, #0, 0
    3078:	440c0000 	strmi	r0, [ip], #-0
    307c:	15000095 	strne	r0, [r0, #-149]	; 0xffffff6b
    3080:	0d000002 	stceq	0, cr0, [r0, #-8]
    3084:	0000954c 	andeq	r9, r0, ip, asr #10
    3088:	00000221 	andeq	r0, r0, r1, lsr #4
    308c:	00000164 	andeq	r0, r0, r4, ror #2
    3090:	0150010e 	cmpeq	r0, lr, lsl #2
    3094:	580d003a 	stmdapl	sp, {r1, r3, r4, r5}
    3098:	2d000095 	stccs	0, cr0, [r0, #-596]	; 0xfffffdac
    309c:	84000002 	strhi	r0, [r0], #-2
    30a0:	0e000001 	cdpeq	0, 0, cr0, cr0, cr1, {0}
    30a4:	0c055001 	stceq	0, cr5, [r5], {1}
    30a8:	20100024 	andscs	r0, r0, r4, lsr #32
    30ac:	0551010e 	ldrbeq	r0, [r1, #-270]	; 0xfffffef2
    30b0:	0000010c 	andeq	r0, r0, ip, lsl #2
    30b4:	640d005a 	strvs	r0, [sp], #-90	; 0xffffffa6
    30b8:	2d000095 	stccs	0, cr0, [r0, #-596]	; 0xfffffdac
    30bc:	a4000002 	strge	r0, [r0], #-2
    30c0:	0e000001 	cdpeq	0, 0, cr0, cr0, cr1, {0}
    30c4:	0c055001 	stceq	0, cr5, [r5], {1}
    30c8:	2010001c 	andscs	r0, r0, ip, lsl r0
    30cc:	0551010e 	ldrbeq	r0, [r1, #-270]	; 0xfffffef2
    30d0:	0000200c 	andeq	r2, r0, ip
    30d4:	6c0c005a 	stcvs	0, cr0, [ip], {90}	; 0x5a
    30d8:	ae000095 	mcrge	0, 0, r0, cr0, cr5, {4}
    30dc:	00000001 	andeq	r0, r0, r1
    30e0:	00083b0f 	andeq	r3, r8, pc, lsl #22
    30e4:	06170100 	ldreq	r0, [r7], -r0, lsl #2
    30e8:	00009518 	andeq	r9, r0, r8, lsl r5
    30ec:	00000014 	andeq	r0, r0, r4, lsl r0
    30f0:	01d99c01 	bicseq	r9, r9, r1, lsl #24
    30f4:	9a0b0000 	bls	2c30fc <__bss_end__+0x2b8694>
    30f8:	01000008 	tsteq	r0, r8
    30fc:	00310e18 	eorseq	r0, r1, r8, lsl lr
    3100:	14960000 	ldrne	r0, [r6], #0
    3104:	14900000 	ldrne	r0, [r0], #0
    3108:	10000000 	andne	r0, r0, r0
    310c:	0000086b 	andeq	r0, r0, fp, ror #16
    3110:	25050e01 	strcs	r0, [r5, #-3585]	; 0xfffff1ff
    3114:	00000000 	andeq	r0, r0, r0
    3118:	18000095 	stmdane	r0, {r0, r2, r4, r7}
    311c:	01000000 	mrseq	r0, (UNDEF: 0)
    3120:	0002089c 	muleq	r2, ip, r8
    3124:	089a0b00 	ldmeq	sl, {r8, r9, fp}
    3128:	0f010000 	svceq	0x00010000
    312c:	0000310e 	andeq	r3, r0, lr, lsl #2
    3130:	0014c400 	andseq	ip, r4, r0, lsl #8
    3134:	0014c000 	andseq	ip, r4, r0
    3138:	1e110000 	cdpne	0, 1, cr0, cr1, cr0, {0}
    313c:	1e000008 	cdpne	0, 0, cr0, cr0, cr8, {0}
    3140:	02000008 	andeq	r0, r0, #8, 0
    3144:	1206013b 	andne	r0, r6, #-1073741810	; 0xc000000e
    3148:	000007b7 			; <UNDEFINED> instruction: 0x000007b7
    314c:	000007b7 			; <UNDEFINED> instruction: 0x000007b7
    3150:	12064d02 	andne	r4, r6, #128	; 0x80
    3154:	00000793 	muleq	r0, r3, r7
    3158:	00000793 	muleq	r0, r3, r7
    315c:	12065802 	andne	r5, r6, #131072	; 0x20000
    3160:	00000835 	andeq	r0, r0, r5, lsr r8
    3164:	00000835 	andeq	r0, r0, r5, lsr r8
    3168:	0006b202 	andeq	fp, r6, r2, lsl #4
    316c:	0000024d 	andeq	r0, r0, sp, asr #4
    3170:	10ac0004 	adcne	r0, ip, r4
    3174:	01040000 	mrseq	r0, (UNDEF: 4)
    3178:	0000053d 	andeq	r0, r0, sp, lsr r5
    317c:	0008b50c 	andeq	fp, r8, ip, lsl #10
    3180:	00061e00 	andeq	r1, r6, r0, lsl #28
    3184:	00958000 	addseq	r8, r5, r0
    3188:	00008400 	andeq	r8, r0, r0, lsl #8
    318c:	001a7100 	andseq	r7, sl, r0, lsl #2
    3190:	05040200 	streq	r0, [r4, #-512]	; 0xfffffe00
    3194:	00746e69 	rsbseq	r6, r4, r9, ror #28
    3198:	c9070403 	stmdbgt	r7, {r0, r1, sl}
    319c:	03000000 	movweq	r0, #0
    31a0:	005d0601 	subseq	r0, sp, r1, lsl #12
    31a4:	02030000 	andeq	r0, r3, #0, 0
    31a8:	00018005 	andeq	r8, r1, r5
    31ac:	05040300 	streq	r0, [r4, #-768]	; 0xfffffd00
    31b0:	00000164 	andeq	r0, r0, r4, ror #2
    31b4:	5f050803 	svcpl	0x00050803
    31b8:	03000001 	movweq	r0, #1
    31bc:	005b0801 	subseq	r0, fp, r1, lsl #16
    31c0:	02030000 	andeq	r0, r3, #0, 0
    31c4:	00007607 	andeq	r7, r0, r7, lsl #12
    31c8:	07040300 	streq	r0, [r4, -r0, lsl #6]
    31cc:	000000c4 	andeq	r0, r0, r4, asr #1
    31d0:	bf070803 	svclt	0x00070803
    31d4:	04000000 	streq	r0, [r0], #-0
    31d8:	00000025 	andeq	r0, r0, r5, lsr #32
    31dc:	0000007a 	andeq	r0, r0, sl, ror r0
    31e0:	00002505 	andeq	r2, r0, r5, lsl #10
    31e4:	6d060000 	stcvs	0, cr0, [r6, #-0]
    31e8:	02000001 	andeq	r0, r0, #1, 0
    31ec:	00860e1c 	addeq	r0, r6, ip, lsl lr
    31f0:	04070000 	streq	r0, [r7], #-0
    31f4:	0000006b 	andeq	r0, r0, fp, rrx
    31f8:	00002504 	andeq	r2, r0, r4, lsl #10
    31fc:	00009b00 	andeq	r9, r0, r0, lsl #22
    3200:	009b0500 	addseq	r0, fp, r0, lsl #10
    3204:	07000000 	streq	r0, [r0, -r0]
    3208:	0000a804 	andeq	sl, r0, r4, lsl #16
    320c:	08010300 	stmdaeq	r1, {r8, r9}
    3210:	00000064 	andeq	r0, r0, r4, rrx
    3214:	0000a108 	andeq	sl, r0, r8, lsl #2
    3218:	06ac0600 	strteq	r0, [ip], r0, lsl #12
    321c:	21020000 	mrscs	r0, (UNDEF: 2)
    3220:	0000b90e 	andeq	fp, r0, lr, lsl #18
    3224:	8c040700 	stchi	7, cr0, [r4], {-0}
    3228:	09000000 	stmdbeq	r0, {}	; <UNPREDICTABLE>
    322c:	000008ab 	andeq	r0, r0, fp, lsr #17
    3230:	ec061e01 	stc	14, cr1, [r6], {1}
    3234:	18000095 	stmdane	r0, {r0, r2, r4, r7}
    3238:	01000000 	mrseq	r0, (UNDEF: 0)
    323c:	0001099c 	muleq	r1, ip, r9
    3240:	65730a00 	ldrbvs	r0, [r3, #-2560]!	; 0xfffff600
    3244:	1e010063 	cdpne	0, 0, cr0, cr1, cr3, {3}
    3248:	00002c19 	andeq	r2, r0, r9, lsl ip
    324c:	0014e700 	andseq	lr, r4, r0, lsl #14
    3250:	0014e300 	andseq	lr, r4, r0, lsl #6
    3254:	96000b00 	strls	r0, [r0], -r0, lsl #22
    3258:	01090000 	mrseq	r0, (UNDEF: 9)
    325c:	010c0000 	mrseq	r0, (UNDEF: 12)
    3260:	01f31150 	mvnseq	r1, r0, asr r1
    3264:	f3243550 	vqrshl.u32	<illegal reg q1.5>, q0, q2
    3268:	321c5001 	andscc	r5, ip, #1, 0
    326c:	5001f324 	andpl	pc, r1, r4, lsr #6
    3270:	00243322 	eoreq	r3, r4, r2, lsr #6
    3274:	07930900 	ldreq	r0, [r3, r0, lsl #18]
    3278:	1b010000 	blne	43280 <__bss_end__+0x38818>
    327c:	0095d406 	addseq	sp, r5, r6, lsl #8
    3280:	00001800 	andeq	r1, r0, r0, lsl #16
    3284:	529c0100 	addspl	r0, ip, #0
    3288:	0a000001 	beq	3294 <__code_start__-0x4d6c>
    328c:	0100736d 	tsteq	r0, sp, ror #6
    3290:	002c181b 	eoreq	r1, ip, fp, lsl r8
    3294:	150c0000 	strne	r0, [ip, #-0]
    3298:	15080000 	strne	r0, [r8, #-0]
    329c:	e80b0000 	stmda	fp, {}	; <UNPREDICTABLE>
    32a0:	52000095 	andpl	r0, r0, #149, 0	; 0x95
    32a4:	0c000001 	stceq	0, cr0, [r0], {1}
    32a8:	f3115001 	vhadd.u16	d5, d1, d1
    32ac:	24355001 	ldrtcs	r5, [r5], #-1
    32b0:	1c5001f3 	ldfnee	f0, [r0], {243}	; 0xf3
    32b4:	01f32432 	mvnseq	r2, r2, lsr r4
    32b8:	24332250 	ldrtcs	r2, [r3], #-592	; 0xfffffdb0
    32bc:	de090000 	cdple	0, 0, cr0, cr9, cr0, {0}
    32c0:	01000008 	tsteq	r0, r8
    32c4:	95b00612 	ldrls	r0, [r0, #1554]!	; 0x612
    32c8:	00240000 	eoreq	r0, r4, r0
    32cc:	9c010000 	stcls	0, cr0, [r1], {-0}
    32d0:	000001c2 	andeq	r0, r0, r2, asr #3
    32d4:	0073750a 	rsbseq	r7, r3, sl, lsl #10
    32d8:	2c181201 	lfmcs	f1, 4, [r8], {1}
    32dc:	31000000 	mrscc	r0, (UNDEF: 0)
    32e0:	2d000015 	stccs	0, cr0, [r0, #-84]	; 0xffffffac
    32e4:	0d000015 	stceq	0, cr0, [r0, #-84]	; 0xffffffac
    32e8:	01006272 	tsteq	r0, r2, ror r2
    32ec:	002c0e13 	eoreq	r0, ip, r3, lsl lr
    32f0:	15510000 	ldrbne	r0, [r1, #-0]
    32f4:	154f0000 	strbne	r0, [pc, #-0]	; 32fc <__code_start__-0x4d04>
    32f8:	c00e0000 	andgt	r0, lr, r0
    32fc:	14000095 	strne	r0, [r0], #-149	; 0xffffff6b
    3300:	b8000000 	stmdalt	r0, {}	; <UNPREDICTABLE>
    3304:	0d000001 	stceq	0, cr0, [r0, #-4]
    3308:	01006172 	tsteq	r0, r2, ror r1
    330c:	002c1215 	eoreq	r1, ip, r5, lsl r2
    3310:	15660000 	strbne	r0, [r6, #-0]!
    3314:	15640000 	strbne	r0, [r4, #-0]!
    3318:	c40f0000 	strgt	r0, [pc], #-0	; 3320 <__code_start__-0x4ce0>
    331c:	c2000095 	andgt	r0, r0, #149, 0	; 0x95
    3320:	00000001 	andeq	r0, r0, r1
    3324:	0095bc0f 	addseq	fp, r5, pc, lsl #24
    3328:	0001c200 	andeq	ip, r1, r0, lsl #4
    332c:	cf100000 	svcgt	0x00100000
    3330:	01000008 	tsteq	r0, r8
    3334:	002c0a09 	eoreq	r0, ip, r9, lsl #20
    3338:	95940000 	ldrls	r0, [r4]
    333c:	001c0000 	andseq	r0, ip, r0
    3340:	9c010000 	stcls	0, cr0, [r1], {-0}
    3344:	0000020a 	andeq	r0, r0, sl, lsl #4
    3348:	0100750d 	tsteq	r0, sp, lsl #10
    334c:	002c0e0d 	eoreq	r0, ip, sp, lsl #28
    3350:	157d0000 	ldrbne	r0, [sp, #-0]!
    3354:	15790000 	ldrbne	r0, [r9, #-0]!
    3358:	9c0f0000 	stcls	0, cr0, [pc], {-0}
    335c:	38000095 	stmdacc	r0, {r0, r2, r4, r7}
    3360:	0f000002 	svceq	0x00000002
    3364:	000095a0 	andeq	r9, r0, r0, lsr #11
    3368:	0000020a 	andeq	r0, r0, sl, lsl #4
    336c:	0095a80f 	addseq	sl, r5, pc, lsl #16
    3370:	00023800 	andeq	r3, r2, r0, lsl #16
    3374:	e7100000 	ldr	r0, [r0, -r0]
    3378:	01000008 	tsteq	r0, r8
    337c:	002c0a04 	eoreq	r0, ip, r4, lsl #20
    3380:	95800000 	strls	r0, [r0]
    3384:	00140000 	andseq	r0, r4, r0
    3388:	9c010000 	stcls	0, cr0, [r1], {-0}
    338c:	00000238 	andeq	r0, r0, r8, lsr r2
    3390:	00958c0b 	addseq	r8, r5, fp, lsl #24
    3394:	00024400 	andeq	r4, r2, r0, lsl #8
    3398:	50010c00 	andpl	r0, r1, r0, lsl #24
    339c:	30040c05 	andcc	r0, r4, r5, lsl #24
    33a0:	00002000 	andeq	r2, r0, r0
    33a4:	00089f11 	andeq	r9, r8, r1, lsl pc
    33a8:	00089f00 	andeq	r9, r8, r0, lsl #30
    33ac:	06a10200 	strteq	r0, [r1], r0, lsl #4
    33b0:	0008c911 	andeq	ip, r8, r1, lsl r9
    33b4:	0008c900 	andeq	ip, r8, r0, lsl #18
    33b8:	0ac70200 	beq	ff1c3bc0 <__bss_end__+0xff1b9158>
    33bc:	0005cd00 	andeq	ip, r5, r0, lsl #26
    33c0:	ad000400 	cfstrsge	mvf0, [r0, #-0]
    33c4:	04000011 	streq	r0, [r0], #-17	; 0xffffffef
    33c8:	0009fa01 	andeq	pc, r9, r1, lsl #20
    33cc:	09390c00 	ldmdbeq	r9!, {sl, fp}
    33d0:	09aa0000 	stmibeq	sl!, {}	; <UNPREDICTABLE>
    33d4:	96040000 	strls	r0, [r4], -r0
    33d8:	01f00000 	mvnseq	r0, r0
    33dc:	1b6f0000 	blne	1bc33e4 <__bss_end__+0x1bb897c>
    33e0:	04020000 	streq	r0, [r2], #-0
    33e4:	746e6905 	strbtvc	r6, [lr], #-2309	; 0xfffff6fb
    33e8:	07040300 	streq	r0, [r4, -r0, lsl #6]
    33ec:	000000c9 	andeq	r0, r0, r9, asr #1
    33f0:	00002c04 	andeq	r2, r0, r4, lsl #24
    33f4:	06010300 	streq	r0, [r1], -r0, lsl #6
    33f8:	0000005d 	andeq	r0, r0, sp, asr r0
    33fc:	80050203 	andhi	r0, r5, r3, lsl #4
    3400:	03000001 	movweq	r0, #1
    3404:	01640504 	cmneq	r4, r4, lsl #10
    3408:	08030000 	stmdaeq	r3, {}	; <UNPREDICTABLE>
    340c:	00015f05 	andeq	r5, r1, r5, lsl #30
    3410:	08010300 	stmdaeq	r1, {r8, r9}
    3414:	0000005b 	andeq	r0, r0, fp, asr r0
    3418:	76070203 	strvc	r0, [r7], -r3, lsl #4
    341c:	05000000 	streq	r0, [r0, #-0]
    3420:	0000019d 	muleq	r0, sp, r1
    3424:	6e193405 	cfmulsvs	mvf3, mvf9, mvf5
    3428:	03000000 	movweq	r0, #0
    342c:	00c40704 	sbceq	r0, r4, r4, lsl #14
    3430:	08030000 	stmdaeq	r3, {}	; <UNPREDICTABLE>
    3434:	0000bf07 	andeq	fp, r0, r7, lsl #30
    3438:	08010300 	stmdaeq	r1, {r8, r9}
    343c:	00000064 	andeq	r0, r0, r4, rrx
    3440:	54010706 	strpl	r0, [r1], #-1798	; 0xfffff8fa
    3444:	04000000 	streq	r0, [r0], #-0
    3448:	00c20e0c 	sbceq	r0, r2, ip, lsl #28
    344c:	e4070000 	str	r0, [r7], #-0
    3450:	0000000a 	andeq	r0, r0, sl
    3454:	00091c07 	andeq	r1, r9, r7, lsl #24
    3458:	5f070100 	svcpl	0x00070100
    345c:	04000009 	streq	r0, [r0], #-9
    3460:	00096e07 	andeq	r6, r9, r7, lsl #28
    3464:	7d070500 	cfstr32vc	mvfx0, [r7, #-0]
    3468:	06000009 	streq	r0, [r0], -r9
    346c:	00098c07 	andeq	r8, r9, r7, lsl #24
    3470:	ad070700 	stcge	7, cr0, [r7, #-0]
    3474:	0300000a 	movweq	r0, #10
    3478:	00099b07 	andeq	r9, r9, r7, lsl #22
    347c:	08000200 	stmdaeq	r0, {r9}
    3480:	0000092d 	andeq	r0, r0, sp, lsr #18
    3484:	0806022c 	stmdaeq	r6, {r2, r3, r5, r9}
    3488:	0000015e 	andeq	r0, r0, lr, asr r1
    348c:	006f6909 	rsbeq	r6, pc, r9, lsl #18
    3490:	33090902 	movwcc	r0, #39170	; 0x9902
    3494:	00000000 	andeq	r0, r0, r0
    3498:	72656909 	rsbvc	r6, r5, #147456	; 0x24000
    349c:	090a0200 	stmdbeq	sl, {r9}
    34a0:	00000033 	andeq	r0, r0, r3, lsr r0
    34a4:	69690904 	stmdbvs	r9!, {r2, r8, fp}^
    34a8:	11020072 	tstne	r2, r2, ror r0
    34ac:	00003309 	andeq	r3, r0, r9, lsl #6
    34b0:	6c090800 	stcvs	8, cr0, [r9], {-0}
    34b4:	02007263 	andeq	r7, r0, #805306374	; 0x30000006
    34b8:	00330913 	eorseq	r0, r3, r3, lsl r9
    34bc:	090c0000 	stmdbeq	ip, {}	; <UNPREDICTABLE>
    34c0:	0072636d 	rsbseq	r6, r2, sp, ror #6
    34c4:	33091402 	movwcc	r1, #37890	; 0x9402
    34c8:	10000000 	andne	r0, r0, r0
    34cc:	72736c09 	rsbsvc	r6, r3, #2304	; 0x900
    34d0:	09150200 	ldmdbeq	r5, {r9}
    34d4:	00000033 	andeq	r0, r0, r3, lsr r0
    34d8:	736d0914 	cmnvc	sp, #20, 18	; 0x50000
    34dc:	16020072 			; <UNDEFINED> instruction: 0x16020072
    34e0:	00003309 	andeq	r3, r0, r9, lsl #6
    34e4:	c40a1800 	strgt	r1, [sl], #-2048	; 0xfffff800
    34e8:	0200000a 	andeq	r0, r0, #10, 0
    34ec:	00330917 	eorseq	r0, r3, r7, lsl r9
    34f0:	0a1c0000 	beq	7034f8 <__bss_end__+0x6f8a90>
    34f4:	00000a8d 	andeq	r0, r0, sp, lsl #21
    34f8:	33091b02 	movwcc	r1, #39682	; 0x9b02
    34fc:	20000000 	andcs	r0, r0, r0
    3500:	0009090a 	andeq	r0, r9, sl, lsl #18
    3504:	091d0200 	ldmdbeq	sp, {r9}
    3508:	00000033 	andeq	r0, r0, r3, lsr r0
    350c:	09df0a24 	ldmibeq	pc, {r2, r5, r9, fp}^	; <UNPREDICTABLE>
    3510:	1e020000 	cdpne	0, 0, cr0, cr2, cr0, {0}
    3514:	00003309 	andeq	r3, r0, r9, lsl #6
    3518:	0b002800 	bleq	d520 <__bss_end__+0x2ab8>
    351c:	000009e4 	andeq	r0, r0, r4, ror #19
    3520:	74090801 	strvc	r0, [r9], #-2049	; 0xfffff7ff
    3524:	04000001 	streq	r0, [r0], #-1
    3528:	0c202150 	stfeqs	f2, [r0], #-320	; 0xfffffec0
    352c:	00003304 	andeq	r3, r0, r4, lsl #6
    3530:	016e0d00 	cmneq	lr, r0, lsl #26
    3534:	cc0b0000 	stcgt	0, cr0, [fp], {-0}
    3538:	0100000a 	tsteq	r0, sl
    353c:	018f2329 	orreq	r2, pc, r9, lsr #6
    3540:	50400000 	subpl	r0, r0, r0
    3544:	040c2021 	streq	r2, [ip], #-33	; 0xffffffdf
    3548:	000000c2 	andeq	r0, r0, r2, asr #1
    354c:	0001890d 	andeq	r8, r1, sp, lsl #18
    3550:	07b70e00 	ldreq	r0, [r7, r0, lsl #28]!
    3554:	cc010000 	stcgt	0, cr0, [r1], {-0}
    3558:	0097bc06 	addseq	fp, r7, r6, lsl #24
    355c:	00001400 	andeq	r1, r0, r0, lsl #8
    3560:	b49c0100 	ldrlt	r0, [ip], #256	; 0x100
    3564:	0f000001 	svceq	0x00000001
    3568:	000097c4 	andeq	r9, r0, r4, asr #15
    356c:	000001b4 			; <UNDEFINED> instruction: 0x000001b4
    3570:	094e1000 	stmdbeq	lr, {ip}^
    3574:	b6010000 	strlt	r0, [r1], -r0
    3578:	00002505 	andeq	r2, r0, r5, lsl #10
    357c:	00979c00 	addseq	r9, r7, r0, lsl #24
    3580:	00002000 	andeq	r2, r0, r0
    3584:	eb9c0100 	bl	fe70398c <__bss_end__+0xfe6f8f24>
    3588:	0f000001 	svceq	0x00000001
    358c:	000097a4 	andeq	r9, r0, r4, lsr #15
    3590:	000005a0 	andeq	r0, r0, r0, lsr #11
    3594:	0097ac11 	addseq	sl, r7, r1, lsl ip
    3598:	0005ac00 	andeq	sl, r5, r0, lsl #24
    359c:	50011200 	andpl	r1, r1, r0, lsl #4
    35a0:	50640c05 	rsbpl	r0, r4, r5, lsl #24
    35a4:	00002021 	andeq	r2, r0, r1, lsr #32
    35a8:	000a9f10 	andeq	r9, sl, r0, lsl pc
    35ac:	05b30100 	ldreq	r0, [r3, #256]!	; 0x100
    35b0:	00000025 	andeq	r0, r0, r5, lsr #32
    35b4:	0000978c 	andeq	r9, r0, ip, lsl #15
    35b8:	00000010 	andeq	r0, r0, r0, lsl r0
    35bc:	02189c01 	andseq	r9, r8, #256	; 0x100
    35c0:	940f0000 	strls	r0, [pc], #-0	; 35c8 <__code_start__-0x4a38>
    35c4:	a0000097 	mulge	r0, r7, r0
    35c8:	0f000005 	svceq	0x00000005
    35cc:	00009798 	muleq	r0, r8, r7
    35d0:	00000309 	andeq	r0, r0, r9, lsl #6
    35d4:	0ada0e00 	beq	ff686ddc <__bss_end__+0xff67c374>
    35d8:	ab010000 	blge	435e0 <__bss_end__+0x38b78>
    35dc:	00975c06 	addseq	r5, r7, r6, lsl #24
    35e0:	00003000 	andeq	r3, r0, r0
    35e4:	7c9c0100 	ldfvcs	f0, [ip], {0}
    35e8:	13000002 	movwne	r0, #2
    35ec:	ab010063 	blge	43780 <__bss_end__+0x38d18>
    35f0:	00002c19 	andeq	r2, r0, r9, lsl ip
    35f4:	00159f00 	andseq	r9, r5, r0, lsl #30
    35f8:	00159b00 	andseq	r9, r5, r0, lsl #22
    35fc:	97680f00 	strbls	r0, [r8, -r0, lsl #30]!
    3600:	05a00000 	streq	r0, [r0, #0]!
    3604:	6c0f0000 	stcvs	0, cr0, [pc], {-0}
    3608:	db000097 	blle	386c <__code_start__-0x4794>
    360c:	14000002 	strne	r0, [r0], #-2
    3610:	00009780 	andeq	r9, r0, r0, lsl #15
    3614:	000005b8 			; <UNDEFINED> instruction: 0x000005b8
    3618:	00000272 	andeq	r0, r0, r2, ror r2
    361c:	05500112 	ldrbeq	r0, [r0, #-274]	; 0xfffffeee
    3620:	2150400c 	cmpcs	r0, ip
    3624:	51011220 	tstpl	r1, r0, lsr #4
    3628:	08007405 	stmdaeq	r0, {r0, r2, sl, ip, sp, lr}
    362c:	0f001aff 	svceq	0x00001aff
    3630:	00009784 	andeq	r9, r0, r4, lsl #15
    3634:	000005a0 	andeq	r0, r0, r0, lsr #11
    3638:	09f01000 	ldmibeq	r0!, {ip}^
    363c:	a3010000 	movwge	r0, #4096	; 0x1000
    3640:	00002505 	andeq	r2, r0, r5, lsl #10
    3644:	00972c00 	addseq	r2, r7, r0, lsl #24
    3648:	00003000 	andeq	r3, r0, r0
    364c:	db9c0100 	blle	fe703a54 <__bss_end__+0xfe6f8fec>
    3650:	15000002 	strne	r0, [r0, #-2]
    3654:	a7010063 	strge	r0, [r1, -r3, rrx]
    3658:	00002509 	andeq	r2, r0, r9, lsl #10
    365c:	0015bf00 	andseq	fp, r5, r0, lsl #30
    3660:	0015bd00 	andseq	fp, r5, r0, lsl #26
    3664:	97340f00 	ldrls	r0, [r4, -r0, lsl #30]!
    3668:	05a00000 	streq	r0, [r0, #0]!
    366c:	380f0000 	stmdacc	pc, {}	; <UNPREDICTABLE>
    3670:	09000097 	stmdbeq	r0, {r0, r1, r2, r4, r7}
    3674:	14000003 	strne	r0, [r0], #-3
    3678:	00009748 	andeq	r9, r0, r8, asr #14
    367c:	000005ac 	andeq	r0, r0, ip, lsr #11
    3680:	000002d1 	ldrdeq	r0, [r0], -r1
    3684:	05500112 	ldrbeq	r0, [r0, #-274]	; 0xfffffeee
    3688:	2150400c 	cmpcs	r0, ip
    368c:	500f0020 	andpl	r0, pc, r0, lsr #32
    3690:	a0000097 	mulge	r0, r7, r0
    3694:	00000005 	andeq	r0, r0, r5
    3698:	00094010 	andeq	r4, r9, r0, lsl r0
    369c:	05940100 	ldreq	r0, [r4, #256]	; 0x100
    36a0:	00000025 	andeq	r0, r0, r5, lsr #32
    36a4:	0000970c 	andeq	r9, r0, ip, lsl #14
    36a8:	00000020 	andeq	r0, r0, r0, lsr #32
    36ac:	03099c01 	movweq	r9, #39937	; 0x9c01
    36b0:	18110000 	ldmdane	r1, {}	; <UNPREDICTABLE>
    36b4:	ac000097 	stcge	0, cr0, [r0], {151}	; 0x97
    36b8:	12000005 	andne	r0, r0, #5, 0
    36bc:	0c055001 	stceq	0, cr5, [r5], {1}
    36c0:	20215064 	eorcs	r5, r1, r4, rrx
    36c4:	0e100000 	cdpeq	0, 1, cr0, cr0, cr0, {0}
    36c8:	01000009 	tsteq	r0, r9
    36cc:	0025058b 	eoreq	r0, r5, fp, lsl #11
    36d0:	96f40000 	ldrbtls	r0, [r4], r0
    36d4:	00180000 	andseq	r0, r8, r0
    36d8:	9c010000 	stcls	0, cr0, [r1], {-0}
    36dc:	00000337 	andeq	r0, r0, r7, lsr r3
    36e0:	00970011 	addseq	r0, r7, r1, lsl r0
    36e4:	0005ac00 	andeq	sl, r5, r0, lsl #24
    36e8:	50011200 	andpl	r1, r1, r0, lsl #4
    36ec:	50640c05 	rsbpl	r0, r4, r5, lsl #24
    36f0:	00002021 	andeq	r2, r0, r1, lsr #32
    36f4:	0007d50e 	andeq	sp, r7, lr, lsl #10
    36f8:	06450100 	strbeq	r0, [r5], -r0, lsl #2
    36fc:	00009644 	andeq	r9, r0, r4, asr #12
    3700:	000000b0 	strheq	r0, [r0], -r0	; <UNPREDICTABLE>
    3704:	04849c01 	streq	r9, [r4], #3073	; 0xc01
    3708:	00160000 	andseq	r0, r6, r0
    370c:	01000009 	tsteq	r0, r9
    3710:	00620e7e 	rsbeq	r0, r2, lr, ror lr
    3714:	010e0000 	mrseq	r0, (UNDEF: 14)
    3718:	00965414 	addseq	r5, r6, r4, lsl r4
    371c:	0005c400 	andeq	ip, r5, r0, lsl #8
    3720:	00037300 	andeq	r7, r3, r0, lsl #6
    3724:	50011200 	andpl	r1, r1, r0, lsl #4
    3728:	01123e01 	tsteq	r2, r1, lsl #28
    372c:	00320151 	eorseq	r0, r2, r1, asr r1
    3730:	00966014 	addseq	r6, r6, r4, lsl r0
    3734:	0005c400 	andeq	ip, r5, r0, lsl #8
    3738:	00038b00 	andeq	r8, r3, r0, lsl #22
    373c:	50011200 	andpl	r1, r1, r0, lsl #4
    3740:	01123f01 	tsteq	r2, r1, lsl #30
    3744:	00320151 	eorseq	r0, r2, r1, asr r1
    3748:	0096640f 	addseq	r6, r6, pc, lsl #8
    374c:	0005a000 	andeq	sl, r5, r0
    3750:	96701400 	ldrbtls	r1, [r0], -r0, lsl #8
    3754:	053d0000 	ldreq	r0, [sp, #-0]!
    3758:	03b00000 	movseq	r0, #0, 0
    375c:	01120000 	tsteq	r2, r0
    3760:	040c0550 	streq	r0, [ip], #-1360	; 0xfffffab0
    3764:	12202150 	eorne	r2, r0, #20
    3768:	31015101 	tstcc	r1, r1, lsl #2
    376c:	96740f00 	ldrbtls	r0, [r4], -r0, lsl #30
    3770:	05a00000 	streq	r0, [r0, #0]!
    3774:	84140000 	ldrhi	r0, [r4], #-0
    3778:	b8000096 	stmdalt	r0, {r1, r2, r4, r7}
    377c:	d2000005 	andle	r0, r0, #5, 0
    3780:	12000003 	andne	r0, r0, #3, 0
    3784:	74025001 	strvc	r5, [r2], #-1
    3788:	51011200 	mrspl	r1, R9_usr
    378c:	14003001 	strne	r3, [r0], #-1
    3790:	00009690 	muleq	r0, r0, r6
    3794:	000005b8 			; <UNDEFINED> instruction: 0x000005b8
    3798:	000003ee 	andeq	r0, r0, lr, ror #7
    379c:	05500112 	ldrbeq	r0, [r0, #-274]	; 0xfffffeee
    37a0:	2150440c 	cmpcs	r0, ip, lsl #8
    37a4:	51011220 	tstpl	r1, r0, lsr #4
    37a8:	14003001 	strne	r3, [r0], #-1
    37ac:	0000969c 	muleq	r0, ip, r6
    37b0:	000005b8 			; <UNDEFINED> instruction: 0x000005b8
    37b4:	0000040a 	andeq	r0, r0, sl, lsl #8
    37b8:	05500112 	ldrbeq	r0, [r0, #-274]	; 0xfffffeee
    37bc:	21504c0c 	cmpcs	r0, ip, lsl #24
    37c0:	51011220 	tstpl	r1, r0, lsr #4
    37c4:	14003301 	strne	r3, [r0], #-769	; 0xfffffcff
    37c8:	000096a8 	andeq	r9, r0, r8, lsr #13
    37cc:	000005b8 			; <UNDEFINED> instruction: 0x000005b8
    37d0:	00000426 	andeq	r0, r0, r6, lsr #8
    37d4:	05500112 	ldrbeq	r0, [r0, #-274]	; 0xfffffeee
    37d8:	2150500c 	cmpcs	r0, ip
    37dc:	51011220 	tstpl	r1, r0, lsr #4
    37e0:	14003001 	strne	r3, [r0], #-1
    37e4:	000096b4 			; <UNDEFINED> instruction: 0x000096b4
    37e8:	000005b8 			; <UNDEFINED> instruction: 0x000005b8
    37ec:	00000443 	andeq	r0, r0, r3, asr #8
    37f0:	05500112 	ldrbeq	r0, [r0, #-274]	; 0xfffffeee
    37f4:	2150480c 	cmpcs	r0, ip, lsl #16
    37f8:	51011220 	tstpl	r1, r0, lsr #4
    37fc:	00c70802 	sbceq	r0, r7, r2, lsl #16
    3800:	0096c014 	addseq	ip, r6, r4, lsl r0
    3804:	0005b800 	andeq	fp, r5, r0, lsl #16
    3808:	00046100 	andeq	r6, r4, r0, lsl #2
    380c:	50011200 	andpl	r1, r1, r0, lsl #4
    3810:	50680c05 	rsbpl	r0, r8, r5, lsl #24
    3814:	01122021 	tsteq	r2, r1, lsr #32
    3818:	0e0a0351 	mcreq	3, 0, r0, cr10, cr1, {2}
    381c:	cc140001 	ldcgt	0, cr0, [r4], {1}
    3820:	b8000096 	stmdalt	r0, {r1, r2, r4, r7}
    3824:	7a000005 	bvc	3840 <__code_start__-0x47c0>
    3828:	12000004 	andne	r0, r0, #4, 0
    382c:	74025001 	strvc	r5, [r2], #-1
    3830:	51011200 	mrspl	r1, R9_usr
    3834:	0f003301 	svceq	0x00003301
    3838:	000096d0 	ldrdeq	r9, [r0], -r0
    383c:	000005a0 	andeq	r0, r0, r0, lsr #11
    3840:	0a920e00 	beq	fe487048 <__bss_end__+0xfe47c5e0>
    3844:	35010000 	strcc	r0, [r1, #-0]
    3848:	0097d006 	addseq	sp, r7, r6
    384c:	00002400 	andeq	r2, r0, r0, lsl #8
    3850:	d39c0100 	orrsle	r0, ip, #0
    3854:	0f000004 	svceq	0x00000004
    3858:	000097d8 	ldrdeq	r9, [r0], -r8
    385c:	00000194 	muleq	r0, r4, r1
    3860:	0097dc0f 	addseq	sp, r7, pc, lsl #24
    3864:	0005a000 	andeq	sl, r5, r0
    3868:	97e81400 	strbls	r1, [r8, r0, lsl #8]!
    386c:	04d30000 	ldrbeq	r0, [r3], #0
    3870:	04c90000 	strbeq	r0, [r9], #0
    3874:	01120000 	tsteq	r2, r0
    3878:	040c0550 	streq	r0, [ip], #-1360	; 0xfffffab0
    387c:	12202150 	eorne	r2, r0, #20
    3880:	09025101 	stmdbeq	r2, {r0, r8, ip, lr}
    3884:	ec0f00fe 	stc	0, cr0, [pc], {254}	; 0xfe
    3888:	a0000097 	mulge	r0, r7, r0
    388c:	00000005 	andeq	r0, r0, r5
    3890:	000ad117 	andeq	sp, sl, r7, lsl r1
    3894:	0d310100 	ldfeqs	f0, [r1, #-0]
    3898:	00009604 	andeq	r9, r0, r4, lsl #12
    389c:	00000020 	andeq	r0, r0, r0, lsr #32
    38a0:	05369c01 	ldreq	r9, [r6, #-3073]!	; 0xfffff3ff
    38a4:	2b180000 	blcs	6038ac <__bss_end__+0x5f8e44>
    38a8:	0100000b 	tsteq	r0, fp
    38ac:	05362531 	ldreq	r2, [r6, #-1329]!	; 0xfffffacf
    38b0:	15d60000 	ldrbne	r0, [r6]
    38b4:	15d20000 	ldrbne	r0, [r2]
    38b8:	76130000 	ldrvc	r0, [r3], -r0
    38bc:	01006c61 	tsteq	r0, r1, ror #24
    38c0:	002c3431 	eoreq	r3, ip, r1, lsr r4
    38c4:	15f80000 	ldrbne	r0, [r8, #0]!
    38c8:	15f40000 	ldrbne	r0, [r4, #0]!
    38cc:	14140000 	ldrne	r0, [r4], #-0
    38d0:	ac000096 	stcge	0, cr0, [r0], {150}	; 0x96
    38d4:	25000005 	strcs	r0, [r0, #-5]
    38d8:	12000005 	andne	r0, r0, #5, 0
    38dc:	74025001 	strvc	r5, [r2], #-1
    38e0:	20110000 	andscs	r0, r1, r0
    38e4:	b8000096 	stmdalt	r0, {r1, r2, r4, r7}
    38e8:	12000005 	andne	r0, r0, #5, 0
    38ec:	74025001 	strvc	r5, [r2], #-1
    38f0:	0c000000 	stceq	0, cr0, [r0], {-0}
    38f4:	00053c04 	andeq	r3, r5, r4, lsl #24
    38f8:	bc171900 			; <UNDEFINED> instruction: 0xbc171900
    38fc:	0100000a 	tsteq	r0, sl
    3900:	96240d2e 	strtls	r0, [r4], -lr, lsr #26
    3904:	00200000 	eoreq	r0, r0, r0
    3908:	9c010000 	stcls	0, cr0, [r1], {-0}
    390c:	000005a0 	andeq	r0, r0, r0, lsr #11
    3910:	000b2b18 	andeq	r2, fp, r8, lsl fp
    3914:	242e0100 	strtcs	r0, [lr], #-256	; 0xffffff00
    3918:	00000536 	andeq	r0, r0, r6, lsr r5
    391c:	0000161a 	andeq	r1, r0, sl, lsl r6
    3920:	00001616 	andeq	r1, r0, r6, lsl r6
    3924:	6c617613 	stclvs	6, cr7, [r1], #-76	; 0xffffffb4
    3928:	332e0100 			; <UNDEFINED> instruction: 0x332e0100
    392c:	0000002c 	andeq	r0, r0, ip, lsr #32
    3930:	0000163c 	andeq	r1, r0, ip, lsr r6
    3934:	00001638 	andeq	r1, r0, r8, lsr r6
    3938:	00963414 	addseq	r3, r6, r4, lsl r4
    393c:	0005ac00 	andeq	sl, r5, r0, lsl #24
    3940:	00058f00 	andeq	r8, r5, r0, lsl #30
    3944:	50011200 	andpl	r1, r1, r0, lsl #4
    3948:	00007402 	andeq	r7, r0, r2, lsl #8
    394c:	00964011 	addseq	r4, r6, r1, lsl r0
    3950:	0005b800 	andeq	fp, r5, r0, lsl #16
    3954:	50011200 	andpl	r1, r1, r0, lsl #4
    3958:	00007402 	andeq	r7, r0, r2, lsl #8
    395c:	089f1a00 	ldmeq	pc, {r9, fp, ip}	; <UNPREDICTABLE>
    3960:	089f0000 	ldmeq	pc, {}	; <UNPREDICTABLE>
    3964:	a1030000 	mrsge	r0, (UNDEF: 3)
    3968:	0b061a06 	bleq	18a188 <__bss_end__+0x17f720>
    396c:	0b060000 	bleq	183974 <__bss_end__+0x178f0c>
    3970:	c8030000 	stmdagt	r3, {}	; <UNPREDICTABLE>
    3974:	08fa1a0b 	ldmeq	sl!, {r0, r1, r3, r9, fp, ip}^
    3978:	08fa0000 	ldmeq	sl!, {}^	; <UNPREDICTABLE>
    397c:	b3030000 	movwlt	r0, #12288	; 0x3000
    3980:	0af41a06 	beq	ffd0a1a0 <__bss_end__+0xffcff738>
    3984:	0af40000 	beq	ffd0398c <__bss_end__+0xffcf8f24>
    3988:	19040000 	stmdbne	r4, {}	; <UNPREDICTABLE>
    398c:	08e90006 	stmiaeq	r9!, {r1, r2}^
    3990:	00040000 	andeq	r0, r4, r0
    3994:	00001345 	andeq	r1, r0, r5, asr #6
    3998:	09fa0104 	ldmibeq	sl!, {r2, r8}^
    399c:	960c0000 	strls	r0, [ip], -r0
    39a0:	aa00000b 	bge	39d4 <__code_start__-0x462c>
    39a4:	f4000009 	vst4.8	{d0-d3}, [r0], r9
    39a8:	b0000097 	mullt	r0, r7, r0
    39ac:	78000003 	stmdavc	r0, {r0, r1}
    39b0:	0200001d 	andeq	r0, r0, #29, 0
    39b4:	6e690504 	cdpvs	5, 6, cr0, cr9, cr4, {0}
    39b8:	04030074 	streq	r0, [r3], #-116	; 0xffffff8c
    39bc:	0000c907 	andeq	ip, r0, r7, lsl #18
    39c0:	06010300 	streq	r0, [r1], -r0, lsl #6
    39c4:	0000005d 	andeq	r0, r0, sp, asr r0
    39c8:	80050203 	andhi	r0, r5, r3, lsl #4
    39cc:	03000001 	movweq	r0, #1
    39d0:	01640504 	cmneq	r4, r4, lsl #10
    39d4:	08030000 	stmdaeq	r3, {}	; <UNPREDICTABLE>
    39d8:	00015f05 	andeq	r5, r1, r5, lsl #30
    39dc:	08010300 	stmdaeq	r1, {r8, r9}
    39e0:	0000005b 	andeq	r0, r0, fp, asr r0
    39e4:	76070203 	strvc	r0, [r7], -r3, lsl #4
    39e8:	04000000 	streq	r0, [r0], #-0
    39ec:	0000019d 	muleq	r0, sp, r1
    39f0:	69193403 	ldmdbvs	r9, {r0, r1, sl, ip, sp}
    39f4:	03000000 	movweq	r0, #0
    39f8:	00c40704 	sbceq	r0, r4, r4, lsl #14
    39fc:	08030000 	stmdaeq	r3, {}	; <UNPREDICTABLE>
    3a00:	0000bf07 	andeq	fp, r0, r7, lsl #30
    3a04:	08010300 	stmdaeq	r1, {r8, r9}
    3a08:	00000064 	andeq	r0, r0, r4, rrx
    3a0c:	00007705 	andeq	r7, r0, r5, lsl #14
    3a10:	04080300 	streq	r0, [r8], #-768	; 0xfffffd00
    3a14:	00000519 	andeq	r0, r0, r9, lsl r5
    3a18:	07070406 	streq	r0, [r7, -r6, lsl #8]
    3a1c:	00002c04 	andeq	r2, r0, r4, lsl #24
    3a20:	061f0100 	ldreq	r0, [pc], -r0, lsl #2
    3a24:	000000a4 	andeq	r0, r0, r4, lsr #1
    3a28:	000b3008 	andeq	r3, fp, r8
    3a2c:	20000000 	andcs	r0, r0, r0
    3a30:	00090000 	andeq	r0, r9, r0
    3a34:	01000007 	tsteq	r0, r7
    3a38:	00770d22 	rsbseq	r0, r7, r2, lsr #26
    3a3c:	5c0a0000 	stcpl	0, cr0, [sl], {-0}
    3a40:	01000004 	tsteq	r0, r4
    3a44:	00c20e23 	sbceq	r0, r2, r3, lsr #28
    3a48:	03050000 	movweq	r0, #20480	; 0x5000
    3a4c:	0000a62c 	andeq	sl, r0, ip, lsr #12
    3a50:	0077040b 	rsbseq	r0, r7, fp, lsl #8
    3a54:	140a0000 	strne	r0, [sl], #-0
    3a58:	0100000b 	tsteq	r0, fp
    3a5c:	00c20e24 	sbceq	r0, r2, r4, lsr #28
    3a60:	03050000 	movweq	r0, #20480	; 0x5000
    3a64:	0000a628 	andeq	sl, r0, r8, lsr #12
    3a68:	000b750a 	andeq	r7, fp, sl, lsl #10
    3a6c:	0e250100 	sufeqs	f0, f5, f0
    3a70:	000000c2 	andeq	r0, r0, r2, asr #1
    3a74:	a6240305 	strtge	r0, [r4], -r5, lsl #6
    3a78:	4b0c0000 	blmi	303a80 <__bss_end__+0x2f9018>
    3a7c:	0100000b 	tsteq	r0, fp
    3a80:	9b440675 	blls	110545c <__bss_end__+0x10fa9f4>
    3a84:	00600000 	rsbeq	r0, r0, r0
    3a88:	9c010000 	stcls	0, cr0, [r1], {-0}
    3a8c:	00000164 	andeq	r0, r0, r4, ror #2
    3a90:	0100700d 	tsteq	r0, sp
    3a94:	008a1675 	addeq	r1, sl, r5, ror r6
    3a98:	16600000 	strbtne	r0, [r0], -r0
    3a9c:	165a0000 	ldrbne	r0, [sl], -r0
    3aa0:	a70e0000 	strge	r0, [lr, -r0]
    3aa4:	74000000 	strvc	r0, [r0], #-0
    3aa8:	05000001 	streq	r0, [r0, #-1]
    3aac:	00a61003 	adceq	r1, r6, r3
    3ab0:	9b900f00 	blls	fe4076b8 <__bss_end__+0xfe3fcc50>
    3ab4:	08bc0000 	ldmeq	ip!, {}	; <UNPREDICTABLE>
    3ab8:	015a0000 	cmpeq	sl, r0
    3abc:	01100000 	tsteq	r0, r0
    3ac0:	88030550 	stmdahi	r3, {r4, r6, r8, sl}
    3ac4:	100000a5 	andne	r0, r0, r5, lsr #1
    3ac8:	03055101 	movweq	r5, #20737	; 0x5101
    3acc:	0000a420 	andeq	sl, r0, r0, lsr #8
    3ad0:	05520110 	ldrbeq	r0, [r2, #-272]	; 0xfffffef0
    3ad4:	00a61003 	adceq	r1, r6, r3
    3ad8:	53011000 	movwpl	r1, #4096	; 0x1000
    3adc:	10770802 	rsbsne	r0, r7, r2, lsl #16
    3ae0:	03007d02 	movweq	r7, #3330	; 0xd02
    3ae4:	005001f3 	ldrsheq	r0, [r0], #-19	; 0xffffffed
    3ae8:	009b9411 	addseq	r9, fp, r1, lsl r4
    3aec:	0008c800 	andeq	ip, r8, r0, lsl #16
    3af0:	7e120000 	cdpvc	0, 1, cr0, cr2, cr0, {0}
    3af4:	74000000 	strvc	r0, [r0], #-0
    3af8:	13000001 	movwne	r0, #1
    3afc:	0000002c 	andeq	r0, r0, ip, lsr #32
    3b00:	64050009 	strvs	r0, [r5], #-9
    3b04:	14000001 	strne	r0, [r0], #-1
    3b08:	00000b39 	andeq	r0, r0, r9, lsr fp
    3b0c:	30067201 	andcc	r7, r6, r1, lsl #4
    3b10:	1400009b 	strne	r0, [r0], #-155	; 0xffffff65
    3b14:	01000000 	mrseq	r0, (UNDEF: 0)
    3b18:	017a0c9c 			; <UNDEFINED> instruction: 0x017a0c9c
    3b1c:	6f010000 	svcvs	0x00010000
    3b20:	009b2c06 	addseq	r2, fp, r6, lsl #24
    3b24:	00000400 	andeq	r0, r0, r0, lsl #8
    3b28:	ae9c0100 	fmlgee	f0, f4, f0
    3b2c:	15000001 	strne	r0, [r0, #-1]
    3b30:	6f010070 	svcvs	0x00010070
    3b34:	00008a12 	andeq	r8, r0, r2, lsl sl
    3b38:	00500100 	subseq	r0, r0, r0, lsl #2
    3b3c:	000bd816 	andeq	sp, fp, r6, lsl r8
    3b40:	075e0100 	ldrbeq	r0, [lr, -r0, lsl #2]
    3b44:	0000008a 	andeq	r0, r0, sl, lsl #1
    3b48:	00009a14 	andeq	r9, r0, r4, lsl sl
    3b4c:	00000118 	andeq	r0, r0, r8, lsl r1
    3b50:	042c9c01 	strteq	r9, [ip], #-3073	; 0xfffff3ff
    3b54:	56170000 	ldrpl	r0, [r7], -r0
    3b58:	01000003 	tsteq	r0, r3
    3b5c:	002c205e 	eoreq	r2, ip, lr, asr r0
    3b60:	16a10000 	strtne	r0, [r1], r0
    3b64:	168d0000 	strne	r0, [sp], r0
    3b68:	55170000 	ldrpl	r0, [r7, #-0]
    3b6c:	0100000b 	tsteq	r0, fp
    3b70:	002c315e 	eoreq	r3, ip, lr, asr r1
    3b74:	173a0000 	ldrne	r0, [sl, -r0]!
    3b78:	17260000 	strne	r0, [r6, -r0]!
    3b7c:	a70e0000 	strge	r0, [lr, -r0]
    3b80:	3c000000 	stccc	0, cr0, [r0], {-0}
    3b84:	05000004 	streq	r0, [r0, #-4]
    3b88:	00a5f803 	adceq	pc, r5, r3, lsl #16
    3b8c:	00681800 	rsbeq	r1, r8, r0, lsl #16
    3b90:	2c0e6601 	stccs	6, cr6, [lr], {1}
    3b94:	f0000000 			; <UNDEFINED> instruction: 0xf0000000
    3b98:	e4000017 	str	r0, [r0], #-23	; 0xffffffe9
    3b9c:	19000017 	stmdbne	r0, {r0, r1, r2, r4}
    3ba0:	00000854 	andeq	r0, r0, r4, asr r8
    3ba4:	00009a24 	andeq	r9, r0, r4, lsr #20
    3ba8:	009a2404 	addseq	r2, sl, r4, lsl #8
    3bac:	00000400 	andeq	r0, r0, r0, lsl #8
    3bb0:	05600100 	strbeq	r0, [r0, #-256]!	; 0xffffff00
    3bb4:	00000238 	andeq	r0, r0, r8, lsr r2
    3bb8:	0008651a 	andeq	r6, r8, sl, lsl r5
    3bbc:	00184400 	andseq	r4, r8, r0, lsl #8
    3bc0:	00184200 	andseq	r4, r8, r0, lsl #4
    3bc4:	96190000 	ldrls	r0, [r9], -r0
    3bc8:	30000008 	andcc	r0, r0, r8
    3bcc:	0200009a 	andeq	r0, r0, #154, 0	; 0x9a
    3bd0:	00009a30 	andeq	r9, r0, r0, lsr sl
    3bd4:	00000008 	andeq	r0, r0, r8
    3bd8:	6c116101 	ldfvss	f6, [r1], {1}
    3bdc:	1a000002 	bne	3bec <__code_start__-0x4414>
    3be0:	000008b1 			; <UNDEFINED> instruction: 0x000008b1
    3be4:	00001859 	andeq	r1, r0, r9, asr r8
    3be8:	00001857 	andeq	r1, r0, r7, asr r8
    3bec:	0008a71a 	andeq	sl, r8, sl, lsl r7
    3bf0:	00186f00 	andseq	r6, r8, r0, lsl #30
    3bf4:	00186d00 	andseq	r6, r8, r0, lsl #26
    3bf8:	1f1b0000 	svcne	0x001b0000
    3bfc:	40000008 	andmi	r0, r0, r8
    3c00:	0100009a 	swpeq	r0, sl, [r0]	; <UNPREDICTABLE>
    3c04:	000000c0 	andeq	r0, r0, r0, asr #1
    3c08:	0a096701 	beq	25d814 <__bss_end__+0x252dac>
    3c0c:	1a000003 	bne	3c20 <__code_start__-0x43e0>
    3c10:	0000083a 	andeq	r0, r0, sl, lsr r8
    3c14:	00001888 	andeq	r1, r0, r8, lsl #17
    3c18:	00001882 	andeq	r1, r0, r2, lsl #17
    3c1c:	0008301a 	andeq	r3, r8, sl, lsl r0
    3c20:	0018cf00 	andseq	ip, r8, r0, lsl #30
    3c24:	0018c700 	andseq	ip, r8, r0, lsl #14
    3c28:	00c01c00 	sbceq	r1, r0, r0, lsl #24
    3c2c:	54190000 	ldrpl	r0, [r9], #-0
    3c30:	40000008 	andmi	r0, r0, r8
    3c34:	0400009a 	streq	r0, [r0], #-154	; 0xffffff66
    3c38:	00009a40 	andeq	r9, r0, r0, asr #20
    3c3c:	00000004 	andeq	r0, r0, r4
    3c40:	c7051101 	strgt	r1, [r5, -r1, lsl #2]
    3c44:	1a000002 	bne	3c54 <__code_start__-0x43ac>
    3c48:	00000865 	andeq	r0, r0, r5, ror #16
    3c4c:	0000190d 	andeq	r1, r0, sp, lsl #18
    3c50:	0000190b 	andeq	r1, r0, fp, lsl #18
    3c54:	9ad80f00 	bls	ff60785c <__bss_end__+0xff5fcdf4>
    3c58:	08bc0000 	ldmeq	ip!, {}	; <UNPREDICTABLE>
    3c5c:	02ff0000 	rscseq	r0, pc, #0, 0
    3c60:	01100000 	tsteq	r0, r0
    3c64:	68030550 	stmdavs	r3, {r4, r6, r8, sl}
    3c68:	1000009e 	mulne	r0, lr, r0
    3c6c:	03055101 	movweq	r5, #20737	; 0x5101
    3c70:	0000a420 	andeq	sl, r0, r0, lsr #8
    3c74:	05520110 	ldrbeq	r0, [r2, #-272]	; 0xfffffef0
    3c78:	00a60803 	adceq	r0, r6, r3, lsl #16
    3c7c:	53011000 	movwpl	r1, #4096	; 0x1000
    3c80:	02104101 	andseq	r4, r0, #1073741824	; 0x40000000
    3c84:	0305007d 	movweq	r0, #20605	; 0x507d
    3c88:	0000a534 	andeq	sl, r0, r4, lsr r5
    3c8c:	9adc1100 	bls	ff708094 <__bss_end__+0xff6fd62c>
    3c90:	08c80000 	stmiaeq	r8, {}^	; <UNPREDICTABLE>
    3c94:	00000000 	andeq	r0, r0, r0
    3c98:	00087019 	andeq	r7, r8, r9, lsl r0
    3c9c:	009a5800 	addseq	r5, sl, r0, lsl #16
    3ca0:	9a580300 	bls	16048a8 <__bss_end__+0x15f9e40>
    3ca4:	00040000 	andeq	r0, r4, r0
    3ca8:	68010000 	stmdavs	r1, {}	; <UNPREDICTABLE>
    3cac:	00033e05 	andeq	r3, r3, r5, lsl #28
    3cb0:	088b1a00 	stmeq	fp, {r9, fp, ip}
    3cb4:	19220000 	stmdbne	r2!, {}	; <UNPREDICTABLE>
    3cb8:	19200000 	stmdbne	r0!, {}	; <UNPREDICTABLE>
    3cbc:	811a0000 	tsthi	sl, r0
    3cc0:	37000008 	strcc	r0, [r0, -r8]
    3cc4:	35000019 	strcc	r0, [r0, #-25]	; 0xffffffe7
    3cc8:	00000019 	andeq	r0, r0, r9, lsl r0
    3ccc:	009a700f 	addseq	r7, sl, pc
    3cd0:	00044100 	andeq	r4, r4, r0, lsl #2
    3cd4:	00035300 	andeq	r5, r3, r0, lsl #6
    3cd8:	50011000 	andpl	r1, r1, r0
    3cdc:	5001f303 	andpl	pc, r1, r3, lsl #6
    3ce0:	9a940f00 	bls	fe5078e8 <__bss_end__+0xfe4fce80>
    3ce4:	08bc0000 	ldmeq	ip!, {}	; <UNPREDICTABLE>
    3ce8:	038c0000 	orreq	r0, ip, #0, 0
    3cec:	01100000 	tsteq	r0, r0
    3cf0:	68030550 	stmdavs	r3, {r4, r6, r8, sl}
    3cf4:	1000009e 	mulne	r0, lr, r0
    3cf8:	03055101 	movweq	r5, #20737	; 0x5101
    3cfc:	0000a420 	andeq	sl, r0, r0, lsr #8
    3d00:	05520110 	ldrbeq	r0, [r2, #-272]	; 0xfffffef0
    3d04:	00a5f803 	adceq	pc, r5, r3, lsl #16
    3d08:	53011000 	movwpl	r1, #4096	; 0x1000
    3d0c:	105f0802 	subsne	r0, pc, r2, lsl #16
    3d10:	05007d02 	streq	r7, [r0, #-3330]	; 0xfffff2fe
    3d14:	00a43003 	adceq	r3, r4, r3
    3d18:	98110000 	ldmdals	r1, {}	; <UNPREDICTABLE>
    3d1c:	c800009a 	stmdagt	r0, {r1, r3, r4, r7}
    3d20:	11000008 	tstne	r0, r8
    3d24:	00009a9c 	muleq	r0, ip, sl
    3d28:	000008d4 	ldrdeq	r0, [r0], -r4
    3d2c:	009ab80f 	addseq	fp, sl, pc, lsl #16
    3d30:	0008bc00 	andeq	fp, r8, r0, lsl #24
    3d34:	0003d700 	andeq	sp, r3, r0, lsl #14
    3d38:	50011000 	andpl	r1, r1, r0
    3d3c:	a4ec0305 	strbtge	r0, [ip], #773	; 0x305
    3d40:	01100000 	tsteq	r0, r0
    3d44:	20030551 	andcs	r0, r3, r1, asr r5
    3d48:	100000a4 	andne	r0, r0, r4, lsr #1
    3d4c:	03055201 	movweq	r5, #20993	; 0x5201
    3d50:	0000a5f8 	strdeq	sl, [r0], -r8
    3d54:	02530110 	subseq	r0, r3, #4
    3d58:	02106008 	andseq	r6, r0, #8, 0
    3d5c:	0305007d 	movweq	r0, #20605	; 0x507d
    3d60:	0000a520 	andeq	sl, r0, r0, lsr #10
    3d64:	9abc1100 	bls	fef0816c <__bss_end__+0xfeefd704>
    3d68:	08c80000 	stmiaeq	r8, {}^	; <UNPREDICTABLE>
    3d6c:	e0110000 	ands	r0, r1, r0
    3d70:	d400009a 	strle	r0, [r0], #-154	; 0xffffff66
    3d74:	0f000008 	svceq	0x00000008
    3d78:	00009afc 	strdeq	r9, [r0], -ip
    3d7c:	000008bc 			; <UNDEFINED> instruction: 0x000008bc
    3d80:	00000422 	andeq	r0, r0, r2, lsr #8
    3d84:	05500110 	ldrbeq	r0, [r0, #-272]	; 0xfffffef0
    3d88:	00a54003 	adceq	r4, r5, r3
    3d8c:	51011000 	mrspl	r1, (UNDEF: 1)
    3d90:	a4200305 	strtge	r0, [r0], #-773	; 0xfffffcfb
    3d94:	01100000 	tsteq	r0, r0
    3d98:	f8030552 			; <UNDEFINED> instruction: 0xf8030552
    3d9c:	100000a5 	andne	r0, r0, r5, lsr #1
    3da0:	08025301 	stmdaeq	r2, {r0, r8, r9, ip, lr}
    3da4:	7d021068 	stcvc	0, cr1, [r2, #-416]	; 0xfffffe60
    3da8:	6c030500 	cfstr32vs	mvfx0, [r3], {-0}
    3dac:	000000a5 	andeq	r0, r0, r5, lsr #1
    3db0:	009b0011 	addseq	r0, fp, r1, lsl r0
    3db4:	0008c800 	andeq	ip, r8, r0, lsl #16
    3db8:	7e120000 	cdpvc	0, 1, cr0, cr2, cr0, {0}
    3dbc:	3c000000 	stccc	0, cr0, [r0], {-0}
    3dc0:	13000004 	movwne	r0, #4
    3dc4:	0000002c 	andeq	r0, r0, ip, lsr #32
    3dc8:	2c05000f 	stccs	0, cr0, [r5], {15}
    3dcc:	16000004 	strne	r0, [r0], -r4
    3dd0:	0000048d 	andeq	r0, r0, sp, lsl #9
    3dd4:	8a075301 	bhi	1d89e0 <__bss_end__+0x1cdf78>
    3dd8:	b0000000 	andlt	r0, r0, r0
    3ddc:	64000099 	strvs	r0, [r0], #-153	; 0xffffff67
    3de0:	01000000 	mrseq	r0, (UNDEF: 0)
    3de4:	0005089c 	muleq	r5, ip, r8
    3de8:	03561700 	cmpeq	r6, #0, 14
    3dec:	53010000 	movwpl	r0, #4096	; 0x1000
    3df0:	00002c18 	andeq	r2, r0, r8, lsl ip
    3df4:	00195200 	andseq	r5, r9, r0, lsl #4
    3df8:	00194a00 	andseq	r4, r9, r0, lsl #20
    3dfc:	00a70e00 	adceq	r0, r7, r0, lsl #28
    3e00:	05180000 	ldreq	r0, [r8, #-0]
    3e04:	03050000 	movweq	r0, #20480	; 0x5000
    3e08:	0000a5f0 	strdeq	sl, [r0], -r0
    3e0c:	000b2b1d 	andeq	r2, fp, sp, lsl fp
    3e10:	0b550100 	bleq	1544218 <__bss_end__+0x15397b0>
    3e14:	0000008a 	andeq	r0, r0, sl, lsl #1
    3e18:	0000198a 	andeq	r1, r0, sl, lsl #19
    3e1c:	00001986 	andeq	r1, r0, r6, lsl #19
    3e20:	0099c80f 	addseq	ip, r9, pc, lsl #16
    3e24:	00051d00 	andeq	r1, r5, r0, lsl #26
    3e28:	0004a600 	andeq	sl, r4, r0, lsl #12
    3e2c:	50011000 	andpl	r1, r1, r0
    3e30:	00007402 	andeq	r7, r0, r2, lsl #8
    3e34:	0099d80f 	addseq	sp, r9, pc, lsl #16
    3e38:	0008e000 	andeq	lr, r8, r0
    3e3c:	0004c500 	andeq	ip, r4, r0, lsl #10
    3e40:	50011000 	andpl	r1, r1, r0
    3e44:	10007502 	andne	r7, r0, r2, lsl #10
    3e48:	30015101 	andcc	r5, r1, r1, lsl #2
    3e4c:	02520110 	subseq	r0, r2, #4
    3e50:	0f000074 	svceq	0x00000074
    3e54:	00009a00 	andeq	r9, r0, r0, lsl #20
    3e58:	000008bc 			; <UNDEFINED> instruction: 0x000008bc
    3e5c:	000004fe 	strdeq	r0, [r0], -lr
    3e60:	05500110 	ldrbeq	r0, [r0, #-272]	; 0xfffffef0
    3e64:	009e6803 	addseq	r6, lr, r3, lsl #16
    3e68:	51011000 	mrspl	r1, (UNDEF: 1)
    3e6c:	a4200305 	strtge	r0, [r0], #-773	; 0xfffffcfb
    3e70:	01100000 	tsteq	r0, r0
    3e74:	f0030552 			; <UNDEFINED> instruction: 0xf0030552
    3e78:	100000a5 	andne	r0, r0, r5, lsr #1
    3e7c:	08025301 	stmdaeq	r2, {r0, r8, r9, ip, lr}
    3e80:	7d021054 	stcvc	0, cr1, [r2, #-336]	; 0xfffffeb0
    3e84:	30030500 	andcc	r0, r3, r0, lsl #10
    3e88:	000000a4 	andeq	r0, r0, r4, lsr #1
    3e8c:	009a0411 	addseq	r0, sl, r1, lsl r4
    3e90:	0008c800 	andeq	ip, r8, r0, lsl #16
    3e94:	7e120000 	cdpvc	0, 1, cr0, cr2, cr0, {0}
    3e98:	18000000 	stmdane	r0, {}	; <UNPREDICTABLE>
    3e9c:	13000005 	movwne	r0, #5
    3ea0:	0000002c 	andeq	r0, r0, ip, lsr #32
    3ea4:	08050007 	stmdaeq	r5, {r0, r1, r2}
    3ea8:	16000005 	strne	r0, [r0], -r5
    3eac:	00000b7e 	andeq	r0, r0, lr, ror fp
    3eb0:	8a074701 	bhi	1d5abc <__bss_end__+0x1cb054>
    3eb4:	18000000 	stmdane	r0, {}	; <UNPREDICTABLE>
    3eb8:	98000099 	stmdals	r0, {r0, r3, r4, r7}
    3ebc:	01000000 	mrseq	r0, (UNDEF: 0)
    3ec0:	00062b9c 	muleq	r6, ip, fp
    3ec4:	03561700 	cmpeq	r6, #0, 14
    3ec8:	47010000 	strmi	r0, [r1, -r0]
    3ecc:	00002c20 	andeq	r2, r0, r0, lsr #24
    3ed0:	0019b800 	andseq	fp, r9, r0, lsl #16
    3ed4:	0019a800 	andseq	sl, r9, r0, lsl #16
    3ed8:	00a70e00 	adceq	r0, r7, r0, lsl #28
    3edc:	043c0000 	ldrteq	r0, [ip], #-0
    3ee0:	03050000 	movweq	r0, #20480	; 0x5000
    3ee4:	0000a5e0 	andeq	sl, r0, r0, ror #11
    3ee8:	000b2b1d 	andeq	r2, fp, sp, lsl fp
    3eec:	0b4b0100 	bleq	12c42f4 <__bss_end__+0x12b988c>
    3ef0:	0000008a 	andeq	r0, r0, sl, lsl #1
    3ef4:	00001a2c 	andeq	r1, r0, ip, lsr #20
    3ef8:	00001a26 	andeq	r1, r0, r6, lsr #20
    3efc:	00081f1b 	andeq	r1, r8, fp, lsl pc
    3f00:	00992800 	addseq	r2, r9, r0, lsl #16
    3f04:	00a80300 	adceq	r0, r8, r0, lsl #6
    3f08:	49010000 	stmdbmi	r1, {}	; <UNPREDICTABLE>
    3f0c:	0005a30e 	andeq	sl, r5, lr, lsl #6
    3f10:	083a1a00 	ldmdaeq	sl!, {r9, fp, ip}
    3f14:	1a5b0000 	bne	16c3f1c <__bss_end__+0x16b94b4>
    3f18:	1a590000 	bne	1643f20 <__bss_end__+0x16394b8>
    3f1c:	301a0000 	andscc	r0, sl, r0
    3f20:	73000008 	movwvc	r0, #8
    3f24:	6f00001a 	svcvs	0x0000001a
    3f28:	1e00001a 	mcrne	0, 0, r0, cr0, cr10, {0}
    3f2c:	000000a8 	andeq	r0, r0, r8, lsr #1
    3f30:	99700f00 	ldmdbls	r0!, {r8, r9, sl, fp}^
    3f34:	08bc0000 	ldmeq	ip!, {}	; <UNPREDICTABLE>
    3f38:	05dc0000 	ldrbeq	r0, [ip]
    3f3c:	01100000 	tsteq	r0, r0
    3f40:	68030550 	stmdavs	r3, {r4, r6, r8, sl}
    3f44:	1000009e 	mulne	r0, lr, r0
    3f48:	03055101 	movweq	r5, #20737	; 0x5101
    3f4c:	0000a420 	andeq	sl, r0, r0, lsr #8
    3f50:	05520110 	ldrbeq	r0, [r2, #-272]	; 0xfffffef0
    3f54:	00a5e003 	adceq	lr, r5, r3
    3f58:	53011000 	movwpl	r1, #4096	; 0x1000
    3f5c:	10480802 	subne	r0, r8, r2, lsl #16
    3f60:	05007d02 	streq	r7, [r0, #-3330]	; 0xfffff2fe
    3f64:	00a43003 	adceq	r3, r4, r3
    3f68:	74110000 	ldrvc	r0, [r1], #-0
    3f6c:	c8000099 	stmdagt	r0, {r0, r3, r4, r7}
    3f70:	0f000008 	svceq	0x00000008
    3f74:	00009994 	muleq	r0, r4, r9
    3f78:	000008bc 			; <UNDEFINED> instruction: 0x000008bc
    3f7c:	00000621 	andeq	r0, r0, r1, lsr #12
    3f80:	05500110 	ldrbeq	r0, [r0, #-272]	; 0xfffffef0
    3f84:	00a4ac03 	adceq	sl, r4, r3, lsl #24
    3f88:	51011000 	mrspl	r1, (UNDEF: 1)
    3f8c:	a4200305 	strtge	r0, [r0], #-773	; 0xfffffcfb
    3f90:	01100000 	tsteq	r0, r0
    3f94:	e0030552 	and	r0, r3, r2, asr r5
    3f98:	100000a5 	andne	r0, r0, r5, lsr #1
    3f9c:	08025301 	stmdaeq	r2, {r0, r8, r9, ip, lr}
    3fa0:	7d02104e 	stcvc	0, cr1, [r2, #-312]	; 0xfffffec8
    3fa4:	01f30800 	mvnseq	r0, r0, lsl #16
    3fa8:	09072350 	stmdbeq	r7, {r4, r6, r8, r9, sp}
    3fac:	11001af8 	strdne	r1, [r0, -r8]
    3fb0:	00009998 	muleq	r0, r8, r9
    3fb4:	000008c8 	andeq	r0, r0, r8, asr #17
    3fb8:	0ba00c00 	bleq	fe806fc0 <__bss_end__+0xfe7fc558>
    3fbc:	3c010000 	stccc	0, cr0, [r1], {-0}
    3fc0:	0098c006 	addseq	ip, r8, r6
    3fc4:	00005800 	andeq	r5, r0, r0, lsl #16
    3fc8:	cf9c0100 	svcgt	0x009c0100
    3fcc:	0a000006 	beq	3fec <__code_start__-0x4014>
    3fd0:	000003c7 	andeq	r0, r0, r7, asr #7
    3fd4:	25103d01 	ldrcs	r3, [r0, #-3329]	; 0xfffff2ff
    3fd8:	05000000 	streq	r0, [r0, #-0]
    3fdc:	00aa6003 	adceq	r6, sl, r3
    3fe0:	00a70e00 	adceq	r0, r7, r0, lsl #28
    3fe4:	06df0000 	ldrbeq	r0, [pc], r0
    3fe8:	03050000 	movweq	r0, #20480	; 0x5000
    3fec:	0000a5d0 	ldrdeq	sl, [r0], -r0
    3ff0:	2c040707 	stccs	7, cr0, [r4], {7}
    3ff4:	01000000 	mrseq	r0, (UNDEF: 0)
    3ff8:	067a0a42 	ldrbteq	r0, [sl], -r2, asr #20
    3ffc:	67080000 	strvs	r0, [r8, -r0]
    4000:	0000000b 	andeq	r0, r0, fp
    4004:	00001000 	andeq	r1, r0, r0
    4008:	0098ec0f 	addseq	lr, r8, pc, lsl #24
    400c:	0006e400 	andeq	lr, r6, r0, lsl #8
    4010:	00069600 	andeq	r9, r6, r0, lsl #12
    4014:	50011000 	andpl	r1, r1, r0
    4018:	24404003 	strbcs	r4, [r0], #-3
    401c:	03510110 	cmpeq	r1, #4
    4020:	00244840 	eoreq	r4, r4, r0, asr #16
    4024:	0099040f 	addseq	r0, r9, pc, lsl #8
    4028:	0008bc00 	andeq	fp, r8, r0, lsl #24
    402c:	0006c500 	andeq	ip, r6, r0, lsl #10
    4030:	50011000 	andpl	r1, r1, r0
    4034:	a47c0305 	ldrbtge	r0, [ip], #-773	; 0xfffffcfb
    4038:	01100000 	tsteq	r0, r0
    403c:	20030551 	andcs	r0, r3, r1, asr r5
    4040:	100000a4 	andne	r0, r0, r4, lsr #1
    4044:	03055201 	movweq	r5, #20993	; 0x5201
    4048:	0000a5d0 	ldrdeq	sl, [r0], -r0
    404c:	02530110 	subseq	r0, r3, #4
    4050:	11004008 	tstne	r0, r8
    4054:	00009908 	andeq	r9, r0, r8, lsl #18
    4058:	000008c8 	andeq	r0, r0, r8, asr #17
    405c:	007e1200 	rsbseq	r1, lr, r0, lsl #4
    4060:	06df0000 	ldrbeq	r0, [pc], r0
    4064:	2c130000 	ldccs	0, cr0, [r3], {-0}
    4068:	0c000000 	stceq	0, cr0, [r0], {-0}
    406c:	06cf0500 	strbeq	r0, [pc], r0, lsl #10
    4070:	950c0000 	strls	r0, [ip, #-0]
    4074:	01000004 	tsteq	r0, r4
    4078:	9824062d 	stmdals	r4!, {r0, r2, r3, r5, r9, sl}
    407c:	009c0000 	addseq	r0, ip, r0
    4080:	9c010000 	stcls	0, cr0, [r1], {-0}
    4084:	000007c8 	andeq	r0, r0, r8, asr #15
    4088:	000b2a17 	andeq	r2, fp, r7, lsl sl
    408c:	262d0100 	strtcs	r0, [sp], -r0, lsl #2
    4090:	0000002c 	andeq	r0, r0, ip, lsr #32
    4094:	00001aa1 	andeq	r1, r0, r1, lsr #21
    4098:	00001a93 	muleq	r0, r3, sl
    409c:	000b1f17 	andeq	r1, fp, r7, lsl pc
    40a0:	362d0100 	strtcc	r0, [sp], -r0, lsl #2
    40a4:	0000002c 	andeq	r0, r0, ip, lsr #32
    40a8:	00001b09 	andeq	r1, r0, r9, lsl #22
    40ac:	00001b01 	andeq	r1, r0, r1, lsl #22
    40b0:	000b2b1d 	andeq	r2, fp, sp, lsl fp
    40b4:	0b2e0100 	bleq	b844bc <__bss_end__+0xb79a54>
    40b8:	000000c2 	andeq	r0, r0, r2, asr #1
    40bc:	00001b51 	andeq	r1, r0, r1, asr fp
    40c0:	00001b43 	andeq	r1, r0, r3, asr #22
    40c4:	0000a70e 	andeq	sl, r0, lr, lsl #14
    40c8:	0007d800 	andeq	sp, r7, r0, lsl #16
    40cc:	b8030500 	stmdalt	r3, {r8, sl}
    40d0:	0f0000a5 	svceq	0x000000a5
    40d4:	0000987c 	andeq	r9, r0, ip, ror r8
    40d8:	000008bc 			; <UNDEFINED> instruction: 0x000008bc
    40dc:	0000077e 	andeq	r0, r0, lr, ror r7
    40e0:	05500110 	ldrbeq	r0, [r0, #-272]	; 0xfffffef0
    40e4:	009e6803 	addseq	r6, lr, r3, lsl #16
    40e8:	51011000 	mrspl	r1, (UNDEF: 1)
    40ec:	a4200305 	strtge	r0, [r0], #-773	; 0xfffffcfb
    40f0:	01100000 	tsteq	r0, r0
    40f4:	b8030552 	stmdalt	r3, {r1, r4, r6, r8, sl}
    40f8:	100000a5 	andne	r0, r0, r5, lsr #1
    40fc:	08025301 	stmdaeq	r2, {r0, r8, r9, ip, lr}
    4100:	7d021030 	stcvc	0, cr1, [r2, #-192]	; 0xffffff40
    4104:	2c030500 	cfstr32cs	mvfx0, [r3], {-0}
    4108:	000000a4 	andeq	r0, r0, r4, lsr #1
    410c:	00988011 	addseq	r8, r8, r1, lsl r0
    4110:	0008c800 	andeq	ip, r8, r0, lsl #16
    4114:	98a40f00 	stmials	r4!, {r8, r9, sl, fp}
    4118:	08bc0000 	ldmeq	ip!, {}	; <UNPREDICTABLE>
    411c:	07be0000 	ldreq	r0, [lr, r0]!
    4120:	01100000 	tsteq	r0, r0
    4124:	38030550 	stmdacc	r3, {r4, r6, r8, sl}
    4128:	100000a4 	andne	r0, r0, r4, lsr #1
    412c:	03055101 	movweq	r5, #20737	; 0x5101
    4130:	0000a420 	andeq	sl, r0, r0, lsr #8
    4134:	05520110 	ldrbeq	r0, [r2, #-272]	; 0xfffffef0
    4138:	00a5b803 	adceq	fp, r5, r3, lsl #16
    413c:	53011000 	movwpl	r1, #4096	; 0x1000
    4140:	10340802 	eorsne	r0, r4, r2, lsl #16
    4144:	03007d02 	movweq	r7, #3330	; 0xd02
    4148:	005001f3 	ldrsheq	r0, [r0], #-19	; 0xffffffed
    414c:	0098a811 	addseq	sl, r8, r1, lsl r8
    4150:	0008c800 	andeq	ip, r8, r0, lsl #16
    4154:	7e120000 	cdpvc	0, 1, cr0, cr2, cr0, {0}
    4158:	d8000000 	stmdale	r0, {}	; <UNPREDICTABLE>
    415c:	13000007 	movwne	r0, #7
    4160:	0000002c 	andeq	r0, r0, ip, lsr #32
    4164:	c8050016 	stmdagt	r5, {r1, r2, r4}
    4168:	1f000007 	svcne	0x00000007
    416c:	00000bb8 			; <UNDEFINED> instruction: 0x00000bb8
    4170:	8a072a01 	bhi	1ce97c <__bss_end__+0x1c3f14>
    4174:	14000000 	strne	r0, [r0], #-0
    4178:	10000098 	mulne	r0, r8, r0
    417c:	01000000 	mrseq	r0, (UNDEF: 0)
    4180:	0b0c1f9c 	bleq	30bff8 <__bss_end__+0x301590>
    4184:	29010000 	stmdbcs	r1, {}	; <UNPREDICTABLE>
    4188:	00008a07 	andeq	r8, r0, r7, lsl #20
    418c:	00980400 	addseq	r0, r8, r0, lsl #8
    4190:	00001000 	andeq	r1, r0, r0
    4194:	1f9c0100 	svcne	0x009c0100
    4198:	00000b6d 	andeq	r0, r0, sp, ror #22
    419c:	8a072801 	bhi	1ce1a8 <__bss_end__+0x1c3740>
    41a0:	f4000000 	vst4.8	{d0-d3}, [r0], r0
    41a4:	10000097 	mulne	r0, r7, r0
    41a8:	01000000 	mrseq	r0, (UNDEF: 0)
    41ac:	0b43209c 	bleq	10cc424 <__bss_end__+0x10c19bc>
    41b0:	10010000 	andne	r0, r1, r0
    41b4:	00002c18 	andeq	r2, r0, r8, lsl ip
    41b8:	08540300 	ldmdaeq	r4, {r8, r9}^
    41bc:	78210000 	stmdavc	r1!, {}	; <UNPREDICTABLE>
    41c0:	29100100 	ldmdbcs	r0, {r8}
    41c4:	0000002c 	andeq	r0, r0, ip, lsr #32
    41c8:	01006e21 	tsteq	r0, r1, lsr #28
    41cc:	002c3510 	eoreq	r3, ip, r0, lsl r5
    41d0:	a70e0000 	strge	r0, [lr, -r0]
    41d4:	18000000 	stmdane	r0, {}	; <UNPREDICTABLE>
    41d8:	05000005 	streq	r0, [r0, #-5]
    41dc:	00a60803 	adceq	r0, r6, r3, lsl #16
    41e0:	8e200000 	cdphi	0, 2, cr0, cr0, cr0, {0}
    41e4:	0100000b 	tsteq	r0, fp
    41e8:	002c180d 	eoreq	r1, ip, sp, lsl #16
    41ec:	70030000 	andvc	r0, r3, r0
    41f0:	21000008 	tstcs	r0, r8
    41f4:	0d010078 	stceq	0, cr0, [r1, #-480]	; 0xfffffe20
    41f8:	00002c29 	andeq	r2, r0, r9, lsr #24
    41fc:	ad200000 	stcge	0, cr0, [r0, #-0]
    4200:	0100000b 	tsteq	r0, fp
    4204:	002c1807 	eoreq	r1, ip, r7, lsl #16
    4208:	96030000 	strls	r0, [r3], -r0
    420c:	21000008 	tstcs	r0, r8
    4210:	07010078 	smlsdxeq	r1, r8, r0, r0
    4214:	00002c2c 	andeq	r2, r0, ip, lsr #24
    4218:	006e2100 	rsbeq	r2, lr, r0, lsl #2
    421c:	2c380701 	ldccs	7, cr0, [r8], #-4
    4220:	00000000 	andeq	r0, r0, r0
    4224:	000b5f20 	andeq	r5, fp, r0, lsr #30
    4228:	18040100 	stmdane	r4, {r8}
    422c:	0000005d 	andeq	r0, r0, sp, asr r0
    4230:	0008bc03 	andeq	fp, r8, r3, lsl #24
    4234:	00782100 	rsbseq	r2, r8, r0, lsl #2
    4238:	5d290401 	cfstrspl	mvf0, [r9, #-4]!
    423c:	21000000 	mrscs	r0, (UNDEF: 0)
    4240:	04010079 	streq	r0, [r1], #-121	; 0xffffff87
    4244:	00005d35 	andeq	r5, r0, r5, lsr sp
    4248:	6e220000 	cdpvs	0, 2, cr0, cr2, cr0, {0}
    424c:	6e000006 	cdpvs	0, 0, cr0, cr0, cr6, {0}
    4250:	02000006 	andeq	r0, r0, #6, 0
    4254:	69220628 	stmdbvs	r2!, {r3, r5, r9, sl}
    4258:	69000000 	stmdbvs	r0, {}	; <UNPREDICTABLE>
    425c:	02000000 	andeq	r0, r0, #0, 0
    4260:	c922066e 	stmdbgt	r2!, {r1, r2, r3, r5, r6, r9, sl}
    4264:	c900000b 	stmdbgt	r0, {r0, r1, r3}
    4268:	0200000b 	andeq	r0, r0, #11, 0
    426c:	9b22061d 	blls	885ae8 <__bss_end__+0x87b080>
    4270:	9b000000 	blls	4278 <__code_start__-0x3d88>
    4274:	02000000 	andeq	r0, r0, #0, 0
    4278:	490007f7 	stmdbmi	r0, {r0, r1, r2, r4, r5, r6, r7, r8, r9, sl}
    427c:	04000001 	streq	r0, [r0], #-1
    4280:	00156800 	andseq	r6, r5, r0, lsl #16
    4284:	3d010400 	cfstrscc	mvf0, [r1, #-0]
    4288:	0c000005 	stceq	0, cr0, [r0], {5}
    428c:	00000c06 	andeq	r0, r0, r6, lsl #24
    4290:	0000061e 	andeq	r0, r0, lr, lsl r6
    4294:	00009ba4 	andeq	r9, r0, r4, lsr #23
    4298:	0000003c 	andeq	r0, r0, ip, lsr r0
    429c:	0000210f 	andeq	r2, r0, pc, lsl #2
    42a0:	69050402 	stmdbvs	r5, {r1, sl}
    42a4:	0300746e 	movweq	r7, #1134	; 0x46e
    42a8:	00c90704 	sbceq	r0, r9, r4, lsl #14
    42ac:	01030000 	mrseq	r0, (UNDEF: 3)
    42b0:	00005d06 	andeq	r5, r0, r6, lsl #26
    42b4:	05020300 	streq	r0, [r2, #-768]	; 0xfffffd00
    42b8:	00000180 	andeq	r0, r0, r0, lsl #3
    42bc:	64050403 	strvs	r0, [r5], #-1027	; 0xfffffbfd
    42c0:	03000001 	movweq	r0, #1
    42c4:	015f0508 	cmpeq	pc, r8, lsl #10
    42c8:	01030000 	mrseq	r0, (UNDEF: 3)
    42cc:	00005b08 	andeq	r5, r0, r8, lsl #22
    42d0:	07020300 	streq	r0, [r2, -r0, lsl #6]
    42d4:	00000076 	andeq	r0, r0, r6, ror r0
    42d8:	c4070403 	strgt	r0, [r7], #-1027	; 0xfffffbfd
    42dc:	03000000 	movweq	r0, #0
    42e0:	00bf0708 	adcseq	r0, pc, r8, lsl #14
    42e4:	25040000 	strcs	r0, [r4, #-0]
    42e8:	7a000000 	bvc	42f0 <__code_start__-0x3d10>
    42ec:	05000000 	streq	r0, [r0, #-0]
    42f0:	00000025 	andeq	r0, r0, r5, lsr #32
    42f4:	016d0600 	cmneq	sp, r0, lsl #12
    42f8:	1c020000 	stcne	0, cr0, [r2], {-0}
    42fc:	0000860e 	andeq	r8, r0, lr, lsl #12
    4300:	6b040700 	blvs	105f08 <__bss_end__+0xfb4a0>
    4304:	04000000 	streq	r0, [r0], #-0
    4308:	00000025 	andeq	r0, r0, r5, lsr #32
    430c:	0000009b 	muleq	r0, fp, r0
    4310:	00009b05 	andeq	r9, r0, r5, lsl #22
    4314:	04070000 	streq	r0, [r7], #-0
    4318:	000000a8 	andeq	r0, r0, r8, lsr #1
    431c:	64080103 	strvs	r0, [r8], #-259	; 0xfffffefd
    4320:	08000000 	stmdaeq	r0, {}	; <UNPREDICTABLE>
    4324:	000000a1 	andeq	r0, r0, r1, lsr #1
    4328:	0006ac06 	andeq	sl, r6, r6, lsl #24
    432c:	0e210200 	cdpeq	2, 2, cr0, cr1, cr0, {0}
    4330:	000000b9 	strheq	r0, [r0], -r9
    4334:	008c0407 	addeq	r0, ip, r7, lsl #8
    4338:	7a090000 	bvc	244340 <__bss_end__+0x2398d8>
    433c:	01000000 	mrseq	r0, (UNDEF: 0)
    4340:	03050706 	movweq	r0, #22278	; 0x5706
    4344:	0000a630 	andeq	sl, r0, r0, lsr r6
    4348:	000bf90a 	andeq	pc, fp, sl, lsl #18
    434c:	060b0100 	streq	r0, [fp], -r0, lsl #2
    4350:	00009bd0 	ldrdeq	r9, [r0], -r0
    4354:	00000010 	andeq	r0, r0, r0, lsl r0
    4358:	00f19c01 	rscseq	r9, r1, r1, lsl #24
    435c:	660b0000 	strvs	r0, [fp], -r0
    4360:	0b010070 	bleq	44528 <__bss_end__+0x39ac0>
    4364:	00008619 	andeq	r8, r0, r9, lsl r6
    4368:	00500100 	subseq	r0, r0, r0, lsl #2
    436c:	000bc90c 	andeq	ip, fp, ip, lsl #18
    4370:	06080100 	streq	r0, [r8], -r0, lsl #2
    4374:	00009bb8 			; <UNDEFINED> instruction: 0x00009bb8
    4378:	00000018 	andeq	r0, r0, r8, lsl r0
    437c:	e80d9c01 	stmda	sp, {r0, sl, fp, ip, pc}
    4380:	0100000b 	tsteq	r0, fp
    4384:	00250c03 	eoreq	r0, r5, r3, lsl #24
    4388:	9ba40000 	blls	fe904390 <__bss_end__+0xfe8f9928>
    438c:	00140000 	andseq	r0, r4, r0
    4390:	9c010000 	stcls	0, cr0, [r1], {-0}
    4394:	00000140 	andeq	r0, r0, r0, asr #2
    4398:	0100630e 	tsteq	r0, lr, lsl #6
    439c:	00252103 	eoreq	r2, r5, r3, lsl #2
    43a0:	1bb50000 	blne	fed443a8 <__bss_end__+0xfed39940>
    43a4:	1bb10000 	blne	fec443ac <__bss_end__+0xfec39944>
    43a8:	b00f0000 	andlt	r0, pc, r0
    43ac:	4000009b 	mulmi	r0, fp, r0
    43b0:	10000001 	andne	r0, r0, r1
    43b4:	74025001 	strvc	r5, [r2], #-1
    43b8:	11000000 	mrsne	r0, (UNDEF: 0)
    43bc:	00000ada 	ldrdeq	r0, [r0], -sl
    43c0:	00000ada 	ldrdeq	r0, [r0], -sl
    43c4:	00064202 	andeq	r4, r6, r2, lsl #4
    43c8:	00000137 	andeq	r0, r0, r7, lsr r1
    43cc:	16770004 	ldrbtne	r0, [r7], -r4
    43d0:	01040000 	mrseq	r0, (UNDEF: 4)
    43d4:	0000053d 	andeq	r0, r0, sp, lsr r5
    43d8:	000c1c0c 	andeq	r1, ip, ip, lsl #24
    43dc:	00061e00 	andeq	r1, r6, r0, lsl #28
    43e0:	009be000 	addseq	lr, fp, r0
    43e4:	00003400 	andeq	r3, r0, r0, lsl #8
    43e8:	0021d100 	eoreq	sp, r1, r0, lsl #2
    43ec:	05040200 	streq	r0, [r4, #-512]	; 0xfffffe00
    43f0:	00746e69 	rsbseq	r6, r4, r9, ror #28
    43f4:	c9070403 	stmdbgt	r7, {r0, r1, sl}
    43f8:	03000000 	movweq	r0, #0
    43fc:	005d0601 	subseq	r0, sp, r1, lsl #12
    4400:	02030000 	andeq	r0, r3, #0, 0
    4404:	00018005 	andeq	r8, r1, r5
    4408:	05040300 	streq	r0, [r4, #-768]	; 0xfffffd00
    440c:	00000164 	andeq	r0, r0, r4, ror #2
    4410:	5f050803 	svcpl	0x00050803
    4414:	03000001 	movweq	r0, #1
    4418:	005b0801 	subseq	r0, fp, r1, lsl #16
    441c:	02030000 	andeq	r0, r3, #0, 0
    4420:	00007607 	andeq	r7, r0, r7, lsl #12
    4424:	07040300 	streq	r0, [r4, -r0, lsl #6]
    4428:	000000c4 	andeq	r0, r0, r4, asr #1
    442c:	bf070803 	svclt	0x00070803
    4430:	04000000 	streq	r0, [r0], #-0
    4434:	00000025 	andeq	r0, r0, r5, lsr #32
    4438:	0000007a 	andeq	r0, r0, sl, ror r0
    443c:	00002505 	andeq	r2, r0, r5, lsl #10
    4440:	6d060000 	stcvs	0, cr0, [r6, #-0]
    4444:	02000001 	andeq	r0, r0, #1, 0
    4448:	00860e1c 	addeq	r0, r6, ip, lsl lr
    444c:	04070000 	streq	r0, [r7], #-0
    4450:	0000006b 	andeq	r0, r0, fp, rrx
    4454:	00002504 	andeq	r2, r0, r4, lsl #10
    4458:	00009b00 	andeq	r9, r0, r0, lsl #22
    445c:	009b0500 	addseq	r0, fp, r0, lsl #10
    4460:	07000000 	streq	r0, [r0, -r0]
    4464:	0000a804 	andeq	sl, r0, r4, lsl #16
    4468:	08010300 	stmdaeq	r1, {r8, r9}
    446c:	00000064 	andeq	r0, r0, r4, rrx
    4470:	0000a108 	andeq	sl, r0, r8, lsl #2
    4474:	06ac0600 	strteq	r0, [ip], r0, lsl #12
    4478:	21020000 	mrscs	r0, (UNDEF: 2)
    447c:	0000b90e 	andeq	fp, r0, lr, lsl #18
    4480:	8c040700 	stchi	7, cr0, [r4], {-0}
    4484:	09000000 	stmdbeq	r0, {}	; <UNPREDICTABLE>
    4488:	00000757 	andeq	r0, r0, r7, asr r7
    448c:	34070401 	strcc	r0, [r7], #-1025	; 0xfffffbff
    4490:	e0000001 	and	r0, r0, r1
    4494:	3400009b 	strcc	r0, [r0], #-155	; 0xffffff65
    4498:	01000000 	mrseq	r0, (UNDEF: 0)
    449c:	0001349c 	muleq	r1, ip, r4
    44a0:	0c170a00 			; <UNDEFINED> instruction: 0x0c170a00
    44a4:	04010000 	streq	r0, [r1], #-0
    44a8:	00013415 	andeq	r3, r1, r5, lsl r4
    44ac:	0b500100 	bleq	14048b4 <__bss_end__+0x13f9e4c>
    44b0:	00637273 	rsbeq	r7, r3, r3, ror r2
    44b4:	9b270401 	blls	9c54c0 <__bss_end__+0x9baa58>
    44b8:	d7000000 	strle	r0, [r0, -r0]
    44bc:	d300001b 	movwle	r0, #27
    44c0:	0c00001b 	stceq	0, cr0, [r0], {27}
    44c4:	01003173 	tsteq	r0, r3, ror r1
    44c8:	01340b05 	teqeq	r4, r5, lsl #22
    44cc:	1c020000 	stcne	0, cr0, [r2], {-0}
    44d0:	1bf80000 	blne	ffe044d8 <__bss_end__+0xffdf9a70>
    44d4:	730c0000 	movwvc	r0, #49152	; 0xc000
    44d8:	06010032 			; <UNDEFINED> instruction: 0x06010032
    44dc:	00009b11 	andeq	r9, r0, r1, lsl fp
    44e0:	001c4700 	andseq	r4, ip, r0, lsl #14
    44e4:	001c4300 	andseq	r4, ip, r0, lsl #6
    44e8:	00630c00 	rsbeq	r0, r3, r0, lsl #24
    44ec:	a10a0701 	tstge	sl, r1, lsl #14
    44f0:	6b000000 	blvs	44f8 <__code_start__-0x3b08>
    44f4:	6700001c 	smladvs	r0, ip, r0, r0
    44f8:	0000001c 	andeq	r0, r0, ip, lsl r0
    44fc:	00a10407 	adceq	r0, r1, r7, lsl #8
    4500:	f7000000 			; <UNDEFINED> instruction: 0xf7000000
    4504:	04000000 	streq	r0, [r0], #-0
    4508:	00172d00 	andseq	r2, r7, r0, lsl #26
    450c:	3d010400 	cfstrscc	mvf0, [r1, #-0]
    4510:	0c000005 	stceq	0, cr0, [r0], {5}
    4514:	00000c2c 	andeq	r0, r0, ip, lsr #24
    4518:	0000061e 	andeq	r0, r0, lr, lsl r6
    451c:	00009c14 	andeq	r9, r0, r4, lsl ip
    4520:	0000002c 	andeq	r0, r0, ip, lsr #32
    4524:	000022df 	ldrdeq	r2, [r0], -pc	; <UNPREDICTABLE>
    4528:	69050402 	stmdbvs	r5, {r1, sl}
    452c:	0300746e 	movweq	r7, #1134	; 0x46e
    4530:	00c90704 	sbceq	r0, r9, r4, lsl #14
    4534:	01030000 	mrseq	r0, (UNDEF: 3)
    4538:	00005d06 	andeq	r5, r0, r6, lsl #26
    453c:	05020300 	streq	r0, [r2, #-768]	; 0xfffffd00
    4540:	00000180 	andeq	r0, r0, r0, lsl #3
    4544:	64050403 	strvs	r0, [r5], #-1027	; 0xfffffbfd
    4548:	03000001 	movweq	r0, #1
    454c:	015f0508 	cmpeq	pc, r8, lsl #10
    4550:	01030000 	mrseq	r0, (UNDEF: 3)
    4554:	00005b08 	andeq	r5, r0, r8, lsl #22
    4558:	07020300 	streq	r0, [r2, -r0, lsl #6]
    455c:	00000076 	andeq	r0, r0, r6, ror r0
    4560:	c4070403 	strgt	r0, [r7], #-1027	; 0xfffffbfd
    4564:	03000000 	movweq	r0, #0
    4568:	00bf0708 	adcseq	r0, pc, r8, lsl #14
    456c:	25040000 	strcs	r0, [r4, #-0]
    4570:	7a000000 	bvc	4578 <__code_start__-0x3a88>
    4574:	05000000 	streq	r0, [r0, #-0]
    4578:	00000025 	andeq	r0, r0, r5, lsr #32
    457c:	016d0600 	cmneq	sp, r0, lsl #12
    4580:	1c020000 	stcne	0, cr0, [r2], {-0}
    4584:	0000860e 	andeq	r8, r0, lr, lsl #12
    4588:	6b040700 	blvs	106190 <__bss_end__+0xfb728>
    458c:	04000000 	streq	r0, [r0], #-0
    4590:	00000025 	andeq	r0, r0, r5, lsr #32
    4594:	0000009b 	muleq	r0, fp, r0
    4598:	00009b05 	andeq	r9, r0, r5, lsl #22
    459c:	04070000 	streq	r0, [r7], #-0
    45a0:	000000a8 	andeq	r0, r0, r8, lsr #1
    45a4:	64080103 	strvs	r0, [r8], #-259	; 0xfffffefd
    45a8:	08000000 	stmdaeq	r0, {}	; <UNPREDICTABLE>
    45ac:	000000a1 	andeq	r0, r0, r1, lsr #1
    45b0:	0006ac06 	andeq	sl, r6, r6, lsl #24
    45b4:	0e210200 	cdpeq	2, 2, cr0, cr1, cr0, {0}
    45b8:	000000b9 	strheq	r0, [r0], -r9
    45bc:	008c0407 	addeq	r0, ip, r7, lsl #8
    45c0:	5e090000 	cdppl	0, 0, cr0, cr9, cr0, {0}
    45c4:	01000007 	tsteq	r0, r7
    45c8:	00250503 	eoreq	r0, r5, r3, lsl #10
    45cc:	9c140000 	ldcls	0, cr0, [r4], {-0}
    45d0:	002c0000 	eoreq	r0, ip, r0
    45d4:	9c010000 	stcls	0, cr0, [r1], {-0}
    45d8:	0100610a 	tsteq	r0, sl, lsl #2
    45dc:	009b1803 	addseq	r1, fp, r3, lsl #16
    45e0:	1c8d0000 	stcne	0, cr0, [sp], {0}
    45e4:	1c890000 	stcne	0, cr0, [r9], {0}
    45e8:	620a0000 	andvs	r0, sl, #0, 0
    45ec:	27030100 	strcs	r0, [r3, -r0, lsl #2]
    45f0:	0000009b 	muleq	r0, fp, r0
    45f4:	00001caf 	andeq	r1, r0, pc, lsr #25
    45f8:	00001cab 	andeq	r1, r0, fp, lsr #25
    45fc:	010f0000 	mrseq	r0, CPSR
    4600:	00040000 	andeq	r0, r4, r0
    4604:	000017bc 			; <UNDEFINED> instruction: 0x000017bc
    4608:	053d0104 	ldreq	r0, [sp, #-260]!	; 0xfffffefc
    460c:	3c0c0000 	stccc	0, cr0, [ip], {-0}
    4610:	1e00000c 	cdpne	0, 0, cr0, cr0, cr12, {0}
    4614:	40000006 	andmi	r0, r0, r6
    4618:	2000009c 	mulcs	r0, ip, r0
    461c:	a6000000 	strge	r0, [r0], -r0
    4620:	02000023 	andeq	r0, r0, #35, 0	; 0x23
    4624:	6e690504 	cdpvs	5, 6, cr0, cr9, cr4, {0}
    4628:	04030074 	streq	r0, [r3], #-116	; 0xffffff8c
    462c:	0000c907 	andeq	ip, r0, r7, lsl #18
    4630:	06010300 	streq	r0, [r1], -r0, lsl #6
    4634:	0000005d 	andeq	r0, r0, sp, asr r0
    4638:	80050203 	andhi	r0, r5, r3, lsl #4
    463c:	03000001 	movweq	r0, #1
    4640:	01640504 	cmneq	r4, r4, lsl #10
    4644:	08030000 	stmdaeq	r3, {}	; <UNPREDICTABLE>
    4648:	00015f05 	andeq	r5, r1, r5, lsl #30
    464c:	08010300 	stmdaeq	r1, {r8, r9}
    4650:	0000005b 	andeq	r0, r0, fp, asr r0
    4654:	76070203 	strvc	r0, [r7], -r3, lsl #4
    4658:	03000000 	movweq	r0, #0
    465c:	00c40704 	sbceq	r0, r4, r4, lsl #14
    4660:	08030000 	stmdaeq	r3, {}	; <UNPREDICTABLE>
    4664:	0000bf07 	andeq	fp, r0, r7, lsl #30
    4668:	00250400 	eoreq	r0, r5, r0, lsl #8
    466c:	007a0000 	rsbseq	r0, sl, r0
    4670:	25050000 	strcs	r0, [r5, #-0]
    4674:	00000000 	andeq	r0, r0, r0
    4678:	00016d06 	andeq	r6, r1, r6, lsl #26
    467c:	0e1c0200 	cdpeq	2, 1, cr0, cr12, cr0, {0}
    4680:	00000086 	andeq	r0, r0, r6, lsl #1
    4684:	006b0407 	rsbeq	r0, fp, r7, lsl #8
    4688:	25040000 	strcs	r0, [r4, #-0]
    468c:	9b000000 	blls	4694 <__code_start__-0x396c>
    4690:	05000000 	streq	r0, [r0, #-0]
    4694:	0000009b 	muleq	r0, fp, r0
    4698:	a8040700 	stmdage	r4, {r8, r9, sl}
    469c:	03000000 	movweq	r0, #0
    46a0:	00640801 	rsbeq	r0, r4, r1, lsl #16
    46a4:	a1080000 	mrsge	r0, (UNDEF: 8)
    46a8:	06000000 	streq	r0, [r0], -r0
    46ac:	000006ac 	andeq	r0, r0, ip, lsr #13
    46b0:	b90e2102 	stmdblt	lr, {r1, r8, sp}
    46b4:	07000000 	streq	r0, [r0, -r0]
    46b8:	00008c04 	andeq	r8, r0, r4, lsl #24
    46bc:	07280900 	streq	r0, [r8, -r0, lsl #18]!
    46c0:	03010000 	movweq	r0, #4096	; 0x1000
    46c4:	00010c07 	andeq	r0, r1, r7, lsl #24
    46c8:	009c4000 	addseq	r4, ip, r0
    46cc:	00002000 	andeq	r2, r0, r0
    46d0:	0c9c0100 	ldfeqs	f0, [ip], {0}
    46d4:	0a000001 	beq	46e0 <__code_start__-0x3920>
    46d8:	01003173 	tsteq	r0, r3, ror r1
    46dc:	010c1503 	tsteq	ip, r3, lsl #10
    46e0:	50010000 	andpl	r0, r1, r0
    46e4:	0032730b 	eorseq	r7, r2, fp, lsl #6
    46e8:	9b260301 	blls	9852f4 <__bss_end__+0x97a88c>
    46ec:	d3000000 	movwle	r0, #0
    46f0:	cd00001c 	stcgt	0, cr0, [r0, #-112]	; 0xffffff90
    46f4:	0c00001c 	stceq	0, cr0, [r0], {28}
    46f8:	04010073 	streq	r0, [r1], #-115	; 0xffffff8d
    46fc:	00010c14 	andeq	r0, r1, r4, lsl ip
    4700:	001d0400 	andseq	r0, sp, r0, lsl #8
    4704:	001cfe00 	andseq	pc, ip, r0, lsl #28
    4708:	04070000 	streq	r0, [r7], #-0
    470c:	000000a1 	andeq	r0, r0, r1, lsr #1
    4710:	00014e00 	andeq	r4, r1, r0, lsl #28
    4714:	72000400 	andvc	r0, r0, #0, 8
    4718:	04000018 	streq	r0, [r0], #-24	; 0xffffffe8
    471c:	00053d01 	andeq	r3, r5, r1, lsl #26
    4720:	0c4c0c00 	mcrreq	12, 0, r0, ip, cr0
    4724:	061e0000 	ldreq	r0, [lr], -r0
    4728:	00d80000 	sbcseq	r0, r8, r0
    472c:	00000000 	andeq	r0, r0, r0
    4730:	246b0000 	strbtcs	r0, [fp], #-0
    4734:	04020000 	streq	r0, [r2], #-0
    4738:	746e6905 	strbtvc	r6, [lr], #-2309	; 0xfffff6fb
    473c:	06070300 	streq	r0, [r7], -r0, lsl #6
    4740:	d1030000 	mrsle	r0, (UNDEF: 3)
    4744:	00003817 	andeq	r3, r0, r7, lsl r8
    4748:	07040400 	streq	r0, [r4, -r0, lsl #8]
    474c:	000000c9 	andeq	r0, r0, r9, asr #1
    4750:	5d060104 	stfpls	f0, [r6, #-16]
    4754:	04000000 	streq	r0, [r0], #-0
    4758:	01800502 	orreq	r0, r0, r2, lsl #10
    475c:	04040000 	streq	r0, [r4], #-0
    4760:	00016405 	andeq	r6, r1, r5, lsl #8
    4764:	05080400 	streq	r0, [r8, #-1024]	; 0xfffffc00
    4768:	0000015f 	andeq	r0, r0, pc, asr r1
    476c:	5b080104 	blpl	204b84 <__bss_end__+0x1fa11c>
    4770:	05000000 	streq	r0, [r0, #-0]
    4774:	0000005b 	andeq	r0, r0, fp, asr r0
    4778:	76070204 	strvc	r0, [r7], -r4, lsl #4
    477c:	04000000 	streq	r0, [r0], #-0
    4780:	00c40704 	sbceq	r0, r4, r4, lsl #14
    4784:	08040000 	stmdaeq	r4, {}	; <UNPREDICTABLE>
    4788:	0000bf07 	andeq	fp, r0, r7, lsl #30
    478c:	00250600 	eoreq	r0, r5, r0, lsl #12
    4790:	008b0000 	addeq	r0, fp, r0
    4794:	25070000 	strcs	r0, [r7, #-0]
    4798:	00000000 	andeq	r0, r0, r0
    479c:	00016d08 	andeq	r6, r1, r8, lsl #26
    47a0:	0e1c0200 	cdpeq	2, 1, cr0, cr12, cr0, {0}
    47a4:	00000097 	muleq	r0, r7, r0
    47a8:	007c0409 	rsbseq	r0, ip, r9, lsl #8
    47ac:	25060000 	strcs	r0, [r6, #-0]
    47b0:	ac000000 	stcge	0, cr0, [r0], {-0}
    47b4:	07000000 	streq	r0, [r0, -r0]
    47b8:	000000ac 	andeq	r0, r0, ip, lsr #1
    47bc:	b9040900 	stmdblt	r4, {r8, fp}
    47c0:	04000000 	streq	r0, [r0], #-0
    47c4:	00640801 	rsbeq	r0, r4, r1, lsl #16
    47c8:	b2050000 	andlt	r0, r5, #0, 0
    47cc:	08000000 	stmdaeq	r0, {}	; <UNPREDICTABLE>
    47d0:	000006ac 	andeq	r0, r0, ip, lsr #13
    47d4:	ca0e2102 	bgt	38cbe4 <__bss_end__+0x38217c>
    47d8:	09000000 	stmdbeq	r0, {}	; <UNPREDICTABLE>
    47dc:	00009d04 	andeq	r9, r0, r4, lsl #26
    47e0:	07770a00 	ldrbeq	r0, [r7, -r0, lsl #20]!
    47e4:	04010000 	streq	r0, [r1], #-0
    47e8:	00002505 	andeq	r2, r0, r5, lsl #10
    47ec:	009c6000 	addseq	r6, ip, r0
    47f0:	00002c00 	andeq	r2, r0, r0, lsl #24
    47f4:	4b9c0100 	blmi	fe704bfc <__bss_end__+0xfe6fa194>
    47f8:	0b000001 	bleq	4804 <__code_start__-0x37fc>
    47fc:	0031735f 	eorseq	r7, r1, pc, asr r3
    4800:	ac190401 	cfldrsge	mvf0, [r9], {1}
    4804:	33000000 	movwcc	r0, #0
    4808:	2f00001d 	svccs	0x0000001d
    480c:	0b00001d 	bleq	4888 <__code_start__-0x3778>
    4810:	0032735f 	eorseq	r7, r2, pc, asr r3
    4814:	ac2a0401 	cfstrsge	mvf0, [sl], #-4
    4818:	58000000 	stmdapl	r0, {}	; <UNPREDICTABLE>
    481c:	5400001d 	strpl	r0, [r0], #-29	; 0xffffffe3
    4820:	0b00001d 	bleq	489c <__code_start__-0x3764>
    4824:	0401006e 	streq	r0, [r1], #-110	; 0xffffff92
    4828:	00002c36 	andeq	r2, r0, r6, lsr ip
    482c:	001d7f00 	andseq	r7, sp, r0, lsl #30
    4830:	001d7900 	andseq	r7, sp, r0, lsl #18
    4834:	31730c00 	cmncc	r3, r0, lsl #24
    4838:	1a050100 	bne	144c40 <__bss_end__+0x13a1d8>
    483c:	0000014b 	andeq	r0, r0, fp, asr #2
    4840:	00001db2 			; <UNDEFINED> instruction: 0x00001db2
    4844:	00001daa 	andeq	r1, r0, sl, lsr #27
    4848:	0032730c 	eorseq	r7, r2, ip, lsl #6
    484c:	4b2c0501 	blmi	b05c58 <__bss_end__+0xafb1f0>
    4850:	ee000001 	cdp	0, 0, cr0, cr0, cr1, {0}
    4854:	e800001d 	stmda	r0, {r0, r2, r3, r4}
    4858:	0000001d 	andeq	r0, r0, sp, lsl r0
    485c:	00620409 	rsbeq	r0, r2, r9, lsl #8
    4860:	ce000000 	cdpgt	0, 0, cr0, cr0, cr0, {0}
    4864:	04000000 	streq	r0, [r0], #-0
    4868:	00192600 	andseq	r2, r9, r0, lsl #12
    486c:	3d010400 	cfstrscc	mvf0, [r1, #-0]
    4870:	0c000005 	stceq	0, cr0, [r0], {5}
    4874:	00000c5d 	andeq	r0, r0, sp, asr ip
    4878:	0000061e 	andeq	r0, r0, lr, lsl r6
    487c:	00009c8c 	andeq	r9, r0, ip, lsl #25
    4880:	00000004 	andeq	r0, r0, r4
    4884:	00002590 	muleq	r0, r0, r5
    4888:	69050402 	stmdbvs	r5, {r1, sl}
    488c:	0300746e 	movweq	r7, #1134	; 0x46e
    4890:	00c90704 	sbceq	r0, r9, r4, lsl #14
    4894:	01030000 	mrseq	r0, (UNDEF: 3)
    4898:	00005d06 	andeq	r5, r0, r6, lsl #26
    489c:	05020300 	streq	r0, [r2, #-768]	; 0xfffffd00
    48a0:	00000180 	andeq	r0, r0, r0, lsl #3
    48a4:	64050403 	strvs	r0, [r5], #-1027	; 0xfffffbfd
    48a8:	03000001 	movweq	r0, #1
    48ac:	015f0508 	cmpeq	pc, r8, lsl #10
    48b0:	01030000 	mrseq	r0, (UNDEF: 3)
    48b4:	00005b08 	andeq	r5, r0, r8, lsl #22
    48b8:	07020300 	streq	r0, [r2, -r0, lsl #6]
    48bc:	00000076 	andeq	r0, r0, r6, ror r0
    48c0:	c4070403 	strgt	r0, [r7], #-1027	; 0xfffffbfd
    48c4:	03000000 	movweq	r0, #0
    48c8:	00bf0708 	adcseq	r0, pc, r8, lsl #14
    48cc:	25040000 	strcs	r0, [r4, #-0]
    48d0:	7a000000 	bvc	48d8 <__code_start__-0x3728>
    48d4:	05000000 	streq	r0, [r0, #-0]
    48d8:	00000025 	andeq	r0, r0, r5, lsr #32
    48dc:	016d0600 	cmneq	sp, r0, lsl #12
    48e0:	1c020000 	stcne	0, cr0, [r2], {-0}
    48e4:	0000860e 	andeq	r8, r0, lr, lsl #12
    48e8:	6b040700 	blvs	1064f0 <__bss_end__+0xfba88>
    48ec:	04000000 	streq	r0, [r0], #-0
    48f0:	00000025 	andeq	r0, r0, r5, lsr #32
    48f4:	0000009b 	muleq	r0, fp, r0
    48f8:	00009b05 	andeq	r9, r0, r5, lsl #22
    48fc:	04070000 	streq	r0, [r7], #-0
    4900:	000000a8 	andeq	r0, r0, r8, lsr #1
    4904:	64080103 	strvs	r0, [r8], #-259	; 0xfffffefd
    4908:	08000000 	stmdaeq	r0, {}	; <UNPREDICTABLE>
    490c:	000000a1 	andeq	r0, r0, r1, lsr #1
    4910:	0006ac06 	andeq	sl, r6, r6, lsl #24
    4914:	0e210200 	cdpeq	2, 2, cr0, cr1, cr0, {0}
    4918:	000000b9 	strheq	r0, [r0], -r9
    491c:	008c0407 	addeq	r0, ip, r7, lsl #8
    4920:	1e090000 	cdpne	0, 0, cr0, cr9, cr0, {0}
    4924:	01000008 	tsteq	r0, r8
    4928:	9c8c0603 	stcls	6, cr0, [ip], {3}
    492c:	00040000 	andeq	r0, r4, r0
    4930:	9c010000 	stcls	0, cr0, [r1], {-0}
    4934:	0003a500 	andeq	sl, r3, r0, lsl #10
    4938:	9f000400 	svcls	0x00000400
    493c:	04000019 	streq	r0, [r0], #-25	; 0xffffffe7
    4940:	0009fa01 	andeq	pc, r9, r1, lsl #20
    4944:	0cfc0c00 	ldcleq	12, cr0, [ip]
    4948:	09aa0000 	stmibeq	sl!, {}	; <UNPREDICTABLE>
    494c:	9ca80000 	stcls	0, cr0, [r8]
    4950:	011c0000 	tsteq	ip, r0
    4954:	26440000 	strbcs	r0, [r4], -r0
    4958:	04020000 	streq	r0, [r2], #-0
    495c:	746e6905 	strbtvc	r6, [lr], #-2309	; 0xfffff6fb
    4960:	07040300 	streq	r0, [r4, -r0, lsl #6]
    4964:	000000c9 	andeq	r0, r0, r9, asr #1
    4968:	00002c04 	andeq	r2, r0, r4, lsl #24
    496c:	06010300 	streq	r0, [r1], -r0, lsl #6
    4970:	0000005d 	andeq	r0, r0, sp, asr r0
    4974:	80050203 	andhi	r0, r5, r3, lsl #4
    4978:	03000001 	movweq	r0, #1
    497c:	01640504 	cmneq	r4, r4, lsl #10
    4980:	08030000 	stmdaeq	r3, {}	; <UNPREDICTABLE>
    4984:	00015f05 	andeq	r5, r1, r5, lsl #30
    4988:	08010300 	stmdaeq	r1, {r8, r9}
    498c:	0000005b 	andeq	r0, r0, fp, asr r0
    4990:	76070203 	strvc	r0, [r7], -r3, lsl #4
    4994:	05000000 	streq	r0, [r0, #-0]
    4998:	0000019d 	muleq	r0, sp, r1
    499c:	6e193403 	cfmulsvs	mvf3, mvf9, mvf3
    49a0:	03000000 	movweq	r0, #0
    49a4:	00c40704 	sbceq	r0, r4, r4, lsl #14
    49a8:	08030000 	stmdaeq	r3, {}	; <UNPREDICTABLE>
    49ac:	0000bf07 	andeq	fp, r0, r7, lsl #30
    49b0:	08010300 	stmdaeq	r1, {r8, r9}
    49b4:	00000064 	andeq	r0, r0, r4, rrx
    49b8:	54010706 	strpl	r0, [r1], #-1798	; 0xfffff8fa
    49bc:	04000000 	streq	r0, [r0], #-0
    49c0:	00c20e0c 	sbceq	r0, r2, ip, lsl #28
    49c4:	e4070000 	str	r0, [r7], #-0
    49c8:	0000000a 	andeq	r0, r0, sl
    49cc:	00091c07 	andeq	r1, r9, r7, lsl #24
    49d0:	5f070100 	svcpl	0x00070100
    49d4:	04000009 	streq	r0, [r0], #-9
    49d8:	00096e07 	andeq	r6, r9, r7, lsl #28
    49dc:	7d070500 	cfstr32vc	mvfx0, [r7, #-0]
    49e0:	06000009 	streq	r0, [r0], -r9
    49e4:	00098c07 	andeq	r8, r9, r7, lsl #24
    49e8:	ad070700 	stcge	7, cr0, [r7, #-0]
    49ec:	0300000a 	movweq	r0, #10
    49f0:	00099b07 	andeq	r9, r9, r7, lsl #22
    49f4:	05000200 	streq	r0, [r0, #-512]	; 0xfffffe00
    49f8:	00000ce1 	andeq	r0, r0, r1, ror #25
    49fc:	83031504 	movwhi	r1, #13572	; 0x3504
    4a00:	08000000 	stmdaeq	r0, {}	; <UNPREDICTABLE>
    4a04:	00000c8c 	andeq	r0, r0, ip, lsl #25
    4a08:	33171d01 	tstcc	r7, #64	; 0x40
    4a0c:	1c000000 	stcne	0, cr0, [r0], {-0}
    4a10:	08202000 	stmdaeq	r0!, {sp}
    4a14:	00000c82 	andeq	r0, r0, r2, lsl #25
    4a18:	33171e01 	tstcc	r7, #1, 28
    4a1c:	28000000 	stmdacs	r0, {}	; <UNPREDICTABLE>
    4a20:	08202000 	stmdaeq	r0!, {sp}
    4a24:	00000ced 	andeq	r0, r0, sp, ror #25
    4a28:	33171f01 	tstcc	r7, #1, 30
    4a2c:	34000000 	strcc	r0, [r0], #-0
    4a30:	09202000 	stmdbeq	r0!, {sp}
    4a34:	00000cab 	andeq	r0, r0, fp, lsr #25
    4a38:	25055501 	strcs	r5, [r5, #-1281]	; 0xfffffaff
    4a3c:	90000000 	andls	r0, r0, r0
    4a40:	3400009d 	strcc	r0, [r0], #-157	; 0xffffff63
    4a44:	01000000 	mrseq	r0, (UNDEF: 0)
    4a48:	00016e9c 	muleq	r1, ip, lr
    4a4c:	69700a00 	ldmdbvs	r0!, {r9, fp}^
    4a50:	5501006e 	strpl	r0, [r1, #-110]	; 0xffffff92
    4a54:	00002c18 	andeq	r2, r0, r8, lsl ip
    4a58:	001e2100 	andseq	r2, lr, r0, lsl #2
    4a5c:	001e1900 	andseq	r1, lr, r0, lsl #18
    4a60:	0cf70b00 	vldmiaeq	r7!, {d16-d15}
    4a64:	58010000 	stmdapl	r1, {}	; <UNPREDICTABLE>
    4a68:	00002c0e 	andeq	r2, r0, lr, lsl #24
    4a6c:	001e6100 	andseq	r6, lr, r0, lsl #2
    4a70:	001e5b00 	andseq	r5, lr, r0, lsl #22
    4a74:	666f0c00 	strbtvs	r0, [pc], -r0, lsl #24
    4a78:	59010066 	stmdbpl	r1, {r1, r2, r5, r6}
    4a7c:	00002c0e 	andeq	r2, r0, lr, lsl #24
    4a80:	001ea100 	andseq	sl, lr, r0, lsl #2
    4a84:	001e9f00 	andseq	r9, lr, r0, lsl #30
    4a88:	9dac0d00 	stcls	13, cr0, [ip]
    4a8c:	03900000 	orrseq	r0, r0, #0, 0
    4a90:	010e0000 	mrseq	r0, (UNDEF: 14)
    4a94:	01f30b50 	mvnseq	r0, r0, asr fp
    4a98:	23253550 			; <UNDEFINED> instruction: 0x23253550
    4a9c:	818080b4 	strhhi	r8, [r0, r4]
    4aa0:	0f000002 	svceq	0x00000002
    4aa4:	00000c96 	muleq	r0, r6, ip
    4aa8:	74064e01 	strvc	r4, [r6], #-3585	; 0xfffff1ff
    4aac:	1c00009d 	stcne	0, cr0, [r0], {157}	; 0x9d
    4ab0:	01000000 	mrseq	r0, (UNDEF: 0)
    4ab4:	0001c99c 	muleq	r1, ip, r9
    4ab8:	69700a00 	ldmdbvs	r0!, {r9, fp}^
    4abc:	4e01006e 	cdpmi	0, 0, cr0, cr1, cr14, {3}
    4ac0:	00002c1a 	andeq	r2, r0, sl, lsl ip
    4ac4:	001ebc00 	andseq	fp, lr, r0, lsl #24
    4ac8:	001eb400 	andseq	fp, lr, r0, lsl #8
    4acc:	00760a00 	rsbseq	r0, r6, r0, lsl #20
    4ad0:	2c284e01 	stccs	14, cr4, [r8], #-4
    4ad4:	fe000000 	cdp2	0, 0, cr0, cr0, cr0, {0}
    4ad8:	f600001e 			; <UNDEFINED> instruction: 0xf600001e
    4adc:	1000001e 	andne	r0, r0, lr, lsl r0
    4ae0:	00009d84 	andeq	r9, r0, r4, lsl #27
    4ae4:	00000251 	andeq	r0, r0, r1, asr r2
    4ae8:	000001bf 			; <UNDEFINED> instruction: 0x000001bf
    4aec:	0350010e 	cmpeq	r0, #-2147483645	; 0x80000003
    4af0:	005001f3 	ldrsheq	r0, [r0], #-19	; 0xffffffed
    4af4:	009d8c11 	addseq	r8, sp, r1, lsl ip
    4af8:	00020a00 	andeq	r0, r2, r0, lsl #20
    4afc:	b50f0000 	strlt	r0, [pc, #-0]	; 4b04 <__code_start__-0x34fc>
    4b00:	0100000c 	tsteq	r0, ip
    4b04:	9d640649 	stclls	6, cr0, [r4, #-292]!	; 0xfffffedc
    4b08:	00100000 	andseq	r0, r0, r0
    4b0c:	9c010000 	stcls	0, cr0, [r1], {-0}
    4b10:	0000020a 	andeq	r0, r0, sl, lsl #4
    4b14:	6e69700a 	cdpvs	0, 6, cr7, cr9, cr10, {0}
    4b18:	1e490100 	dvfnee	f0, f1, f0
    4b1c:	0000002c 	andeq	r0, r0, ip, lsr #32
    4b20:	00001f3c 	andeq	r1, r0, ip, lsr pc
    4b24:	00001f38 	andeq	r1, r0, r8, lsr pc
    4b28:	009d700d 	addseq	r7, sp, sp
    4b2c:	0002d900 	andeq	sp, r2, r0, lsl #18
    4b30:	50010e00 	andpl	r0, r1, r0, lsl #28
    4b34:	5001f303 	andpl	pc, r1, r3, lsl #6
    4b38:	0151010e 	cmpeq	r1, lr, lsl #2
    4b3c:	0f000030 	svceq	0x00000030
    4b40:	00000cc4 	andeq	r0, r0, r4, asr #25
    4b44:	40064201 	andmi	r4, r6, r1, lsl #4
    4b48:	2400009d 	strcs	r0, [r0], #-157	; 0xffffff63
    4b4c:	01000000 	mrseq	r0, (UNDEF: 0)
    4b50:	0002519c 	muleq	r2, ip, r1
    4b54:	69700a00 	ldmdbvs	r0!, {r9, fp}^
    4b58:	4201006e 	andmi	r0, r1, #110, 0	; 0x6e
    4b5c:	00002c1c 	andeq	r2, r0, ip, lsl ip
    4b60:	001f6100 	andseq	r6, pc, r0, lsl #2
    4b64:	001f5d00 	andseq	r5, pc, r0, lsl #26
    4b68:	9d5c0d00 	ldclls	13, cr0, [ip, #-0]
    4b6c:	039c0000 	orrseq	r0, ip, #0, 0
    4b70:	010e0000 	mrseq	r0, (UNDEF: 14)
    4b74:	280c0550 	stmdacs	ip, {r4, r6, r8, sl}
    4b78:	0e202000 	cdpeq	0, 2, cr2, cr0, cr0, {0}
    4b7c:	31055101 	tstcc	r5, r1, lsl #2
    4b80:	245001f3 	ldrbcs	r0, [r0], #-499	; 0xfffffe0d
    4b84:	030f0000 	movweq	r0, #61440	; 0xf000
    4b88:	0100000d 	tsteq	r0, sp
    4b8c:	9d1c063b 	ldcls	6, cr0, [ip, #-236]	; 0xffffff14
    4b90:	00240000 	eoreq	r0, r4, r0
    4b94:	9c010000 	stcls	0, cr0, [r1], {-0}
    4b98:	00000298 	muleq	r0, r8, r2
    4b9c:	6e69700a 	cdpvs	0, 6, cr7, cr9, cr10, {0}
    4ba0:	1b3b0100 	blne	ec4fa8 <__bss_end__+0xeba540>
    4ba4:	0000002c 	andeq	r0, r0, ip, lsr #32
    4ba8:	00001f86 	andeq	r1, r0, r6, lsl #31
    4bac:	00001f82 	andeq	r1, r0, r2, lsl #31
    4bb0:	009d380d 	addseq	r3, sp, sp, lsl #16
    4bb4:	00039c00 	andeq	r9, r3, r0, lsl #24
    4bb8:	50010e00 	andpl	r0, r1, r0, lsl #28
    4bbc:	001c0c05 	andseq	r0, ip, r5, lsl #24
    4bc0:	010e2020 	tsteq	lr, r0, lsr #32
    4bc4:	f3310551 	vqrshl.u64	q0, <illegal reg q0.5>, <illegal reg q0.5>
    4bc8:	00245001 	eoreq	r5, r4, r1
    4bcc:	0cd10f00 	ldcleq	15, cr0, [r1], {0}
    4bd0:	36010000 	strcc	r0, [r1], -r0
    4bd4:	009d0c06 	addseq	r0, sp, r6, lsl #24
    4bd8:	00001000 	andeq	r1, r0, r0
    4bdc:	d99c0100 	ldmible	ip, {r8}
    4be0:	0a000002 	beq	4bf0 <__code_start__-0x3410>
    4be4:	006e6970 	rsbeq	r6, lr, r0, ror r9
    4be8:	2c1f3601 	ldccs	6, cr3, [pc], {1}
    4bec:	ab000000 	blge	4bf4 <__code_start__-0x340c>
    4bf0:	a700001f 	smladge	r0, pc, r0, r0	; <UNPREDICTABLE>
    4bf4:	0d00001f 	stceq	0, cr0, [r0, #-124]	; 0xffffff84
    4bf8:	00009d18 	andeq	r9, r0, r8, lsl sp
    4bfc:	000002d9 	ldrdeq	r0, [r0], -r9
    4c00:	0350010e 	cmpeq	r0, #-2147483645	; 0x80000003
    4c04:	0e5001f3 	mrceq	1, 2, r0, cr0, cr3, {7}
    4c08:	31015101 	tstcc	r1, r1, lsl #2
    4c0c:	f40f0000 	vst4.8	{d0-d3}, [pc], r0
    4c10:	0100000a 	tsteq	r0, sl
    4c14:	9ca80628 	stcls	6, cr0, [r8], #160	; 0xa0
    4c18:	00640000 	rsbeq	r0, r4, r0
    4c1c:	9c010000 	stcls	0, cr0, [r1], {-0}
    4c20:	00000374 	andeq	r0, r0, r4, ror r3
    4c24:	6e69700a 	cdpvs	0, 6, cr7, cr9, cr10, {0}
    4c28:	21280100 			; <UNDEFINED> instruction: 0x21280100
    4c2c:	0000002c 	andeq	r0, r0, ip, lsr #32
    4c30:	00001fd0 	ldrdeq	r1, [r0], -r0
    4c34:	00001fcc 	andeq	r1, r0, ip, asr #31
    4c38:	0000a212 	andeq	sl, r0, r2, lsl r2
    4c3c:	32280100 	eorcc	r0, r8, #0
    4c40:	000000c2 	andeq	r0, r0, r2, asr #1
    4c44:	00001ff5 	strdeq	r1, [r0], -r5
    4c48:	00001ff1 	strdeq	r1, [r0], -r1	; <UNPREDICTABLE>
    4c4c:	66666f0c 	strbtvs	r6, [r6], -ip, lsl #30
    4c50:	0e2d0100 	sufeqe	f0, f5, f0
    4c54:	0000002c 	andeq	r0, r0, ip, lsr #32
    4c58:	00002018 	andeq	r2, r0, r8, lsl r0
    4c5c:	00002016 	andeq	r2, r0, r6, lsl r0
    4c60:	0100670c 	tsteq	r0, ip, lsl #14
    4c64:	002c0e2e 	eoreq	r0, ip, lr, lsr #28
    4c68:	202d0000 	eorcs	r0, sp, r0
    4c6c:	202b0000 	eorcs	r0, fp, r0
    4c70:	760c0000 	strvc	r0, [ip], -r0
    4c74:	0e300100 	rsfeqs	f0, f0, f0
    4c78:	0000002c 	andeq	r0, r0, ip, lsr #32
    4c7c:	00002048 	andeq	r2, r0, r8, asr #32
    4c80:	00002040 	andeq	r2, r0, r0, asr #32
    4c84:	009cf010 	addseq	pc, ip, r0, lsl r0	; <UNPREDICTABLE>
    4c88:	00039000 	andeq	r9, r3, r0
    4c8c:	00036300 	andeq	r6, r3, r0, lsl #6
    4c90:	50010e00 	andpl	r0, r1, r0, lsl #28
    4c94:	00007602 	andeq	r7, r0, r2, lsl #12
    4c98:	009d040d 	addseq	r0, sp, sp, lsl #8
    4c9c:	00039c00 	andeq	r9, r3, r0, lsl #24
    4ca0:	50010e00 	andpl	r0, r1, r0, lsl #28
    4ca4:	00007602 	andeq	r7, r0, r2, lsl #12
    4ca8:	0ca11300 	stceq	3, cr1, [r1]
    4cac:	b6020000 	strlt	r0, [r2], -r0
    4cb0:	00006218 	andeq	r6, r0, r8, lsl r2
    4cb4:	03900300 	orrseq	r0, r0, #0, 6
    4cb8:	78140000 	ldmdavc	r4, {}	; <UNPREDICTABLE>
    4cbc:	2bb60200 	blcs	fed854c4 <__bss_end__+0xfed7aa5c>
    4cc0:	00000062 	andeq	r0, r0, r2, rrx
    4cc4:	08c91500 	stmiaeq	r9, {r8, sl, ip}^
    4cc8:	08c90000 	stmiaeq	r9, {}^	; <UNPREDICTABLE>
    4ccc:	c7020000 	strgt	r0, [r2, -r0]
    4cd0:	0835150a 	ldmdaeq	r5!, {r1, r3, r8, sl, ip}
    4cd4:	08350000 	ldmdaeq	r5!, {}	; <UNPREDICTABLE>
    4cd8:	b2020000 	andlt	r0, r2, #0, 0
    4cdc:	Address 0x0000000000004cdc is out of bounds.


Disassembly of section .debug_abbrev:

00000000 <.debug_abbrev>:
       0:	25011101 	strcs	r1, [r1, #-257]	; 0xfffffeff
       4:	030b130e 	movweq	r1, #45838	; 0xb30e
       8:	110e1b0e 	tstne	lr, lr, lsl #22
       c:	10061201 	andne	r1, r6, r1, lsl #4
      10:	02000017 	andeq	r0, r0, #23, 0
      14:	0b0b0024 	bleq	2c00ac <__bss_end__+0x2b5644>
      18:	08030b3e 	stmdaeq	r3, {r1, r2, r3, r4, r5, r8, r9, fp}
      1c:	24030000 	strcs	r0, [r3], #-0
      20:	3e0b0b00 	vmlacc.f64	d0, d11, d0
      24:	000e030b 	andeq	r0, lr, fp, lsl #6
      28:	00160400 	andseq	r0, r6, r0, lsl #8
      2c:	0b3a0e03 	bleq	e83840 <__bss_end__+0xe78dd8>
      30:	0b390b3b 	bleq	e42d24 <__bss_end__+0xe382bc>
      34:	00001349 	andeq	r1, r0, r9, asr #6
      38:	27011505 	strcs	r1, [r1, -r5, lsl #10]
      3c:	01134919 	tsteq	r3, r9, lsl r9
      40:	06000013 			; <UNDEFINED> instruction: 0x06000013
      44:	13490005 	movtne	r0, #36869	; 0x9005
      48:	34070000 	strcc	r0, [r7], #-0
      4c:	3a0e0300 	bcc	380c54 <__bss_end__+0x3761ec>
      50:	390b3b0b 	stmdbcc	fp, {r0, r1, r3, r8, r9, fp, ip, sp}
      54:	3f13490b 	svccc	0x0013490b
      58:	00193c19 	andseq	r3, r9, r9, lsl ip
      5c:	000f0800 	andeq	r0, pc, r0, lsl #16
      60:	13490b0b 	movtne	r0, #39691	; 0x9b0b
      64:	26090000 	strcs	r0, [r9], -r0
      68:	00134900 	andseq	r4, r3, r0, lsl #18
      6c:	01130a00 	tsteq	r3, r0, lsl #20
      70:	0b3a0b0b 	bleq	e82ca4 <__bss_end__+0xe7823c>
      74:	0b390b3b 	bleq	e42d68 <__bss_end__+0xe38300>
      78:	00001301 	andeq	r1, r0, r1, lsl #6
      7c:	03000d0b 	movweq	r0, #3339	; 0xd0b
      80:	3b0b3a0e 	blcc	2ce8c0 <__bss_end__+0x2c3e58>
      84:	490b390b 	stmdbmi	fp, {r0, r1, r3, r8, fp, ip, sp}
      88:	000b3813 	andeq	r3, fp, r3, lsl r8
      8c:	00340c00 	eorseq	r0, r4, r0, lsl #24
      90:	0b3a0e03 	bleq	e838a4 <__bss_end__+0xe78e3c>
      94:	0b390b3b 	bleq	e42d88 <__bss_end__+0xe38320>
      98:	0b1c1349 	bleq	704dc4 <__bss_end__+0x6fa35c>
      9c:	130d0000 	movwne	r0, #53248	; 0xd000
      a0:	0b0e0301 	bleq	380cac <__bss_end__+0x376244>
      a4:	3b0b3a0b 	blcc	2ce8d8 <__bss_end__+0x2c3e70>
      a8:	010b390b 	tsteq	fp, fp, lsl #18
      ac:	0e000013 	mcreq	0, 0, r0, cr0, cr3, {0}
      b0:	0803000d 	stmdaeq	r3, {r0, r2, r3}
      b4:	0b3b0b3a 	bleq	ec2da4 <__bss_end__+0xeb833c>
      b8:	13490b39 	movtne	r0, #39737	; 0x9b39
      bc:	00000b38 	andeq	r0, r0, r8, lsr fp
      c0:	4901010f 	stmdbmi	r1, {r0, r1, r2, r3, r8}
      c4:	00130113 	andseq	r0, r3, r3, lsl r1
      c8:	00211000 	eoreq	r1, r1, r0
      cc:	0b2f1349 	bleq	bc4df8 <__bss_end__+0xbba390>
      d0:	34110000 	ldrcc	r0, [r1], #-0
      d4:	3a0e0300 	bcc	380cdc <__bss_end__+0x376274>
      d8:	390b3b0b 	stmdbcc	fp, {r0, r1, r3, r8, r9, fp, ip, sp}
      dc:	0013490b 	andseq	r4, r3, fp, lsl #18
      e0:	012e1200 			; <UNDEFINED> instruction: 0x012e1200
      e4:	0e03193f 			; <UNDEFINED> instruction: 0x0e03193f
      e8:	0b3b0b3a 	bleq	ec2dd8 <__bss_end__+0xeb8370>
      ec:	19270b39 	stmdbne	r7!, {r0, r3, r4, r5, r8, r9, fp}
      f0:	06120111 			; <UNDEFINED> instruction: 0x06120111
      f4:	42971840 	addsmi	r1, r7, #64, 16	; 0x400000
      f8:	00130119 	andseq	r0, r3, r9, lsl r1
      fc:	00341300 	eorseq	r1, r4, r0, lsl #6
     100:	0b3a0803 	bleq	e82114 <__bss_end__+0xe776ac>
     104:	0b390b3b 	bleq	e42df8 <__bss_end__+0xe38390>
     108:	17021349 	strne	r1, [r2, -r9, asr #6]
     10c:	001742b7 			; <UNDEFINED> instruction: 0x001742b7
     110:	00341400 	eorseq	r1, r4, r0, lsl #8
     114:	13490e03 	movtne	r0, #40451	; 0x9e03
     118:	18021934 	stmdane	r2, {r2, r4, r5, r8, fp, ip}
     11c:	1d150000 	ldcne	0, cr0, [r5, #-0]
     120:	52133101 	andspl	r3, r3, #1073741824	; 0x40000000
     124:	0b42b801 	bleq	10ae130 <__bss_end__+0x10a36c8>
     128:	06120111 			; <UNDEFINED> instruction: 0x06120111
     12c:	0b590b58 	bleq	1642e94 <__bss_end__+0x163842c>
     130:	13010b57 	movwne	r0, #6999	; 0x1b57
     134:	05160000 	ldreq	r0, [r6, #-0]
     138:	02133100 	andseq	r3, r3, #0
     13c:	1742b717 	smlaldne	fp, r2, r7, r7
     140:	89170000 	ldmdbhi	r7, {}	; <UNPREDICTABLE>
     144:	11010182 	smlabbne	r1, r2, r1, r0
     148:	01133101 	tsteq	r3, r1, lsl #2
     14c:	18000013 	stmdane	r0, {r0, r1, r4}
     150:	0001828a 	andeq	r8, r1, sl, lsl #5
     154:	42911802 	addsmi	r1, r1, #131072	; 0x20000
     158:	19000018 	stmdbne	r0, {r3, r4}
     15c:	00018289 	andeq	r8, r1, r9, lsl #5
     160:	13310111 	teqne	r1, #1073741828	; 0x40000004
     164:	2e1a0000 	cdpcs	0, 1, cr0, cr10, cr0, {0}
     168:	3a0e0301 	bcc	380d74 <__bss_end__+0x37630c>
     16c:	390b3b0b 	stmdbcc	fp, {r0, r1, r3, r8, r9, fp, ip, sp}
     170:	4919270b 	ldmdbmi	r9, {r0, r1, r3, r8, r9, sl, sp}
     174:	010b2013 	tsteq	fp, r3, lsl r0
     178:	1b000013 	blne	1cc <__code_start__-0x7e34>
     17c:	0e030005 	cdpeq	0, 0, cr0, cr3, cr5, {0}
     180:	0b3b0b3a 	bleq	ec2e70 <__bss_end__+0xeb8408>
     184:	13490b39 	movtne	r0, #39737	; 0x9b39
     188:	361c0000 	ldrcc	r0, [ip], -r0
     18c:	00180200 	andseq	r0, r8, r0, lsl #4
     190:	002e1d00 	eoreq	r1, lr, r0, lsl #26
     194:	193c193f 	ldmdbne	ip!, {r0, r1, r2, r3, r4, r5, r8, fp, ip}
     198:	0e030e6e 	cdpeq	14, 0, cr0, cr3, cr14, {3}
     19c:	0b3b0b3a 	bleq	ec2e8c <__bss_end__+0xeb8424>
     1a0:	00000b39 	andeq	r0, r0, r9, lsr fp
     1a4:	01110100 	tsteq	r1, r0, lsl #2
     1a8:	0b130e25 	bleq	4c3a44 <__bss_end__+0x4b8fdc>
     1ac:	0e1b0e03 	cdpeq	14, 1, cr0, cr11, cr3, {0}
     1b0:	06120111 			; <UNDEFINED> instruction: 0x06120111
     1b4:	00001710 	andeq	r1, r0, r0, lsl r7
     1b8:	0b002402 	bleq	91c8 <va_printk+0x1ec>
     1bc:	030b3e0b 	movweq	r3, #48651	; 0xbe0b
     1c0:	03000008 	movweq	r0, #8
     1c4:	0b0b0024 	bleq	2c025c <__bss_end__+0x2b57f4>
     1c8:	0e030b3e 	vmoveq.16	d3[0], r0
     1cc:	26040000 	strcs	r0, [r4], -r0
     1d0:	00134900 	andseq	r4, r3, r0, lsl #18
     1d4:	00160500 	andseq	r0, r6, r0, lsl #10
     1d8:	0b3a0e03 	bleq	e839ec <__bss_end__+0xe78f84>
     1dc:	0b390b3b 	bleq	e42ed0 <__bss_end__+0xe38468>
     1e0:	00001349 	andeq	r1, r0, r9, asr #6
     1e4:	27011506 	strcs	r1, [r1, -r6, lsl #10]
     1e8:	01134919 	tsteq	r3, r9, lsl r9
     1ec:	07000013 	smladeq	r0, r3, r0, r0
     1f0:	13490005 	movtne	r0, #36869	; 0x9005
     1f4:	34080000 	strcc	r0, [r8], #-0
     1f8:	3a0e0300 	bcc	380e00 <__bss_end__+0x376398>
     1fc:	390b3b0b 	stmdbcc	fp, {r0, r1, r3, r8, r9, fp, ip, sp}
     200:	3f13490b 	svccc	0x0013490b
     204:	00193c19 	andseq	r3, r9, r9, lsl ip
     208:	000f0900 	andeq	r0, pc, r0, lsl #18
     20c:	13490b0b 	movtne	r0, #39691	; 0x9b0b
     210:	130a0000 	movwne	r0, #40960	; 0xa000
     214:	3a0b0b01 	bcc	2c2e20 <__bss_end__+0x2b83b8>
     218:	390b3b0b 	stmdbcc	fp, {r0, r1, r3, r8, r9, fp, ip, sp}
     21c:	0013010b 	andseq	r0, r3, fp, lsl #2
     220:	000d0b00 	andeq	r0, sp, r0, lsl #22
     224:	0b3a0e03 	bleq	e83a38 <__bss_end__+0xe78fd0>
     228:	0b390b3b 	bleq	e42f1c <__bss_end__+0xe384b4>
     22c:	0b381349 	bleq	e04f58 <__bss_end__+0xdfa4f0>
     230:	040c0000 	streq	r0, [ip], #-0
     234:	0b0b3e01 	bleq	2cfa40 <__bss_end__+0x2c4fd8>
     238:	3a13490b 	bcc	4d266c <__bss_end__+0x4c7c04>
     23c:	390b3b0b 	stmdbcc	fp, {r0, r1, r3, r8, r9, fp, ip, sp}
     240:	0013010b 	andseq	r0, r3, fp, lsl #2
     244:	00280d00 	eoreq	r0, r8, r0, lsl #26
     248:	0b1c0e03 	bleq	703a5c <__bss_end__+0x6f8ff4>
     24c:	340e0000 	strcc	r0, [lr], #-0
     250:	3a0e0300 	bcc	380e58 <__bss_end__+0x3763f0>
     254:	390b3b0b 	stmdbcc	fp, {r0, r1, r3, r8, r9, fp, ip, sp}
     258:	0213490b 	andseq	r4, r3, #180224	; 0x2c000
     25c:	0f000018 	svceq	0x00000018
     260:	0e030113 	mcreq	1, 0, r0, cr3, cr3, {0}
     264:	0b3a0b0b 	bleq	e82e98 <__bss_end__+0xe78430>
     268:	0b390b3b 	bleq	e42f5c <__bss_end__+0xe384f4>
     26c:	00001301 	andeq	r1, r0, r1, lsl #6
     270:	03000d10 	movweq	r0, #3344	; 0xd10
     274:	3b0b3a08 	blcc	2cea9c <__bss_end__+0x2c4034>
     278:	490b390b 	stmdbmi	fp, {r0, r1, r3, r8, fp, ip, sp}
     27c:	000b3813 	andeq	r3, fp, r3, lsl r8
     280:	01011100 	mrseq	r1, (UNDEF: 17)
     284:	13011349 	movwne	r1, #4937	; 0x1349
     288:	21120000 	tstcs	r2, r0
     28c:	2f134900 	svccs	0x00134900
     290:	1300000b 	movwne	r0, #11
     294:	0b0b000f 	bleq	2c02d8 <__bss_end__+0x2b5870>
     298:	34140000 	ldrcc	r0, [r4], #-0
     29c:	3a0e0300 	bcc	380ea4 <__bss_end__+0x37643c>
     2a0:	390b3b0b 	stmdbcc	fp, {r0, r1, r3, r8, r9, fp, ip, sp}
     2a4:	1c13490b 			; <UNDEFINED> instruction: 0x1c13490b
     2a8:	1500000b 	strne	r0, [r0, #-11]
     2ac:	193f012e 	ldmdbne	pc!, {r1, r2, r3, r5, r8}	; <UNPREDICTABLE>
     2b0:	0b3a0e03 	bleq	e83ac4 <__bss_end__+0xe7905c>
     2b4:	0b390b3b 	bleq	e42fa8 <__bss_end__+0xe38540>
     2b8:	13491927 	movtne	r1, #39207	; 0x9927
     2bc:	06120111 			; <UNDEFINED> instruction: 0x06120111
     2c0:	42971840 	addsmi	r1, r7, #64, 16	; 0x400000
     2c4:	00130119 	andseq	r0, r3, r9, lsl r1
     2c8:	00051600 	andeq	r1, r5, r0, lsl #12
     2cc:	0b3a0e03 	bleq	e83ae0 <__bss_end__+0xe79078>
     2d0:	0b390b3b 	bleq	e42fc4 <__bss_end__+0xe3855c>
     2d4:	17021349 	strne	r1, [r2, -r9, asr #6]
     2d8:	001742b7 			; <UNDEFINED> instruction: 0x001742b7
     2dc:	00051700 	andeq	r1, r5, r0, lsl #14
     2e0:	0b3a0803 	bleq	e822f4 <__bss_end__+0xe7788c>
     2e4:	0b390b3b 	bleq	e42fd8 <__bss_end__+0xe38570>
     2e8:	18021349 	stmdane	r2, {r0, r3, r6, r8, r9, ip}
     2ec:	34180000 	ldrcc	r0, [r8], #-0
     2f0:	3a080300 	bcc	200ef8 <__bss_end__+0x1f6490>
     2f4:	390b3b0b 	stmdbcc	fp, {r0, r1, r3, r8, r9, fp, ip, sp}
     2f8:	0213490b 	andseq	r4, r3, #180224	; 0x2c000
     2fc:	1742b717 	smlaldne	fp, r2, r7, r7
     300:	1d190000 	ldcne	0, cr0, [r9, #-0]
     304:	52133101 	andspl	r3, r3, #1073741824	; 0x40000000
     308:	0b42b801 	bleq	10ae314 <__bss_end__+0x10a38ac>
     30c:	06120111 			; <UNDEFINED> instruction: 0x06120111
     310:	0b590b58 	bleq	1643078 <__bss_end__+0x1638610>
     314:	13010b57 	movwne	r0, #6999	; 0x1b57
     318:	051a0000 	ldreq	r0, [sl, #-0]
     31c:	02133100 	andseq	r3, r3, #0
     320:	1742b717 	smlaldne	fp, r2, r7, r7
     324:	891b0000 	ldmdbhi	fp, {}	; <UNPREDICTABLE>
     328:	11010182 	smlabbne	r1, r2, r1, r0
     32c:	00133101 	andseq	r3, r3, r1, lsl #2
     330:	828a1c00 	addhi	r1, sl, #0, 24
     334:	18020001 	stmdane	r2, {r0}
     338:	00184291 	mulseq	r8, r1, r2
     33c:	82891d00 	addhi	r1, r9, #0, 26
     340:	01110101 	tsteq	r1, r1, lsl #2
     344:	13011331 	movwne	r1, #4913	; 0x1331
     348:	2e1e0000 	cdpcs	0, 1, cr0, cr14, cr0, {0}
     34c:	03193f01 	tsteq	r9, #1, 30
     350:	3b0b3a0e 	blcc	2ceb90 <__bss_end__+0x2c4128>
     354:	270b390b 	strcs	r3, [fp, -fp, lsl #18]
     358:	12011119 	andne	r1, r1, #1073741830	; 0x40000006
     35c:	97184006 	ldrls	r4, [r8, -r6]
     360:	13011942 	movwne	r1, #6466	; 0x1942
     364:	341f0000 	ldrcc	r0, [pc], #-0	; 36c <__code_start__-0x7c94>
     368:	490e0300 	stmdbmi	lr, {r8, r9}
     36c:	02193413 	andseq	r3, r9, #318767104	; 0x13000000
     370:	20000018 	andcs	r0, r0, r8, lsl r0
     374:	00018289 	andeq	r8, r1, r9, lsl #5
     378:	13310111 	teqne	r1, #1073741828	; 0x40000004
     37c:	34210000 	strtcc	r0, [r1], #-0
     380:	3a0e0300 	bcc	380f88 <__bss_end__+0x376520>
     384:	390b3b0b 	stmdbcc	fp, {r0, r1, r3, r8, r9, fp, ip, sp}
     388:	0213490b 	andseq	r4, r3, #180224	; 0x2c000
     38c:	1742b717 	smlaldne	fp, r2, r7, r7
     390:	05220000 	streq	r0, [r2, #-0]!
     394:	3a080300 	bcc	200f9c <__bss_end__+0x1f6534>
     398:	390b3b0b 	stmdbcc	fp, {r0, r1, r3, r8, r9, fp, ip, sp}
     39c:	0213490b 	andseq	r4, r3, #180224	; 0x2c000
     3a0:	1742b717 	smlaldne	fp, r2, r7, r7
     3a4:	34230000 	strtcc	r0, [r3], #-0
     3a8:	3a0e0300 	bcc	380fb0 <__bss_end__+0x376548>
     3ac:	390b3b0b 	stmdbcc	fp, {r0, r1, r3, r8, r9, fp, ip, sp}
     3b0:	0013490b 	andseq	r4, r3, fp, lsl #18
     3b4:	010b2400 	tsteq	fp, r0, lsl #8
     3b8:	00001755 	andeq	r1, r0, r5, asr r7
     3bc:	55010b25 	strpl	r0, [r1, #-2853]	; 0xfffff4db
     3c0:	00130117 	andseq	r0, r3, r7, lsl r1
     3c4:	011d2600 	tsteq	sp, r0, lsl #12
     3c8:	01521331 	cmpeq	r2, r1, lsr r3
     3cc:	110b42b8 			; <UNDEFINED> instruction: 0x110b42b8
     3d0:	58061201 	stmdapl	r6, {r0, r9, ip}
     3d4:	570b590b 	strpl	r5, [fp, -fp, lsl #18]
     3d8:	2700000b 	strcs	r0, [r0, -fp]
     3dc:	0111010b 	tsteq	r1, fp, lsl #2
     3e0:	00000612 	andeq	r0, r0, r2, lsl r6
     3e4:	3f002e28 	svccc	0x00002e28
     3e8:	3a0e0319 	bcc	381054 <__bss_end__+0x3765ec>
     3ec:	390b3b0b 	stmdbcc	fp, {r0, r1, r3, r8, r9, fp, ip, sp}
     3f0:	4919270b 	ldmdbmi	r9, {r0, r1, r3, r8, r9, sl, sp}
     3f4:	12011113 	andne	r1, r1, #-1073741820	; 0xc0000004
     3f8:	97184006 	ldrls	r4, [r8, -r6]
     3fc:	00001942 	andeq	r1, r0, r2, asr #18
     400:	03012e29 	movweq	r2, #7721	; 0x1e29
     404:	3b0b3a0e 	blcc	2cec44 <__bss_end__+0x2c41dc>
     408:	270b390b 	strcs	r3, [fp, -fp, lsl #18]
     40c:	12011119 	andne	r1, r1, #1073741830	; 0x40000006
     410:	97184006 	ldrls	r4, [r8, -r6]
     414:	13011942 	movwne	r1, #6466	; 0x1942
     418:	2e2a0000 	cdpcs	0, 2, cr0, cr10, cr0, {0}
     41c:	3a0e0301 	bcc	381028 <__bss_end__+0x3765c0>
     420:	390b3b0b 	stmdbcc	fp, {r0, r1, r3, r8, r9, fp, ip, sp}
     424:	4919270b 	ldmdbmi	r9, {r0, r1, r3, r8, r9, sl, sp}
     428:	010b2013 	tsteq	fp, r3, lsl r0
     42c:	2b000013 	blcs	480 <__code_start__-0x7b80>
     430:	08030005 	stmdaeq	r3, {r0, r2}
     434:	0b3b0b3a 	bleq	ec3124 <__bss_end__+0xeb86bc>
     438:	13490b39 	movtne	r0, #39737	; 0x9b39
     43c:	2e2c0000 	cdpcs	0, 2, cr0, cr12, cr0, {0}
     440:	3c193f00 	ldccc	15, cr3, [r9], {-0}
     444:	030e6e19 	movweq	r6, #60953	; 0xee19
     448:	3b0b3a0e 	blcc	2cec88 <__bss_end__+0x2c4220>
     44c:	000b390b 	andeq	r3, fp, fp, lsl #18
     450:	11010000 	mrsne	r0, (UNDEF: 1)
     454:	130e2501 	movwne	r2, #58625	; 0xe501
     458:	1b0e030b 	blne	38108c <__bss_end__+0x376624>
     45c:	1201110e 	andne	r1, r1, #-2147483645	; 0x80000003
     460:	00171006 	andseq	r1, r7, r6
     464:	00240200 	eoreq	r0, r4, r0, lsl #4
     468:	0b3e0b0b 	bleq	f8309c <__bss_end__+0xf78634>
     46c:	00000803 	andeq	r0, r0, r3, lsl #16
     470:	0b002403 	bleq	9484 <va_printk+0x4a8>
     474:	030b3e0b 	movweq	r3, #48651	; 0xbe0b
     478:	0400000e 	streq	r0, [r0], #-14
     47c:	13490026 	movtne	r0, #36902	; 0x9026
     480:	16050000 	strne	r0, [r5], -r0
     484:	3a0e0300 	bcc	38108c <__bss_end__+0x376624>
     488:	390b3b0b 	stmdbcc	fp, {r0, r1, r3, r8, r9, fp, ip, sp}
     48c:	0013490b 	andseq	r4, r3, fp, lsl #18
     490:	01150600 	tsteq	r5, r0, lsl #12
     494:	13491927 	movtne	r1, #39207	; 0x9927
     498:	00001301 	andeq	r1, r0, r1, lsl #6
     49c:	49000507 	stmdbmi	r0, {r0, r1, r2, r8, sl}
     4a0:	08000013 	stmdaeq	r0, {r0, r1, r4}
     4a4:	0e030034 	mcreq	0, 0, r0, cr3, cr4, {1}
     4a8:	0b3b0b3a 	bleq	ec3198 <__bss_end__+0xeb8730>
     4ac:	13490b39 	movtne	r0, #39737	; 0x9b39
     4b0:	193c193f 	ldmdbne	ip!, {r0, r1, r2, r3, r4, r5, r8, fp, ip}
     4b4:	0f090000 	svceq	0x00090000
     4b8:	490b0b00 	stmdbmi	fp, {r8, r9, fp}
     4bc:	0a000013 	beq	510 <__code_start__-0x7af0>
     4c0:	0b0b0113 	bleq	2c0914 <__bss_end__+0x2b5eac>
     4c4:	0b3b0b3a 	bleq	ec31b4 <__bss_end__+0xeb874c>
     4c8:	13010b39 	movwne	r0, #6969	; 0x1b39
     4cc:	0d0b0000 	stceq	0, cr0, [fp, #-0]
     4d0:	3a0e0300 	bcc	3810d8 <__bss_end__+0x376670>
     4d4:	390b3b0b 	stmdbcc	fp, {r0, r1, r3, r8, r9, fp, ip, sp}
     4d8:	3813490b 	ldmdacc	r3, {r0, r1, r3, r8, fp, lr}
     4dc:	0c00000b 	stceq	0, cr0, [r0], {11}
     4e0:	0b3e0104 	bleq	f808f8 <__bss_end__+0xf75e90>
     4e4:	13490b0b 	movtne	r0, #39691	; 0x9b0b
     4e8:	0b3b0b3a 	bleq	ec31d8 <__bss_end__+0xeb8770>
     4ec:	13010b39 	movwne	r0, #6969	; 0x1b39
     4f0:	280d0000 	stmdacs	sp, {}	; <UNPREDICTABLE>
     4f4:	1c0e0300 	stcne	3, cr0, [lr], {-0}
     4f8:	0e00000b 	cdpeq	0, 0, cr0, cr0, cr11, {0}
     4fc:	0e030034 	mcreq	0, 0, r0, cr3, cr4, {1}
     500:	0b3b0b3a 	bleq	ec31f0 <__bss_end__+0xeb8788>
     504:	13490b39 	movtne	r0, #39737	; 0x9b39
     508:	00000b1c 	andeq	r0, r0, ip, lsl fp
     50c:	0301130f 	movweq	r1, #4879	; 0x130f
     510:	3a0b0b0e 	bcc	2c3150 <__bss_end__+0x2b86e8>
     514:	390b3b0b 	stmdbcc	fp, {r0, r1, r3, r8, r9, fp, ip, sp}
     518:	0013010b 	andseq	r0, r3, fp, lsl #2
     51c:	000d1000 	andeq	r1, sp, r0
     520:	0b3a0803 	bleq	e82534 <__bss_end__+0xe77acc>
     524:	0b390b3b 	bleq	e43218 <__bss_end__+0xe387b0>
     528:	0b381349 	bleq	e05254 <__bss_end__+0xdfa7ec>
     52c:	01110000 	tsteq	r1, r0
     530:	01134901 	tsteq	r3, r1, lsl #18
     534:	12000013 	andne	r0, r0, #19, 0
     538:	13490021 	movtne	r0, #36897	; 0x9021
     53c:	00000b2f 	andeq	r0, r0, pc, lsr #22
     540:	03003413 	movweq	r3, #1043	; 0x413
     544:	3b0b3a0e 	blcc	2ced84 <__bss_end__+0x2c431c>
     548:	490b390b 	stmdbmi	fp, {r0, r1, r3, r8, fp, ip, sp}
     54c:	14000013 	strne	r0, [r0], #-19	; 0xffffffed
     550:	0b0b000f 	bleq	2c0594 <__bss_end__+0x2b5b2c>
     554:	34150000 	ldrcc	r0, [r5], #-0
     558:	3a0e0300 	bcc	381160 <__bss_end__+0x3766f8>
     55c:	390b3b0b 	stmdbcc	fp, {r0, r1, r3, r8, r9, fp, ip, sp}
     560:	0213490b 	andseq	r4, r3, #180224	; 0x2c000
     564:	16000018 			; <UNDEFINED> instruction: 0x16000018
     568:	193f012e 	ldmdbne	pc!, {r1, r2, r3, r5, r8}	; <UNPREDICTABLE>
     56c:	0b3a0e03 	bleq	e83d80 <__bss_end__+0xe79318>
     570:	0b390b3b 	bleq	e43264 <__bss_end__+0xe387fc>
     574:	01111927 	tsteq	r1, r7, lsr #18
     578:	18400612 	stmdane	r0, {r1, r4, r9, sl}^
     57c:	01194297 			; <UNDEFINED> instruction: 0x01194297
     580:	17000013 	smladne	r0, r3, r0, r0
     584:	0e030034 	mcreq	0, 0, r0, cr3, cr4, {1}
     588:	19341349 	ldmdbne	r4!, {r0, r3, r6, r8, r9, ip}
     58c:	00001802 	andeq	r1, r0, r2, lsl #16
     590:	01828918 	orreq	r8, r2, r8, lsl r9
     594:	31011101 	tstcc	r1, r1, lsl #2
     598:	00130113 	andseq	r0, r3, r3, lsl r1
     59c:	828a1900 	addhi	r1, sl, #0, 18
     5a0:	18020001 	stmdane	r2, {r0}
     5a4:	00184291 	mulseq	r8, r1, r2
     5a8:	82891a00 	addhi	r1, r9, #0, 20
     5ac:	01110001 	tsteq	r1, r1
     5b0:	00001331 	andeq	r1, r0, r1, lsr r3
     5b4:	3f012e1b 	svccc	0x00012e1b
     5b8:	3a0e0319 	bcc	381224 <__bss_end__+0x3767bc>
     5bc:	390b3b0b 	stmdbcc	fp, {r0, r1, r3, r8, r9, fp, ip, sp}
     5c0:	4919270b 	ldmdbmi	r9, {r0, r1, r3, r8, r9, sl, sp}
     5c4:	12011113 	andne	r1, r1, #-1073741820	; 0xc0000004
     5c8:	97184006 	ldrls	r4, [r8, -r6]
     5cc:	13011942 	movwne	r1, #6466	; 0x1942
     5d0:	341c0000 	ldrcc	r0, [ip], #-0
     5d4:	3a0e0300 	bcc	3811dc <__bss_end__+0x376774>
     5d8:	390b3b0b 	stmdbcc	fp, {r0, r1, r3, r8, r9, fp, ip, sp}
     5dc:	0213490b 	andseq	r4, r3, #180224	; 0x2c000
     5e0:	1742b717 	smlaldne	fp, r2, r7, r7
     5e4:	2e1d0000 	cdpcs	0, 1, cr0, cr13, cr0, {0}
     5e8:	3a0e0301 	bcc	3811f4 <__bss_end__+0x37678c>
     5ec:	390b3b0b 	stmdbcc	fp, {r0, r1, r3, r8, r9, fp, ip, sp}
     5f0:	4919270b 	ldmdbmi	r9, {r0, r1, r3, r8, r9, sl, sp}
     5f4:	12011113 	andne	r1, r1, #-1073741820	; 0xc0000004
     5f8:	97184006 	ldrls	r4, [r8, -r6]
     5fc:	13011942 	movwne	r1, #6466	; 0x1942
     600:	891e0000 	ldmdbhi	lr, {}	; <UNPREDICTABLE>
     604:	11010182 	smlabbne	r1, r2, r1, r0
     608:	00133101 	andseq	r3, r3, r1, lsl #2
     60c:	00051f00 	andeq	r1, r5, r0, lsl #30
     610:	0b3a0e03 	bleq	e83e24 <__bss_end__+0xe793bc>
     614:	0b390b3b 	bleq	e43308 <__bss_end__+0xe388a0>
     618:	17021349 	strne	r1, [r2, -r9, asr #6]
     61c:	001742b7 			; <UNDEFINED> instruction: 0x001742b7
     620:	012e2000 			; <UNDEFINED> instruction: 0x012e2000
     624:	0b3a0e03 	bleq	e83e38 <__bss_end__+0xe793d0>
     628:	0b390b3b 	bleq	e4331c <__bss_end__+0xe388b4>
     62c:	01111927 	tsteq	r1, r7, lsr #18
     630:	18400612 	stmdane	r0, {r1, r4, r9, sl}^
     634:	01194297 			; <UNDEFINED> instruction: 0x01194297
     638:	21000013 	tstcs	r0, r3, lsl r0
     63c:	0e030034 	mcreq	0, 0, r0, cr3, cr4, {1}
     640:	19341349 	ldmdbne	r4!, {r0, r3, r6, r8, r9, ip}
     644:	34220000 	strtcc	r0, [r2], #-0
     648:	3a0e0300 	bcc	381250 <__bss_end__+0x3767e8>
     64c:	390b3b0b 	stmdbcc	fp, {r0, r1, r3, r8, r9, fp, ip, sp}
     650:	1c13490b 			; <UNDEFINED> instruction: 0x1c13490b
     654:	23000006 	movwcs	r0, #6
     658:	0111010b 	tsteq	r1, fp, lsl #2
     65c:	13010612 	movwne	r0, #5650	; 0x1612
     660:	34240000 	strtcc	r0, [r4], #-0
     664:	3a080300 	bcc	20126c <__bss_end__+0x1f6804>
     668:	390b3b0b 	stmdbcc	fp, {r0, r1, r3, r8, r9, fp, ip, sp}
     66c:	0213490b 	andseq	r4, r3, #180224	; 0x2c000
     670:	1742b717 	smlaldne	fp, r2, r7, r7
     674:	05250000 	streq	r0, [r5, #-0]!
     678:	3a080300 	bcc	201280 <__bss_end__+0x1f6818>
     67c:	390b3b0b 	stmdbcc	fp, {r0, r1, r3, r8, r9, fp, ip, sp}
     680:	0213490b 	andseq	r4, r3, #180224	; 0x2c000
     684:	1742b717 	smlaldne	fp, r2, r7, r7
     688:	0b260000 	bleq	980690 <__bss_end__+0x975c28>
     68c:	01175501 	tsteq	r7, r1, lsl #10
     690:	27000013 	smladcs	r0, r3, r0, r0
     694:	1755010b 	ldrbne	r0, [r5, -fp, lsl #2]
     698:	2e280000 	cdpcs	0, 2, cr0, cr8, cr0, {0}
     69c:	3c193f00 	ldccc	15, cr3, [r9], {-0}
     6a0:	030e6e19 	movweq	r6, #60953	; 0xee19
     6a4:	3b0b3a0e 	blcc	2ceee4 <__bss_end__+0x2c447c>
     6a8:	000b390b 	andeq	r3, fp, fp, lsl #18
     6ac:	11010000 	mrsne	r0, (UNDEF: 1)
     6b0:	130e2501 	movwne	r2, #58625	; 0xe501
     6b4:	1b0e030b 	blne	3812e8 <__bss_end__+0x376880>
     6b8:	1201110e 	andne	r1, r1, #-2147483645	; 0x80000003
     6bc:	00171006 	andseq	r1, r7, r6
     6c0:	00240200 	eoreq	r0, r4, r0, lsl #4
     6c4:	0b3e0b0b 	bleq	f832f8 <__bss_end__+0xf78890>
     6c8:	00000803 	andeq	r0, r0, r3, lsl #16
     6cc:	0b002403 	bleq	96e0 <uart_init+0x9c>
     6d0:	030b3e0b 	movweq	r3, #48651	; 0xbe0b
     6d4:	0400000e 	streq	r0, [r0], #-14
     6d8:	19270115 	stmdbne	r7!, {r0, r2, r4, r8}
     6dc:	13011349 	movwne	r1, #4937	; 0x1349
     6e0:	05050000 	streq	r0, [r5, #-0]
     6e4:	00134900 	andseq	r4, r3, r0, lsl #18
     6e8:	00340600 	eorseq	r0, r4, r0, lsl #12
     6ec:	0b3a0e03 	bleq	e83f00 <__bss_end__+0xe79498>
     6f0:	0b390b3b 	bleq	e433e4 <__bss_end__+0xe3897c>
     6f4:	193f1349 	ldmdbne	pc!, {r0, r3, r6, r8, r9, ip}	; <UNPREDICTABLE>
     6f8:	0000193c 	andeq	r1, r0, ip, lsr r9
     6fc:	0b000f07 	bleq	4320 <__code_start__-0x3ce0>
     700:	0013490b 	andseq	r4, r3, fp, lsl #18
     704:	00260800 	eoreq	r0, r6, r0, lsl #16
     708:	00001349 	andeq	r1, r0, r9, asr #6
     70c:	03011709 	movweq	r1, #5897	; 0x1709
     710:	3a0b0b0e 	bcc	2c3350 <__bss_end__+0x2b88e8>
     714:	390b3b0b 	stmdbcc	fp, {r0, r1, r3, r8, r9, fp, ip, sp}
     718:	0013010b 	andseq	r0, r3, fp, lsl #2
     71c:	000d0a00 	andeq	r0, sp, r0, lsl #20
     720:	0b3a0803 	bleq	e82734 <__bss_end__+0xe77ccc>
     724:	0b390b3b 	bleq	e43418 <__bss_end__+0xe389b0>
     728:	00001349 	andeq	r1, r0, r9, asr #6
     72c:	0b000f0b 	bleq	4360 <__code_start__-0x3ca0>
     730:	0c00000b 	stceq	0, cr0, [r0], {11}
     734:	19270015 	stmdbne	r7!, {r0, r2, r4}
     738:	130d0000 	movwne	r0, #53248	; 0xd000
     73c:	3a0b0b01 	bcc	2c3348 <__bss_end__+0x2b88e0>
     740:	390b3b0b 	stmdbcc	fp, {r0, r1, r3, r8, r9, fp, ip, sp}
     744:	0013010b 	andseq	r0, r3, fp, lsl #2
     748:	000d0e00 	andeq	r0, sp, r0, lsl #28
     74c:	0b3a0803 	bleq	e82760 <__bss_end__+0xe77cf8>
     750:	0b390b3b 	bleq	e43444 <__bss_end__+0xe389dc>
     754:	0b381349 	bleq	e05480 <__bss_end__+0xdfaa18>
     758:	0d0f0000 	stceq	0, cr0, [pc, #-0]	; 760 <__code_start__-0x78a0>
     75c:	3a0e0300 	bcc	381364 <__bss_end__+0x3768fc>
     760:	390b3b0b 	stmdbcc	fp, {r0, r1, r3, r8, r9, fp, ip, sp}
     764:	3813490b 	ldmdacc	r3, {r0, r1, r3, r8, fp, lr}
     768:	1000000b 	andne	r0, r0, fp
     76c:	0e030016 	mcreq	0, 0, r0, cr3, cr6, {0}
     770:	0b3b0b3a 	bleq	ec3460 <__bss_end__+0xeb89f8>
     774:	13490b39 	movtne	r0, #39737	; 0x9b39
     778:	34110000 	ldrcc	r0, [r1], #-0
     77c:	3a0e0300 	bcc	381384 <__bss_end__+0x37691c>
     780:	390b3b0b 	stmdbcc	fp, {r0, r1, r3, r8, r9, fp, ip, sp}
     784:	0213490b 	andseq	r4, r3, #180224	; 0x2c000
     788:	12000018 	andne	r0, r0, #24, 0
     78c:	193f012e 	ldmdbne	pc!, {r1, r2, r3, r5, r8}	; <UNPREDICTABLE>
     790:	0b3a0e03 	bleq	e83fa4 <__bss_end__+0xe7953c>
     794:	0b390b3b 	bleq	e43488 <__bss_end__+0xe38a20>
     798:	01111927 	tsteq	r1, r7, lsr #18
     79c:	18400612 	stmdane	r0, {r1, r4, r9, sl}^
     7a0:	01194297 			; <UNDEFINED> instruction: 0x01194297
     7a4:	13000013 	movwne	r0, #19
     7a8:	08030005 	stmdaeq	r3, {r0, r2}
     7ac:	0b3b0b3a 	bleq	ec349c <__bss_end__+0xeb8a34>
     7b0:	13490b39 	movtne	r0, #39737	; 0x9b39
     7b4:	00001802 	andeq	r1, r0, r2, lsl #16
     7b8:	03003414 	movweq	r3, #1044	; 0x414
     7bc:	3b0b3a08 	blcc	2cefe4 <__bss_end__+0x2c457c>
     7c0:	490b390b 	stmdbmi	fp, {r0, r1, r3, r8, fp, ip, sp}
     7c4:	b7170213 			; <UNDEFINED> instruction: 0xb7170213
     7c8:	00001742 	andeq	r1, r0, r2, asr #14
     7cc:	3f012e15 	svccc	0x00012e15
     7d0:	3a0e0319 	bcc	38143c <__bss_end__+0x3769d4>
     7d4:	390b3b0b 	stmdbcc	fp, {r0, r1, r3, r8, r9, fp, ip, sp}
     7d8:	4919270b 	ldmdbmi	r9, {r0, r1, r3, r8, r9, sl, sp}
     7dc:	12011113 	andne	r1, r1, #-1073741820	; 0xc0000004
     7e0:	97184006 	ldrls	r4, [r8, -r6]
     7e4:	13011942 	movwne	r1, #6466	; 0x1942
     7e8:	05160000 	ldreq	r0, [r6, #-0]
     7ec:	3a0e0300 	bcc	3813f4 <__bss_end__+0x37698c>
     7f0:	390b3b0b 	stmdbcc	fp, {r0, r1, r3, r8, r9, fp, ip, sp}
     7f4:	0213490b 	andseq	r4, r3, #180224	; 0x2c000
     7f8:	1742b717 	smlaldne	fp, r2, r7, r7
     7fc:	34170000 	ldrcc	r0, [r7], #-0
     800:	3a0e0300 	bcc	381408 <__bss_end__+0x3769a0>
     804:	390b3b0b 	stmdbcc	fp, {r0, r1, r3, r8, r9, fp, ip, sp}
     808:	0213490b 	andseq	r4, r3, #180224	; 0x2c000
     80c:	1742b717 	smlaldne	fp, r2, r7, r7
     810:	2e180000 	cdpcs	0, 1, cr0, cr8, cr0, {0}
     814:	03193f01 	tsteq	r9, #1, 30
     818:	3b0b3a0e 	blcc	2cf058 <__bss_end__+0x2c45f0>
     81c:	270b390b 	strcs	r3, [fp, -fp, lsl #18]
     820:	3c134919 			; <UNDEFINED> instruction: 0x3c134919
     824:	00130119 	andseq	r0, r3, r9, lsl r1
     828:	82891900 	addhi	r1, r9, #0, 18
     82c:	01110101 	tsteq	r1, r1, lsl #2
     830:	00001331 	andeq	r1, r0, r1, lsr r3
     834:	01828a1a 	orreq	r8, r2, sl, lsl sl
     838:	91180200 	tstls	r8, r0, lsl #4
     83c:	00001842 	andeq	r1, r0, r2, asr #16
     840:	03012e1b 	movweq	r2, #7707	; 0x1e1b
     844:	3b0b3a0e 	blcc	2cf084 <__bss_end__+0x2c461c>
     848:	270b390b 	strcs	r3, [fp, -fp, lsl #18]
     84c:	11134919 	tstne	r3, r9, lsl r9
     850:	40061201 	andmi	r1, r6, r1, lsl #4
     854:	19429718 	stmdbne	r2, {r3, r4, r8, r9, sl, ip, pc}^
     858:	00001301 	andeq	r1, r0, r1, lsl #6
     85c:	0300051c 	movweq	r0, #1308	; 0x51c
     860:	3b0b3a08 	blcc	2cf088 <__bss_end__+0x2c4620>
     864:	490b390b 	stmdbmi	fp, {r0, r1, r3, r8, fp, ip, sp}
     868:	b7170213 			; <UNDEFINED> instruction: 0xb7170213
     86c:	00001742 	andeq	r1, r0, r2, asr #14
     870:	0182891d 	orreq	r8, r2, sp, lsl r9
     874:	31011101 	tstcc	r1, r1, lsl #2
     878:	00130113 	andseq	r0, r3, r3, lsl r1
     87c:	82891e00 	addhi	r1, r9, #0, 28
     880:	01110001 	tsteq	r1, r1
     884:	00001331 	andeq	r1, r0, r1, lsr r3
     888:	3f002e1f 	svccc	0x00002e1f
     88c:	6e193c19 	mrcvs	12, 0, r3, cr9, cr9, {0}
     890:	3a0e030e 	bcc	3814d0 <__bss_end__+0x376a68>
     894:	390b3b0b 	stmdbcc	fp, {r0, r1, r3, r8, r9, fp, ip, sp}
     898:	0000000b 	andeq	r0, r0, fp
     89c:	25011101 	strcs	r1, [r1, #-257]	; 0xfffffeff
     8a0:	030b130e 	movweq	r1, #45838	; 0xb30e
     8a4:	110e1b0e 	tstne	lr, lr, lsl #22
     8a8:	10061201 	andne	r1, r6, r1, lsl #4
     8ac:	02000017 	andeq	r0, r0, #23, 0
     8b0:	0b0b0024 	bleq	2c0948 <__bss_end__+0x2b5ee0>
     8b4:	08030b3e 	stmdaeq	r3, {r1, r2, r3, r4, r5, r8, r9, fp}
     8b8:	16030000 	strne	r0, [r3], -r0
     8bc:	3a0e0300 	bcc	3814c4 <__bss_end__+0x376a5c>
     8c0:	390b3b0b 	stmdbcc	fp, {r0, r1, r3, r8, r9, fp, ip, sp}
     8c4:	0013490b 	andseq	r4, r3, fp, lsl #18
     8c8:	00240400 	eoreq	r0, r4, r0, lsl #8
     8cc:	0b3e0b0b 	bleq	f83500 <__bss_end__+0xf78a98>
     8d0:	00000e03 	andeq	r0, r0, r3, lsl #28
     8d4:	27011505 	strcs	r1, [r1, -r5, lsl #10]
     8d8:	01134919 	tsteq	r3, r9, lsl r9
     8dc:	06000013 			; <UNDEFINED> instruction: 0x06000013
     8e0:	13490005 	movtne	r0, #36869	; 0x9005
     8e4:	34070000 	strcc	r0, [r7], #-0
     8e8:	3a0e0300 	bcc	3814f0 <__bss_end__+0x376a88>
     8ec:	390b3b0b 	stmdbcc	fp, {r0, r1, r3, r8, r9, fp, ip, sp}
     8f0:	3f13490b 	svccc	0x0013490b
     8f4:	00193c19 	andseq	r3, r9, r9, lsl ip
     8f8:	000f0800 	andeq	r0, pc, r0, lsl #16
     8fc:	13490b0b 	movtne	r0, #39691	; 0x9b0b
     900:	26090000 	strcs	r0, [r9], -r0
     904:	00134900 	andseq	r4, r3, r0, lsl #18
     908:	012e0a00 			; <UNDEFINED> instruction: 0x012e0a00
     90c:	0e03193f 			; <UNDEFINED> instruction: 0x0e03193f
     910:	0b3b0b3a 	bleq	ec3600 <__bss_end__+0xeb8b98>
     914:	19270b39 	stmdbne	r7!, {r0, r3, r4, r5, r8, r9, fp}
     918:	01111349 	tsteq	r1, r9, asr #6
     91c:	18400612 	stmdane	r0, {r1, r4, r9, sl}^
     920:	01194297 			; <UNDEFINED> instruction: 0x01194297
     924:	0b000013 	bleq	978 <__code_start__-0x7688>
     928:	08030005 	stmdaeq	r3, {r0, r2}
     92c:	0b3b0b3a 	bleq	ec361c <__bss_end__+0xeb8bb4>
     930:	13490b39 	movtne	r0, #39737	; 0x9b39
     934:	00001802 	andeq	r1, r0, r2, lsl #16
     938:	0300050c 	movweq	r0, #1292	; 0x50c
     93c:	3b0b3a08 	blcc	2cf164 <__bss_end__+0x2c46fc>
     940:	490b390b 	stmdbmi	fp, {r0, r1, r3, r8, fp, ip, sp}
     944:	b7170213 			; <UNDEFINED> instruction: 0xb7170213
     948:	00001742 	andeq	r1, r0, r2, asr #14
     94c:	0300340d 	movweq	r3, #1037	; 0x40d
     950:	3b0b3a08 	blcc	2cf178 <__bss_end__+0x2c4710>
     954:	490b390b 	stmdbmi	fp, {r0, r1, r3, r8, fp, ip, sp}
     958:	b7170213 			; <UNDEFINED> instruction: 0xb7170213
     95c:	00001742 	andeq	r1, r0, r2, asr #14
     960:	0b000f0e 	bleq	45a0 <__code_start__-0x3a60>
     964:	0000000b 	andeq	r0, r0, fp
     968:	25011101 	strcs	r1, [r1, #-257]	; 0xfffffeff
     96c:	030b130e 	movweq	r1, #45838	; 0xb30e
     970:	110e1b0e 	tstne	lr, lr, lsl #22
     974:	10061201 	andne	r1, r6, r1, lsl #4
     978:	02000017 	andeq	r0, r0, #23, 0
     97c:	0e030016 	mcreq	0, 0, r0, cr3, cr6, {0}
     980:	0b3b0b3a 	bleq	ec3670 <__bss_end__+0xeb8c08>
     984:	13490b39 	movtne	r0, #39737	; 0x9b39
     988:	13030000 	movwne	r0, #12288	; 0x3000
     98c:	0b0e0301 	bleq	381598 <__bss_end__+0x376b30>
     990:	3b0b3a0b 	blcc	2cf1c4 <__bss_end__+0x2c475c>
     994:	0013010b 	andseq	r0, r3, fp, lsl #2
     998:	000d0400 	andeq	r0, sp, r0, lsl #8
     99c:	13490e03 	movtne	r0, #40451	; 0x9e03
     9a0:	19340b38 	ldmdbne	r4!, {r3, r4, r5, r8, r9, fp}
     9a4:	0f050000 	svceq	0x00050000
     9a8:	000b0b00 	andeq	r0, fp, r0, lsl #22
     9ac:	00240600 	eoreq	r0, r4, r0, lsl #12
     9b0:	0b3e0b0b 	bleq	f835e4 <__bss_end__+0xf78b7c>
     9b4:	00000803 	andeq	r0, r0, r3, lsl #16
     9b8:	0b002407 	bleq	99dc <kmalloc+0x2c>
     9bc:	030b3e0b 	movweq	r3, #48651	; 0xbe0b
     9c0:	0800000e 	stmdaeq	r0, {r1, r2, r3}
     9c4:	19270115 	stmdbne	r7!, {r0, r2, r4, r8}
     9c8:	13011349 	movwne	r1, #4937	; 0x1349
     9cc:	05090000 	streq	r0, [r9, #-0]
     9d0:	00134900 	andseq	r4, r3, r0, lsl #18
     9d4:	00340a00 	eorseq	r0, r4, r0, lsl #20
     9d8:	0b3a0e03 	bleq	e841ec <__bss_end__+0xe79784>
     9dc:	0b390b3b 	bleq	e436d0 <__bss_end__+0xe38c68>
     9e0:	193f1349 	ldmdbne	pc!, {r0, r3, r6, r8, r9, ip}	; <UNPREDICTABLE>
     9e4:	0000193c 	andeq	r1, r0, ip, lsr r9
     9e8:	0b000f0b 	bleq	461c <__code_start__-0x39e4>
     9ec:	0013490b 	andseq	r4, r3, fp, lsl #18
     9f0:	00260c00 	eoreq	r0, r6, r0, lsl #24
     9f4:	00001349 	andeq	r1, r0, r9, asr #6
     9f8:	3f012e0d 	svccc	0x00012e0d
     9fc:	3a0e0319 	bcc	381668 <__bss_end__+0x376c00>
     a00:	390b3b0b 	stmdbcc	fp, {r0, r1, r3, r8, r9, fp, ip, sp}
     a04:	4919270b 	ldmdbmi	r9, {r0, r1, r3, r8, r9, sl, sp}
     a08:	12011113 	andne	r1, r1, #-1073741820	; 0xc0000004
     a0c:	97184006 	ldrls	r4, [r8, -r6]
     a10:	13011942 	movwne	r1, #6466	; 0x1942
     a14:	050e0000 	streq	r0, [lr, #-0]
     a18:	3a080300 	bcc	201620 <__bss_end__+0x1f6bb8>
     a1c:	390b3b0b 	stmdbcc	fp, {r0, r1, r3, r8, r9, fp, ip, sp}
     a20:	0213490b 	andseq	r4, r3, #180224	; 0x2c000
     a24:	0f000018 	svceq	0x00000018
     a28:	00000018 	andeq	r0, r0, r8, lsl r0
     a2c:	03003410 	movweq	r3, #1040	; 0x410
     a30:	3b0b3a08 	blcc	2cf258 <__bss_end__+0x2c47f0>
     a34:	490b390b 	stmdbmi	fp, {r0, r1, r3, r8, fp, ip, sp}
     a38:	00180213 	andseq	r0, r8, r3, lsl r2
     a3c:	00341100 	eorseq	r1, r4, r0, lsl #2
     a40:	0b3a0e03 	bleq	e84254 <__bss_end__+0xe797ec>
     a44:	0b390b3b 	bleq	e43738 <__bss_end__+0xe38cd0>
     a48:	18021349 	stmdane	r2, {r0, r3, r6, r8, r9, ip}
     a4c:	34120000 	ldrcc	r0, [r2], #-0
     a50:	3a080300 	bcc	201658 <__bss_end__+0x1f6bf0>
     a54:	390b3b0b 	stmdbcc	fp, {r0, r1, r3, r8, r9, fp, ip, sp}
     a58:	0213490b 	andseq	r4, r3, #180224	; 0x2c000
     a5c:	1742b717 	smlaldne	fp, r2, r7, r7
     a60:	89130000 	ldmdbhi	r3, {}	; <UNPREDICTABLE>
     a64:	11010182 	smlabbne	r1, r2, r1, r0
     a68:	01133101 	tsteq	r3, r1, lsl #2
     a6c:	14000013 	strne	r0, [r0], #-19	; 0xffffffed
     a70:	0001828a 	andeq	r8, r1, sl, lsl #5
     a74:	42911802 	addsmi	r1, r1, #131072	; 0x20000
     a78:	15000018 	strne	r0, [r0, #-24]	; 0xffffffe8
     a7c:	01018289 	smlabbeq	r1, r9, r2, r8
     a80:	00000111 	andeq	r0, r0, r1, lsl r1
     a84:	49010116 	stmdbmi	r1, {r1, r2, r4, r8}
     a88:	00130113 	andseq	r0, r3, r3, lsl r1
     a8c:	00211700 	eoreq	r1, r1, r0, lsl #14
     a90:	052f1349 	streq	r1, [pc, #-841]!	; 74f <__code_start__-0x78b1>
     a94:	2e180000 	cdpcs	0, 1, cr0, cr8, cr0, {0}
     a98:	3c193f00 	ldccc	15, cr3, [r9], {-0}
     a9c:	030e6e19 	movweq	r6, #60953	; 0xee19
     aa0:	3b0b3a0e 	blcc	2cf2e0 <__bss_end__+0x2c4878>
     aa4:	000b390b 	andeq	r3, fp, fp, lsl #18
     aa8:	11010000 	mrsne	r0, (UNDEF: 1)
     aac:	130e2501 	movwne	r2, #58625	; 0xe501
     ab0:	1b0e030b 	blne	3816e4 <__bss_end__+0x376c7c>
     ab4:	1201110e 	andne	r1, r1, #-2147483645	; 0x80000003
     ab8:	00171006 	andseq	r1, r7, r6
     abc:	00240200 	eoreq	r0, r4, r0, lsl #4
     ac0:	0b3e0b0b 	bleq	f836f4 <__bss_end__+0xf78c8c>
     ac4:	00000803 	andeq	r0, r0, r3, lsl #16
     ac8:	0b002403 	bleq	9adc <kmalloc_aligned+0xc8>
     acc:	030b3e0b 	movweq	r3, #48651	; 0xbe0b
     ad0:	0400000e 	streq	r0, [r0], #-14
     ad4:	19270115 	stmdbne	r7!, {r0, r2, r4, r8}
     ad8:	13011349 	movwne	r1, #4937	; 0x1349
     adc:	05050000 	streq	r0, [r5, #-0]
     ae0:	00134900 	andseq	r4, r3, r0, lsl #18
     ae4:	00340600 	eorseq	r0, r4, r0, lsl #12
     ae8:	0b3a0e03 	bleq	e842fc <__bss_end__+0xe79894>
     aec:	0b390b3b 	bleq	e437e0 <__bss_end__+0xe38d78>
     af0:	193f1349 	ldmdbne	pc!, {r0, r3, r6, r8, r9, ip}	; <UNPREDICTABLE>
     af4:	0000193c 	andeq	r1, r0, ip, lsr r9
     af8:	0b000f07 	bleq	471c <__code_start__-0x38e4>
     afc:	0013490b 	andseq	r4, r3, fp, lsl #18
     b00:	00260800 	eoreq	r0, r6, r0, lsl #16
     b04:	00001349 	andeq	r1, r0, r9, asr #6
     b08:	47003409 	strmi	r3, [r0, -r9, lsl #8]
     b0c:	3b0b3a13 	blcc	2cf360 <__bss_end__+0x2c48f8>
     b10:	020b390b 	andeq	r3, fp, #180224	; 0x2c000
     b14:	0a000018 	beq	b7c <__code_start__-0x7484>
     b18:	193f012e 	ldmdbne	pc!, {r1, r2, r3, r5, r8}	; <UNPREDICTABLE>
     b1c:	0b3a0e03 	bleq	e84330 <__bss_end__+0xe798c8>
     b20:	0b390b3b 	bleq	e43814 <__bss_end__+0xe38dac>
     b24:	13491927 	movtne	r1, #39207	; 0x9927
     b28:	06120111 			; <UNDEFINED> instruction: 0x06120111
     b2c:	42961840 	addsmi	r1, r6, #64, 16	; 0x400000
     b30:	0b000019 	bleq	b9c <__code_start__-0x7464>
     b34:	08030005 	stmdaeq	r3, {r0, r2}
     b38:	0b3b0b3a 	bleq	ec3828 <__bss_end__+0xeb8dc0>
     b3c:	13490b39 	movtne	r0, #39737	; 0x9b39
     b40:	42b71702 	adcsmi	r1, r7, #524288	; 0x80000
     b44:	00000017 	andeq	r0, r0, r7, lsl r0
     b48:	25011101 	strcs	r1, [r1, #-257]	; 0xfffffeff
     b4c:	030b130e 	movweq	r1, #45838	; 0xb30e
     b50:	110e1b0e 	tstne	lr, lr, lsl #22
     b54:	10061201 	andne	r1, r6, r1, lsl #4
     b58:	02000017 	andeq	r0, r0, #23, 0
     b5c:	0b0b0024 	bleq	2c0bf4 <__bss_end__+0x2b618c>
     b60:	08030b3e 	stmdaeq	r3, {r1, r2, r3, r4, r5, r8, r9, fp}
     b64:	24030000 	strcs	r0, [r3], #-0
     b68:	3e0b0b00 	vmlacc.f64	d0, d11, d0
     b6c:	000e030b 	andeq	r0, lr, fp, lsl #6
     b70:	00160400 	andseq	r0, r6, r0, lsl #8
     b74:	0b3a0e03 	bleq	e84388 <__bss_end__+0xe79920>
     b78:	0b390b3b 	bleq	e4386c <__bss_end__+0xe38e04>
     b7c:	00001349 	andeq	r1, r0, r9, asr #6
     b80:	27011505 	strcs	r1, [r1, -r5, lsl #10]
     b84:	01134919 	tsteq	r3, r9, lsl r9
     b88:	06000013 			; <UNDEFINED> instruction: 0x06000013
     b8c:	13490005 	movtne	r0, #36869	; 0x9005
     b90:	34070000 	strcc	r0, [r7], #-0
     b94:	3a0e0300 	bcc	38179c <__bss_end__+0x376d34>
     b98:	390b3b0b 	stmdbcc	fp, {r0, r1, r3, r8, r9, fp, ip, sp}
     b9c:	3f13490b 	svccc	0x0013490b
     ba0:	00193c19 	andseq	r3, r9, r9, lsl ip
     ba4:	000f0800 	andeq	r0, pc, r0, lsl #16
     ba8:	13490b0b 	movtne	r0, #39691	; 0x9b0b
     bac:	26090000 	strcs	r0, [r9], -r0
     bb0:	00134900 	andseq	r4, r3, r0, lsl #18
     bb4:	01130a00 	tsteq	r3, r0, lsl #20
     bb8:	0b0b0e03 	bleq	2c43cc <__bss_end__+0x2b9964>
     bbc:	0b3b0b3a 	bleq	ec38ac <__bss_end__+0xeb8e44>
     bc0:	00001301 	andeq	r1, r0, r1, lsl #6
     bc4:	03000d0b 	movweq	r0, #3339	; 0xd0b
     bc8:	3813490e 	ldmdacc	r3, {r1, r2, r3, r8, fp, lr}
     bcc:	0019340b 	andseq	r3, r9, fp, lsl #8
     bd0:	000f0c00 	andeq	r0, pc, r0, lsl #24
     bd4:	00000b0b 	andeq	r0, r0, fp, lsl #22
     bd8:	3f012e0d 	svccc	0x00012e0d
     bdc:	3a0e0319 	bcc	381848 <__bss_end__+0x376de0>
     be0:	390b3b0b 	stmdbcc	fp, {r0, r1, r3, r8, r9, fp, ip, sp}
     be4:	4919270b 	ldmdbmi	r9, {r0, r1, r3, r8, r9, sl, sp}
     be8:	12011113 	andne	r1, r1, #-1073741820	; 0xc0000004
     bec:	97184006 	ldrls	r4, [r8, -r6]
     bf0:	13011942 	movwne	r1, #6466	; 0x1942
     bf4:	050e0000 	streq	r0, [lr, #-0]
     bf8:	3a080300 	bcc	201800 <__bss_end__+0x1f6d98>
     bfc:	390b3b0b 	stmdbcc	fp, {r0, r1, r3, r8, r9, fp, ip, sp}
     c00:	0213490b 	andseq	r4, r3, #180224	; 0x2c000
     c04:	1742b717 	smlaldne	fp, r2, r7, r7
     c08:	050f0000 	streq	r0, [pc, #-0]	; c10 <__code_start__-0x73f0>
     c0c:	3a0e0300 	bcc	381814 <__bss_end__+0x376dac>
     c10:	390b3b0b 	stmdbcc	fp, {r0, r1, r3, r8, r9, fp, ip, sp}
     c14:	0213490b 	andseq	r4, r3, #180224	; 0x2c000
     c18:	10000018 	andne	r0, r0, r8, lsl r0
     c1c:	08030034 	stmdaeq	r3, {r2, r4, r5}
     c20:	0b3b0b3a 	bleq	ec3910 <__bss_end__+0xeb8ea8>
     c24:	13490b39 	movtne	r0, #39737	; 0x9b39
     c28:	42b71702 	adcsmi	r1, r7, #524288	; 0x80000
     c2c:	11000017 	tstne	r0, r7, lsl r0
     c30:	0e030034 	mcreq	0, 0, r0, cr3, cr4, {1}
     c34:	0b3b0b3a 	bleq	ec3924 <__bss_end__+0xeb8ebc>
     c38:	13490b39 	movtne	r0, #39737	; 0x9b39
     c3c:	42b71702 	adcsmi	r1, r7, #524288	; 0x80000
     c40:	12000017 	andne	r0, r0, #23, 0
     c44:	0e030034 	mcreq	0, 0, r0, cr3, cr4, {1}
     c48:	19341349 	ldmdbne	r4!, {r0, r3, r6, r8, r9, ip}
     c4c:	00001802 	andeq	r1, r0, r2, lsl #16
     c50:	11010b13 	tstne	r1, r3, lsl fp
     c54:	00061201 	andeq	r1, r6, r1, lsl #4
     c58:	00341400 	eorseq	r1, r4, r0, lsl #8
     c5c:	0b3a0803 	bleq	e82c70 <__bss_end__+0xe78208>
     c60:	0b390b3b 	bleq	e43954 <__bss_end__+0xe38eec>
     c64:	18021349 	stmdane	r2, {r0, r3, r6, r8, r9, ip}
     c68:	34150000 	ldrcc	r0, [r5], #-0
     c6c:	3a0e0300 	bcc	381874 <__bss_end__+0x376e0c>
     c70:	390b3b0b 	stmdbcc	fp, {r0, r1, r3, r8, r9, fp, ip, sp}
     c74:	0213490b 	andseq	r4, r3, #180224	; 0x2c000
     c78:	16000018 			; <UNDEFINED> instruction: 0x16000018
     c7c:	0111010b 	tsteq	r1, fp, lsl #2
     c80:	13010612 	movwne	r0, #5650	; 0x1612
     c84:	34170000 	ldrcc	r0, [r7], #-0
     c88:	3a080300 	bcc	201890 <__bss_end__+0x1f6e28>
     c8c:	390b3b0b 	stmdbcc	fp, {r0, r1, r3, r8, r9, fp, ip, sp}
     c90:	0013490b 	andseq	r4, r3, fp, lsl #18
     c94:	82891800 	addhi	r1, r9, #0, 16
     c98:	01110101 	tsteq	r1, r1, lsl #2
     c9c:	13011331 	movwne	r1, #4913	; 0x1331
     ca0:	8a190000 	bhi	640ca8 <__bss_end__+0x636240>
     ca4:	02000182 	andeq	r0, r0, #-2147483616	; 0x80000020
     ca8:	18429118 	stmdane	r2, {r3, r4, r8, ip, pc}^
     cac:	891a0000 	ldmdbhi	sl, {}	; <UNPREDICTABLE>
     cb0:	11000182 	smlabbne	r0, r2, r1, r0
     cb4:	00133101 	andseq	r3, r3, r1, lsl #2
     cb8:	82891b00 	addhi	r1, r9, #0, 22
     cbc:	01110101 	tsteq	r1, r1, lsl #2
     cc0:	00001301 	andeq	r1, r0, r1, lsl #6
     cc4:	4901011c 	stmdbmi	r1, {r2, r3, r4, r8}
     cc8:	00130113 	andseq	r0, r3, r3, lsl r1
     ccc:	00211d00 	eoreq	r1, r1, r0, lsl #26
     cd0:	0b2f1349 	bleq	bc59fc <__bss_end__+0xbbaf94>
     cd4:	2e1e0000 	cdpcs	0, 1, cr0, cr14, cr0, {0}
     cd8:	3a0e0301 	bcc	3818e4 <__bss_end__+0x376e7c>
     cdc:	390b3b0b 	stmdbcc	fp, {r0, r1, r3, r8, r9, fp, ip, sp}
     ce0:	4919270b 	ldmdbmi	r9, {r0, r1, r3, r8, r9, sl, sp}
     ce4:	12011113 	andne	r1, r1, #-1073741820	; 0xc0000004
     ce8:	97184006 	ldrls	r4, [r8, -r6]
     cec:	13011942 	movwne	r1, #6466	; 0x1942
     cf0:	051f0000 	ldreq	r0, [pc, #-0]	; cf8 <__code_start__-0x7308>
     cf4:	3a0e0300 	bcc	3818fc <__bss_end__+0x376e94>
     cf8:	390b3b0b 	stmdbcc	fp, {r0, r1, r3, r8, r9, fp, ip, sp}
     cfc:	0213490b 	andseq	r4, r3, #180224	; 0x2c000
     d00:	1742b717 	smlaldne	fp, r2, r7, r7
     d04:	2e200000 	cdpcs	0, 2, cr0, cr0, cr0, {0}
     d08:	3a080301 	bcc	201914 <__bss_end__+0x1f6eac>
     d0c:	390b3b0b 	stmdbcc	fp, {r0, r1, r3, r8, r9, fp, ip, sp}
     d10:	4919270b 	ldmdbmi	r9, {r0, r1, r3, r8, r9, sl, sp}
     d14:	12011113 	andne	r1, r1, #-1073741820	; 0xc0000004
     d18:	97184006 	ldrls	r4, [r8, -r6]
     d1c:	13011942 	movwne	r1, #6466	; 0x1942
     d20:	2e210000 	cdpcs	0, 2, cr0, cr1, cr0, {0}
     d24:	03193f01 	tsteq	r9, #1, 30
     d28:	3b0b3a0e 	blcc	2cf568 <__bss_end__+0x2c4b00>
     d2c:	270b390b 	strcs	r3, [fp, -fp, lsl #18]
     d30:	12011119 	andne	r1, r1, #1073741830	; 0x40000006
     d34:	97184006 	ldrls	r4, [r8, -r6]
     d38:	13011942 	movwne	r1, #6466	; 0x1942
     d3c:	2e220000 	cdpcs	0, 2, cr0, cr2, cr0, {0}
     d40:	3c193f00 	ldccc	15, cr3, [r9], {-0}
     d44:	030e6e19 	movweq	r6, #60953	; 0xee19
     d48:	3b0b3a0e 	blcc	2cf588 <__bss_end__+0x2c4b20>
     d4c:	000b390b 	andeq	r3, fp, fp, lsl #18
     d50:	11010000 	mrsne	r0, (UNDEF: 1)
     d54:	130e2501 	movwne	r2, #58625	; 0xe501
     d58:	1b0e030b 	blne	38198c <__bss_end__+0x376f24>
     d5c:	1201110e 	andne	r1, r1, #-2147483645	; 0x80000003
     d60:	00171006 	andseq	r1, r7, r6
     d64:	00240200 	eoreq	r0, r4, r0, lsl #4
     d68:	0b3e0b0b 	bleq	f8399c <__bss_end__+0xf78f34>
     d6c:	00000803 	andeq	r0, r0, r3, lsl #16
     d70:	0b002403 	bleq	9d84 <gpio_write+0x10>
     d74:	030b3e0b 	movweq	r3, #48651	; 0xbe0b
     d78:	0400000e 	streq	r0, [r0], #-14
     d7c:	19270115 	stmdbne	r7!, {r0, r2, r4, r8}
     d80:	13011349 	movwne	r1, #4937	; 0x1349
     d84:	05050000 	streq	r0, [r5, #-0]
     d88:	00134900 	andseq	r4, r3, r0, lsl #18
     d8c:	00340600 	eorseq	r0, r4, r0, lsl #12
     d90:	0b3a0e03 	bleq	e845a4 <__bss_end__+0xe79b3c>
     d94:	0b390b3b 	bleq	e43a88 <__bss_end__+0xe39020>
     d98:	193f1349 	ldmdbne	pc!, {r0, r3, r6, r8, r9, ip}	; <UNPREDICTABLE>
     d9c:	0000193c 	andeq	r1, r0, ip, lsr r9
     da0:	0b000f07 	bleq	49c4 <__code_start__-0x363c>
     da4:	0013490b 	andseq	r4, r3, fp, lsl #18
     da8:	00260800 	eoreq	r0, r6, r0, lsl #16
     dac:	00001349 	andeq	r1, r0, r9, asr #6
     db0:	3f012e09 	svccc	0x00012e09
     db4:	3a0e0319 	bcc	381a20 <__bss_end__+0x376fb8>
     db8:	390b3b0b 	stmdbcc	fp, {r0, r1, r3, r8, r9, fp, ip, sp}
     dbc:	8719270b 	ldrhi	r2, [r9, -fp, lsl #14]
     dc0:	01111901 	tsteq	r1, r1, lsl #18
     dc4:	18400612 	stmdane	r0, {r1, r4, r9, sl}^
     dc8:	01194297 			; <UNDEFINED> instruction: 0x01194297
     dcc:	0a000013 	beq	e20 <__code_start__-0x71e0>
     dd0:	01018289 	smlabbeq	r1, r9, r2, r8
     dd4:	13010111 	movwne	r0, #4369	; 0x1111
     dd8:	8a0b0000 	bhi	2c0de0 <__bss_end__+0x2b6378>
     ddc:	02000182 	andeq	r0, r0, #-2147483616	; 0x80000020
     de0:	18429118 	stmdane	r2, {r3, r4, r8, ip, pc}^
     de4:	890c0000 	stmdbhi	ip, {}	; <UNPREDICTABLE>
     de8:	11000182 	smlabbne	r0, r2, r1, r0
     dec:	00133101 	andseq	r3, r3, r1, lsl #2
     df0:	82890d00 	addhi	r0, r9, #0, 26
     df4:	01110101 	tsteq	r1, r1, lsl #2
     df8:	13011331 	movwne	r1, #4913	; 0x1331
     dfc:	2e0e0000 	cdpcs	0, 0, cr0, cr14, cr0, {0}
     e00:	3c193f00 	ldccc	15, cr3, [r9], {-0}
     e04:	030e6e19 	movweq	r6, #60953	; 0xee19
     e08:	3b0b3a0e 	blcc	2cf648 <__bss_end__+0x2c4be0>
     e0c:	000b390b 	andeq	r3, fp, fp, lsl #18
     e10:	11010000 	mrsne	r0, (UNDEF: 1)
     e14:	130e2501 	movwne	r2, #58625	; 0xe501
     e18:	1b0e030b 	blne	381a4c <__bss_end__+0x376fe4>
     e1c:	1201110e 	andne	r1, r1, #-2147483645	; 0x80000003
     e20:	00171006 	andseq	r1, r7, r6
     e24:	00240200 	eoreq	r0, r4, r0, lsl #4
     e28:	0b3e0b0b 	bleq	f83a5c <__bss_end__+0xf78ff4>
     e2c:	00000803 	andeq	r0, r0, r3, lsl #16
     e30:	0b002403 	bleq	9e44 <__code_end__+0x80>
     e34:	030b3e0b 	movweq	r3, #48651	; 0xbe0b
     e38:	0400000e 	streq	r0, [r0], #-14
     e3c:	19270115 	stmdbne	r7!, {r0, r2, r4, r8}
     e40:	13011349 	movwne	r1, #4937	; 0x1349
     e44:	05050000 	streq	r0, [r5, #-0]
     e48:	00134900 	andseq	r4, r3, r0, lsl #18
     e4c:	00340600 	eorseq	r0, r4, r0, lsl #12
     e50:	0b3a0e03 	bleq	e84664 <__bss_end__+0xe79bfc>
     e54:	0b390b3b 	bleq	e43b48 <__bss_end__+0xe390e0>
     e58:	193f1349 	ldmdbne	pc!, {r0, r3, r6, r8, r9, ip}	; <UNPREDICTABLE>
     e5c:	0000193c 	andeq	r1, r0, ip, lsr r9
     e60:	0b000f07 	bleq	4a84 <__code_start__-0x357c>
     e64:	0013490b 	andseq	r4, r3, fp, lsl #18
     e68:	00260800 	eoreq	r0, r6, r0, lsl #16
     e6c:	00001349 	andeq	r1, r0, r9, asr #6
     e70:	3f012e09 	svccc	0x00012e09
     e74:	3a0e0319 	bcc	381ae0 <__bss_end__+0x377078>
     e78:	390b3b0b 	stmdbcc	fp, {r0, r1, r3, r8, r9, fp, ip, sp}
     e7c:	1201110b 	andne	r1, r1, #-1073741822	; 0xc0000002
     e80:	97184006 	ldrls	r4, [r8, -r6]
     e84:	13011942 	movwne	r1, #6466	; 0x1942
     e88:	2e0a0000 	cdpcs	0, 0, cr0, cr10, cr0, {0}
     e8c:	03193f00 	tsteq	r9, #0, 30
     e90:	3b0b3a0e 	blcc	2cf6d0 <__bss_end__+0x2c4c68>
     e94:	270b390b 	strcs	r3, [fp, -fp, lsl #18]
     e98:	00193c19 	andseq	r3, r9, r9, lsl ip
     e9c:	00340b00 	eorseq	r0, r4, r0, lsl #22
     ea0:	0b3a0803 	bleq	e82eb4 <__bss_end__+0xe7844c>
     ea4:	0b390b3b 	bleq	e43b98 <__bss_end__+0xe39130>
     ea8:	17021349 	strne	r1, [r2, -r9, asr #6]
     eac:	001742b7 			; <UNDEFINED> instruction: 0x001742b7
     eb0:	00340c00 	eorseq	r0, r4, r0, lsl #24
     eb4:	0b3a0e03 	bleq	e846c8 <__bss_end__+0xe79c60>
     eb8:	0b390b3b 	bleq	e43bac <__bss_end__+0xe39144>
     ebc:	00001349 	andeq	r1, r0, r9, asr #6
     ec0:	11010b0d 	tstne	r1, sp, lsl #22
     ec4:	01061201 	tsteq	r6, r1, lsl #4
     ec8:	0e000013 	mcreq	0, 0, r0, cr0, cr3, {0}
     ecc:	08030034 	stmdaeq	r3, {r2, r4, r5}
     ed0:	0b3b0b3a 	bleq	ec3bc0 <__bss_end__+0xeb9158>
     ed4:	13490b39 	movtne	r0, #39737	; 0x9b39
     ed8:	00000b1c 	andeq	r0, r0, ip, lsl fp
     edc:	0182890f 	orreq	r8, r2, pc, lsl #18
     ee0:	31011100 	mrscc	r1, (UNDEF: 17)
     ee4:	10000013 	andne	r0, r0, r3, lsl r0
     ee8:	193f002e 	ldmdbne	pc!, {r1, r2, r3, r5}	; <UNPREDICTABLE>
     eec:	0e6e193c 			; <UNDEFINED> instruction: 0x0e6e193c
     ef0:	0b3a0e03 	bleq	e84704 <__bss_end__+0xe79c9c>
     ef4:	0b39053b 	bleq	e423e8 <__bss_end__+0xe37980>
     ef8:	2e110000 	cdpcs	0, 1, cr0, cr1, cr0, {0}
     efc:	3c193f00 	ldccc	15, cr3, [r9], {-0}
     f00:	030e6e19 	movweq	r6, #60953	; 0xee19
     f04:	3b0b3a0e 	blcc	2cf744 <__bss_end__+0x2c4cdc>
     f08:	000b390b 	andeq	r3, fp, fp, lsl #18
     f0c:	11010000 	mrsne	r0, (UNDEF: 1)
     f10:	130e2501 	movwne	r2, #58625	; 0xe501
     f14:	1b0e030b 	blne	381b48 <__bss_end__+0x3770e0>
     f18:	1201110e 	andne	r1, r1, #-2147483645	; 0x80000003
     f1c:	00171006 	andseq	r1, r7, r6
     f20:	00240200 	eoreq	r0, r4, r0, lsl #4
     f24:	0b3e0b0b 	bleq	f83b58 <__bss_end__+0xf790f0>
     f28:	00000803 	andeq	r0, r0, r3, lsl #16
     f2c:	0b002403 	bleq	9f40 <__FUNCTION__.4032+0xec>
     f30:	030b3e0b 	movweq	r3, #48651	; 0xbe0b
     f34:	0400000e 	streq	r0, [r0], #-14
     f38:	19270115 	stmdbne	r7!, {r0, r2, r4, r8}
     f3c:	13011349 	movwne	r1, #4937	; 0x1349
     f40:	05050000 	streq	r0, [r5, #-0]
     f44:	00134900 	andseq	r4, r3, r0, lsl #18
     f48:	00340600 	eorseq	r0, r4, r0, lsl #12
     f4c:	0b3a0e03 	bleq	e84760 <__bss_end__+0xe79cf8>
     f50:	0b390b3b 	bleq	e43c44 <__bss_end__+0xe391dc>
     f54:	193f1349 	ldmdbne	pc!, {r0, r3, r6, r8, r9, ip}	; <UNPREDICTABLE>
     f58:	0000193c 	andeq	r1, r0, ip, lsr r9
     f5c:	0b000f07 	bleq	4b80 <__code_start__-0x3480>
     f60:	0013490b 	andseq	r4, r3, fp, lsl #18
     f64:	00260800 	eoreq	r0, r6, r0, lsl #16
     f68:	00001349 	andeq	r1, r0, r9, asr #6
     f6c:	3f002e09 	svccc	0x00002e09
     f70:	3a0e0319 	bcc	381bdc <__bss_end__+0x377174>
     f74:	390b3b0b 	stmdbcc	fp, {r0, r1, r3, r8, r9, fp, ip, sp}
     f78:	1119270b 	tstne	r9, fp, lsl #14
     f7c:	40061201 	andmi	r1, r6, r1, lsl #4
     f80:	19429718 	stmdbne	r2, {r3, r4, r8, r9, sl, ip, pc}^
     f84:	01000000 	mrseq	r0, (UNDEF: 0)
     f88:	0e250111 	mcreq	1, 1, r0, cr5, cr1, {0}
     f8c:	0e030b13 	vmoveq.32	d3[0], r0
     f90:	17550e1b 	smmlane	r5, fp, lr, r0
     f94:	17100111 			; <UNDEFINED> instruction: 0x17100111
     f98:	24020000 	strcs	r0, [r2], #-0
     f9c:	3e0b0b00 	vmlacc.f64	d0, d11, d0
     fa0:	0008030b 	andeq	r0, r8, fp, lsl #6
     fa4:	00260300 	eoreq	r0, r6, r0, lsl #6
     fa8:	00001349 	andeq	r1, r0, r9, asr #6
     fac:	0b002404 	bleq	9fc4 <__FUNCTION__.4105+0x60>
     fb0:	030b3e0b 	movweq	r3, #48651	; 0xbe0b
     fb4:	0500000e 	streq	r0, [r0, #-14]
     fb8:	19270115 	stmdbne	r7!, {r0, r2, r4, r8}
     fbc:	13011349 	movwne	r1, #4937	; 0x1349
     fc0:	05060000 	streq	r0, [r6, #-0]
     fc4:	00134900 	andseq	r4, r3, r0, lsl #18
     fc8:	00340700 	eorseq	r0, r4, r0, lsl #14
     fcc:	0b3a0e03 	bleq	e847e0 <__bss_end__+0xe79d78>
     fd0:	0b390b3b 	bleq	e43cc4 <__bss_end__+0xe3925c>
     fd4:	193f1349 	ldmdbne	pc!, {r0, r3, r6, r8, r9, ip}	; <UNPREDICTABLE>
     fd8:	0000193c 	andeq	r1, r0, ip, lsr r9
     fdc:	0b000f08 	bleq	4c04 <__code_start__-0x33fc>
     fe0:	0013490b 	andseq	r4, r3, fp, lsl #18
     fe4:	00340900 	eorseq	r0, r4, r0, lsl #18
     fe8:	0b3a0e03 	bleq	e847fc <__bss_end__+0xe79d94>
     fec:	0b390b3b 	bleq	e43ce0 <__bss_end__+0xe39278>
     ff0:	00001349 	andeq	r1, r0, r9, asr #6
     ff4:	3f012e0a 	svccc	0x00012e0a
     ff8:	3a0e0319 	bcc	381c64 <__bss_end__+0x3771fc>
     ffc:	390b3b0b 	stmdbcc	fp, {r0, r1, r3, r8, r9, fp, ip, sp}
    1000:	8719270b 	ldrhi	r2, [r9, -fp, lsl #14]
    1004:	01111901 	tsteq	r1, r1, lsl #18
    1008:	18400612 	stmdane	r0, {r1, r4, r9, sl}^
    100c:	01194297 			; <UNDEFINED> instruction: 0x01194297
    1010:	0b000013 	bleq	1064 <__code_start__-0x6f9c>
    1014:	0e030034 	mcreq	0, 0, r0, cr3, cr4, {1}
    1018:	0b3b0b3a 	bleq	ec3d08 <__bss_end__+0xeb92a0>
    101c:	13490b39 	movtne	r0, #39737	; 0x9b39
    1020:	42b71702 	adcsmi	r1, r7, #524288	; 0x80000
    1024:	0c000017 	stceq	0, cr0, [r0], {23}
    1028:	00018289 	andeq	r8, r1, r9, lsl #5
    102c:	13310111 	teqne	r1, #1073741828	; 0x40000004
    1030:	890d0000 	stmdbhi	sp, {}	; <UNPREDICTABLE>
    1034:	11010182 	smlabbne	r1, r2, r1, r0
    1038:	01133101 	tsteq	r3, r1, lsl #2
    103c:	0e000013 	mcreq	0, 0, r0, cr0, cr3, {0}
    1040:	0001828a 	andeq	r8, r1, sl, lsl #5
    1044:	42911802 	addsmi	r1, r1, #131072	; 0x20000
    1048:	0f000018 	svceq	0x00000018
    104c:	193f012e 	ldmdbne	pc!, {r1, r2, r3, r5, r8}	; <UNPREDICTABLE>
    1050:	0b3a0e03 	bleq	e84864 <__bss_end__+0xe79dfc>
    1054:	0b390b3b 	bleq	e43d48 <__bss_end__+0xe392e0>
    1058:	01111927 	tsteq	r1, r7, lsr #18
    105c:	18400612 	stmdane	r0, {r1, r4, r9, sl}^
    1060:	01194297 			; <UNDEFINED> instruction: 0x01194297
    1064:	10000013 	andne	r0, r0, r3, lsl r0
    1068:	193f012e 	ldmdbne	pc!, {r1, r2, r3, r5, r8}	; <UNPREDICTABLE>
    106c:	0b3a0e03 	bleq	e84880 <__bss_end__+0xe79e18>
    1070:	0b390b3b 	bleq	e43d64 <__bss_end__+0xe392fc>
    1074:	13491927 	movtne	r1, #39207	; 0x9927
    1078:	06120111 			; <UNDEFINED> instruction: 0x06120111
    107c:	42971840 	addsmi	r1, r7, #64, 16	; 0x400000
    1080:	00130119 	andseq	r0, r3, r9, lsl r1
    1084:	002e1100 	eoreq	r1, lr, r0, lsl #2
    1088:	193c193f 	ldmdbne	ip!, {r0, r1, r2, r3, r4, r5, r8, fp, ip}
    108c:	0e030e6e 	cdpeq	14, 0, cr0, cr3, cr14, {3}
    1090:	053b0b3a 	ldreq	r0, [fp, #-2874]!	; 0xfffff4c6
    1094:	00000b39 	andeq	r0, r0, r9, lsr fp
    1098:	3f002e12 	svccc	0x00002e12
    109c:	6e193c19 	mrcvs	12, 0, r3, cr9, cr9, {0}
    10a0:	3a0e030e 	bcc	381ce0 <__bss_end__+0x377278>
    10a4:	390b3b0b 	stmdbcc	fp, {r0, r1, r3, r8, r9, fp, ip, sp}
    10a8:	0000000b 	andeq	r0, r0, fp
    10ac:	25011101 	strcs	r1, [r1, #-257]	; 0xfffffeff
    10b0:	030b130e 	movweq	r1, #45838	; 0xb30e
    10b4:	110e1b0e 	tstne	lr, lr, lsl #22
    10b8:	10061201 	andne	r1, r6, r1, lsl #4
    10bc:	02000017 	andeq	r0, r0, #23, 0
    10c0:	0b0b0024 	bleq	2c1158 <__bss_end__+0x2b66f0>
    10c4:	08030b3e 	stmdaeq	r3, {r1, r2, r3, r4, r5, r8, r9, fp}
    10c8:	24030000 	strcs	r0, [r3], #-0
    10cc:	3e0b0b00 	vmlacc.f64	d0, d11, d0
    10d0:	000e030b 	andeq	r0, lr, fp, lsl #6
    10d4:	01150400 	tsteq	r5, r0, lsl #8
    10d8:	13491927 	movtne	r1, #39207	; 0x9927
    10dc:	00001301 	andeq	r1, r0, r1, lsl #6
    10e0:	49000505 	stmdbmi	r0, {r0, r2, r8, sl}
    10e4:	06000013 			; <UNDEFINED> instruction: 0x06000013
    10e8:	0e030034 	mcreq	0, 0, r0, cr3, cr4, {1}
    10ec:	0b3b0b3a 	bleq	ec3ddc <__bss_end__+0xeb9374>
    10f0:	13490b39 	movtne	r0, #39737	; 0x9b39
    10f4:	193c193f 	ldmdbne	ip!, {r0, r1, r2, r3, r4, r5, r8, fp, ip}
    10f8:	0f070000 	svceq	0x00070000
    10fc:	490b0b00 	stmdbmi	fp, {r8, r9, fp}
    1100:	08000013 	stmdaeq	r0, {r0, r1, r4}
    1104:	13490026 	movtne	r0, #36902	; 0x9026
    1108:	2e090000 	cdpcs	0, 0, cr0, cr9, cr0, {0}
    110c:	03193f01 	tsteq	r9, #1, 30
    1110:	3b0b3a0e 	blcc	2cf950 <__bss_end__+0x2c4ee8>
    1114:	270b390b 	strcs	r3, [fp, -fp, lsl #18]
    1118:	12011119 	andne	r1, r1, #1073741830	; 0x40000006
    111c:	97184006 	ldrls	r4, [r8, -r6]
    1120:	13011942 	movwne	r1, #6466	; 0x1942
    1124:	050a0000 	streq	r0, [sl, #-0]
    1128:	3a080300 	bcc	201d30 <__bss_end__+0x1f72c8>
    112c:	390b3b0b 	stmdbcc	fp, {r0, r1, r3, r8, r9, fp, ip, sp}
    1130:	0213490b 	andseq	r4, r3, #180224	; 0x2c000
    1134:	1742b717 	smlaldne	fp, r2, r7, r7
    1138:	890b0000 	stmdbhi	fp, {}	; <UNPREDICTABLE>
    113c:	11010182 	smlabbne	r1, r2, r1, r0
    1140:	00133101 	andseq	r3, r3, r1, lsl #2
    1144:	828a0c00 	addhi	r0, sl, #0, 24
    1148:	18020001 	stmdane	r2, {r0}
    114c:	00184291 	mulseq	r8, r1, r2
    1150:	00340d00 	eorseq	r0, r4, r0, lsl #26
    1154:	0b3a0803 	bleq	e83168 <__bss_end__+0xe78700>
    1158:	0b390b3b 	bleq	e43e4c <__bss_end__+0xe393e4>
    115c:	17021349 	strne	r1, [r2, -r9, asr #6]
    1160:	001742b7 			; <UNDEFINED> instruction: 0x001742b7
    1164:	010b0e00 	tsteq	fp, r0, lsl #28
    1168:	06120111 			; <UNDEFINED> instruction: 0x06120111
    116c:	00001301 	andeq	r1, r0, r1, lsl #6
    1170:	0182890f 	orreq	r8, r2, pc, lsl #18
    1174:	31011100 	mrscc	r1, (UNDEF: 17)
    1178:	10000013 	andne	r0, r0, r3, lsl r0
    117c:	193f012e 	ldmdbne	pc!, {r1, r2, r3, r5, r8}	; <UNPREDICTABLE>
    1180:	0b3a0e03 	bleq	e84994 <__bss_end__+0xe79f2c>
    1184:	0b390b3b 	bleq	e43e78 <__bss_end__+0xe39410>
    1188:	13491927 	movtne	r1, #39207	; 0x9927
    118c:	06120111 			; <UNDEFINED> instruction: 0x06120111
    1190:	42971840 	addsmi	r1, r7, #64, 16	; 0x400000
    1194:	00130119 	andseq	r0, r3, r9, lsl r1
    1198:	002e1100 	eoreq	r1, lr, r0, lsl #2
    119c:	193c193f 	ldmdbne	ip!, {r0, r1, r2, r3, r4, r5, r8, fp, ip}
    11a0:	0e030e6e 	cdpeq	14, 0, cr0, cr3, cr14, {3}
    11a4:	0b3b0b3a 	bleq	ec3e94 <__bss_end__+0xeb942c>
    11a8:	00000b39 	andeq	r0, r0, r9, lsr fp
    11ac:	01110100 	tsteq	r1, r0, lsl #2
    11b0:	0b130e25 	bleq	4c4a4c <__bss_end__+0x4b9fe4>
    11b4:	0e1b0e03 	cdpeq	14, 1, cr0, cr11, cr3, {0}
    11b8:	06120111 			; <UNDEFINED> instruction: 0x06120111
    11bc:	00001710 	andeq	r1, r0, r0, lsl r7
    11c0:	0b002402 	bleq	a1d0 <__FUNCTION__.4105+0x26c>
    11c4:	030b3e0b 	movweq	r3, #48651	; 0xbe0b
    11c8:	03000008 	movweq	r0, #8
    11cc:	0b0b0024 	bleq	2c1264 <__bss_end__+0x2b67fc>
    11d0:	0e030b3e 	vmoveq.16	d3[0], r0
    11d4:	35040000 	strcc	r0, [r4, #-0]
    11d8:	00134900 	andseq	r4, r3, r0, lsl #18
    11dc:	00160500 	andseq	r0, r6, r0, lsl #10
    11e0:	0b3a0e03 	bleq	e849f4 <__bss_end__+0xe79f8c>
    11e4:	0b390b3b 	bleq	e43ed8 <__bss_end__+0xe39470>
    11e8:	00001349 	andeq	r1, r0, r9, asr #6
    11ec:	3e010406 	cdpcc	4, 0, cr0, cr1, cr6, {0}
    11f0:	490b0b0b 	stmdbmi	fp, {r0, r1, r3, r8, r9, fp}
    11f4:	3b0b3a13 	blcc	2cfa48 <__bss_end__+0x2c4fe0>
    11f8:	010b390b 	tsteq	fp, fp, lsl #18
    11fc:	07000013 	smladeq	r0, r3, r0, r0
    1200:	0e030028 	cdpeq	0, 0, cr0, cr3, cr8, {1}
    1204:	00000b1c 	andeq	r0, r0, ip, lsl fp
    1208:	03011308 	movweq	r1, #4872	; 0x1308
    120c:	3a0b0b0e 	bcc	2c3e4c <__bss_end__+0x2b93e4>
    1210:	390b3b0b 	stmdbcc	fp, {r0, r1, r3, r8, r9, fp, ip, sp}
    1214:	0013010b 	andseq	r0, r3, fp, lsl #2
    1218:	000d0900 	andeq	r0, sp, r0, lsl #18
    121c:	0b3a0803 	bleq	e83230 <__bss_end__+0xe787c8>
    1220:	0b390b3b 	bleq	e43f14 <__bss_end__+0xe394ac>
    1224:	0b381349 	bleq	e05f50 <__bss_end__+0xdfb4e8>
    1228:	0d0a0000 	stceq	0, cr0, [sl, #-0]
    122c:	3a0e0300 	bcc	381e34 <__bss_end__+0x3773cc>
    1230:	390b3b0b 	stmdbcc	fp, {r0, r1, r3, r8, r9, fp, ip, sp}
    1234:	3813490b 	ldmdacc	r3, {r0, r1, r3, r8, fp, lr}
    1238:	0b00000b 	bleq	126c <__code_start__-0x6d94>
    123c:	0e030034 	mcreq	0, 0, r0, cr3, cr4, {1}
    1240:	0b3b0b3a 	bleq	ec3f30 <__bss_end__+0xeb94c8>
    1244:	13490b39 	movtne	r0, #39737	; 0x9b39
    1248:	0000061c 	andeq	r0, r0, ip, lsl r6
    124c:	0b000f0c 	bleq	4e84 <__code_start__-0x317c>
    1250:	0013490b 	andseq	r4, r3, fp, lsl #18
    1254:	00260d00 	eoreq	r0, r6, r0, lsl #26
    1258:	00001349 	andeq	r1, r0, r9, asr #6
    125c:	3f012e0e 	svccc	0x00012e0e
    1260:	3a0e0319 	bcc	381ecc <__bss_end__+0x377464>
    1264:	390b3b0b 	stmdbcc	fp, {r0, r1, r3, r8, r9, fp, ip, sp}
    1268:	1119270b 	tstne	r9, fp, lsl #14
    126c:	40061201 	andmi	r1, r6, r1, lsl #4
    1270:	19429718 	stmdbne	r2, {r3, r4, r8, r9, sl, ip, pc}^
    1274:	00001301 	andeq	r1, r0, r1, lsl #6
    1278:	0182890f 	orreq	r8, r2, pc, lsl #18
    127c:	31011100 	mrscc	r1, (UNDEF: 17)
    1280:	10000013 	andne	r0, r0, r3, lsl r0
    1284:	193f012e 	ldmdbne	pc!, {r1, r2, r3, r5, r8}	; <UNPREDICTABLE>
    1288:	0b3a0e03 	bleq	e84a9c <__bss_end__+0xe7a034>
    128c:	0b390b3b 	bleq	e43f80 <__bss_end__+0xe39518>
    1290:	13491927 	movtne	r1, #39207	; 0x9927
    1294:	06120111 			; <UNDEFINED> instruction: 0x06120111
    1298:	42971840 	addsmi	r1, r7, #64, 16	; 0x400000
    129c:	00130119 	andseq	r0, r3, r9, lsl r1
    12a0:	82891100 	addhi	r1, r9, #0
    12a4:	01110101 	tsteq	r1, r1, lsl #2
    12a8:	00001331 	andeq	r1, r0, r1, lsr r3
    12ac:	01828a12 	orreq	r8, r2, r2, lsl sl
    12b0:	91180200 	tstls	r8, r0, lsl #4
    12b4:	00001842 	andeq	r1, r0, r2, asr #16
    12b8:	03000513 	movweq	r0, #1299	; 0x513
    12bc:	3b0b3a08 	blcc	2cfae4 <__bss_end__+0x2c507c>
    12c0:	490b390b 	stmdbmi	fp, {r0, r1, r3, r8, fp, ip, sp}
    12c4:	b7170213 			; <UNDEFINED> instruction: 0xb7170213
    12c8:	00001742 	andeq	r1, r0, r2, asr #14
    12cc:	01828914 	orreq	r8, r2, r4, lsl r9
    12d0:	31011101 	tstcc	r1, r1, lsl #2
    12d4:	00130113 	andseq	r0, r3, r3, lsl r1
    12d8:	00341500 	eorseq	r1, r4, r0, lsl #10
    12dc:	0b3a0803 	bleq	e832f0 <__bss_end__+0xe78888>
    12e0:	0b390b3b 	bleq	e43fd4 <__bss_end__+0xe3956c>
    12e4:	17021349 	strne	r1, [r2, -r9, asr #6]
    12e8:	001742b7 			; <UNDEFINED> instruction: 0x001742b7
    12ec:	00341600 	eorseq	r1, r4, r0, lsl #12
    12f0:	0b3a0e03 	bleq	e84b04 <__bss_end__+0xe7a09c>
    12f4:	0b390b3b 	bleq	e43fe8 <__bss_end__+0xe39580>
    12f8:	051c1349 	ldreq	r1, [ip, #-841]	; 0xfffffcb7
    12fc:	2e170000 	cdpcs	0, 1, cr0, cr7, cr0, {0}
    1300:	3a0e0301 	bcc	381f0c <__bss_end__+0x3774a4>
    1304:	390b3b0b 	stmdbcc	fp, {r0, r1, r3, r8, r9, fp, ip, sp}
    1308:	1119270b 	tstne	r9, fp, lsl #14
    130c:	40061201 	andmi	r1, r6, r1, lsl #4
    1310:	19429718 	stmdbne	r2, {r3, r4, r8, r9, sl, ip, pc}^
    1314:	00001301 	andeq	r1, r0, r1, lsl #6
    1318:	03000518 	movweq	r0, #1304	; 0x518
    131c:	3b0b3a0e 	blcc	2cfb5c <__bss_end__+0x2c50f4>
    1320:	490b390b 	stmdbmi	fp, {r0, r1, r3, r8, fp, ip, sp}
    1324:	b7170213 			; <UNDEFINED> instruction: 0xb7170213
    1328:	00001742 	andeq	r1, r0, r2, asr #14
    132c:	00003519 	andeq	r3, r0, r9, lsl r5
    1330:	002e1a00 	eoreq	r1, lr, r0, lsl #20
    1334:	193c193f 	ldmdbne	ip!, {r0, r1, r2, r3, r4, r5, r8, fp, ip}
    1338:	0e030e6e 	cdpeq	14, 0, cr0, cr3, cr14, {3}
    133c:	0b3b0b3a 	bleq	ec402c <__bss_end__+0xeb95c4>
    1340:	00000b39 	andeq	r0, r0, r9, lsr fp
    1344:	01110100 	tsteq	r1, r0, lsl #2
    1348:	0b130e25 	bleq	4c4be4 <__bss_end__+0x4ba17c>
    134c:	0e1b0e03 	cdpeq	14, 1, cr0, cr11, cr3, {0}
    1350:	06120111 			; <UNDEFINED> instruction: 0x06120111
    1354:	00001710 	andeq	r1, r0, r0, lsl r7
    1358:	0b002402 	bleq	a368 <__FUNCTION__.4121+0xc8>
    135c:	030b3e0b 	movweq	r3, #48651	; 0xbe0b
    1360:	03000008 	movweq	r0, #8
    1364:	0b0b0024 	bleq	2c13fc <__bss_end__+0x2b6994>
    1368:	0e030b3e 	vmoveq.16	d3[0], r0
    136c:	16040000 	strne	r0, [r4], -r0
    1370:	3a0e0300 	bcc	381f78 <__bss_end__+0x377510>
    1374:	390b3b0b 	stmdbcc	fp, {r0, r1, r3, r8, r9, fp, ip, sp}
    1378:	0013490b 	andseq	r4, r3, fp, lsl #18
    137c:	00260500 	eoreq	r0, r6, r0, lsl #10
    1380:	00001349 	andeq	r1, r0, r9, asr #6
    1384:	0b000f06 	bleq	4fa4 <__code_start__-0x305c>
    1388:	0700000b 	streq	r0, [r0, -fp]
    138c:	0b3e0104 	bleq	f817a4 <__bss_end__+0xf76d3c>
    1390:	13490b0b 	movtne	r0, #39691	; 0x9b0b
    1394:	0b3b0b3a 	bleq	ec4084 <__bss_end__+0xeb961c>
    1398:	13010b39 	movwne	r0, #6969	; 0x1b39
    139c:	28080000 	stmdacs	r8, {}	; <UNPREDICTABLE>
    13a0:	1c0e0300 	stcne	3, cr0, [lr], {-0}
    13a4:	09000006 	stmdbeq	r0, {r1, r2}
    13a8:	0e030034 	mcreq	0, 0, r0, cr3, cr4, {1}
    13ac:	0b3b0b3a 	bleq	ec409c <__bss_end__+0xeb9634>
    13b0:	13490b39 	movtne	r0, #39737	; 0x9b39
    13b4:	193c193f 	ldmdbne	ip!, {r0, r1, r2, r3, r4, r5, r8, fp, ip}
    13b8:	340a0000 	strcc	r0, [sl], #-0
    13bc:	3a0e0300 	bcc	381fc4 <__bss_end__+0x37755c>
    13c0:	390b3b0b 	stmdbcc	fp, {r0, r1, r3, r8, r9, fp, ip, sp}
    13c4:	0213490b 	andseq	r4, r3, #180224	; 0x2c000
    13c8:	0b000018 	bleq	1430 <__code_start__-0x6bd0>
    13cc:	0b0b000f 	bleq	2c1410 <__bss_end__+0x2b69a8>
    13d0:	00001349 	andeq	r1, r0, r9, asr #6
    13d4:	3f012e0c 	svccc	0x00012e0c
    13d8:	3a0e0319 	bcc	382044 <__bss_end__+0x3775dc>
    13dc:	390b3b0b 	stmdbcc	fp, {r0, r1, r3, r8, r9, fp, ip, sp}
    13e0:	1119270b 	tstne	r9, fp, lsl #14
    13e4:	40061201 	andmi	r1, r6, r1, lsl #4
    13e8:	19429718 	stmdbne	r2, {r3, r4, r8, r9, sl, ip, pc}^
    13ec:	00001301 	andeq	r1, r0, r1, lsl #6
    13f0:	0300050d 	movweq	r0, #1293	; 0x50d
    13f4:	3b0b3a08 	blcc	2cfc1c <__bss_end__+0x2c51b4>
    13f8:	490b390b 	stmdbmi	fp, {r0, r1, r3, r8, fp, ip, sp}
    13fc:	b7170213 			; <UNDEFINED> instruction: 0xb7170213
    1400:	00001742 	andeq	r1, r0, r2, asr #14
    1404:	0300340e 	movweq	r3, #1038	; 0x40e
    1408:	3413490e 	ldrcc	r4, [r3], #-2318	; 0xfffff6f2
    140c:	00180219 	andseq	r0, r8, r9, lsl r2
    1410:	82890f00 	addhi	r0, r9, #0, 30
    1414:	01110101 	tsteq	r1, r1, lsl #2
    1418:	13011331 	movwne	r1, #4913	; 0x1331
    141c:	8a100000 	bhi	401424 <__bss_end__+0x3f69bc>
    1420:	02000182 	andeq	r0, r0, #-2147483616	; 0x80000020
    1424:	18429118 	stmdane	r2, {r3, r4, r8, ip, pc}^
    1428:	89110000 	ldmdbhi	r1, {}	; <UNPREDICTABLE>
    142c:	11000182 	smlabbne	r0, r2, r1, r0
    1430:	00133101 	andseq	r3, r3, r1, lsl #2
    1434:	01011200 	mrseq	r1, R9_usr
    1438:	13011349 	movwne	r1, #4937	; 0x1349
    143c:	21130000 	tstcs	r3, r0
    1440:	2f134900 	svccs	0x00134900
    1444:	1400000b 	strne	r0, [r0], #-11
    1448:	193f002e 	ldmdbne	pc!, {r1, r2, r3, r5}	; <UNPREDICTABLE>
    144c:	0b3a0e03 	bleq	e84c60 <__bss_end__+0xe7a1f8>
    1450:	0b390b3b 	bleq	e44144 <__bss_end__+0xe396dc>
    1454:	01111927 	tsteq	r1, r7, lsr #18
    1458:	18400612 	stmdane	r0, {r1, r4, r9, sl}^
    145c:	00194297 	mulseq	r9, r7, r2
    1460:	00051500 	andeq	r1, r5, r0, lsl #10
    1464:	0b3a0803 	bleq	e83478 <__bss_end__+0xe78a10>
    1468:	0b390b3b 	bleq	e4415c <__bss_end__+0xe396f4>
    146c:	18021349 	stmdane	r2, {r0, r3, r6, r8, r9, ip}
    1470:	2e160000 	cdpcs	0, 1, cr0, cr6, cr0, {0}
    1474:	03193f01 	tsteq	r9, #1, 30
    1478:	3b0b3a0e 	blcc	2cfcb8 <__bss_end__+0x2c5250>
    147c:	270b390b 	strcs	r3, [fp, -fp, lsl #18]
    1480:	11134919 	tstne	r3, r9, lsl r9
    1484:	40061201 	andmi	r1, r6, r1, lsl #4
    1488:	19429718 	stmdbne	r2, {r3, r4, r8, r9, sl, ip, pc}^
    148c:	00001301 	andeq	r1, r0, r1, lsl #6
    1490:	03000517 	movweq	r0, #1303	; 0x517
    1494:	3b0b3a0e 	blcc	2cfcd4 <__bss_end__+0x2c526c>
    1498:	490b390b 	stmdbmi	fp, {r0, r1, r3, r8, fp, ip, sp}
    149c:	b7170213 			; <UNDEFINED> instruction: 0xb7170213
    14a0:	00001742 	andeq	r1, r0, r2, asr #14
    14a4:	03003418 	movweq	r3, #1048	; 0x418
    14a8:	3b0b3a08 	blcc	2cfcd0 <__bss_end__+0x2c5268>
    14ac:	490b390b 	stmdbmi	fp, {r0, r1, r3, r8, fp, ip, sp}
    14b0:	b7170213 			; <UNDEFINED> instruction: 0xb7170213
    14b4:	00001742 	andeq	r1, r0, r2, asr #14
    14b8:	31011d19 	tstcc	r1, r9, lsl sp
    14bc:	b8015213 	stmdalt	r1, {r0, r1, r4, r9, ip, lr}
    14c0:	01110b42 	tsteq	r1, r2, asr #22
    14c4:	0b580612 	bleq	1602d14 <__bss_end__+0x15f82ac>
    14c8:	0b570b59 	bleq	15c4234 <__bss_end__+0x15b97cc>
    14cc:	00001301 	andeq	r1, r0, r1, lsl #6
    14d0:	3100051a 	tstcc	r0, sl, lsl r5
    14d4:	b7170213 			; <UNDEFINED> instruction: 0xb7170213
    14d8:	00001742 	andeq	r1, r0, r2, asr #14
    14dc:	31011d1b 	tstcc	r1, fp, lsl sp
    14e0:	b8015213 	stmdalt	r1, {r0, r1, r4, r9, ip, lr}
    14e4:	17550b42 	ldrbne	r0, [r5, -r2, asr #22]
    14e8:	0b590b58 	bleq	1644250 <__bss_end__+0x16397e8>
    14ec:	13010b57 	movwne	r0, #6999	; 0x1b57
    14f0:	0b1c0000 	bleq	7014f8 <__bss_end__+0x6f6a90>
    14f4:	00175501 	andseq	r5, r7, r1, lsl #10
    14f8:	00341d00 	eorseq	r1, r4, r0, lsl #26
    14fc:	0b3a0e03 	bleq	e84d10 <__bss_end__+0xe7a2a8>
    1500:	0b390b3b 	bleq	e441f4 <__bss_end__+0xe3978c>
    1504:	17021349 	strne	r1, [r2, -r9, asr #6]
    1508:	001742b7 			; <UNDEFINED> instruction: 0x001742b7
    150c:	000b1e00 	andeq	r1, fp, r0, lsl #28
    1510:	00001755 	andeq	r1, r0, r5, asr r7
    1514:	3f002e1f 	svccc	0x00002e1f
    1518:	3a0e0319 	bcc	382184 <__bss_end__+0x37771c>
    151c:	390b3b0b 	stmdbcc	fp, {r0, r1, r3, r8, r9, fp, ip, sp}
    1520:	4919270b 	ldmdbmi	r9, {r0, r1, r3, r8, r9, sl, sp}
    1524:	12011113 	andne	r1, r1, #-1073741820	; 0xc0000004
    1528:	97184006 	ldrls	r4, [r8, -r6]
    152c:	00001942 	andeq	r1, r0, r2, asr #18
    1530:	03012e20 	movweq	r2, #7712	; 0x1e20
    1534:	3b0b3a0e 	blcc	2cfd74 <__bss_end__+0x2c530c>
    1538:	270b390b 	strcs	r3, [fp, -fp, lsl #18]
    153c:	20134919 	andscs	r4, r3, r9, lsl r9
    1540:	0013010b 	andseq	r0, r3, fp, lsl #2
    1544:	00052100 	andeq	r2, r5, r0, lsl #2
    1548:	0b3a0803 	bleq	e8355c <__bss_end__+0xe78af4>
    154c:	0b390b3b 	bleq	e44240 <__bss_end__+0xe397d8>
    1550:	00001349 	andeq	r1, r0, r9, asr #6
    1554:	3f002e22 	svccc	0x00002e22
    1558:	6e193c19 	mrcvs	12, 0, r3, cr9, cr9, {0}
    155c:	3a0e030e 	bcc	38219c <__bss_end__+0x377734>
    1560:	390b3b0b 	stmdbcc	fp, {r0, r1, r3, r8, r9, fp, ip, sp}
    1564:	0000000b 	andeq	r0, r0, fp
    1568:	25011101 	strcs	r1, [r1, #-257]	; 0xfffffeff
    156c:	030b130e 	movweq	r1, #45838	; 0xb30e
    1570:	110e1b0e 	tstne	lr, lr, lsl #22
    1574:	10061201 	andne	r1, r6, r1, lsl #4
    1578:	02000017 	andeq	r0, r0, #23, 0
    157c:	0b0b0024 	bleq	2c1614 <__bss_end__+0x2b6bac>
    1580:	08030b3e 	stmdaeq	r3, {r1, r2, r3, r4, r5, r8, r9, fp}
    1584:	24030000 	strcs	r0, [r3], #-0
    1588:	3e0b0b00 	vmlacc.f64	d0, d11, d0
    158c:	000e030b 	andeq	r0, lr, fp, lsl #6
    1590:	01150400 	tsteq	r5, r0, lsl #8
    1594:	13491927 	movtne	r1, #39207	; 0x9927
    1598:	00001301 	andeq	r1, r0, r1, lsl #6
    159c:	49000505 	stmdbmi	r0, {r0, r2, r8, sl}
    15a0:	06000013 			; <UNDEFINED> instruction: 0x06000013
    15a4:	0e030034 	mcreq	0, 0, r0, cr3, cr4, {1}
    15a8:	0b3b0b3a 	bleq	ec4298 <__bss_end__+0xeb9830>
    15ac:	13490b39 	movtne	r0, #39737	; 0x9b39
    15b0:	193c193f 	ldmdbne	ip!, {r0, r1, r2, r3, r4, r5, r8, fp, ip}
    15b4:	0f070000 	svceq	0x00070000
    15b8:	490b0b00 	stmdbmi	fp, {r8, r9, fp}
    15bc:	08000013 	stmdaeq	r0, {r0, r1, r4}
    15c0:	13490026 	movtne	r0, #36902	; 0x9026
    15c4:	34090000 	strcc	r0, [r9], #-0
    15c8:	3a134700 	bcc	4d31d0 <__bss_end__+0x4c8768>
    15cc:	390b3b0b 	stmdbcc	fp, {r0, r1, r3, r8, r9, fp, ip, sp}
    15d0:	0018020b 	andseq	r0, r8, fp, lsl #4
    15d4:	012e0a00 			; <UNDEFINED> instruction: 0x012e0a00
    15d8:	0e03193f 			; <UNDEFINED> instruction: 0x0e03193f
    15dc:	0b3b0b3a 	bleq	ec42cc <__bss_end__+0xeb9864>
    15e0:	19270b39 	stmdbne	r7!, {r0, r3, r4, r5, r8, r9, fp}
    15e4:	06120111 			; <UNDEFINED> instruction: 0x06120111
    15e8:	42971840 	addsmi	r1, r7, #64, 16	; 0x400000
    15ec:	00130119 	andseq	r0, r3, r9, lsl r1
    15f0:	00050b00 	andeq	r0, r5, r0, lsl #22
    15f4:	0b3a0803 	bleq	e83608 <__bss_end__+0xe78ba0>
    15f8:	0b390b3b 	bleq	e442ec <__bss_end__+0xe39884>
    15fc:	18021349 	stmdane	r2, {r0, r3, r6, r8, r9, ip}
    1600:	2e0c0000 	cdpcs	0, 0, cr0, cr12, cr0, {0}
    1604:	03193f00 	tsteq	r9, #0, 30
    1608:	3b0b3a0e 	blcc	2cfe48 <__bss_end__+0x2c53e0>
    160c:	270b390b 	strcs	r3, [fp, -fp, lsl #18]
    1610:	12011119 	andne	r1, r1, #1073741830	; 0x40000006
    1614:	97184006 	ldrls	r4, [r8, -r6]
    1618:	00001942 	andeq	r1, r0, r2, asr #18
    161c:	03012e0d 	movweq	r2, #7693	; 0x1e0d
    1620:	3b0b3a0e 	blcc	2cfe60 <__bss_end__+0x2c53f8>
    1624:	270b390b 	strcs	r3, [fp, -fp, lsl #18]
    1628:	11134919 	tstne	r3, r9, lsl r9
    162c:	40061201 	andmi	r1, r6, r1, lsl #4
    1630:	19429718 	stmdbne	r2, {r3, r4, r8, r9, sl, ip, pc}^
    1634:	00001301 	andeq	r1, r0, r1, lsl #6
    1638:	0300050e 	movweq	r0, #1294	; 0x50e
    163c:	3b0b3a08 	blcc	2cfe64 <__bss_end__+0x2c53fc>
    1640:	490b390b 	stmdbmi	fp, {r0, r1, r3, r8, fp, ip, sp}
    1644:	b7170213 			; <UNDEFINED> instruction: 0xb7170213
    1648:	00001742 	andeq	r1, r0, r2, asr #14
    164c:	0182890f 	orreq	r8, r2, pc, lsl #18
    1650:	31011101 	tstcc	r1, r1, lsl #2
    1654:	10000013 	andne	r0, r0, r3, lsl r0
    1658:	0001828a 	andeq	r8, r1, sl, lsl #5
    165c:	42911802 	addsmi	r1, r1, #131072	; 0x20000
    1660:	11000018 	tstne	r0, r8, lsl r0
    1664:	193f002e 	ldmdbne	pc!, {r1, r2, r3, r5}	; <UNPREDICTABLE>
    1668:	0e6e193c 			; <UNDEFINED> instruction: 0x0e6e193c
    166c:	0b3a0e03 	bleq	e84e80 <__bss_end__+0xe7a418>
    1670:	0b390b3b 	bleq	e44364 <__bss_end__+0xe398fc>
    1674:	01000000 	mrseq	r0, (UNDEF: 0)
    1678:	0e250111 	mcreq	1, 1, r0, cr5, cr1, {0}
    167c:	0e030b13 	vmoveq.32	d3[0], r0
    1680:	01110e1b 	tsteq	r1, fp, lsl lr
    1684:	17100612 			; <UNDEFINED> instruction: 0x17100612
    1688:	24020000 	strcs	r0, [r2], #-0
    168c:	3e0b0b00 	vmlacc.f64	d0, d11, d0
    1690:	0008030b 	andeq	r0, r8, fp, lsl #6
    1694:	00240300 	eoreq	r0, r4, r0, lsl #6
    1698:	0b3e0b0b 	bleq	f842cc <__bss_end__+0xf79864>
    169c:	00000e03 	andeq	r0, r0, r3, lsl #28
    16a0:	27011504 	strcs	r1, [r1, -r4, lsl #10]
    16a4:	01134919 	tsteq	r3, r9, lsl r9
    16a8:	05000013 	streq	r0, [r0, #-19]	; 0xffffffed
    16ac:	13490005 	movtne	r0, #36869	; 0x9005
    16b0:	34060000 	strcc	r0, [r6], #-0
    16b4:	3a0e0300 	bcc	3822bc <__bss_end__+0x377854>
    16b8:	390b3b0b 	stmdbcc	fp, {r0, r1, r3, r8, r9, fp, ip, sp}
    16bc:	3f13490b 	svccc	0x0013490b
    16c0:	00193c19 	andseq	r3, r9, r9, lsl ip
    16c4:	000f0700 	andeq	r0, pc, r0, lsl #14
    16c8:	13490b0b 	movtne	r0, #39691	; 0x9b0b
    16cc:	26080000 	strcs	r0, [r8], -r0
    16d0:	00134900 	andseq	r4, r3, r0, lsl #18
    16d4:	012e0900 			; <UNDEFINED> instruction: 0x012e0900
    16d8:	0e03193f 			; <UNDEFINED> instruction: 0x0e03193f
    16dc:	0b3b0b3a 	bleq	ec43cc <__bss_end__+0xeb9964>
    16e0:	19270b39 	stmdbne	r7!, {r0, r3, r4, r5, r8, r9, fp}
    16e4:	01111349 	tsteq	r1, r9, asr #6
    16e8:	18400612 	stmdane	r0, {r1, r4, r9, sl}^
    16ec:	01194297 			; <UNDEFINED> instruction: 0x01194297
    16f0:	0a000013 	beq	1744 <__code_start__-0x68bc>
    16f4:	0e030005 	cdpeq	0, 0, cr0, cr3, cr5, {0}
    16f8:	0b3b0b3a 	bleq	ec43e8 <__bss_end__+0xeb9980>
    16fc:	13490b39 	movtne	r0, #39737	; 0x9b39
    1700:	00001802 	andeq	r1, r0, r2, lsl #16
    1704:	0300050b 	movweq	r0, #1291	; 0x50b
    1708:	3b0b3a08 	blcc	2cff30 <__bss_end__+0x2c54c8>
    170c:	490b390b 	stmdbmi	fp, {r0, r1, r3, r8, fp, ip, sp}
    1710:	b7170213 			; <UNDEFINED> instruction: 0xb7170213
    1714:	00001742 	andeq	r1, r0, r2, asr #14
    1718:	0300340c 	movweq	r3, #1036	; 0x40c
    171c:	3b0b3a08 	blcc	2cff44 <__bss_end__+0x2c54dc>
    1720:	490b390b 	stmdbmi	fp, {r0, r1, r3, r8, fp, ip, sp}
    1724:	b7170213 			; <UNDEFINED> instruction: 0xb7170213
    1728:	00001742 	andeq	r1, r0, r2, asr #14
    172c:	01110100 	tsteq	r1, r0, lsl #2
    1730:	0b130e25 	bleq	4c4fcc <__bss_end__+0x4ba564>
    1734:	0e1b0e03 	cdpeq	14, 1, cr0, cr11, cr3, {0}
    1738:	06120111 			; <UNDEFINED> instruction: 0x06120111
    173c:	00001710 	andeq	r1, r0, r0, lsl r7
    1740:	0b002402 	bleq	a750 <buf.3948+0xf0>
    1744:	030b3e0b 	movweq	r3, #48651	; 0xbe0b
    1748:	03000008 	movweq	r0, #8
    174c:	0b0b0024 	bleq	2c17e4 <__bss_end__+0x2b6d7c>
    1750:	0e030b3e 	vmoveq.16	d3[0], r0
    1754:	15040000 	strne	r0, [r4, #-0]
    1758:	49192701 	ldmdbmi	r9, {r0, r8, r9, sl, sp}
    175c:	00130113 	andseq	r0, r3, r3, lsl r1
    1760:	00050500 	andeq	r0, r5, r0, lsl #10
    1764:	00001349 	andeq	r1, r0, r9, asr #6
    1768:	03003406 	movweq	r3, #1030	; 0x406
    176c:	3b0b3a0e 	blcc	2cffac <__bss_end__+0x2c5544>
    1770:	490b390b 	stmdbmi	fp, {r0, r1, r3, r8, fp, ip, sp}
    1774:	3c193f13 	ldccc	15, cr3, [r9], {19}
    1778:	07000019 	smladeq	r0, r9, r0, r0
    177c:	0b0b000f 	bleq	2c17c0 <__bss_end__+0x2b6d58>
    1780:	00001349 	andeq	r1, r0, r9, asr #6
    1784:	49002608 	stmdbmi	r0, {r3, r9, sl, sp}
    1788:	09000013 	stmdbeq	r0, {r0, r1, r4}
    178c:	193f012e 	ldmdbne	pc!, {r1, r2, r3, r5, r8}	; <UNPREDICTABLE>
    1790:	0b3a0e03 	bleq	e84fa4 <__bss_end__+0xe7a53c>
    1794:	0b390b3b 	bleq	e44488 <__bss_end__+0xe39a20>
    1798:	13491927 	movtne	r1, #39207	; 0x9927
    179c:	06120111 			; <UNDEFINED> instruction: 0x06120111
    17a0:	42971840 	addsmi	r1, r7, #64, 16	; 0x400000
    17a4:	0a000019 	beq	1810 <__code_start__-0x67f0>
    17a8:	08030005 	stmdaeq	r3, {r0, r2}
    17ac:	0b3b0b3a 	bleq	ec449c <__bss_end__+0xeb9a34>
    17b0:	13490b39 	movtne	r0, #39737	; 0x9b39
    17b4:	42b71702 	adcsmi	r1, r7, #524288	; 0x80000
    17b8:	00000017 	andeq	r0, r0, r7, lsl r0
    17bc:	25011101 	strcs	r1, [r1, #-257]	; 0xfffffeff
    17c0:	030b130e 	movweq	r1, #45838	; 0xb30e
    17c4:	110e1b0e 	tstne	lr, lr, lsl #22
    17c8:	10061201 	andne	r1, r6, r1, lsl #4
    17cc:	02000017 	andeq	r0, r0, #23, 0
    17d0:	0b0b0024 	bleq	2c1868 <__bss_end__+0x2b6e00>
    17d4:	08030b3e 	stmdaeq	r3, {r1, r2, r3, r4, r5, r8, r9, fp}
    17d8:	24030000 	strcs	r0, [r3], #-0
    17dc:	3e0b0b00 	vmlacc.f64	d0, d11, d0
    17e0:	000e030b 	andeq	r0, lr, fp, lsl #6
    17e4:	01150400 	tsteq	r5, r0, lsl #8
    17e8:	13491927 	movtne	r1, #39207	; 0x9927
    17ec:	00001301 	andeq	r1, r0, r1, lsl #6
    17f0:	49000505 	stmdbmi	r0, {r0, r2, r8, sl}
    17f4:	06000013 			; <UNDEFINED> instruction: 0x06000013
    17f8:	0e030034 	mcreq	0, 0, r0, cr3, cr4, {1}
    17fc:	0b3b0b3a 	bleq	ec44ec <__bss_end__+0xeb9a84>
    1800:	13490b39 	movtne	r0, #39737	; 0x9b39
    1804:	193c193f 	ldmdbne	ip!, {r0, r1, r2, r3, r4, r5, r8, fp, ip}
    1808:	0f070000 	svceq	0x00070000
    180c:	490b0b00 	stmdbmi	fp, {r8, r9, fp}
    1810:	08000013 	stmdaeq	r0, {r0, r1, r4}
    1814:	13490026 	movtne	r0, #36902	; 0x9026
    1818:	2e090000 	cdpcs	0, 0, cr0, cr9, cr0, {0}
    181c:	03193f01 	tsteq	r9, #1, 30
    1820:	3b0b3a0e 	blcc	2d0060 <__bss_end__+0x2c55f8>
    1824:	270b390b 	strcs	r3, [fp, -fp, lsl #18]
    1828:	11134919 	tstne	r3, r9, lsl r9
    182c:	40061201 	andmi	r1, r6, r1, lsl #4
    1830:	19429718 	stmdbne	r2, {r3, r4, r8, r9, sl, ip, pc}^
    1834:	00001301 	andeq	r1, r0, r1, lsl #6
    1838:	0300050a 	movweq	r0, #1290	; 0x50a
    183c:	3b0b3a08 	blcc	2d0064 <__bss_end__+0x2c55fc>
    1840:	490b390b 	stmdbmi	fp, {r0, r1, r3, r8, fp, ip, sp}
    1844:	00180213 	andseq	r0, r8, r3, lsl r2
    1848:	00050b00 	andeq	r0, r5, r0, lsl #22
    184c:	0b3a0803 	bleq	e83860 <__bss_end__+0xe78df8>
    1850:	0b390b3b 	bleq	e44544 <__bss_end__+0xe39adc>
    1854:	17021349 	strne	r1, [r2, -r9, asr #6]
    1858:	001742b7 			; <UNDEFINED> instruction: 0x001742b7
    185c:	00340c00 	eorseq	r0, r4, r0, lsl #24
    1860:	0b3a0803 	bleq	e83874 <__bss_end__+0xe78e0c>
    1864:	0b390b3b 	bleq	e44558 <__bss_end__+0xe39af0>
    1868:	17021349 	strne	r1, [r2, -r9, asr #6]
    186c:	001742b7 			; <UNDEFINED> instruction: 0x001742b7
    1870:	11010000 	mrsne	r0, (UNDEF: 1)
    1874:	130e2501 	movwne	r2, #58625	; 0xe501
    1878:	1b0e030b 	blne	3824ac <__bss_end__+0x377a44>
    187c:	1117550e 	tstne	r7, lr, lsl #10
    1880:	00171001 	andseq	r1, r7, r1
    1884:	00240200 	eoreq	r0, r4, r0, lsl #4
    1888:	0b3e0b0b 	bleq	f844bc <__bss_end__+0xf79a54>
    188c:	00000803 	andeq	r0, r0, r3, lsl #16
    1890:	03001603 	movweq	r1, #1539	; 0x603
    1894:	3b0b3a0e 	blcc	2d00d4 <__bss_end__+0x2c566c>
    1898:	490b390b 	stmdbmi	fp, {r0, r1, r3, r8, fp, ip, sp}
    189c:	04000013 	streq	r0, [r0], #-19	; 0xffffffed
    18a0:	0b0b0024 	bleq	2c1938 <__bss_end__+0x2b6ed0>
    18a4:	0e030b3e 	vmoveq.16	d3[0], r0
    18a8:	26050000 	strcs	r0, [r5], -r0
    18ac:	00134900 	andseq	r4, r3, r0, lsl #18
    18b0:	01150600 	tsteq	r5, r0, lsl #12
    18b4:	13491927 	movtne	r1, #39207	; 0x9927
    18b8:	00001301 	andeq	r1, r0, r1, lsl #6
    18bc:	49000507 	stmdbmi	r0, {r0, r1, r2, r8, sl}
    18c0:	08000013 	stmdaeq	r0, {r0, r1, r4}
    18c4:	0e030034 	mcreq	0, 0, r0, cr3, cr4, {1}
    18c8:	0b3b0b3a 	bleq	ec45b8 <__bss_end__+0xeb9b50>
    18cc:	13490b39 	movtne	r0, #39737	; 0x9b39
    18d0:	193c193f 	ldmdbne	ip!, {r0, r1, r2, r3, r4, r5, r8, fp, ip}
    18d4:	0f090000 	svceq	0x00090000
    18d8:	490b0b00 	stmdbmi	fp, {r8, r9, fp}
    18dc:	0a000013 	beq	1930 <__code_start__-0x66d0>
    18e0:	193f012e 	ldmdbne	pc!, {r1, r2, r3, r5, r8}	; <UNPREDICTABLE>
    18e4:	0b3a0e03 	bleq	e850f8 <__bss_end__+0xe7a690>
    18e8:	0b390b3b 	bleq	e445dc <__bss_end__+0xe39b74>
    18ec:	13491927 	movtne	r1, #39207	; 0x9927
    18f0:	06120111 			; <UNDEFINED> instruction: 0x06120111
    18f4:	42971840 	addsmi	r1, r7, #64, 16	; 0x400000
    18f8:	00130119 	andseq	r0, r3, r9, lsl r1
    18fc:	00050b00 	andeq	r0, r5, r0, lsl #22
    1900:	0b3a0803 	bleq	e83914 <__bss_end__+0xe78eac>
    1904:	0b390b3b 	bleq	e445f8 <__bss_end__+0xe39b90>
    1908:	17021349 	strne	r1, [r2, -r9, asr #6]
    190c:	001742b7 			; <UNDEFINED> instruction: 0x001742b7
    1910:	00340c00 	eorseq	r0, r4, r0, lsl #24
    1914:	0b3a0803 	bleq	e83928 <__bss_end__+0xe78ec0>
    1918:	0b390b3b 	bleq	e4460c <__bss_end__+0xe39ba4>
    191c:	17021349 	strne	r1, [r2, -r9, asr #6]
    1920:	001742b7 			; <UNDEFINED> instruction: 0x001742b7
    1924:	11010000 	mrsne	r0, (UNDEF: 1)
    1928:	130e2501 	movwne	r2, #58625	; 0xe501
    192c:	1b0e030b 	blne	382560 <__bss_end__+0x377af8>
    1930:	1201110e 	andne	r1, r1, #-2147483645	; 0x80000003
    1934:	00171006 	andseq	r1, r7, r6
    1938:	00240200 	eoreq	r0, r4, r0, lsl #4
    193c:	0b3e0b0b 	bleq	f84570 <__bss_end__+0xf79b08>
    1940:	00000803 	andeq	r0, r0, r3, lsl #16
    1944:	0b002403 	bleq	a958 <buf.3948+0x2f8>
    1948:	030b3e0b 	movweq	r3, #48651	; 0xbe0b
    194c:	0400000e 	streq	r0, [r0], #-14
    1950:	19270115 	stmdbne	r7!, {r0, r2, r4, r8}
    1954:	13011349 	movwne	r1, #4937	; 0x1349
    1958:	05050000 	streq	r0, [r5, #-0]
    195c:	00134900 	andseq	r4, r3, r0, lsl #18
    1960:	00340600 	eorseq	r0, r4, r0, lsl #12
    1964:	0b3a0e03 	bleq	e85178 <__bss_end__+0xe7a710>
    1968:	0b390b3b 	bleq	e4465c <__bss_end__+0xe39bf4>
    196c:	193f1349 	ldmdbne	pc!, {r0, r3, r6, r8, r9, ip}	; <UNPREDICTABLE>
    1970:	0000193c 	andeq	r1, r0, ip, lsr r9
    1974:	0b000f07 	bleq	5598 <__code_start__-0x2a68>
    1978:	0013490b 	andseq	r4, r3, fp, lsl #18
    197c:	00260800 	eoreq	r0, r6, r0, lsl #16
    1980:	00001349 	andeq	r1, r0, r9, asr #6
    1984:	3f002e09 	svccc	0x00002e09
    1988:	3a0e0319 	bcc	3825f4 <__bss_end__+0x377b8c>
    198c:	390b3b0b 	stmdbcc	fp, {r0, r1, r3, r8, r9, fp, ip, sp}
    1990:	1119270b 	tstne	r9, fp, lsl #14
    1994:	40061201 	andmi	r1, r6, r1, lsl #4
    1998:	19429718 	stmdbne	r2, {r3, r4, r8, r9, sl, ip, pc}^
    199c:	01000000 	mrseq	r0, (UNDEF: 0)
    19a0:	0e250111 	mcreq	1, 1, r0, cr5, cr1, {0}
    19a4:	0e030b13 	vmoveq.32	d3[0], r0
    19a8:	01110e1b 	tsteq	r1, fp, lsl lr
    19ac:	17100612 			; <UNDEFINED> instruction: 0x17100612
    19b0:	24020000 	strcs	r0, [r2], #-0
    19b4:	3e0b0b00 	vmlacc.f64	d0, d11, d0
    19b8:	0008030b 	andeq	r0, r8, fp, lsl #6
    19bc:	00240300 	eoreq	r0, r4, r0, lsl #6
    19c0:	0b3e0b0b 	bleq	f845f4 <__bss_end__+0xf79b8c>
    19c4:	00000e03 	andeq	r0, r0, r3, lsl #28
    19c8:	49002604 	stmdbmi	r0, {r2, r9, sl, sp}
    19cc:	05000013 	streq	r0, [r0, #-19]	; 0xffffffed
    19d0:	0e030016 	mcreq	0, 0, r0, cr3, cr6, {0}
    19d4:	0b3b0b3a 	bleq	ec46c4 <__bss_end__+0xeb9c5c>
    19d8:	13490b39 	movtne	r0, #39737	; 0x9b39
    19dc:	04060000 	streq	r0, [r6], #-0
    19e0:	0b0b3e01 	bleq	2d11ec <__bss_end__+0x2c6784>
    19e4:	3a13490b 	bcc	4d3e18 <__bss_end__+0x4c93b0>
    19e8:	390b3b0b 	stmdbcc	fp, {r0, r1, r3, r8, r9, fp, ip, sp}
    19ec:	0013010b 	andseq	r0, r3, fp, lsl #2
    19f0:	00280700 	eoreq	r0, r8, r0, lsl #14
    19f4:	0b1c0e03 	bleq	705208 <__bss_end__+0x6fa7a0>
    19f8:	34080000 	strcc	r0, [r8], #-0
    19fc:	3a0e0300 	bcc	382604 <__bss_end__+0x377b9c>
    1a00:	390b3b0b 	stmdbcc	fp, {r0, r1, r3, r8, r9, fp, ip, sp}
    1a04:	1c13490b 			; <UNDEFINED> instruction: 0x1c13490b
    1a08:	09000006 	stmdbeq	r0, {r1, r2}
    1a0c:	193f012e 	ldmdbne	pc!, {r1, r2, r3, r5, r8}	; <UNPREDICTABLE>
    1a10:	0b3a0e03 	bleq	e85224 <__bss_end__+0xe7a7bc>
    1a14:	0b390b3b 	bleq	e44708 <__bss_end__+0xe39ca0>
    1a18:	13491927 	movtne	r1, #39207	; 0x9927
    1a1c:	06120111 			; <UNDEFINED> instruction: 0x06120111
    1a20:	42971840 	addsmi	r1, r7, #64, 16	; 0x400000
    1a24:	00130119 	andseq	r0, r3, r9, lsl r1
    1a28:	00050a00 	andeq	r0, r5, r0, lsl #20
    1a2c:	0b3a0803 	bleq	e83a40 <__bss_end__+0xe78fd8>
    1a30:	0b390b3b 	bleq	e44724 <__bss_end__+0xe39cbc>
    1a34:	17021349 	strne	r1, [r2, -r9, asr #6]
    1a38:	001742b7 			; <UNDEFINED> instruction: 0x001742b7
    1a3c:	00340b00 	eorseq	r0, r4, r0, lsl #22
    1a40:	0b3a0e03 	bleq	e85254 <__bss_end__+0xe7a7ec>
    1a44:	0b390b3b 	bleq	e44738 <__bss_end__+0xe39cd0>
    1a48:	17021349 	strne	r1, [r2, -r9, asr #6]
    1a4c:	001742b7 			; <UNDEFINED> instruction: 0x001742b7
    1a50:	00340c00 	eorseq	r0, r4, r0, lsl #24
    1a54:	0b3a0803 	bleq	e83a68 <__bss_end__+0xe79000>
    1a58:	0b390b3b 	bleq	e4474c <__bss_end__+0xe39ce4>
    1a5c:	17021349 	strne	r1, [r2, -r9, asr #6]
    1a60:	001742b7 			; <UNDEFINED> instruction: 0x001742b7
    1a64:	82890d00 	addhi	r0, r9, #0, 26
    1a68:	01110101 	tsteq	r1, r1, lsl #2
    1a6c:	00001331 	andeq	r1, r0, r1, lsr r3
    1a70:	01828a0e 	orreq	r8, r2, lr, lsl #20
    1a74:	91180200 	tstls	r8, r0, lsl #4
    1a78:	00001842 	andeq	r1, r0, r2, asr #16
    1a7c:	3f012e0f 	svccc	0x00012e0f
    1a80:	3a0e0319 	bcc	3826ec <__bss_end__+0x377c84>
    1a84:	390b3b0b 	stmdbcc	fp, {r0, r1, r3, r8, r9, fp, ip, sp}
    1a88:	1119270b 	tstne	r9, fp, lsl #14
    1a8c:	40061201 	andmi	r1, r6, r1, lsl #4
    1a90:	19429718 	stmdbne	r2, {r3, r4, r8, r9, sl, ip, pc}^
    1a94:	00001301 	andeq	r1, r0, r1, lsl #6
    1a98:	01828910 	orreq	r8, r2, r0, lsl r9
    1a9c:	31011101 	tstcc	r1, r1, lsl #2
    1aa0:	00130113 	andseq	r0, r3, r3, lsl r1
    1aa4:	82891100 	addhi	r1, r9, #0
    1aa8:	01110001 	tsteq	r1, r1
    1aac:	00001331 	andeq	r1, r0, r1, lsr r3
    1ab0:	03000512 	movweq	r0, #1298	; 0x512
    1ab4:	3b0b3a0e 	blcc	2d02f4 <__bss_end__+0x2c588c>
    1ab8:	490b390b 	stmdbmi	fp, {r0, r1, r3, r8, fp, ip, sp}
    1abc:	b7170213 			; <UNDEFINED> instruction: 0xb7170213
    1ac0:	00001742 	andeq	r1, r0, r2, asr #14
    1ac4:	03012e13 	movweq	r2, #7699	; 0x1e13
    1ac8:	3b0b3a0e 	blcc	2d0308 <__bss_end__+0x2c58a0>
    1acc:	270b390b 	strcs	r3, [fp, -fp, lsl #18]
    1ad0:	20134919 	andscs	r4, r3, r9, lsl r9
    1ad4:	0013010b 	andseq	r0, r3, fp, lsl #2
    1ad8:	00051400 	andeq	r1, r5, r0, lsl #8
    1adc:	0b3a0803 	bleq	e83af0 <__bss_end__+0xe79088>
    1ae0:	0b390b3b 	bleq	e447d4 <__bss_end__+0xe39d6c>
    1ae4:	00001349 	andeq	r1, r0, r9, asr #6
    1ae8:	3f002e15 	svccc	0x00002e15
    1aec:	6e193c19 	mrcvs	12, 0, r3, cr9, cr9, {0}
    1af0:	3a0e030e 	bcc	382730 <__bss_end__+0x377cc8>
    1af4:	390b3b0b 	stmdbcc	fp, {r0, r1, r3, r8, r9, fp, ip, sp}
    1af8:	0000000b 	andeq	r0, r0, fp

Disassembly of section .debug_loc:

00000000 <.debug_loc>:
       0:	00000000 	andeq	r0, r0, r0
       4:	003c0000 	eorseq	r0, ip, r0
       8:	00440000 	subeq	r0, r4, r0
       c:	00010000 	andeq	r0, r1, r0
      10:	00004450 	andeq	r4, r0, r0, asr r4
      14:	00004700 	andeq	r4, r0, r0, lsl #14
      18:	51000100 	mrspl	r0, (UNDEF: 16)
      1c:	00000047 	andeq	r0, r0, r7, asr #32
      20:	000000d4 	ldrdeq	r0, [r0], -r4
      24:	00540001 	subseq	r0, r4, r1
      28:	00000000 	andeq	r0, r0, r0
      2c:	01000000 	mrseq	r0, (UNDEF: 0)
      30:	00001000 	andeq	r1, r0, r0
      34:	00002800 	andeq	r2, r0, r0, lsl #16
      38:	40000200 	andmi	r0, r0, r0, lsl #4
      3c:	0000009f 	muleq	r0, pc, r0	; <UNPREDICTABLE>
      40:	00000000 	andeq	r0, r0, r0
      44:	10000100 	andne	r0, r0, r0, lsl #2
      48:	28000000 	stmdacs	r0, {}	; <UNPREDICTABLE>
      4c:	06000000 	streq	r0, [r0], -r0
      50:	03fcf200 	mvnseq	pc, #0, 4
	...
      5c:	01000000 	mrseq	r0, (UNDEF: 0)
      60:	00001000 	andeq	r1, r0, r0
      64:	00002800 	andeq	r2, r0, r0, lsl #16
      68:	03000600 	movweq	r0, #1536	; 0x600
      6c:	00009dd0 	ldrdeq	r9, [r0], -r0
      70:	0000009f 	muleq	r0, pc, r0	; <UNPREDICTABLE>
      74:	00000000 	andeq	r0, r0, r0
      78:	58000100 	stmdapl	r0, {r8}
      7c:	68000000 	stmdavs	r0, {}	; <UNPREDICTABLE>
      80:	02000000 	andeq	r0, r0, #0, 0
      84:	009f4300 	addseq	r4, pc, r0, lsl #6
      88:	00000000 	andeq	r0, r0, r0
      8c:	01000000 	mrseq	r0, (UNDEF: 0)
      90:	00005800 	andeq	r5, r0, r0, lsl #16
      94:	00006800 	andeq	r6, r0, r0, lsl #16
      98:	f2000600 	vmax.s8	d0, d0, d0
      9c:	000003fc 	strdeq	r0, [r0], -ip
	...
      a8:	58000100 	stmdapl	r0, {r8}
      ac:	68000000 	stmdavs	r0, {}	; <UNPREDICTABLE>
      b0:	06000000 	streq	r0, [r0], -r0
      b4:	9dd00300 	ldclls	3, cr0, [r0]
      b8:	009f0000 	addseq	r0, pc, r0
	...
      c8:	00033c00 	andeq	r3, r3, r0, lsl #24
      cc:	00035400 	andeq	r5, r3, r0, lsl #8
      d0:	50000100 	andpl	r0, r0, r0, lsl #2
      d4:	00000354 	andeq	r0, r0, r4, asr r3
      d8:	00000408 	andeq	r0, r0, r8, lsl #8
      dc:	08560001 	ldmdaeq	r6, {r0}^
      e0:	18000004 	stmdane	r0, {r2}
      e4:	04000004 	streq	r0, [r0], #-4
      e8:	5001f300 	andpl	pc, r1, r0, lsl #6
      ec:	0000009f 	muleq	r0, pc, r0	; <UNPREDICTABLE>
	...
      f8:	5c000000 	stcpl	0, cr0, [r0], {-0}
      fc:	67000003 	strvs	r0, [r0, -r3]
     100:	01000003 	tsteq	r0, r3
     104:	03675000 	cmneq	r7, #0, 0
     108:	04080000 	streq	r0, [r8], #-0
     10c:	00010000 	andeq	r0, r1, r0
     110:	00040854 	andeq	r0, r4, r4, asr r8
     114:	00041800 	andeq	r1, r4, r0, lsl #16
     118:	70000400 	andvc	r0, r0, r0, lsl #8
     11c:	009f7ed8 			; <UNDEFINED> instruction: 0x009f7ed8
     120:	00000000 	andeq	r0, r0, r0
     124:	01000000 	mrseq	r0, (UNDEF: 0)
     128:	00037800 	andeq	r7, r3, r0, lsl #16
     12c:	00038000 	andeq	r8, r3, r0
     130:	54000100 	strpl	r0, [r0], #-256	; 0xffffff00
	...
     140:	0000022c 	andeq	r0, r0, ip, lsr #4
     144:	0000023c 	andeq	r0, r0, ip, lsr r2
     148:	3c500001 	mrrccc	0, 0, r0, r0, cr1	; <UNPREDICTABLE>
     14c:	3c000002 	stccc	0, cr0, [r0], {2}
     150:	01000003 	tsteq	r0, r3
     154:	00005400 	andeq	r5, r0, r0, lsl #8
     158:	00000000 	andeq	r0, r0, r0
     15c:	00010000 	andeq	r0, r1, r0
     160:	00000240 	andeq	r0, r0, r0, asr #4
     164:	0000033c 	andeq	r0, r0, ip, lsr r3
     168:	d8740004 	ldmdale	r4!, {r2}^
     16c:	00009f7e 	andeq	r9, r0, lr, ror pc
	...
     178:	01e80000 	mvneq	r0, r0
     17c:	01f00000 	mvnseq	r0, r0
     180:	00010000 	andeq	r0, r1, r0
     184:	0001f050 	andeq	pc, r1, r0, asr r0	; <UNPREDICTABLE>
     188:	00022c00 	andeq	r2, r2, r0, lsl #24
     18c:	54000100 	strpl	r0, [r0], #-256	; 0xffffff00
	...
     198:	00000001 	andeq	r0, r0, r1
     19c:	000001e8 	andeq	r0, r0, r8, ror #3
     1a0:	000001f0 	strdeq	r0, [r0], -r0	; <UNPREDICTABLE>
     1a4:	9f300002 	svcls	0x00300002
     1a8:	000001f0 	strdeq	r0, [r0], -r0	; <UNPREDICTABLE>
     1ac:	0000022c 	andeq	r0, r0, ip, lsr #4
     1b0:	00550001 	subseq	r0, r5, r1
	...
     1c4:	90000000 	andls	r0, r0, r0
     1c8:	c8000001 	stmdagt	r0, {r0}
     1cc:	01000001 	tsteq	r0, r1
     1d0:	01c85000 	biceq	r5, r8, r0
     1d4:	01cc0000 	biceq	r0, ip, r0
     1d8:	00040000 	andeq	r0, r4, r0
     1dc:	9f5001f3 	svcls	0x005001f3
     1e0:	000001cc 	andeq	r0, r0, ip, asr #3
     1e4:	000001d0 	ldrdeq	r0, [r0], -r0	; <UNPREDICTABLE>
     1e8:	d0500001 	subsle	r0, r0, r1
     1ec:	d4000001 	strle	r0, [r0], #-1
     1f0:	04000001 	streq	r0, [r0], #-1
     1f4:	5001f300 	andpl	pc, r1, r0, lsl #6
     1f8:	0001d49f 	muleq	r1, pc, r4	; <UNPREDICTABLE>
     1fc:	0001d800 	andeq	sp, r1, r0, lsl #16
     200:	50000100 	andpl	r0, r0, r0, lsl #2
     204:	000001d8 	ldrdeq	r0, [r0], -r8
     208:	000001dc 	ldrdeq	r0, [r0], -ip
     20c:	01f30004 	mvnseq	r0, r4
     210:	00009f50 	andeq	r9, r0, r0, asr pc
	...
     21c:	01a00000 	moveq	r0, r0
     220:	01cc0000 	biceq	r0, ip, r0
     224:	00010000 	andeq	r0, r1, r0
     228:	0001d453 	andeq	sp, r1, r3, asr r4
     22c:	0001dc00 	andeq	sp, r1, r0, lsl #24
     230:	53000100 	movwpl	r0, #256	; 0x100
	...
     240:	0000013c 	andeq	r0, r0, ip, lsr r1
     244:	00000147 	andeq	r0, r0, r7, asr #2
     248:	47500001 	ldrbmi	r0, [r0, -r1]
     24c:	90000001 	andls	r0, r0, r1
     250:	01000001 	tsteq	r0, r1
     254:	00005400 	andeq	r5, r0, r0, lsl #8
	...
     264:	00000148 	andeq	r0, r0, r8, asr #2
     268:	0000017c 	andeq	r0, r0, ip, ror r1
     26c:	80500001 	subshi	r0, r0, r1
     270:	84000001 	strhi	r0, [r0], #-1
     274:	01000001 	tsteq	r0, r1
     278:	01885000 	orreq	r5, r8, r0
     27c:	018c0000 	orreq	r0, ip, r0
     280:	00010000 	andeq	r0, r1, r0
     284:	00000050 	andeq	r0, r0, r0, asr r0
     288:	00000000 	andeq	r0, r0, r0
     28c:	00000300 	andeq	r0, r0, r0, lsl #6
     290:	00014800 	andeq	r4, r1, r0, lsl #16
     294:	00015000 	andeq	r5, r1, r0
     298:	30000200 	andcc	r0, r0, r0, lsl #4
     29c:	0001509f 	muleq	r1, pc, r0	; <UNPREDICTABLE>
     2a0:	00019000 	andeq	r9, r1, r0
     2a4:	53000100 	movwpl	r0, #256	; 0x100
	...
     2b0:	00000001 	andeq	r0, r0, r1
     2b4:	00000144 	andeq	r0, r0, r4, asr #2
     2b8:	00000147 	andeq	r0, r0, r7, asr #2
     2bc:	47500001 	ldrbmi	r0, [r0, -r1]
     2c0:	48000001 	stmdami	r0, {r0}
     2c4:	01000001 	tsteq	r0, r1
     2c8:	00005400 	andeq	r5, r0, r0, lsl #8
	...
     2d4:	00ec0000 	rsceq	r0, ip, r0
     2d8:	00f70000 	rscseq	r0, r7, r0
     2dc:	00010000 	andeq	r0, r1, r0
     2e0:	0000f750 	andeq	pc, r0, r0, asr r7	; <UNPREDICTABLE>
     2e4:	00013c00 	andeq	r3, r1, r0, lsl #24
     2e8:	55000100 	strpl	r0, [r0, #-256]	; 0xffffff00
	...
     2fc:	000000fc 	strdeq	r0, [r0], -ip
     300:	00000100 	andeq	r0, r0, r0, lsl #2
     304:	00500001 	subseq	r0, r0, r1
     308:	0c000001 	stceq	0, cr0, [r0], {1}
     30c:	01000001 	tsteq	r0, r1
     310:	010c5400 	tsteq	ip, r0, lsl #8
     314:	011f0000 	tsteq	pc, r0
     318:	00010000 	andeq	r0, r1, r0
     31c:	00011f50 	andeq	r1, r1, r0, asr pc
     320:	00013c00 	andeq	r3, r1, r0, lsl #24
     324:	54000100 	strpl	r0, [r0], #-256	; 0xffffff00
	...
     338:	00b40000 	adcseq	r0, r4, r0
     33c:	00cc0000 	sbceq	r0, ip, r0
     340:	00010000 	andeq	r0, r1, r0
     344:	0000cc50 	andeq	ip, r0, r0, asr ip
     348:	0000d800 	andeq	sp, r0, r0, lsl #16
     34c:	70000400 	andvc	r0, r0, r0, lsl #8
     350:	d89f7ed8 	ldmle	pc, {r3, r4, r6, r7, r9, sl, fp, ip, sp, lr}	; <UNPREDICTABLE>
     354:	dc000000 	stcle	0, cr0, [r0], {-0}
     358:	04000000 	streq	r0, [r0], #-0
     35c:	5001f300 	andpl	pc, r1, r0, lsl #6
     360:	0000dc9f 	muleq	r0, pc, ip	; <UNPREDICTABLE>
     364:	0000e000 	andeq	lr, r0, r0
     368:	50000100 	andpl	r0, r0, r0, lsl #2
     36c:	000000e0 	andeq	r0, r0, r0, ror #1
     370:	000000ec 	andeq	r0, r0, ip, ror #1
     374:	01f30004 	mvnseq	r0, r4
     378:	00009f50 	andeq	r9, r0, r0, asr pc
	...
     384:	009c0000 	addseq	r0, ip, r0
     388:	00a70000 	adceq	r0, r7, r0
     38c:	00010000 	andeq	r0, r1, r0
     390:	0000a750 	andeq	sl, r0, r0, asr r7
     394:	0000b400 	andeq	fp, r0, r0, lsl #8
     398:	54000100 	strpl	r0, [r0], #-256	; 0xffffff00
	...
     3a4:	00a80000 	adceq	r0, r8, r0
     3a8:	00ac0000 	adceq	r0, ip, r0
     3ac:	00010000 	andeq	r0, r1, r0
     3b0:	00000054 	andeq	r0, r0, r4, asr r0
	...
     3bc:	00009400 	andeq	r9, r0, r0, lsl #8
     3c0:	00009800 	andeq	r9, r0, r0, lsl #16
     3c4:	50000100 	andpl	r0, r0, r0, lsl #2
     3c8:	00000098 	muleq	r0, r8, r0
     3cc:	0000009c 	muleq	r0, ip, r0
     3d0:	d8700004 	ldmdale	r0!, {r2}^
     3d4:	00009f7e 	andeq	r9, r0, lr, ror pc
	...
     3e0:	00840000 	addeq	r0, r4, r0
     3e4:	00900000 	addseq	r0, r0, r0
     3e8:	00010000 	andeq	r0, r1, r0
     3ec:	00009050 	andeq	r9, r0, r0, asr r0
     3f0:	00009400 	andeq	r9, r0, r0, lsl #8
     3f4:	f3000400 	vshl.u8	d0, d0, d0
     3f8:	009f5001 	addseq	r5, pc, r1
	...
     408:	58000000 	stmdapl	r0, {}	; <UNPREDICTABLE>
     40c:	01000000 	mrseq	r0, (UNDEF: 0)
     410:	00585000 	subseq	r5, r8, r0
     414:	00740000 	rsbseq	r0, r4, r0
     418:	00040000 	andeq	r0, r4, r0
     41c:	9f5001f3 	svcls	0x005001f3
	...
     430:	00000054 	andeq	r0, r0, r4, asr r0
     434:	54510001 	ldrbpl	r0, [r1], #-1
     438:	74000000 	strvc	r0, [r0], #-0
     43c:	04000000 	streq	r0, [r0], #-0
     440:	5101f300 	mrspl	pc, SP_irq	; <UNPREDICTABLE>
     444:	0000009f 	muleq	r0, pc, r0	; <UNPREDICTABLE>
     448:	00000000 	andeq	r0, r0, r0
     44c:	18000300 	stmdane	r0, {r8, r9}
     450:	28000000 	stmdacs	r0, {}	; <UNPREDICTABLE>
     454:	01000000 	mrseq	r0, (UNDEF: 0)
     458:	00005300 	andeq	r5, r0, r0, lsl #6
	...
     464:	00000570 	andeq	r0, r0, r0, ror r5
     468:	00000574 	andeq	r0, r0, r4, ror r5
     46c:	00500001 	subseq	r0, r0, r1
     470:	00000000 	andeq	r0, r0, r0
     474:	01000000 	mrseq	r0, (UNDEF: 0)
     478:	44000000 	strmi	r0, [r0], #-0
     47c:	6c000001 	stcvs	0, cr0, [r0], {1}
     480:	02000001 	andeq	r0, r0, #1, 0
     484:	6c9f3000 	ldcvs	0, cr3, [pc], {0}
     488:	fc000001 	stc2	0, cr0, [r0], {1}
     48c:	01000001 	tsteq	r0, r1
     490:	00005500 	andeq	r5, r0, r0, lsl #10
     494:	00000000 	andeq	r0, r0, r0
     498:	00010000 	andeq	r0, r1, r0
     49c:	01440000 	mrseq	r0, (UNDEF: 68)
     4a0:	016c0000 	cmneq	ip, r0
     4a4:	00020000 	andeq	r0, r2, r0
     4a8:	016c9f30 	cmneq	ip, r0, lsr pc
     4ac:	01fc0000 	mvnseq	r0, r0
     4b0:	00010000 	andeq	r0, r1, r0
     4b4:	00000057 	andeq	r0, r0, r7, asr r0
     4b8:	00000000 	andeq	r0, r0, r0
     4bc:	00000100 	andeq	r0, r0, r0, lsl #2
     4c0:	00014400 	andeq	r4, r1, r0, lsl #8
     4c4:	00016c00 	andeq	r6, r1, r0, lsl #24
     4c8:	30000200 	andcc	r0, r0, r0, lsl #4
     4cc:	00016c9f 	muleq	r1, pc, ip	; <UNPREDICTABLE>
     4d0:	0001fc00 	andeq	pc, r1, r0, lsl #24
     4d4:	56000100 	strpl	r0, [r0], -r0, lsl #2
	...
     4ec:	015c0000 	cmpeq	ip, r0
     4f0:	016c0000 	cmneq	ip, r0
     4f4:	00010000 	andeq	r0, r1, r0
     4f8:	00016c50 	andeq	r6, r1, r0, asr ip
     4fc:	00017800 	andeq	r7, r1, r0, lsl #16
     500:	54000100 	strpl	r0, [r0], #-256	; 0xffffff00
     504:	00000178 	andeq	r0, r0, r8, ror r1
     508:	000001c8 	andeq	r0, r0, r8, asr #3
     50c:	c8500001 	ldmdagt	r0, {r0}^
     510:	cb000001 	blgt	51c <__code_start__-0x7ae4>
     514:	01000001 	tsteq	r0, r1
     518:	01cb5200 	biceq	r5, fp, r0, lsl #4
     51c:	01d00000 	bicseq	r0, r0, r0
     520:	00010000 	andeq	r0, r1, r0
     524:	0001d054 	andeq	sp, r1, r4, asr r0
     528:	0001e000 	andeq	lr, r1, r0
     52c:	50000100 	andpl	r0, r0, r0, lsl #2
     530:	000001e0 	andeq	r0, r0, r0, ror #3
     534:	000001fc 	strdeq	r0, [r0], -ip
     538:	00540001 	subseq	r0, r4, r1
	...
     548:	00052000 	andeq	r2, r5, r0
     54c:	00053000 	andeq	r3, r5, r0
     550:	50000100 	andpl	r0, r0, r0, lsl #2
     554:	00000530 	andeq	r0, r0, r0, lsr r5
     558:	00000533 	andeq	r0, r0, r3, lsr r5
     55c:	33510001 	cmpcc	r1, #1, 0
     560:	64000005 	strvs	r0, [r0], #-5
     564:	01000005 	tsteq	r0, r5
     568:	00005400 	andeq	r5, r0, r0, lsl #8
	...
     574:	049c0000 	ldreq	r0, [ip], #0
     578:	04a80000 	strteq	r0, [r8], #0
     57c:	00010000 	andeq	r0, r1, r0
     580:	0004a850 	andeq	sl, r4, r0, asr r8
     584:	0004cc00 	andeq	ip, r4, r0, lsl #24
     588:	54000100 	strpl	r0, [r0], #-256	; 0xffffff00
	...
     598:	00000364 	andeq	r0, r0, r4, ror #6
     59c:	0000037f 	andeq	r0, r0, pc, ror r3
     5a0:	80500001 	subshi	r0, r0, r1
     5a4:	88000003 	stmdahi	r0, {r0, r1}
     5a8:	01000003 	tsteq	r0, r3
     5ac:	00005000 	andeq	r5, r0, r0
	...
     5b8:	003c0000 	eorseq	r0, ip, r0
     5bc:	00440000 	subeq	r0, r4, r0
     5c0:	00010000 	andeq	r0, r1, r0
     5c4:	00004450 	andeq	r4, r0, r0, asr r4
     5c8:	00014000 	andeq	r4, r1, r0
     5cc:	f3000400 	vshl.u8	d0, d0, d0
     5d0:	009f5001 	addseq	r5, pc, r1
     5d4:	00000000 	andeq	r0, r0, r0
     5d8:	01000000 	mrseq	r0, (UNDEF: 0)
     5dc:	40000000 	andmi	r0, r0, r0
     5e0:	68000000 	stmdavs	r0, {}	; <UNPREDICTABLE>
     5e4:	02000000 	andeq	r0, r0, #0, 0
     5e8:	689f3000 	ldmvs	pc, {ip, sp}	; <UNPREDICTABLE>
     5ec:	40000000 	andmi	r0, r0, r0
     5f0:	01000001 	tsteq	r0, r1
     5f4:	00005500 	andeq	r5, r0, r0, lsl #10
     5f8:	00000000 	andeq	r0, r0, r0
     5fc:	00010000 	andeq	r0, r1, r0
     600:	00400000 	subeq	r0, r0, r0
     604:	00680000 	rsbeq	r0, r8, r0
     608:	00020000 	andeq	r0, r2, r0
     60c:	00689f30 	rsbeq	r9, r8, r0, lsr pc
     610:	01400000 	mrseq	r0, (UNDEF: 64)
     614:	00010000 	andeq	r0, r1, r0
     618:	00000057 	andeq	r0, r0, r7, asr r0
     61c:	00000000 	andeq	r0, r0, r0
     620:	00000100 	andeq	r0, r0, r0, lsl #2
     624:	00004000 	andeq	r4, r0, r0
     628:	00006800 	andeq	r6, r0, r0, lsl #16
     62c:	30000200 	andcc	r0, r0, r0, lsl #4
     630:	0000689f 	muleq	r0, pc, r8	; <UNPREDICTABLE>
     634:	00014000 	andeq	r4, r1, r0
     638:	56000100 	strpl	r0, [r0], -r0, lsl #2
	...
     64c:	00000058 	andeq	r0, r0, r8, asr r0
     650:	00000090 	muleq	r0, r0, r0
     654:	90500001 	subsls	r0, r0, r1
     658:	a0000000 	andge	r0, r0, r0
     65c:	01000000 	mrseq	r0, (UNDEF: 0)
     660:	00a05400 	adceq	r5, r0, r0, lsl #8
     664:	00ec0000 	rsceq	r0, ip, r0
     668:	00010000 	andeq	r0, r1, r0
     66c:	0000ec50 	andeq	lr, r0, r0, asr ip
     670:	00014000 	andeq	r4, r1, r0
     674:	54000100 	strpl	r0, [r0], #-256	; 0xffffff00
	...
     68c:	02240000 	eoreq	r0, r4, #0, 0
     690:	026c0000 	rsbeq	r0, ip, #0, 0
     694:	00010000 	andeq	r0, r1, r0
     698:	00026c50 	andeq	r6, r2, r0, asr ip
     69c:	00027400 	andeq	r7, r2, r0, lsl #8
     6a0:	f3000400 	vshl.u8	d0, d0, d0
     6a4:	749f5001 	ldrvc	r5, [pc], #1	; 6ac <__code_start__-0x7954>
     6a8:	8c000002 	stchi	0, cr0, [r0], {2}
     6ac:	01000002 	tsteq	r0, r2
     6b0:	028c5000 	addeq	r5, ip, #0, 0
     6b4:	02940000 	addseq	r0, r4, #0, 0
     6b8:	00010000 	andeq	r0, r1, r0
     6bc:	00029457 	andeq	r9, r2, r7, asr r4
     6c0:	0002ac00 	andeq	sl, r2, r0, lsl #24
     6c4:	50000100 	andpl	r0, r0, r0, lsl #2
     6c8:	000002ac 	andeq	r0, r0, ip, lsr #5
     6cc:	00000340 	andeq	r0, r0, r0, asr #6
     6d0:	40570001 	subsmi	r0, r7, r1
     6d4:	58000003 	stmdapl	r0, {r0, r1}
     6d8:	04000003 	streq	r0, [r0], #-3
     6dc:	5001f300 	andpl	pc, r1, r0, lsl #6
     6e0:	0000009f 	muleq	r0, pc, r0	; <UNPREDICTABLE>
	...
     6f8:	00022400 	andeq	r2, r2, r0, lsl #8
     6fc:	00024c00 	andeq	r4, r2, r0, lsl #24
     700:	51000100 	mrspl	r0, (UNDEF: 16)
     704:	0000024c 	andeq	r0, r0, ip, asr #4
     708:	00000254 	andeq	r0, r0, r4, asr r2
     70c:	01f30004 	mvnseq	r0, r4
     710:	02549f51 	subseq	r9, r4, #324	; 0x144
     714:	02680000 	rsbeq	r0, r8, #0, 0
     718:	00010000 	andeq	r0, r1, r0
     71c:	00026851 	andeq	r6, r2, r1, asr r8
     720:	00027400 	andeq	r7, r2, r0, lsl #8
     724:	f3000400 	vshl.u8	d0, d0, d0
     728:	749f5101 	ldrvc	r5, [pc], #257	; 730 <__code_start__-0x78d0>
     72c:	88000002 	stmdahi	r0, {r1}
     730:	01000002 	tsteq	r0, r2
     734:	02885100 	addeq	r5, r8, #0
     738:	02940000 	addseq	r0, r4, #0, 0
     73c:	00040000 	andeq	r0, r4, r0
     740:	9f5101f3 	svcls	0x005101f3
     744:	00000294 	muleq	r0, r4, r2
     748:	000002a8 	andeq	r0, r0, r8, lsr #5
     74c:	a8510001 	ldmdage	r1, {r0}^
     750:	58000002 	stmdapl	r0, {r1}
     754:	04000003 	streq	r0, [r0], #-3
     758:	5101f300 	mrspl	pc, SP_irq	; <UNPREDICTABLE>
     75c:	0000009f 	muleq	r0, pc, r0	; <UNPREDICTABLE>
	...
     768:	50000000 	andpl	r0, r0, r0
     76c:	54000002 	strpl	r0, [r0], #-2
     770:	01000002 	tsteq	r0, r2
     774:	02b45600 	adcseq	r5, r4, #0, 12
     778:	03400000 	movteq	r0, #0
     77c:	00010000 	andeq	r0, r1, r0
     780:	00034056 	andeq	r4, r3, r6, asr r0
     784:	00035800 	andeq	r5, r3, r0, lsl #16
     788:	f3000a00 	vpmax.u8	d0, d0, d0
     78c:	01f35101 	mvnseq	r5, r1, lsl #2
     790:	26321c50 			; <UNDEFINED> instruction: 0x26321c50
     794:	0000009f 	muleq	r0, pc, r0	; <UNPREDICTABLE>
     798:	00000000 	andeq	r0, r0, r0
     79c:	00000200 	andeq	r0, r0, r0, lsl #4
     7a0:	00025000 	andeq	r5, r2, r0
     7a4:	00025400 	andeq	r5, r2, r0, lsl #8
     7a8:	30000200 	andcc	r0, r0, r0, lsl #4
     7ac:	0002b49f 	muleq	r2, pc, r4	; <UNPREDICTABLE>
     7b0:	00034000 	andeq	r4, r3, r0
     7b4:	55000100 	strpl	r0, [r0, #-256]	; 0xffffff00
	...
     7c4:	02b40000 	adcseq	r0, r4, #0, 0
     7c8:	02d40000 	sbcseq	r0, r4, #0, 0
     7cc:	00010000 	andeq	r0, r1, r0
     7d0:	0002e854 	andeq	lr, r2, r4, asr r8
     7d4:	00030f00 	andeq	r0, r3, r0, lsl #30
     7d8:	50000100 	andpl	r0, r0, r0, lsl #2
     7dc:	0000030f 	andeq	r0, r0, pc, lsl #6
     7e0:	00000338 	andeq	r0, r0, r8, lsr r3
     7e4:	00540001 	subseq	r0, r4, r1
	...
     7f0:	c4000000 	strgt	r0, [r0], #-0
     7f4:	cf000002 	svcgt	0x00000002
     7f8:	01000002 	tsteq	r0, r2
     7fc:	02cf5000 	sbceq	r5, pc, #0, 0
     800:	02d00000 	sbcseq	r0, r0, #0, 0
     804:	00040000 	andeq	r0, r4, r0
     808:	9f01a874 	svcls	0x0001a874
	...
     818:	000002c8 	andeq	r0, r0, r8, asr #5
     81c:	000002cc 	andeq	r0, r0, ip, asr #5
     820:	00700006 	rsbseq	r0, r0, r6
     824:	9f220071 	svcls	0x00220071
     828:	000002cc 	andeq	r0, r0, ip, asr #5
     82c:	000002cf 	andeq	r0, r0, pc, asr #5
     830:	00510001 	subseq	r0, r1, r1
	...
     83c:	fc000000 	stc2	0, cr0, [r0], {-0}
     840:	07000001 	streq	r0, [r0, -r1]
     844:	01000002 	tsteq	r0, r2
     848:	02075000 	andeq	r5, r7, #0, 0
     84c:	02240000 	eoreq	r0, r4, #0, 0
     850:	00010000 	andeq	r0, r1, r0
     854:	00000054 	andeq	r0, r0, r4, asr r0
     858:	00000000 	andeq	r0, r0, r0
     85c:	00000100 	andeq	r0, r0, r0, lsl #2
     860:	00020400 	andeq	r0, r2, r0, lsl #8
     864:	00020700 	andeq	r0, r2, r0, lsl #14
     868:	50000100 	andpl	r0, r0, r0, lsl #2
     86c:	00000207 	andeq	r0, r0, r7, lsl #4
     870:	00000224 	andeq	r0, r0, r4, lsr #4
     874:	00540001 	subseq	r0, r4, r1
	...
     88c:	24000000 	strcs	r0, [r0], #-0
     890:	01000000 	mrseq	r0, (UNDEF: 0)
     894:	00245000 	eoreq	r5, r4, r0
     898:	00280000 	eoreq	r0, r8, r0
     89c:	00040000 	andeq	r0, r4, r0
     8a0:	9f5001f3 	svcls	0x005001f3
     8a4:	00000028 	andeq	r0, r0, r8, lsr #32
     8a8:	0000002c 	andeq	r0, r0, ip, lsr #32
     8ac:	2c500001 	mrrccs	0, 0, r0, r0, cr1	; <UNPREDICTABLE>
     8b0:	30000000 	andcc	r0, r0, r0
     8b4:	04000000 	streq	r0, [r0], #-0
     8b8:	5001f300 	andpl	pc, r1, r0, lsl #6
     8bc:	0000309f 	muleq	r0, pc, r0	; <UNPREDICTABLE>
     8c0:	00003400 	andeq	r3, r0, r0, lsl #8
     8c4:	50000100 	andpl	r0, r0, r0, lsl #2
     8c8:	00000034 	andeq	r0, r0, r4, lsr r0
     8cc:	0000003c 	andeq	r0, r0, ip, lsr r0
     8d0:	01f30004 	mvnseq	r0, r4
     8d4:	00009f50 	andeq	r9, r0, r0, asr pc
	...
     8e0:	03e80000 	mvneq	r0, #0, 0
     8e4:	03f80000 	mvnseq	r0, #0, 0
     8e8:	00010000 	andeq	r0, r1, r0
     8ec:	0003f850 	andeq	pc, r3, r0, asr r8	; <UNPREDICTABLE>
     8f0:	00049c00 	andeq	r9, r4, r0, lsl #24
     8f4:	54000100 	strpl	r0, [r0], #-256	; 0xffffff00
	...
     900:	04140002 	ldreq	r0, [r4], #-2
     904:	04480000 	strbeq	r0, [r8], #-0
     908:	00040000 	andeq	r0, r4, r0
     90c:	9f244040 	svcls	0x00244040
	...
     920:	00000008 	andeq	r0, r0, r8
     924:	00000078 	andeq	r0, r0, r8, ror r0
     928:	78510001 	ldmdavc	r1, {r0}^
     92c:	84000000 	strhi	r0, [r0], #-0
     930:	03000000 	movweq	r0, #0
     934:	9f787000 	svcls	0x00787000
     938:	00000084 	andeq	r0, r0, r4, lsl #1
     93c:	000000a4 	andeq	r0, r0, r4, lsr #1
     940:	a4510001 	ldrbge	r0, [r1], #-1
     944:	bc000000 	stclt	0, cr0, [r0], {-0}
     948:	03000000 	movweq	r0, #0
     94c:	9f787000 	svcls	0x00787000
	...
     95c:	00000010 	andeq	r0, r0, r0, lsl r0
     960:	00000048 	andeq	r0, r0, r8, asr #32
     964:	4c530001 	mrrcmi	0, 0, r0, r3, cr1
     968:	bc000000 	stclt	0, cr0, [r0], {-0}
     96c:	01000000 	mrseq	r0, (UNDEF: 0)
     970:	00005300 	andeq	r5, r0, r0, lsl #6
	...
     980:	01000000 	mrseq	r0, (UNDEF: 0)
     984:	01240000 			; <UNDEFINED> instruction: 0x01240000
     988:	00010000 	andeq	r0, r1, r0
     98c:	00012450 	andeq	r2, r1, r0, asr r4
     990:	00012800 	andeq	r2, r1, r0, lsl #16
     994:	f3000400 	vshl.u8	d0, d0, d0
     998:	289f5001 	ldmcs	pc, {r0, ip, lr}	; <UNPREDICTABLE>
     99c:	40000001 	andmi	r0, r0, r1
     9a0:	01000001 	tsteq	r0, r1
     9a4:	01405000 	mrseq	r5, (UNDEF: 64)
     9a8:	01ac0000 			; <UNDEFINED> instruction: 0x01ac0000
     9ac:	00040000 	andeq	r0, r4, r0
     9b0:	9f5001f3 	svcls	0x005001f3
	...
     9c0:	01000000 	mrseq	r0, (UNDEF: 0)
     9c4:	00000001 	andeq	r0, r0, r1
     9c8:	01240000 			; <UNDEFINED> instruction: 0x01240000
     9cc:	01280000 			; <UNDEFINED> instruction: 0x01280000
     9d0:	00010000 	andeq	r0, r1, r0
     9d4:	00014050 	andeq	r4, r1, r0, asr r0
     9d8:	00016000 	andeq	r6, r1, r0
     9dc:	50000100 	andpl	r0, r0, r0, lsl #2
     9e0:	00000160 	andeq	r0, r0, r0, ror #2
     9e4:	00000164 	andeq	r0, r0, r4, ror #2
     9e8:	78700003 	ldmdavc	r0!, {r0, r1}^
     9ec:	0001649f 	muleq	r1, pc, r4	; <UNPREDICTABLE>
     9f0:	00017000 	andeq	r7, r1, r0
     9f4:	50000100 	andpl	r0, r0, r0, lsl #2
     9f8:	00000170 	andeq	r0, r0, r0, ror r1
     9fc:	00000178 	andeq	r0, r0, r8, ror r1
     a00:	00700002 	rsbseq	r0, r0, r2
     a04:	00000178 	andeq	r0, r0, r8, ror r1
     a08:	00000198 	muleq	r0, r8, r1
     a0c:	9c500001 	mrrcls	0, 0, r0, r0, cr1	; <UNPREDICTABLE>
     a10:	ac000001 	stcge	0, cr0, [r0], {1}
     a14:	01000001 	tsteq	r0, r1
     a18:	00005000 	andeq	r5, r0, r0
     a1c:	00000000 	andeq	r0, r0, r0
     a20:	01000000 	mrseq	r0, (UNDEF: 0)
     a24:	00000001 	andeq	r0, r0, r1
     a28:	00000001 	andeq	r0, r0, r1
     a2c:	00000118 	andeq	r0, r0, r8, lsl r1
     a30:	00000128 	andeq	r0, r0, r8, lsr #2
     a34:	28520001 	ldmdacs	r2, {r0}^
     a38:	40000001 	andmi	r0, r0, r1
     a3c:	06000001 	streq	r0, [r0], -r1
     a40:	a6580300 	ldrbge	r0, [r8], -r0, lsl #6
     a44:	409f0000 	addsmi	r0, pc, r0
     a48:	70000001 	andvc	r0, r0, r1
     a4c:	01000001 	tsteq	r0, r1
     a50:	01705200 	cmneq	r0, r0, lsl #4
     a54:	01780000 	cmneq	r8, r0
     a58:	00010000 	andeq	r0, r1, r0
     a5c:	00017850 	andeq	r7, r1, r0, asr r8
     a60:	00019b00 	andeq	r9, r1, r0, lsl #22
     a64:	52000100 	andpl	r0, r0, #0
	...
     a70:	01100000 	tsteq	r0, r0
     a74:	01ac0000 			; <UNDEFINED> instruction: 0x01ac0000
     a78:	00010000 	andeq	r0, r1, r0
     a7c:	00000054 	andeq	r0, r0, r4, asr r0
	...
     a88:	0000bc00 	andeq	fp, r0, r0, lsl #24
     a8c:	0000cc00 	andeq	ip, r0, r0, lsl #24
     a90:	50000100 	andpl	r0, r0, r0, lsl #2
     a94:	000000cc 	andeq	r0, r0, ip, asr #1
     a98:	00000100 	andeq	r0, r0, r0, lsl #2
     a9c:	00540001 	subseq	r0, r4, r1
	...
     aac:	0000d400 	andeq	sp, r0, r0, lsl #8
     ab0:	0000e400 	andeq	lr, r0, r0, lsl #8
     ab4:	50000100 	andpl	r0, r0, r0, lsl #2
     ab8:	000000e4 	andeq	r0, r0, r4, ror #1
     abc:	000000e7 	andeq	r0, r0, r7, ror #1
     ac0:	78700003 	ldmdavc	r0!, {r0, r1}^
     ac4:	0000f49f 	muleq	r0, pc, r4	; <UNPREDICTABLE>
     ac8:	0000f800 	andeq	pc, r0, r0, lsl #16
     acc:	50000100 	andpl	r0, r0, r0, lsl #2
	...
     ad8:	00000001 	andeq	r0, r0, r1
     adc:	000000dc 	ldrdeq	r0, [r0], -ip
     ae0:	000000e4 	andeq	r0, r0, r4, ror #1
     ae4:	e4500001 	ldrb	r0, [r0], #-1
     ae8:	e7000000 	str	r0, [r0, -r0]
     aec:	03000000 	movweq	r0, #0
     af0:	9f787000 	svcls	0x00787000
	...
     b04:	00000004 	andeq	r0, r0, r4
     b08:	04520001 	ldrbeq	r0, [r2], #-1
     b0c:	18000000 	stmdane	r0, {}	; <UNPREDICTABLE>
     b10:	04000000 	streq	r0, [r0], #-0
     b14:	5201f300 	andpl	pc, r1, #0, 6
     b18:	0000009f 	muleq	r0, pc, r0	; <UNPREDICTABLE>
     b1c:	00000000 	andeq	r0, r0, r0
     b20:	00000200 	andeq	r0, r0, r0, lsl #4
     b24:	00000101 	andeq	r0, r0, r1, lsl #2
     b28:	00000000 	andeq	r0, r0, r0
     b2c:	00000800 	andeq	r0, r0, r0, lsl #16
     b30:	50000100 	andpl	r0, r0, r0, lsl #2
     b34:	00000008 	andeq	r0, r0, r8
     b38:	00000010 	andeq	r0, r0, r0, lsl r0
     b3c:	10530001 	subsne	r0, r3, r1
     b40:	14000000 	strne	r0, [r0], #-0
     b44:	03000000 	movweq	r0, #0
     b48:	9f017300 	svcls	0x00017300
     b4c:	00000014 	andeq	r0, r0, r4, lsl r0
     b50:	00000018 	andeq	r0, r0, r8, lsl r0
     b54:	00530001 	subseq	r0, r3, r1
	...
     b60:	00000400 	andeq	r0, r0, r0, lsl #8
     b64:	00001800 	andeq	r1, r0, r0, lsl #16
     b68:	52000100 	andpl	r0, r0, #0
	...
     b78:	002c0000 	eoreq	r0, ip, r0
     b7c:	00380000 	eorseq	r0, r8, r0
     b80:	00010000 	andeq	r0, r1, r0
     b84:	00003850 	andeq	r3, r0, r0, asr r8
     b88:	00004800 	andeq	r4, r0, r0, lsl #16
     b8c:	54000100 	strpl	r0, [r0], #-256	; 0xffffff00
     b90:	00000048 	andeq	r0, r0, r8, asr #32
     b94:	00000058 	andeq	r0, r0, r8, asr r0
     b98:	00500001 	subseq	r0, r0, r1
	...
     ba4:	00000101 	andeq	r0, r0, r1, lsl #2
     ba8:	08000000 	stmdaeq	r0, {}	; <UNPREDICTABLE>
     bac:	01000000 	mrseq	r0, (UNDEF: 0)
     bb0:	00085000 	andeq	r5, r8, r0
     bb4:	00340000 	eorseq	r0, r4, r0
     bb8:	00010000 	andeq	r0, r1, r0
     bbc:	00000054 	andeq	r0, r0, r4, asr r0
	...
     bc8:	88000000 	stmdahi	r0, {}	; <UNPREDICTABLE>
     bcc:	b8000002 	stmdalt	r0, {r1}
     bd0:	01000002 	tsteq	r0, r2
     bd4:	02b85000 	adcseq	r5, r8, #0, 0
     bd8:	07040000 	streq	r0, [r4, -r0]
     bdc:	00010000 	andeq	r0, r1, r0
     be0:	00070459 	andeq	r0, r7, r9, asr r4
     be4:	00074000 	andeq	r4, r7, r0
     be8:	f3000400 	vshl.u8	d0, d0, d0
     bec:	009f5001 	addseq	r5, pc, r1
	...
     bfc:	00028800 	andeq	r8, r2, r0, lsl #16
     c00:	0002a000 	andeq	sl, r2, r0
     c04:	51000100 	mrspl	r0, (UNDEF: 16)
     c08:	000002a0 	andeq	r0, r0, r0, lsr #5
     c0c:	000002b8 			; <UNDEFINED> instruction: 0x000002b8
     c10:	01710003 	cmneq	r1, r3
     c14:	0002b89f 	muleq	r2, pc, r8	; <UNPREDICTABLE>
     c18:	00074000 	andeq	r4, r7, r0
     c1c:	f3000400 	vshl.u8	d0, d0, d0
     c20:	009f5101 	addseq	r5, pc, r1, lsl #2
	...
     c34:	88000000 	stmdahi	r0, {}	; <UNPREDICTABLE>
     c38:	b8000002 	stmdalt	r0, {r1}
     c3c:	01000002 	tsteq	r0, r2
     c40:	02b85200 	adcseq	r5, r8, #0, 4
     c44:	03ec0000 	mvneq	r0, #0, 0
     c48:	00010000 	andeq	r0, r1, r0
     c4c:	0003ec56 	andeq	lr, r3, r6, asr ip
     c50:	0004b800 	andeq	fp, r4, r0, lsl #16
     c54:	5b000100 	blpl	105c <__code_start__-0x6fa4>
     c58:	000004b8 			; <UNDEFINED> instruction: 0x000004b8
     c5c:	000004d8 	ldrdeq	r0, [r0], -r8
     c60:	d8560001 	ldmdale	r6, {r0}^
     c64:	5c000004 	stcpl	0, cr0, [r0], {4}
     c68:	01000005 	tsteq	r0, r5
     c6c:	055c5b00 	ldrbeq	r5, [ip, #-2816]	; 0xfffff500
     c70:	07040000 	streq	r0, [r4, -r0]
     c74:	00010000 	andeq	r0, r1, r0
     c78:	00000056 	andeq	r0, r0, r6, asr r0
     c7c:	00000000 	andeq	r0, r0, r0
     c80:	00000100 	andeq	r0, r0, r0, lsl #2
     c84:	00000000 	andeq	r0, r0, r0
     c88:	00000101 	andeq	r0, r0, r1, lsl #2
     c8c:	00000000 	andeq	r0, r0, r0
     c90:	00000202 	andeq	r0, r0, r2, lsl #4
     c94:	00029c00 	andeq	r9, r2, r0, lsl #24
     c98:	0002b800 	andeq	fp, r2, r0, lsl #16
     c9c:	50000100 	andpl	r0, r0, r0, lsl #2
     ca0:	000002b8 			; <UNDEFINED> instruction: 0x000002b8
     ca4:	000002bc 			; <UNDEFINED> instruction: 0x000002bc
     ca8:	bc540001 	mrrclt	0, 0, r0, r4, cr1
     cac:	c0000002 	andgt	r0, r0, r2
     cb0:	03000002 	movweq	r0, #2
     cb4:	9f017400 	svcls	0x00017400
     cb8:	000002c0 	andeq	r0, r0, r0, asr #5
     cbc:	000002e4 	andeq	r0, r0, r4, ror #5
     cc0:	e4540001 	ldrb	r0, [r4], #-1
     cc4:	e8000002 	stmda	r0, {r1}
     cc8:	03000002 	movweq	r0, #2
     ccc:	9f017400 	svcls	0x00017400
     cd0:	000002e8 	andeq	r0, r0, r8, ror #5
     cd4:	000006d4 	ldrdeq	r0, [r0], -r4
     cd8:	d4540001 	ldrble	r0, [r4], #-1
     cdc:	d8000006 	stmdale	r0, {r1, r2}
     ce0:	03000006 	movweq	r0, #6
     ce4:	9f017400 	svcls	0x00017400
     ce8:	000006d8 	ldrdeq	r0, [r0], -r8
     cec:	000006f0 	strdeq	r0, [r0], -r0	; <UNPREDICTABLE>
     cf0:	f0540001 			; <UNDEFINED> instruction: 0xf0540001
     cf4:	f8000006 			; <UNDEFINED> instruction: 0xf8000006
     cf8:	03000006 	movweq	r0, #6
     cfc:	9f017400 	svcls	0x00017400
     d00:	000006f8 	strdeq	r0, [r0], -r8
     d04:	00000704 	andeq	r0, r0, r4, lsl #14
     d08:	00540001 	subseq	r0, r4, r1
	...
     d14:	a4000000 	strge	r0, [r0], #-0
     d18:	04000002 	streq	r0, [r0], #-2
     d1c:	01000007 	tsteq	r0, r7
     d20:	07045800 	streq	r5, [r4, -r0, lsl #16]
     d24:	07400000 	strbeq	r0, [r0, -r0]
     d28:	000a0000 	andeq	r0, sl, r0
     d2c:	f35101f3 	vbsl	q8, <illegal reg q8.5>, <illegal reg q9.5>
     d30:	31225001 			; <UNDEFINED> instruction: 0x31225001
     d34:	00009f1c 	andeq	r9, r0, ip, lsl pc
     d38:	00000000 	andeq	r0, r0, r0
     d3c:	00010000 	andeq	r0, r1, r0
     d40:	00000000 	andeq	r0, r0, r0
     d44:	00000408 	andeq	r0, r0, r8, lsl #8
     d48:	00000474 	andeq	r0, r0, r4, ror r4
     d4c:	d8570001 	ldmdale	r7, {r0}^
     d50:	fc000004 	stc2	0, cr0, [r0], {4}
     d54:	01000004 	tsteq	r0, r4
     d58:	05405700 	strbeq	r5, [r0, #-1792]	; 0xfffff900
     d5c:	055c0000 	ldrbeq	r0, [ip, #-0]
     d60:	00010000 	andeq	r0, r1, r0
     d64:	00000057 	andeq	r0, r0, r7, asr r0
     d68:	00000000 	andeq	r0, r0, r0
     d6c:	00000200 	andeq	r0, r0, r0, lsl #4
     d70:	00040800 	andeq	r0, r4, r0, lsl #16
     d74:	0004b800 	andeq	fp, r4, r0, lsl #16
     d78:	5a000100 	bpl	1180 <__code_start__-0x6e80>
     d7c:	000004d8 	ldrdeq	r0, [r0], -r8
     d80:	0000055c 	andeq	r0, r0, ip, asr r5
     d84:	005a0001 	subseq	r0, sl, r1
     d88:	00000000 	andeq	r0, r0, r0
     d8c:	01000000 	mrseq	r0, (UNDEF: 0)
     d90:	ac000000 	stcge	0, cr0, [r0], {-0}
     d94:	b8000002 	stmdalt	r0, {r1}
     d98:	01000002 	tsteq	r0, r2
     d9c:	02b85200 	adcseq	r5, r8, #0, 4
     da0:	07400000 	strbeq	r0, [r0, -r0]
     da4:	00030000 	andeq	r0, r3, r0
     da8:	007dc891 			; <UNDEFINED> instruction: 0x007dc891
	...
     dbc:	00000101 	andeq	r0, r0, r1, lsl #2
	...
     dc8:	00047400 	andeq	r7, r4, r0, lsl #8
     dcc:	00048c00 	andeq	r8, r4, r0, lsl #24
     dd0:	50000100 	andpl	r0, r0, r0, lsl #2
     dd4:	0000048c 	andeq	r0, r0, ip, lsl #9
     dd8:	000004b8 			; <UNDEFINED> instruction: 0x000004b8
     ddc:	fc570001 	mrrc2	0, 0, r0, r7, cr1
     de0:	14000004 	strne	r0, [r0], #-4
     de4:	01000005 	tsteq	r0, r5
     de8:	05145000 	ldreq	r5, [r4, #-0]
     dec:	05400000 	strbeq	r0, [r0, #-0]
     df0:	00010000 	andeq	r0, r1, r0
     df4:	0005a457 	andeq	sl, r5, r7, asr r4
     df8:	0005a400 	andeq	sl, r5, r0, lsl #8
     dfc:	50000100 	andpl	r0, r0, r0, lsl #2
     e00:	000005a4 	andeq	r0, r0, r4, lsr #11
     e04:	000005ac 	andeq	r0, r0, ip, lsr #11
     e08:	dc570001 	mrrcle	0, 0, r0, r7, cr1
     e0c:	e0000005 	and	r0, r0, r5
     e10:	01000005 	tsteq	r0, r5
     e14:	06105000 	ldreq	r5, [r0], -r0
     e18:	06140000 	ldreq	r0, [r4], -r0
     e1c:	00010000 	andeq	r0, r1, r0
     e20:	00064450 	andeq	r4, r6, r0, asr r4
     e24:	00064800 	andeq	r4, r6, r0, lsl #16
     e28:	50000100 	andpl	r0, r0, r0, lsl #2
     e2c:	0000068c 	andeq	r0, r0, ip, lsl #13
     e30:	00000690 	muleq	r0, r0, r6
     e34:	d0500001 	subsle	r0, r0, r1
     e38:	f0000006 			; <UNDEFINED> instruction: 0xf0000006
     e3c:	01000006 	tsteq	r0, r6
     e40:	00005700 	andeq	r5, r0, r0, lsl #14
     e44:	00000000 	andeq	r0, r0, r0
     e48:	00020000 	andeq	r0, r2, r0
     e4c:	00000000 	andeq	r0, r0, r0
     e50:	000002f4 	strdeq	r0, [r0], -r4
     e54:	000002f8 	strdeq	r0, [r0], -r8
     e58:	9f300002 	svcls	0x00300002
     e5c:	000002f8 	strdeq	r0, [r0], -r8
     e60:	00000314 	andeq	r0, r0, r4, lsl r3
     e64:	1c550001 	mrrcne	0, 0, r0, r5, cr1
     e68:	f0000003 			; <UNDEFINED> instruction: 0xf0000003
     e6c:	01000006 	tsteq	r0, r6
     e70:	00005500 	andeq	r5, r0, r0, lsl #10
     e74:	00000000 	andeq	r0, r0, r0
     e78:	00010000 	andeq	r0, r1, r0
	...
     e84:	000003b8 			; <UNDEFINED> instruction: 0x000003b8
     e88:	00000454 	andeq	r0, r0, r4, asr r4
     e8c:	54560001 	ldrbpl	r0, [r6], #-1
     e90:	b8000004 	stmdalt	r0, {r2}
     e94:	03000004 	movweq	r0, #4
     e98:	9f7e7b00 	svcls	0x007e7b00
     e9c:	000004b8 			; <UNDEFINED> instruction: 0x000004b8
     ea0:	000004dc 	ldrdeq	r0, [r0], -ip
     ea4:	dc560001 	mrrcle	0, 0, r0, r6, cr1
     ea8:	40000004 	andmi	r0, r0, r4
     eac:	03000005 	movweq	r0, #5
     eb0:	9f7e7b00 	svcls	0x007e7b00
     eb4:	00000540 	andeq	r0, r0, r0, asr #10
     eb8:	0000055c 	andeq	r0, r0, ip, asr r5
     ebc:	00560001 	subseq	r0, r6, r1
	...
     ecc:	00007000 	andeq	r7, r0, r0
     ed0:	00009400 	andeq	r9, r0, r0, lsl #8
     ed4:	50000100 	andpl	r0, r0, r0, lsl #2
     ed8:	00000094 	muleq	r0, r4, r0
     edc:	000000fc 	strdeq	r0, [r0], -ip
     ee0:	02700003 	rsbseq	r0, r0, #3, 0
     ee4:	0000fc9f 	muleq	r0, pc, ip	; <UNPREDICTABLE>
     ee8:	00022400 	andeq	r2, r2, r0, lsl #8
     eec:	f3000400 	vshl.u8	d0, d0, d0
     ef0:	009f5001 	addseq	r5, pc, r1
	...
     f08:	70000000 	andvc	r0, r0, r0
     f0c:	e0000000 	and	r0, r0, r0
     f10:	01000000 	mrseq	r0, (UNDEF: 0)
     f14:	00e05100 	rsceq	r5, r0, r0, lsl #2
     f18:	01540000 	cmpeq	r4, r0
     f1c:	00010000 	andeq	r0, r1, r0
     f20:	00015455 	andeq	r5, r1, r5, asr r4
     f24:	00015800 	andeq	r5, r1, r0, lsl #16
     f28:	51000100 	mrspl	r0, (UNDEF: 16)
     f2c:	00000158 	andeq	r0, r0, r8, asr r1
     f30:	000001b0 			; <UNDEFINED> instruction: 0x000001b0
     f34:	b0550001 	subslt	r0, r5, r1
     f38:	c0000001 	andgt	r0, r0, r1
     f3c:	01000001 	tsteq	r0, r1
     f40:	01c05100 	biceq	r5, r0, r0, lsl #2
     f44:	01e40000 	mvneq	r0, r0
     f48:	00010000 	andeq	r0, r1, r0
     f4c:	0001e455 	andeq	lr, r1, r5, asr r4
     f50:	0001f800 	andeq	pc, r1, r0, lsl #16
     f54:	51000100 	mrspl	r0, (UNDEF: 16)
     f58:	000001f8 	strdeq	r0, [r0], -r8
     f5c:	00000224 	andeq	r0, r0, r4, lsr #4
     f60:	00550001 	subseq	r0, r5, r1
	...
     f6c:	70000000 	andvc	r0, r0, r0
     f70:	84000000 	strhi	r0, [r0], #-0
     f74:	01000000 	mrseq	r0, (UNDEF: 0)
     f78:	00845200 	addeq	r5, r4, r0, lsl #4
     f7c:	02240000 	eoreq	r0, r4, #0, 0
     f80:	00010000 	andeq	r0, r1, r0
     f84:	00000054 	andeq	r0, r0, r4, asr r0
	...
     f90:	00010000 	andeq	r0, r1, r0
     f94:	00000000 	andeq	r0, r0, r0
     f98:	00007000 	andeq	r7, r0, r0
     f9c:	0000f400 	andeq	pc, r0, r0, lsl #8
     fa0:	53000100 	movwpl	r0, #256	; 0x100
     fa4:	0000014c 	andeq	r0, r0, ip, asr #2
     fa8:	00000180 	andeq	r0, r0, r0, lsl #3
     fac:	80530001 	subshi	r0, r3, r1
     fb0:	8c000001 	stchi	0, cr0, [r0], {1}
     fb4:	04000001 	streq	r0, [r0], #-1
     fb8:	5301f300 	movwpl	pc, #4864	; 0x1300	; <UNPREDICTABLE>
     fbc:	0001b09f 	muleq	r1, pc, r0	; <UNPREDICTABLE>
     fc0:	0001e800 	andeq	lr, r1, r0, lsl #16
     fc4:	53000100 	movwpl	r0, #256	; 0x100
     fc8:	000001e8 	andeq	r0, r0, r8, ror #3
     fcc:	000001ff 	strdeq	r0, [r0], -pc	; <UNPREDICTABLE>
     fd0:	ff5c0001 			; <UNDEFINED> instruction: 0xff5c0001
     fd4:	24000001 	strcs	r0, [r0], #-1
     fd8:	04000002 	streq	r0, [r0], #-2
     fdc:	5301f300 	movwpl	pc, #4864	; 0x1300	; <UNPREDICTABLE>
     fe0:	0000009f 	muleq	r0, pc, r0	; <UNPREDICTABLE>
	...
     fec:	70000000 	andvc	r0, r0, r0
     ff0:	8c000000 	stchi	0, cr0, [r0], {-0}
     ff4:	02000000 	andeq	r0, r0, #0, 0
     ff8:	8c009100 	stfhid	f1, [r0], {-0}
     ffc:	93000000 	movwls	r0, #0
    1000:	01000001 	tsteq	r0, r1
    1004:	01b05200 	lslseq	r5, r0, #4
    1008:	01f40000 	mvnseq	r0, r0
    100c:	00010000 	andeq	r0, r1, r0
    1010:	00000052 	andeq	r0, r0, r2, asr r0
    1014:	00000000 	andeq	r0, r0, r0
    1018:	00000100 	andeq	r0, r0, r0, lsl #2
    101c:	00000101 	andeq	r0, r0, r1, lsl #2
    1020:	00000000 	andeq	r0, r0, r0
    1024:	01010000 	mrseq	r0, (UNDEF: 1)
    1028:	00000101 	andeq	r0, r0, r1, lsl #2
    102c:	00000101 	andeq	r0, r0, r1, lsl #2
	...
    1038:	00008c00 	andeq	r8, r0, r0, lsl #24
    103c:	0000fc00 	andeq	pc, r0, r0, lsl #24
    1040:	91000400 	tstls	r0, r0, lsl #8
    1044:	fc9f7fa0 	ldc2	15, cr7, [pc], {160}	; 0xa0
    1048:	3c000000 	stccc	0, cr0, [r0], {-0}
    104c:	01000001 	tsteq	r0, r1
    1050:	013c5000 	teqeq	ip, r0
    1054:	01480000 	mrseq	r0, (UNDEF: 72)
    1058:	00030000 	andeq	r0, r3, r0
    105c:	489f0271 	ldmmi	pc, {r0, r4, r5, r6, r9}	; <UNPREDICTABLE>
    1060:	4c000001 	stcmi	0, cr0, [r0], {1}
    1064:	01000001 	tsteq	r0, r1
    1068:	014c5000 	mrseq	r5, (UNDEF: 76)
    106c:	01580000 	cmpeq	r8, r0
    1070:	00040000 	andeq	r0, r4, r0
    1074:	9f7fa091 	svcls	0x007fa091
    1078:	00000158 	andeq	r0, r0, r8, asr r1
    107c:	0000016c 	andeq	r0, r0, ip, ror #2
    1080:	6c510001 	mrrcvs	0, 0, r0, r1, cr1
    1084:	78000001 	stmdavc	r0, {r0}
    1088:	03000001 	movweq	r0, #1
    108c:	9f7f7100 	svcls	0x007f7100
    1090:	00000178 	andeq	r0, r0, r8, ror r1
    1094:	00000184 	andeq	r0, r0, r4, lsl #3
    1098:	01710003 	cmneq	r1, r3
    109c:	0001849f 	muleq	r1, pc, r4	; <UNPREDICTABLE>
    10a0:	00019300 	andeq	r9, r1, r0, lsl #6
    10a4:	50000100 	andpl	r0, r0, r0, lsl #2
    10a8:	000001b0 			; <UNDEFINED> instruction: 0x000001b0
    10ac:	000001b0 			; <UNDEFINED> instruction: 0x000001b0
    10b0:	a0910004 	addsge	r0, r1, r4
    10b4:	01b09f7f 	rorseq	r9, pc, pc
    10b8:	01b80000 			; <UNDEFINED> instruction: 0x01b80000
    10bc:	00040000 	andeq	r0, r4, r0
    10c0:	9f7fa191 	svcls	0x007fa191
    10c4:	000001b8 			; <UNDEFINED> instruction: 0x000001b8
    10c8:	000001bc 			; <UNDEFINED> instruction: 0x000001bc
    10cc:	bc500001 	mrrclt	0, 0, r0, r0, cr1	; <UNPREDICTABLE>
    10d0:	c0000001 	andgt	r0, r0, r1
    10d4:	04000001 	streq	r0, [r0], #-1
    10d8:	7fa09100 	svcvc	0x00a09100
    10dc:	0001c09f 	muleq	r1, pc, r0	; <UNPREDICTABLE>
    10e0:	0001d400 	andeq	sp, r1, r0, lsl #8
    10e4:	50000100 	andpl	r0, r0, r0, lsl #2
    10e8:	000001d4 	ldrdeq	r0, [r0], -r4
    10ec:	000001e4 	andeq	r0, r0, r4, ror #3
    10f0:	7f700003 	svcvc	0x00700003
    10f4:	0001e49f 	muleq	r1, pc, r4	; <UNPREDICTABLE>
    10f8:	00022400 	andeq	r2, r2, r0, lsl #8
    10fc:	91000400 	tstls	r0, r0, lsl #8
    1100:	009f7fa0 	addseq	r7, pc, r0, lsr #31
	...
    110c:	01010000 	mrseq	r0, (UNDEF: 1)
	...
    111c:	90000000 	andls	r0, r0, r0
    1120:	dc000000 	stcle	0, cr0, [r0], {-0}
    1124:	01000000 	mrseq	r0, (UNDEF: 0)
    1128:	00dc5c00 	sbcseq	r5, ip, r0, lsl #24
    112c:	00f40000 	rscseq	r0, r4, r0
    1130:	00010000 	andeq	r0, r1, r0
    1134:	0000f453 	andeq	pc, r0, r3, asr r4	; <UNPREDICTABLE>
    1138:	00014c00 	andeq	r4, r1, r0, lsl #24
    113c:	5c000100 	stfpls	f0, [r0], {-0}
    1140:	0000014c 	andeq	r0, r0, ip, asr #2
    1144:	00000158 	andeq	r0, r0, r8, asr r1
    1148:	58530001 	ldmdapl	r3, {r0}^
    114c:	74000001 	strvc	r0, [r0], #-1
    1150:	01000001 	tsteq	r0, r1
    1154:	01b05c00 	lslseq	r5, r0, #24
    1158:	01c00000 	biceq	r0, r0, r0
    115c:	00010000 	andeq	r0, r1, r0
    1160:	0001c053 	andeq	ip, r1, r3, asr r0
    1164:	0001dc00 	andeq	sp, r1, r0, lsl #24
    1168:	5c000100 	stfpls	f0, [r0], {-0}
    116c:	000001e4 	andeq	r0, r0, r4, ror #3
    1170:	000001e8 	andeq	r0, r0, r8, ror #3
    1174:	e8530001 	ldmda	r3, {r0}^
    1178:	ff000001 			; <UNDEFINED> instruction: 0xff000001
    117c:	01000001 	tsteq	r0, r1
    1180:	01ff5c00 	mvnseq	r5, r0, lsl #24
    1184:	02240000 	eoreq	r0, r4, #0, 0
    1188:	00040000 	andeq	r0, r4, r0
    118c:	9f5301f3 	svcls	0x005301f3
	...
    1198:	00010101 	andeq	r0, r1, r1, lsl #2
    119c:	00000000 	andeq	r0, r0, r0
    11a0:	000000dc 	ldrdeq	r0, [r0], -ip
    11a4:	000000f0 	strdeq	r0, [r0], -r0	; <UNPREDICTABLE>
    11a8:	9f300002 	svcls	0x00300002
    11ac:	000000f0 	strdeq	r0, [r0], -r0	; <UNPREDICTABLE>
    11b0:	000000f8 	strdeq	r0, [r0], -r8
    11b4:	9f310002 	svcls	0x00310002
    11b8:	000000fc 	strdeq	r0, [r0], -ip
    11bc:	0000014c 	andeq	r0, r0, ip, asr #2
    11c0:	4c560001 	mrrcmi	0, 0, r0, r6, cr1
    11c4:	54000001 	strpl	r0, [r0], #-1
    11c8:	02000001 	andeq	r0, r0, #1, 0
    11cc:	009f3000 	addseq	r3, pc, r0
	...
    11d8:	01010000 	mrseq	r0, (UNDEF: 1)
    11dc:	01010000 	mrseq	r0, (UNDEF: 1)
    11e0:	00003800 	andeq	r3, r0, r0, lsl #16
    11e4:	00005400 	andeq	r5, r0, r0, lsl #8
    11e8:	50000100 	andpl	r0, r0, r0, lsl #2
    11ec:	00000054 	andeq	r0, r0, r4, asr r0
    11f0:	00000058 	andeq	r0, r0, r8, asr r0
    11f4:	58520001 	ldmdapl	r2, {r0}^
    11f8:	60000000 	andvs	r0, r0, r0
    11fc:	03000000 	movweq	r0, #0
    1200:	9f017200 	svcls	0x00017200
    1204:	00000060 	andeq	r0, r0, r0, rrx
    1208:	00000064 	andeq	r0, r0, r4, rrx
    120c:	64520001 	ldrbvs	r0, [r2], #-1
    1210:	70000000 	andvc	r0, r0, r0
    1214:	03000000 	movweq	r0, #0
    1218:	9f017200 	svcls	0x00017200
	...
    1228:	00000038 	andeq	r0, r0, r8, lsr r0
    122c:	00000050 	andeq	r0, r0, r0, asr r0
    1230:	50510001 	subspl	r0, r1, r1
    1234:	70000000 	andvc	r0, r0, r0
    1238:	04000000 	streq	r0, [r0], #-0
    123c:	5101f300 	mrspl	pc, SP_irq	; <UNPREDICTABLE>
    1240:	0000009f 	muleq	r0, pc, r0	; <UNPREDICTABLE>
	...
    124c:	01010000 	mrseq	r0, (UNDEF: 1)
    1250:	00003800 	andeq	r3, r0, r0, lsl #16
    1254:	00005000 	andeq	r5, r0, r0
    1258:	52000100 	andpl	r0, r0, #0
    125c:	00000050 	andeq	r0, r0, r0, asr r0
    1260:	0000005c 	andeq	r0, r0, ip, asr r0
    1264:	5c510001 	mrrcpl	0, 0, r0, r1, cr1
    1268:	60000000 	andvs	r0, r0, r0
    126c:	03000000 	movweq	r0, #0
    1270:	9f017100 	svcls	0x00017100
    1274:	00000060 	andeq	r0, r0, r0, rrx
    1278:	00000070 	andeq	r0, r0, r0, ror r0
    127c:	00510001 	subseq	r0, r1, r1
	...
    1288:	38000000 	stmdacc	r0, {}	; <UNPREDICTABLE>
    128c:	4c000000 	stcmi	0, cr0, [r0], {-0}
    1290:	01000000 	mrseq	r0, (UNDEF: 0)
    1294:	004c5300 	subeq	r5, ip, r0, lsl #6
    1298:	00680000 	rsbeq	r0, r8, r0
    129c:	00010000 	andeq	r0, r1, r0
    12a0:	00000053 	andeq	r0, r0, r3, asr r0
	...
    12b0:	00004000 	andeq	r4, r0, r0
    12b4:	00004800 	andeq	r4, r0, r0, lsl #16
    12b8:	5c000100 	stfpls	f0, [r0], {-0}
    12bc:	00000048 	andeq	r0, r0, r8, asr #32
    12c0:	0000004c 	andeq	r0, r0, ip, asr #32
    12c4:	00720008 	rsbseq	r0, r2, r8
    12c8:	231c0073 	tstcs	ip, #115, 0	; 0x73
    12cc:	004c9f01 	subeq	r9, ip, r1, lsl #30
    12d0:	00540000 	subseq	r0, r4, r0
    12d4:	00090000 	andeq	r0, r9, r0
    12d8:	01f30072 	mvnseq	r0, r2, ror r0
    12dc:	01231c53 			; <UNDEFINED> instruction: 0x01231c53
    12e0:	0000549f 	muleq	r0, pc, r4	; <UNPREDICTABLE>
    12e4:	00007000 	andeq	r7, r0, r0
    12e8:	f3000a00 	vpmax.u8	d0, d0, d0
    12ec:	01f35201 	mvnseq	r5, r1, lsl #4
    12f0:	01231c53 			; <UNDEFINED> instruction: 0x01231c53
    12f4:	0000009f 	muleq	r0, pc, r0	; <UNPREDICTABLE>
    12f8:	00000000 	andeq	r0, r0, r0
    12fc:	4c000100 	stfmis	f0, [r0], {-0}
    1300:	70000000 	andvc	r0, r0, r0
    1304:	01000000 	mrseq	r0, (UNDEF: 0)
    1308:	00005000 	andeq	r5, r0, r0
    130c:	00000000 	andeq	r0, r0, r0
    1310:	01000000 	mrseq	r0, (UNDEF: 0)
    1314:	00000001 	andeq	r0, r0, r1
    1318:	00000014 	andeq	r0, r0, r4, lsl r0
    131c:	0000001c 	andeq	r0, r0, ip, lsl r0
    1320:	1c500001 	mrrcne	0, 0, r0, r0, cr1	; <UNPREDICTABLE>
    1324:	24000000 	strcs	r0, [r0], #-0
    1328:	03000000 	movweq	r0, #0
    132c:	9f017000 	svcls	0x00017000
    1330:	00000024 	andeq	r0, r0, r4, lsr #32
    1334:	00000038 	andeq	r0, r0, r8, lsr r0
    1338:	00500001 	subseq	r0, r0, r1
	...
    1344:	14000000 	strne	r0, [r0], #-0
    1348:	18000000 	stmdane	r0, {}	; <UNPREDICTABLE>
    134c:	01000000 	mrseq	r0, (UNDEF: 0)
    1350:	00185100 	andseq	r5, r8, r0, lsl #2
    1354:	00380000 	eorseq	r0, r8, r0
    1358:	00040000 	andeq	r0, r4, r0
    135c:	9f5101f3 	svcls	0x005101f3
	...
    1368:	00180000 	andseq	r0, r8, r0
    136c:	00380000 	eorseq	r0, r8, r0
    1370:	00010000 	andeq	r0, r1, r0
    1374:	00000051 	andeq	r0, r0, r1, asr r0
	...
    1384:	04000000 	streq	r0, [r0], #-0
    1388:	01000000 	mrseq	r0, (UNDEF: 0)
    138c:	00045000 	andeq	r5, r4, r0
    1390:	000c0000 	andeq	r0, ip, r0
    1394:	00030000 	andeq	r0, r3, r0
    1398:	0c9f3070 	ldceq	0, cr3, [pc], {112}	; 0x70
    139c:	14000000 	strne	r0, [r0], #-0
    13a0:	04000000 	streq	r0, [r0], #-0
    13a4:	5001f300 	andpl	pc, r1, r0, lsl #6
    13a8:	0000009f 	muleq	r0, pc, r0	; <UNPREDICTABLE>
	...
    13b4:	00022400 	andeq	r2, r2, r0, lsl #8
    13b8:	00026800 	andeq	r6, r2, r0, lsl #16
    13bc:	50000100 	andpl	r0, r0, r0, lsl #2
    13c0:	00000268 	andeq	r0, r0, r8, ror #4
    13c4:	00000288 	andeq	r0, r0, r8, lsl #5
    13c8:	01f30004 	mvnseq	r0, r4
    13cc:	00009f50 	andeq	r9, r0, r0, asr pc
	...
    13d8:	02240000 	eoreq	r0, r4, #0, 0
    13dc:	02640000 	rsbeq	r0, r4, #0, 0
    13e0:	00010000 	andeq	r0, r1, r0
    13e4:	00026451 	andeq	r6, r2, r1, asr r4
    13e8:	00028800 	andeq	r8, r2, r0, lsl #16
    13ec:	f3000400 	vshl.u8	d0, d0, d0
    13f0:	009f5101 	addseq	r5, pc, r1, lsl #2
	...
    13fc:	00000101 	andeq	r0, r0, r1, lsl #2
    1400:	00000c00 	andeq	r0, r0, r0, lsl #24
    1404:	00001400 	andeq	r1, r0, r0, lsl #8
    1408:	53000100 	movwpl	r0, #256	; 0x100
    140c:	00000014 	andeq	r0, r0, r4, lsl r0
    1410:	0000001c 	andeq	r0, r0, ip, lsl r0
    1414:	04730003 	ldrbteq	r0, [r3], #-3
    1418:	00001c9f 	muleq	r0, pc, ip	; <UNPREDICTABLE>
    141c:	00002300 	andeq	r2, r0, r0, lsl #6
    1420:	53000100 	movwpl	r0, #256	; 0x100
	...
    142c:	954c0001 	strbls	r0, [ip, #-1]
    1430:	95680000 	strbls	r0, [r8, #-0]!
    1434:	00060000 	andeq	r0, r6, r0
    1438:	10001c0c 	andne	r1, r0, ip, lsl #24
    143c:	00009f20 	andeq	r9, r0, r0, lsr #30
    1440:	00000000 	andeq	r0, r0, r0
    1444:	00020000 	andeq	r0, r2, r0
    1448:	0000954c 	andeq	r9, r0, ip, asr #10
    144c:	00009568 	andeq	r9, r0, r8, ror #10
    1450:	240c0006 	strcs	r0, [ip], #-6
    1454:	9f201000 	svcls	0x00201000
	...
    1460:	954c0003 	strbls	r0, [ip, #-3]
    1464:	95680000 	strbls	r0, [r8, #-0]!
    1468:	00050000 	andeq	r0, r5, r0
    146c:	2447b408 	strbcs	fp, [r7], #-1032	; 0xfffffbf8
    1470:	0000009f 	muleq	r0, pc, r0	; <UNPREDICTABLE>
    1474:	00000000 	andeq	r0, r0, r0
    1478:	4c000400 	cfstrsmi	mvf0, [r0], {-0}
    147c:	68000095 	stmdavs	r0, {r0, r2, r4, r7}
    1480:	03000095 	movweq	r0, #149	; 0x95
    1484:	9f200800 	svcls	0x00200800
	...
    1490:	00000002 	andeq	r0, r0, r2
    1494:	95180000 	ldrls	r0, [r8, #-0]
    1498:	951c0000 	ldrls	r0, [ip, #-0]
    149c:	00020000 	andeq	r0, r2, r0
    14a0:	951c9f30 	ldrls	r9, [ip, #-3888]	; 0xfffff0d0
    14a4:	95200000 	strls	r0, [r0, #-0]!
    14a8:	00010000 	andeq	r0, r1, r0
    14ac:	00952453 	addseq	r2, r5, r3, asr r4
    14b0:	00952c00 	addseq	r2, r5, r0, lsl #24
    14b4:	53000100 	movwpl	r0, #256	; 0x100
	...
    14c0:	00000002 	andeq	r0, r0, r2
    14c4:	00009500 	andeq	r9, r0, r0, lsl #10
    14c8:	00009504 	andeq	r9, r0, r4, lsl #10
    14cc:	9f300002 	svcls	0x00300002
    14d0:	00009504 	andeq	r9, r0, r4, lsl #10
    14d4:	00009508 	andeq	r9, r0, r8, lsl #10
    14d8:	00500001 	subseq	r0, r0, r1
	...
    14e4:	6c000000 	stcvs	0, cr0, [r0], {-0}
    14e8:	78000000 	stmdavc	r0, {}	; <UNPREDICTABLE>
    14ec:	01000000 	mrseq	r0, (UNDEF: 0)
    14f0:	00785000 	rsbseq	r5, r8, r0
    14f4:	00840000 	addeq	r0, r4, r0
    14f8:	00040000 	andeq	r0, r4, r0
    14fc:	9f5001f3 	svcls	0x005001f3
	...
    150c:	00000054 	andeq	r0, r0, r4, asr r0
    1510:	00000060 	andeq	r0, r0, r0, rrx
    1514:	60500001 	subsvs	r0, r0, r1
    1518:	6c000000 	stcvs	0, cr0, [r0], {-0}
    151c:	04000000 	streq	r0, [r0], #-0
    1520:	5001f300 	andpl	pc, r1, r0, lsl #6
    1524:	0000009f 	muleq	r0, pc, r0	; <UNPREDICTABLE>
	...
    1530:	00003000 	andeq	r3, r0, r0
    1534:	00003b00 	andeq	r3, r0, r0, lsl #22
    1538:	50000100 	andpl	r0, r0, r0, lsl #2
    153c:	0000003b 	andeq	r0, r0, fp, lsr r0
    1540:	00000054 	andeq	r0, r0, r4, asr r0
    1544:	00550001 	subseq	r0, r5, r1
	...
    1550:	00004000 	andeq	r4, r0, r0
    1554:	00005400 	andeq	r5, r0, r0, lsl #8
    1558:	54000100 	strpl	r0, [r0], #-256	; 0xffffff00
	...
    1564:	00440000 	subeq	r0, r4, r0
    1568:	00480000 	subeq	r0, r8, r0
    156c:	00010000 	andeq	r0, r1, r0
    1570:	00000050 	andeq	r0, r0, r0, asr r0
	...
    157c:	00002400 	andeq	r2, r0, r0, lsl #8
    1580:	00002700 	andeq	r2, r0, r0, lsl #14
    1584:	50000100 	andpl	r0, r0, r0, lsl #2
    1588:	00000027 	andeq	r0, r0, r7, lsr #32
    158c:	00000030 	andeq	r0, r0, r0, lsr r0
    1590:	00540001 	subseq	r0, r4, r1
	...
    159c:	58000000 	stmdapl	r0, {}	; <UNPREDICTABLE>
    15a0:	63000001 	movwvs	r0, #1
    15a4:	01000001 	tsteq	r0, r1
    15a8:	01635000 	cmneq	r3, r0
    15ac:	01880000 	orreq	r0, r8, r0
    15b0:	00010000 	andeq	r0, r1, r0
    15b4:	00000054 	andeq	r0, r0, r4, asr r0
    15b8:	00000000 	andeq	r0, r0, r0
    15bc:	48000000 	stmdami	r0, {}	; <UNPREDICTABLE>
    15c0:	58000001 	stmdapl	r0, {r0}
    15c4:	01000001 	tsteq	r0, r1
    15c8:	00005400 	andeq	r5, r0, r0, lsl #8
	...
    15d8:	000f0000 	andeq	r0, pc, r0
    15dc:	00010000 	andeq	r0, r1, r0
    15e0:	00000f50 	andeq	r0, r0, r0, asr pc
    15e4:	00002000 	andeq	r2, r0, r0
    15e8:	54000100 	strpl	r0, [r0], #-256	; 0xffffff00
	...
    15fc:	0000000f 	andeq	r0, r0, pc
    1600:	0f510001 	svceq	0x00510001
    1604:	20000000 	andcs	r0, r0, r0
    1608:	01000000 	mrseq	r0, (UNDEF: 0)
    160c:	00005500 	andeq	r5, r0, r0, lsl #10
	...
    1618:	00200000 	eoreq	r0, r0, r0
    161c:	002f0000 	eoreq	r0, pc, r0
    1620:	00010000 	andeq	r0, r1, r0
    1624:	00002f50 	andeq	r2, r0, r0, asr pc
    1628:	00004000 	andeq	r4, r0, r0
    162c:	54000100 	strpl	r0, [r0], #-256	; 0xffffff00
	...
    163c:	00000020 	andeq	r0, r0, r0, lsr #32
    1640:	0000002f 	andeq	r0, r0, pc, lsr #32
    1644:	2f510001 	svccs	0x00510001
    1648:	40000000 	andmi	r0, r0, r0
    164c:	01000000 	mrseq	r0, (UNDEF: 0)
    1650:	00005500 	andeq	r5, r0, r0, lsl #10
	...
    1660:	00000350 	andeq	r0, r0, r0, asr r3
    1664:	00000398 	muleq	r0, r8, r3
    1668:	98500001 	ldmdals	r0, {r0}^
    166c:	9b000003 	blls	1680 <__code_start__-0x6980>
    1670:	02000003 	andeq	r0, r0, #3, 0
    1674:	9b689100 	blls	1a25a7c <__bss_end__+0x1a1b014>
    1678:	b0000003 	andlt	r0, r0, r3
    167c:	04000003 	streq	r0, [r0], #-3
    1680:	5001f300 	andpl	pc, r1, r0, lsl #6
    1684:	0000009f 	muleq	r0, pc, r0	; <UNPREDICTABLE>
	...
    16a0:	00022000 	andeq	r2, r2, r0
    16a4:	00027b00 	andeq	r7, r2, r0, lsl #22
    16a8:	50000100 	andpl	r0, r0, r0, lsl #2
    16ac:	0000027b 	andeq	r0, r0, fp, ror r2
    16b0:	00000284 	andeq	r0, r0, r4, lsl #5
    16b4:	01f30004 	mvnseq	r0, r4
    16b8:	02849f50 	addeq	r9, r4, #80, 30	; 0x140
    16bc:	029c0000 	addseq	r0, ip, #0, 0
    16c0:	00010000 	andeq	r0, r1, r0
    16c4:	00029c50 	andeq	r9, r2, r0, asr ip
    16c8:	0002a400 	andeq	sl, r2, r0, lsl #8
    16cc:	f3000400 	vshl.u8	d0, d0, d0
    16d0:	a49f5001 	ldrge	r5, [pc], #1	; 16d8 <__code_start__-0x6928>
    16d4:	a7000002 	strge	r0, [r0, -r2]
    16d8:	01000002 	tsteq	r0, r2
    16dc:	02a75000 	adceq	r5, r7, #0, 0
    16e0:	02c80000 	sbceq	r0, r8, #0, 0
    16e4:	00040000 	andeq	r0, r4, r0
    16e8:	9f5001f3 	svcls	0x005001f3
    16ec:	000002c8 	andeq	r0, r0, r8, asr #5
    16f0:	000002e0 	andeq	r0, r0, r0, ror #5
    16f4:	e0500001 	subs	r0, r0, r1
    16f8:	e8000002 	stmda	r0, {r1}
    16fc:	04000002 	streq	r0, [r0], #-2
    1700:	5001f300 	andpl	pc, r1, r0, lsl #6
    1704:	0002e89f 	muleq	r2, pc, r8	; <UNPREDICTABLE>
    1708:	0002eb00 	andeq	lr, r2, r0, lsl #22
    170c:	50000100 	andpl	r0, r0, r0, lsl #2
    1710:	000002eb 	andeq	r0, r0, fp, ror #5
    1714:	00000338 	andeq	r0, r0, r8, lsr r3
    1718:	01f30004 	mvnseq	r0, r4
    171c:	00009f50 	andeq	r9, r0, r0, asr pc
	...
    1738:	02200000 	eoreq	r0, r0, #0, 0
    173c:	02440000 	subeq	r0, r4, #0, 0
    1740:	00010000 	andeq	r0, r1, r0
    1744:	00024451 	andeq	r4, r2, r1, asr r4
    1748:	00026800 	andeq	r6, r2, r0, lsl #16
    174c:	51000100 	mrspl	r0, (UNDEF: 16)
    1750:	00000268 	andeq	r0, r0, r8, ror #4
    1754:	0000027b 	andeq	r0, r0, fp, ror r2
    1758:	01710003 	cmneq	r1, r3
    175c:	00027b9f 	muleq	r2, pc, fp	; <UNPREDICTABLE>
    1760:	00028400 	andeq	r8, r2, r0, lsl #8
    1764:	38001700 	stmdacc	r0, {r8, r9, sl, ip}
    1768:	f35101f3 	vbsl	q8, <illegal reg q8.5>, <illegal reg q9.5>
    176c:	4b405101 	blmi	1015b78 <__bss_end__+0x100b110>
    1770:	080c2224 	stmdaeq	ip, {r2, r5, r9, sp}
    1774:	2d800000 	stccs	0, cr0, [r0]
    1778:	16000128 	strne	r0, [r0], -r8, lsr #2
    177c:	02849f13 	addeq	r9, r4, #76	; 0x4c
    1780:	02980000 	addseq	r0, r8, #0, 0
    1784:	00010000 	andeq	r0, r1, r0
    1788:	00029851 	andeq	r9, r2, r1, asr r8
    178c:	0002a400 	andeq	sl, r2, r0, lsl #8
    1790:	f3000400 	vshl.u8	d0, d0, d0
    1794:	a49f5101 	ldrge	r5, [pc], #257	; 179c <__code_start__-0x6864>
    1798:	a7000002 	strge	r0, [r0, -r2]
    179c:	01000002 	tsteq	r0, r2
    17a0:	02a75100 	adceq	r5, r7, #0
    17a4:	02c80000 	sbceq	r0, r8, #0, 0
    17a8:	00040000 	andeq	r0, r4, r0
    17ac:	9f5101f3 	svcls	0x005101f3
    17b0:	000002c8 	andeq	r0, r0, r8, asr #5
    17b4:	000002dc 	ldrdeq	r0, [r0], -ip
    17b8:	dc510001 	mrrcle	0, 0, r0, r1, cr1
    17bc:	38000002 	stmdacc	r0, {r1}
    17c0:	17000003 	strne	r0, [r0, -r3]
    17c4:	01f33800 	mvnseq	r3, r0, lsl #16
    17c8:	5101f351 	tstpl	r1, r1, asr r3	; <UNPREDICTABLE>
    17cc:	22244b40 	eorcs	r4, r4, #64, 22	; 0x10000
    17d0:	0000080c 	andeq	r0, r0, ip, lsl #16
    17d4:	01282d80 	smlawbeq	r8, r0, sp, r2
    17d8:	9f131600 	svcls	0x00131600
	...
    17f0:	0000024c 	andeq	r0, r0, ip, asr #4
    17f4:	0000025c 	andeq	r0, r0, ip, asr r2
    17f8:	5c520001 	mrrcpl	0, 0, r0, r2, cr1
    17fc:	64000002 	strvs	r0, [r0], #-2
    1800:	05000002 	streq	r0, [r0, #-2]
    1804:	a62c0300 	strtge	r0, [ip], -r0, lsl #6
    1808:	02640000 	rsbeq	r0, r4, #0, 0
    180c:	027b0000 	rsbseq	r0, fp, #0, 0
    1810:	00010000 	andeq	r0, r1, r0
    1814:	0002c853 	andeq	ip, r2, r3, asr r8
    1818:	0002d800 	andeq	sp, r2, r0, lsl #16
    181c:	52000100 	andpl	r0, r0, #0
    1820:	000002d8 	ldrdeq	r0, [r0], -r8
    1824:	000002e3 	andeq	r0, r0, r3, ror #5
    1828:	2c030005 	stccs	0, cr0, [r3], {5}
    182c:	e80000a6 	stmda	r0, {r1, r2, r5, r7}
    1830:	eb000002 	bl	1840 <__code_start__-0x67c0>
    1834:	01000002 	tsteq	r0, r2
    1838:	00005300 	andeq	r5, r0, r0, lsl #6
    183c:	00000000 	andeq	r0, r0, r0
    1840:	00040000 	andeq	r0, r4, r0
    1844:	00000230 	andeq	r0, r0, r0, lsr r2
    1848:	00000234 	andeq	r0, r0, r4, lsr r2
    184c:	00510001 	subseq	r0, r1, r1
    1850:	00000000 	andeq	r0, r0, r0
    1854:	02000000 	andeq	r0, r0, #0, 0
    1858:	00023c00 	andeq	r3, r2, r0, lsl #24
    185c:	00024400 	andeq	r4, r2, r0, lsl #8
    1860:	38000200 	stmdacc	r0, {r9}
    1864:	0000009f 	muleq	r0, pc, r0	; <UNPREDICTABLE>
    1868:	00000000 	andeq	r0, r0, r0
    186c:	3c000200 	sfmcc	f0, 4, [r0], {-0}
    1870:	44000002 	strmi	r0, [r0], #-2
    1874:	01000002 	tsteq	r0, r2
    1878:	00005100 	andeq	r5, r0, r0, lsl #2
    187c:	00000000 	andeq	r0, r0, r0
    1880:	00010000 	andeq	r0, r1, r0
    1884:	00000000 	andeq	r0, r0, r0
    1888:	0000024c 	andeq	r0, r0, ip, asr #4
    188c:	00000264 	andeq	r0, r0, r4, ror #4
    1890:	c8510001 	ldmdagt	r1, {r0}^
    1894:	dc000002 	stcle	0, cr0, [r0], {2}
    1898:	01000002 	tsteq	r0, r2
    189c:	02dc5100 	sbcseq	r5, ip, #0
    18a0:	02e80000 	rsceq	r0, r8, #0, 0
    18a4:	00170000 	andseq	r0, r7, r0
    18a8:	5101f338 	tstpl	r1, r8, lsr r3	; <UNPREDICTABLE>
    18ac:	405101f3 	ldrshmi	r0, [r1], #-19	; 0xffffffed
    18b0:	0c22244b 	cfstrseq	mvf2, [r2], #-300	; 0xfffffed4
    18b4:	80000008 	andhi	r0, r0, r8
    18b8:	0001282d 	andeq	r2, r1, sp, lsr #16
    18bc:	009f1316 	addseq	r1, pc, r6, lsl r3	; <UNPREDICTABLE>
    18c0:	00000000 	andeq	r0, r0, r0
    18c4:	01000000 	mrseq	r0, (UNDEF: 0)
    18c8:	00000000 	andeq	r0, r0, r0
    18cc:	4c000000 	stcmi	0, cr0, [r0], {-0}
    18d0:	5c000002 	stcpl	0, cr0, [r0], {2}
    18d4:	01000002 	tsteq	r0, r2
    18d8:	025c5200 	subseq	r5, ip, #0, 4
    18dc:	02640000 	rsbeq	r0, r4, #0, 0
    18e0:	00050000 	andeq	r0, r5, r0
    18e4:	00a62c03 	adceq	r2, r6, r3, lsl #24
    18e8:	0002c800 	andeq	ip, r2, r0, lsl #16
    18ec:	0002d800 	andeq	sp, r2, r0, lsl #16
    18f0:	52000100 	andpl	r0, r0, #0
    18f4:	000002d8 	ldrdeq	r0, [r0], -r8
    18f8:	000002e3 	andeq	r0, r0, r3, ror #5
    18fc:	2c030005 	stccs	0, cr0, [r3], {5}
    1900:	000000a6 	andeq	r0, r0, r6, lsr #1
    1904:	00000000 	andeq	r0, r0, r0
    1908:	04000000 	streq	r0, [r0], #-0
    190c:	00024c00 	andeq	r4, r2, r0, lsl #24
    1910:	00025000 	andeq	r5, r2, r0
    1914:	51000100 	mrspl	r0, (UNDEF: 16)
	...
    1920:	02640003 	rsbeq	r0, r4, #3, 0
    1924:	02680000 	rsbeq	r0, r8, #0, 0
    1928:	00010000 	andeq	r0, r1, r0
    192c:	00000051 	andeq	r0, r0, r1, asr r0
    1930:	00000000 	andeq	r0, r0, r0
    1934:	64000300 	strvs	r0, [r0], #-768	; 0xfffffd00
    1938:	68000002 	stmdavs	r0, {r1}
    193c:	01000002 	tsteq	r0, r2
    1940:	00005300 	andeq	r5, r0, r0, lsl #6
	...
    1950:	01bc0000 			; <UNDEFINED> instruction: 0x01bc0000
    1954:	01d30000 	bicseq	r0, r3, r0
    1958:	00010000 	andeq	r0, r1, r0
    195c:	0001d350 	andeq	sp, r1, r0, asr r3
    1960:	0001f000 	andeq	pc, r1, r0
    1964:	54000100 	strpl	r0, [r0], #-256	; 0xffffff00
    1968:	000001f0 	strdeq	r0, [r0], -r0	; <UNPREDICTABLE>
    196c:	00000208 	andeq	r0, r0, r8, lsl #4
    1970:	08500001 	ldmdaeq	r0, {r0}^
    1974:	20000002 	andcs	r0, r0, r2
    1978:	01000002 	tsteq	r0, r2
    197c:	00005400 	andeq	r5, r0, r0, lsl #8
	...
    1988:	01d80000 	bicseq	r0, r8, r0
    198c:	01e30000 	mvneq	r0, r0
    1990:	00010000 	andeq	r0, r1, r0
    1994:	0001e350 	andeq	lr, r1, r0, asr r3
    1998:	0001f000 	andeq	pc, r1, r0
    199c:	55000100 	strpl	r0, [r0, #-256]	; 0xffffff00
	...
    19b8:	00000124 	andeq	r0, r0, r4, lsr #2
    19bc:	00000138 	andeq	r0, r0, r8, lsr r1
    19c0:	38500001 	ldmdacc	r0, {r0}^
    19c4:	3c000001 	stccc	0, cr0, [r0], {1}
    19c8:	03000001 	movweq	r0, #1
    19cc:	9f797000 	svcls	0x00797000
    19d0:	0000013c 	andeq	r0, r0, ip, lsr r1
    19d4:	00000160 	andeq	r0, r0, r0, ror #2
    19d8:	60530001 	subsvs	r0, r3, r1
    19dc:	78000001 	stmdavc	r0, {r0}
    19e0:	01000001 	tsteq	r0, r1
    19e4:	01785000 	cmneq	r8, r0
    19e8:	01800000 	orreq	r0, r0, r0
    19ec:	00040000 	andeq	r0, r4, r0
    19f0:	9f5001f3 	svcls	0x005001f3
    19f4:	00000180 	andeq	r0, r0, r0, lsl #3
    19f8:	00000190 	muleq	r0, r0, r1
    19fc:	90530001 	subsls	r0, r3, r1
    1a00:	9f000001 	svcls	0x00000001
    1a04:	02000001 	andeq	r0, r0, #1, 0
    1a08:	9f689100 	svcls	0x00689100
    1a0c:	bc000001 	stclt	0, cr0, [r0], {1}
    1a10:	09000001 	stmdbeq	r0, {r0}
    1a14:	5001f300 	andpl	pc, r1, r0, lsl #6
    1a18:	f8090723 			; <UNDEFINED> instruction: 0xf8090723
    1a1c:	00009f1a 	andeq	r9, r0, sl, lsl pc
	...
    1a2c:	00000144 	andeq	r0, r0, r4, asr #2
    1a30:	00000160 	andeq	r0, r0, r0, ror #2
    1a34:	80500001 	subshi	r0, r0, r1
    1a38:	9c000001 	stcls	0, cr0, [r0], {1}
    1a3c:	01000001 	tsteq	r0, r1
    1a40:	019c5000 	orrseq	r5, ip, r0
    1a44:	019f0000 	orrseq	r0, pc, r0
    1a48:	00050000 	andeq	r0, r5, r0
    1a4c:	00a62c03 	adceq	r2, r6, r3, lsl #24
	...
    1a58:	34000300 	strcc	r0, [r0], #-768	; 0xfffffd00
    1a5c:	3c000001 	stccc	0, cr0, [r0], {1}
    1a60:	02000001 	andeq	r0, r0, #1, 0
    1a64:	009f3800 	addseq	r3, pc, r0, lsl #16
    1a68:	00000000 	andeq	r0, r0, r0
    1a6c:	03000000 	movweq	r0, #0
    1a70:	34000000 	strcc	r0, [r0], #-0
    1a74:	38000001 	stmdacc	r0, {r0}
    1a78:	01000001 	tsteq	r0, r1
    1a7c:	01385000 	teqeq	r8, r0
    1a80:	013c0000 	teqeq	ip, r0
    1a84:	00030000 	andeq	r0, r3, r0
    1a88:	009f7970 	addseq	r7, pc, r0, ror r9	; <UNPREDICTABLE>
	...
    1aa0:	00003000 	andeq	r3, r0, r0
    1aa4:	00006000 	andeq	r6, r0, r0
    1aa8:	50000100 	andpl	r0, r0, r0, lsl #2
    1aac:	00000060 	andeq	r0, r0, r0, rrx
    1ab0:	0000006c 	andeq	r0, r0, ip, rrx
    1ab4:	2c030005 	stccs	0, cr0, [r3], {5}
    1ab8:	6c0000a6 	stcvs	0, cr0, [r0], {166}	; 0xa6
    1abc:	84000000 	strhi	r0, [r0], #-0
    1ac0:	01000000 	mrseq	r0, (UNDEF: 0)
    1ac4:	00845000 	addeq	r5, r4, r0
    1ac8:	008c0000 	addeq	r0, ip, r0
    1acc:	00040000 	andeq	r0, r4, r0
    1ad0:	9f5001f3 	svcls	0x005001f3
    1ad4:	0000008c 	andeq	r0, r0, ip, lsl #1
    1ad8:	000000ac 	andeq	r0, r0, ip, lsr #1
    1adc:	ac500001 	mrrcge	0, 0, r0, r0, cr1	; <UNPREDICTABLE>
    1ae0:	af000000 	svcge	0x00000000
    1ae4:	02000000 	andeq	r0, r0, #0, 0
    1ae8:	af689100 	svcge	0x00689100
    1aec:	cc000000 	stcgt	0, cr0, [r0], {-0}
    1af0:	04000000 	streq	r0, [r0], #-0
    1af4:	5001f300 	andpl	pc, r1, r0, lsl #6
    1af8:	0000009f 	muleq	r0, pc, r0	; <UNPREDICTABLE>
	...
    1b08:	00003000 	andeq	r3, r0, r0
    1b0c:	00008000 	andeq	r8, r0, r0
    1b10:	51000100 	mrspl	r0, (UNDEF: 16)
    1b14:	00000080 	andeq	r0, r0, r0, lsl #1
    1b18:	0000008c 	andeq	r0, r0, ip, lsl #1
    1b1c:	01f30004 	mvnseq	r0, r4
    1b20:	008c9f51 	addeq	r9, ip, r1, asr pc
    1b24:	00a80000 	adceq	r0, r8, r0
    1b28:	00010000 	andeq	r0, r1, r0
    1b2c:	0000a851 	andeq	sl, r0, r1, asr r8
    1b30:	0000cc00 	andeq	ip, r0, r0, lsl #24
    1b34:	f3000400 	vshl.u8	d0, d0, d0
    1b38:	009f5101 	addseq	r5, pc, r1, lsl #2
    1b3c:	00000000 	andeq	r0, r0, r0
    1b40:	01000000 	mrseq	r0, (UNDEF: 0)
	...
    1b50:	00003800 	andeq	r3, r0, r0, lsl #16
    1b54:	00006000 	andeq	r6, r0, r0
    1b58:	50000100 	andpl	r0, r0, r0, lsl #2
    1b5c:	00000060 	andeq	r0, r0, r0, rrx
    1b60:	0000006c 	andeq	r0, r0, ip, rrx
    1b64:	2c030005 	stccs	0, cr0, [r3], {5}
    1b68:	6c0000a6 	stcvs	0, cr0, [r0], {166}	; 0xa6
    1b6c:	84000000 	strhi	r0, [r0], #-0
    1b70:	01000000 	mrseq	r0, (UNDEF: 0)
    1b74:	00845000 	addeq	r5, r4, r0
    1b78:	008c0000 	addeq	r0, ip, r0
    1b7c:	00040000 	andeq	r0, r4, r0
    1b80:	9f5001f3 	svcls	0x005001f3
    1b84:	0000008c 	andeq	r0, r0, ip, lsl #1
    1b88:	000000ac 	andeq	r0, r0, ip, lsr #1
    1b8c:	ac500001 	mrrcge	0, 0, r0, r0, cr1	; <UNPREDICTABLE>
    1b90:	af000000 	svcge	0x00000000
    1b94:	02000000 	andeq	r0, r0, #0, 0
    1b98:	af689100 	svcge	0x00689100
    1b9c:	cc000000 	stcgt	0, cr0, [r0], {-0}
    1ba0:	04000000 	streq	r0, [r0], #-0
    1ba4:	5001f300 	andpl	pc, r1, r0, lsl #6
    1ba8:	0000009f 	muleq	r0, pc, r0	; <UNPREDICTABLE>
	...
    1bb8:	00000b00 	andeq	r0, r0, r0, lsl #22
    1bbc:	50000100 	andpl	r0, r0, r0, lsl #2
    1bc0:	0000000b 	andeq	r0, r0, fp
    1bc4:	00000014 	andeq	r0, r0, r4, lsl r0
    1bc8:	00540001 	subseq	r0, r4, r1
	...
    1bd8:	1c000000 	stcne	0, cr0, [r0], {-0}
    1bdc:	01000000 	mrseq	r0, (UNDEF: 0)
    1be0:	001c5100 	andseq	r5, ip, r0, lsl #2
    1be4:	00340000 	eorseq	r0, r4, r0
    1be8:	00040000 	andeq	r0, r4, r0
    1bec:	9f5101f3 	svcls	0x005101f3
	...
    1bf8:	00000002 	andeq	r0, r0, r2
    1bfc:	00010100 	andeq	r0, r1, r0, lsl #2
    1c00:	00000000 	andeq	r0, r0, r0
    1c04:	00040000 	andeq	r0, r4, r0
    1c08:	00010000 	andeq	r0, r1, r0
    1c0c:	00000450 	andeq	r0, r0, r0, asr r4
    1c10:	00001c00 	andeq	r1, r0, r0, lsl #24
    1c14:	52000100 	andpl	r0, r0, #0
    1c18:	0000001c 	andeq	r0, r0, ip, lsl r0
    1c1c:	00000024 	andeq	r0, r0, r4, lsr #32
    1c20:	24530001 	ldrbcs	r0, [r3], #-1
    1c24:	28000000 	stmdacs	r0, {}	; <UNPREDICTABLE>
    1c28:	03000000 	movweq	r0, #0
    1c2c:	9f017300 	svcls	0x00017300
    1c30:	00000028 	andeq	r0, r0, r8, lsr #32
    1c34:	00000034 	andeq	r0, r0, r4, lsr r0
    1c38:	00530001 	subseq	r0, r3, r1
    1c3c:	00000000 	andeq	r0, r0, r0
    1c40:	03000000 	movweq	r0, #0
    1c44:	00000000 	andeq	r0, r0, r0
    1c48:	24000000 	strcs	r0, [r0], #-0
    1c4c:	01000000 	mrseq	r0, (UNDEF: 0)
    1c50:	00245100 	eoreq	r5, r4, r0, lsl #2
    1c54:	00340000 	eorseq	r0, r4, r0
    1c58:	00030000 	andeq	r0, r3, r0
    1c5c:	009f7f71 	addseq	r7, pc, r1, ror pc	; <UNPREDICTABLE>
	...
    1c68:	10000000 	andne	r0, r0, r0
    1c6c:	1c000000 	stcne	0, cr0, [r0], {-0}
    1c70:	01000000 	mrseq	r0, (UNDEF: 0)
    1c74:	00245c00 	eoreq	r5, r4, r0, lsl #24
    1c78:	00340000 	eorseq	r0, r4, r0
    1c7c:	00010000 	andeq	r0, r1, r0
    1c80:	00000052 	andeq	r0, r0, r2, asr r0
	...
    1c90:	00001800 	andeq	r1, r0, r0, lsl #16
    1c94:	50000100 	andpl	r0, r0, r0, lsl #2
    1c98:	00000018 	andeq	r0, r0, r8, lsl r0
    1c9c:	00000024 	andeq	r0, r0, r4, lsr #32
    1ca0:	00500001 	subseq	r0, r0, r1
	...
    1cb0:	1c000000 	stcne	0, cr0, [r0], {-0}
    1cb4:	01000000 	mrseq	r0, (UNDEF: 0)
    1cb8:	001c5100 	andseq	r5, ip, r0, lsl #2
    1cbc:	002c0000 	eoreq	r0, ip, r0
    1cc0:	00010000 	andeq	r0, r1, r0
    1cc4:	00000051 	andeq	r0, r0, r1, asr r0
	...
    1cd4:	04000000 	streq	r0, [r0], #-0
    1cd8:	01000000 	mrseq	r0, (UNDEF: 0)
    1cdc:	00045100 	andeq	r5, r4, r0, lsl #2
    1ce0:	000c0000 	andeq	r0, ip, r0
    1ce4:	00010000 	andeq	r0, r1, r0
    1ce8:	00000c51 	andeq	r0, r0, r1, asr ip
    1cec:	00002000 	andeq	r2, r0, r0
    1cf0:	71000300 	mrsvc	r0, LR_irq
    1cf4:	00009f7f 	andeq	r9, r0, pc, ror pc
    1cf8:	00000000 	andeq	r0, r0, r0
    1cfc:	00020000 	andeq	r0, r2, r0
	...
    1d08:	00000004 	andeq	r0, r0, r4
    1d0c:	04500001 	ldrbeq	r0, [r0], #-1
    1d10:	14000000 	strne	r0, [r0], #-0
    1d14:	01000000 	mrseq	r0, (UNDEF: 0)
    1d18:	00145c00 	andseq	r5, r4, r0, lsl #24
    1d1c:	00200000 	eoreq	r0, r0, r0
    1d20:	00030000 	andeq	r0, r3, r0
    1d24:	009f7f7c 	addseq	r7, pc, ip, ror pc	; <UNPREDICTABLE>
	...
    1d30:	60000303 	andvs	r0, r0, r3, lsl #6
    1d34:	6000009c 	mulvs	r0, ip, r0
    1d38:	0100009c 	swpeq	r0, ip, [r0]	; <UNPREDICTABLE>
    1d3c:	9c605000 	stclls	0, cr5, [r0], #-0
    1d40:	9c8c0000 	stcls	0, cr0, [ip], {0}
    1d44:	00040000 	andeq	r0, r4, r0
    1d48:	9f5001f3 	svcls	0x005001f3
	...
    1d54:	00030300 	andeq	r0, r3, r0, lsl #6
    1d58:	00009c60 	andeq	r9, r0, r0, ror #24
    1d5c:	00009c60 	andeq	r9, r0, r0, ror #24
    1d60:	60510001 	subsvs	r0, r1, r1
    1d64:	8c00009c 	stchi	0, cr0, [r0], {156}	; 0x9c
    1d68:	0400009c 	streq	r0, [r0], #-156	; 0xffffff64
    1d6c:	5101f300 	mrspl	pc, SP_irq	; <UNPREDICTABLE>
    1d70:	0000009f 	muleq	r0, pc, r0	; <UNPREDICTABLE>
    1d74:	00000000 	andeq	r0, r0, r0
    1d78:	03030000 	movweq	r0, #12288	; 0x3000
    1d7c:	60000000 	andvs	r0, r0, r0
    1d80:	6000009c 	mulvs	r0, ip, r0
    1d84:	0100009c 	swpeq	r0, ip, [r0]	; <UNPREDICTABLE>
    1d88:	9c605200 	sfmls	f5, 2, [r0], #-0
    1d8c:	9c680000 	stclls	0, cr0, [r8], #-0
    1d90:	00010000 	andeq	r0, r1, r0
    1d94:	009c6852 	addseq	r6, ip, r2, asr r8
    1d98:	009c8c00 	addseq	r8, ip, r0, lsl #24
    1d9c:	72000300 	andvc	r0, r0, #0, 6
    1da0:	00009f01 	andeq	r9, r0, r1, lsl #30
    1da4:	00000000 	andeq	r0, r0, r0
    1da8:	01020000 	mrseq	r0, (UNDEF: 2)
    1dac:	00000001 	andeq	r0, r0, r1
    1db0:	9c600000 	stclls	0, cr0, [r0], #-0
    1db4:	9c6c0000 	stclls	0, cr0, [ip], #-0
    1db8:	00010000 	andeq	r0, r1, r0
    1dbc:	009c6c50 	addseq	r6, ip, r0, asr ip
    1dc0:	009c7000 	addseq	r7, ip, r0
    1dc4:	70000300 	andvc	r0, r0, r0, lsl #6
    1dc8:	9c709f01 	ldclls	15, cr9, [r0], #-4
    1dcc:	9c800000 	stcls	0, cr0, [r0], {0}
    1dd0:	00010000 	andeq	r0, r1, r0
    1dd4:	009c8450 	addseq	r8, ip, r0, asr r4
    1dd8:	009c8800 	addseq	r8, ip, r0, lsl #16
    1ddc:	50000100 	andpl	r0, r0, r0, lsl #2
	...
    1de8:	00000002 	andeq	r0, r0, r2
    1dec:	9c600000 	stclls	0, cr0, [r0], #-0
    1df0:	9c700000 	ldclls	0, cr0, [r0], #-0
    1df4:	00010000 	andeq	r0, r1, r0
    1df8:	009c7051 	addseq	r7, ip, r1, asr r0
    1dfc:	009c7400 	addseq	r7, ip, r0, lsl #8
    1e00:	71000300 	mrsvc	r0, LR_irq
    1e04:	9c749f01 	ldclls	15, cr9, [r4], #-4
    1e08:	9c8c0000 	stcls	0, cr0, [ip], {0}
    1e0c:	00010000 	andeq	r0, r1, r0
    1e10:	00000051 	andeq	r0, r0, r1, asr r0
	...
    1e20:	0000e800 	andeq	lr, r0, r0, lsl #16
    1e24:	00010000 	andeq	r0, r1, r0
    1e28:	50000100 	andpl	r0, r0, r0, lsl #2
    1e2c:	00000100 	andeq	r0, r0, r0, lsl #2
    1e30:	00000110 	andeq	r0, r0, r0, lsl r1
    1e34:	01f30004 	mvnseq	r0, r4
    1e38:	01109f50 	tsteq	r0, r0, asr pc
    1e3c:	01140000 	tsteq	r4, r0
    1e40:	00010000 	andeq	r0, r1, r0
    1e44:	00011450 	andeq	r1, r1, r0, asr r4
    1e48:	00011c00 	andeq	r1, r1, r0, lsl #24
    1e4c:	f3000400 	vshl.u8	d0, d0, d0
    1e50:	009f5001 	addseq	r5, pc, r1
    1e54:	00000000 	andeq	r0, r0, r0
    1e58:	01000000 	mrseq	r0, (UNDEF: 0)
    1e5c:	00000000 	andeq	r0, r0, r0
    1e60:	0000f400 	andeq	pc, r0, r0, lsl #8
    1e64:	00010000 	andeq	r0, r1, r0
    1e68:	70000b00 	andvc	r0, r0, r0, lsl #22
    1e6c:	23253500 			; <UNDEFINED> instruction: 0x23253500
    1e70:	818080b4 	strhhi	r8, [r0, r4]
    1e74:	01009f02 	tsteq	r0, r2, lsl #30
    1e78:	01030000 	mrseq	r0, (UNDEF: 3)
    1e7c:	00010000 	andeq	r0, r1, r0
    1e80:	00010350 	andeq	r0, r1, r0, asr r3
    1e84:	00011000 	andeq	r1, r1, r0
    1e88:	f3000c00 			; <UNDEFINED> instruction: 0xf3000c00
    1e8c:	25355001 	ldrcs	r5, [r5, #-1]!
    1e90:	8080b423 	addhi	fp, r0, r3, lsr #8
    1e94:	009f0281 	addseq	r0, pc, r1, lsl #5
	...
    1ea0:	0000f800 	andeq	pc, r0, r0, lsl #16
    1ea4:	00011000 	andeq	r1, r1, r0
    1ea8:	54000100 	strpl	r0, [r0], #-256	; 0xffffff00
	...
    1ebc:	000000cc 	andeq	r0, r0, ip, asr #1
    1ec0:	000000db 	ldrdeq	r0, [r0], -fp
    1ec4:	db500001 	blle	1401ed0 <__bss_end__+0x13f7468>
    1ec8:	e0000000 	and	r0, r0, r0
    1ecc:	04000000 	streq	r0, [r0], #-0
    1ed0:	5001f300 	andpl	pc, r1, r0, lsl #6
    1ed4:	0000e09f 	muleq	r0, pc, r0	; <UNPREDICTABLE>
    1ed8:	0000e300 	andeq	lr, r0, r0, lsl #6
    1edc:	50000100 	andpl	r0, r0, r0, lsl #2
    1ee0:	000000e3 	andeq	r0, r0, r3, ror #1
    1ee4:	000000e8 	andeq	r0, r0, r8, ror #1
    1ee8:	01f30004 	mvnseq	r0, r4
    1eec:	00009f50 	andeq	r9, r0, r0, asr pc
	...
    1efc:	00cc0000 	sbceq	r0, ip, r0
    1f00:	00db0000 	sbcseq	r0, fp, r0
    1f04:	00010000 	andeq	r0, r1, r0
    1f08:	0000db51 	andeq	sp, r0, r1, asr fp
    1f0c:	0000e000 	andeq	lr, r0, r0
    1f10:	f3000400 	vshl.u8	d0, d0, d0
    1f14:	e09f5101 	adds	r5, pc, r1, lsl #2
    1f18:	e3000000 	movw	r0, #0
    1f1c:	01000000 	mrseq	r0, (UNDEF: 0)
    1f20:	00e35100 	rsceq	r5, r3, r0, lsl #2
    1f24:	00e80000 	rsceq	r0, r8, r0
    1f28:	00040000 	andeq	r0, r4, r0
    1f2c:	9f5101f3 	svcls	0x005101f3
	...
    1f3c:	000000bc 	strheq	r0, [r0], -ip
    1f40:	000000c7 	andeq	r0, r0, r7, asr #1
    1f44:	c7500001 	ldrbgt	r0, [r0, -r1]
    1f48:	cc000000 	stcgt	0, cr0, [r0], {-0}
    1f4c:	04000000 	streq	r0, [r0], #-0
    1f50:	5001f300 	andpl	pc, r1, r0, lsl #6
    1f54:	0000009f 	muleq	r0, pc, r0	; <UNPREDICTABLE>
	...
    1f60:	00009800 	andeq	r9, r0, r0, lsl #16
    1f64:	0000b000 	andeq	fp, r0, r0
    1f68:	50000100 	andpl	r0, r0, r0, lsl #2
    1f6c:	000000b0 	strheq	r0, [r0], -r0	; <UNPREDICTABLE>
    1f70:	000000bc 	strheq	r0, [r0], -ip
    1f74:	01f30004 	mvnseq	r0, r4
    1f78:	00009f50 	andeq	r9, r0, r0, asr pc
	...
    1f84:	00740000 	rsbseq	r0, r4, r0
    1f88:	008c0000 	addeq	r0, ip, r0
    1f8c:	00010000 	andeq	r0, r1, r0
    1f90:	00008c50 	andeq	r8, r0, r0, asr ip
    1f94:	00009800 	andeq	r9, r0, r0, lsl #16
    1f98:	f3000400 	vshl.u8	d0, d0, d0
    1f9c:	009f5001 	addseq	r5, pc, r1
	...
    1fa8:	64000000 	strvs	r0, [r0], #-0
    1fac:	6f000000 	svcvs	0x00000000
    1fb0:	01000000 	mrseq	r0, (UNDEF: 0)
    1fb4:	006f5000 	rsbeq	r5, pc, r0
    1fb8:	00740000 	rsbseq	r0, r4, r0
    1fbc:	00040000 	andeq	r0, r4, r0
    1fc0:	9f5001f3 	svcls	0x005001f3
	...
    1fd4:	00000038 	andeq	r0, r0, r8, lsr r0
    1fd8:	38500001 	ldmdacc	r0, {r0}^
    1fdc:	64000000 	strvs	r0, [r0], #-0
    1fe0:	04000000 	streq	r0, [r0], #-0
    1fe4:	5001f300 	andpl	pc, r1, r0, lsl #6
    1fe8:	0000009f 	muleq	r0, pc, r0	; <UNPREDICTABLE>
	...
    1ff8:	00004700 	andeq	r4, r0, r0, lsl #14
    1ffc:	51000100 	mrspl	r0, (UNDEF: 16)
    2000:	00000047 	andeq	r0, r0, r7, asr #32
    2004:	00000064 	andeq	r0, r0, r4, rrx
    2008:	01f30004 	mvnseq	r0, r4
    200c:	00009f51 	andeq	r9, r0, r1, asr pc
	...
    2018:	00000034 	andeq	r0, r0, r4, lsr r0
    201c:	00000064 	andeq	r0, r0, r4, rrx
    2020:	00540001 	subseq	r0, r4, r1
	...
    202c:	00004000 	andeq	r4, r0, r0
    2030:	00006400 	andeq	r6, r0, r0, lsl #8
    2034:	56000100 	strpl	r0, [r0], -r0, lsl #2
	...
    2040:	01000000 	mrseq	r0, (UNDEF: 0)
    2044:	00000001 	andeq	r0, r0, r1
    2048:	00000048 	andeq	r0, r0, r8, asr #32
    204c:	00000050 	andeq	r0, r0, r0, asr r0
    2050:	50500001 	subspl	r0, r0, r1
    2054:	50000000 	andpl	r0, r0, r0
    2058:	01000000 	mrseq	r0, (UNDEF: 0)
    205c:	00505100 	subseq	r5, r0, r0, lsl #2
    2060:	00540000 	subseq	r0, r4, r0
    2064:	00090000 	andeq	r0, r9, r0
    2068:	00740075 	rsbseq	r0, r4, r5, ror r0
    206c:	21007124 	tstcs	r0, r4, lsr #2
    2070:	0000549f 	muleq	r0, pc, r4	; <UNPREDICTABLE>
    2074:	00005b00 	andeq	r5, r0, r0, lsl #22
    2078:	51000100 	mrspl	r0, (UNDEF: 16)
	...

Disassembly of section .debug_aranges:

00000000 <.debug_aranges>:
   0:	0000001c 	andeq	r0, r0, ip, lsl r0
   4:	00000002 	andeq	r0, r0, r2
   8:	00040000 	andeq	r0, r4, r0
   c:	00000000 	andeq	r0, r0, r0
  10:	00008038 	andeq	r8, r0, r8, lsr r0
  14:	000000d4 	ldrdeq	r0, [r0], -r4
	...
  20:	0000001c 	andeq	r0, r0, ip, lsl r0
  24:	04510002 	ldrbeq	r0, [r1], #-2
  28:	00040000 	andeq	r0, r4, r0
  2c:	00000000 	andeq	r0, r0, r0
  30:	0000810c 	andeq	r8, r0, ip, lsl #2
  34:	00000418 	andeq	r0, r0, r8, lsl r4
	...
  40:	0000001c 	andeq	r0, r0, ip, lsl r0
  44:	0dd80002 	ldcleq	0, cr0, [r8, #8]
  48:	00040000 	andeq	r0, r4, r0
  4c:	00000000 	andeq	r0, r0, r0
  50:	00008524 	andeq	r8, r0, r4, lsr #10
  54:	0000059c 	muleq	r0, ip, r5
	...
  60:	0000001c 	andeq	r0, r0, ip, lsl r0
  64:	1a110002 	bne	440074 <__bss_end__+0x43560c>
  68:	00040000 	andeq	r0, r4, r0
  6c:	00000000 	andeq	r0, r0, r0
  70:	00008b04 	andeq	r8, r0, r4, lsl #22
  74:	000001ac 	andeq	r0, r0, ip, lsr #3
	...
  80:	0000001c 	andeq	r0, r0, ip, lsl r0
  84:	1cef0002 	stclne	0, cr0, [pc], #8	; 94 <__code_start__-0x7f6c>
  88:	00040000 	andeq	r0, r4, r0
  8c:	00000000 	andeq	r0, r0, r0
  90:	00008cb0 			; <UNDEFINED> instruction: 0x00008cb0
  94:	00000018 	andeq	r0, r0, r8, lsl r0
	...
  a0:	0000001c 	andeq	r0, r0, ip, lsl r0
  a4:	1e2d0002 	cdpne	0, 2, cr0, cr13, cr2, {0}
  a8:	00040000 	andeq	r0, r4, r0
  ac:	00000000 	andeq	r0, r0, r0
  b0:	00008cc8 	andeq	r8, r0, r8, asr #25
  b4:	00000058 	andeq	r0, r0, r8, asr r0
	...
  c0:	0000001c 	andeq	r0, r0, ip, lsl r0
  c4:	1fce0002 	svcne	0x00ce0002
  c8:	00040000 	andeq	r0, r4, r0
  cc:	00000000 	andeq	r0, r0, r0
  d0:	00008d20 	andeq	r8, r0, r0, lsr #26
  d4:	00000034 	andeq	r0, r0, r4, lsr r0
	...
  e0:	0000001c 	andeq	r0, r0, ip, lsl r0
  e4:	20c50002 	sbccs	r0, r5, r2
  e8:	00040000 	andeq	r0, r4, r0
  ec:	00000000 	andeq	r0, r0, r0
  f0:	00008d54 	andeq	r8, r0, r4, asr sp
  f4:	00000740 	andeq	r0, r0, r0, asr #14
	...
 100:	0000001c 	andeq	r0, r0, ip, lsl r0
 104:	2ba00002 	blcs	fe800114 <__bss_end__+0xfe7f56ac>
 108:	00040000 	andeq	r0, r4, r0
 10c:	00000000 	andeq	r0, r0, r0
 110:	00009494 	muleq	r0, r4, r4
 114:	0000002c 	andeq	r0, r0, ip, lsr #32
	...
 120:	0000001c 	andeq	r0, r0, ip, lsl r0
 124:	2cd30002 	ldclcs	0, cr0, [r3], {2}
 128:	00040000 	andeq	r0, r4, r0
 12c:	00000000 	andeq	r0, r0, r0
 130:	000094c0 	andeq	r9, r0, r0, asr #9
 134:	0000003c 	andeq	r0, r0, ip, lsr r0
	...
 140:	0000001c 	andeq	r0, r0, ip, lsl r0
 144:	2e600002 	cdpcs	0, 6, cr0, cr0, cr2, {0}
 148:	00040000 	andeq	r0, r4, r0
 14c:	00000000 	andeq	r0, r0, r0
 150:	000094fc 	strdeq	r9, [r0], -ip
 154:	00000004 	andeq	r0, r0, r4
	...
 160:	0000001c 	andeq	r0, r0, ip, lsl r0
 164:	2f320002 	svccs	0x00320002
 168:	00040000 	andeq	r0, r4, r0
 16c:	00000000 	andeq	r0, r0, r0
 170:	00009500 	andeq	r9, r0, r0, lsl #10
 174:	00000080 	andeq	r0, r0, r0, lsl #1
	...
 180:	0000001c 	andeq	r0, r0, ip, lsl r0
 184:	316c0002 	cmncc	ip, r2
 188:	00040000 	andeq	r0, r4, r0
 18c:	00000000 	andeq	r0, r0, r0
 190:	00009580 	andeq	r9, r0, r0, lsl #11
 194:	00000084 	andeq	r0, r0, r4, lsl #1
	...
 1a0:	0000001c 	andeq	r0, r0, ip, lsl r0
 1a4:	33bd0002 			; <UNDEFINED> instruction: 0x33bd0002
 1a8:	00040000 	andeq	r0, r4, r0
 1ac:	00000000 	andeq	r0, r0, r0
 1b0:	00009604 	andeq	r9, r0, r4, lsl #12
 1b4:	000001f0 	strdeq	r0, [r0], -r0	; <UNPREDICTABLE>
	...
 1c0:	0000001c 	andeq	r0, r0, ip, lsl r0
 1c4:	398e0002 	stmibcc	lr, {r1}
 1c8:	00040000 	andeq	r0, r4, r0
 1cc:	00000000 	andeq	r0, r0, r0
 1d0:	000097f4 	strdeq	r9, [r0], -r4
 1d4:	000003b0 			; <UNDEFINED> instruction: 0x000003b0
	...
 1e0:	0000001c 	andeq	r0, r0, ip, lsl r0
 1e4:	427b0002 	rsbsmi	r0, fp, #2, 0
 1e8:	00040000 	andeq	r0, r4, r0
 1ec:	00000000 	andeq	r0, r0, r0
 1f0:	00009ba4 	andeq	r9, r0, r4, lsr #23
 1f4:	0000003c 	andeq	r0, r0, ip, lsr r0
	...
 200:	0000001c 	andeq	r0, r0, ip, lsl r0
 204:	43c80002 	bicmi	r0, r8, #2, 0
 208:	00040000 	andeq	r0, r4, r0
 20c:	00000000 	andeq	r0, r0, r0
 210:	00009be0 	andeq	r9, r0, r0, ror #23
 214:	00000034 	andeq	r0, r0, r4, lsr r0
	...
 220:	0000001c 	andeq	r0, r0, ip, lsl r0
 224:	45030002 	strmi	r0, [r3, #-2]
 228:	00040000 	andeq	r0, r4, r0
 22c:	00000000 	andeq	r0, r0, r0
 230:	00009c14 	andeq	r9, r0, r4, lsl ip
 234:	0000002c 	andeq	r0, r0, ip, lsr #32
	...
 240:	0000001c 	andeq	r0, r0, ip, lsl r0
 244:	45fe0002 	ldrbmi	r0, [lr, #2]!
 248:	00040000 	andeq	r0, r4, r0
 24c:	00000000 	andeq	r0, r0, r0
 250:	00009c40 	andeq	r9, r0, r0, asr #24
 254:	00000020 	andeq	r0, r0, r0, lsr #32
	...
 260:	0000001c 	andeq	r0, r0, ip, lsl r0
 264:	47110002 	ldrmi	r0, [r1, -r2]
 268:	00040000 	andeq	r0, r4, r0
 26c:	00000000 	andeq	r0, r0, r0
 270:	00009c60 	andeq	r9, r0, r0, ror #24
 274:	0000002c 	andeq	r0, r0, ip, lsr #32
	...
 280:	0000001c 	andeq	r0, r0, ip, lsl r0
 284:	48630002 	stmdami	r3!, {r1}^
 288:	00040000 	andeq	r0, r4, r0
 28c:	00000000 	andeq	r0, r0, r0
 290:	00009c8c 	andeq	r9, r0, ip, lsl #25
 294:	00000004 	andeq	r0, r0, r4
	...
 2a0:	0000001c 	andeq	r0, r0, ip, lsl r0
 2a4:	49350002 	ldmdbmi	r5!, {r1}
 2a8:	00040000 	andeq	r0, r4, r0
 2ac:	00000000 	andeq	r0, r0, r0
 2b0:	00009ca8 	andeq	r9, r0, r8, lsr #25
 2b4:	0000011c 	andeq	r0, r0, ip, lsl r1
	...

Disassembly of section .debug_line:

00000000 <.debug_line>:
       0:	00000173 	andeq	r0, r0, r3, ror r1
       4:	010c0003 	tsteq	ip, r3
       8:	01020000 	mrseq	r0, (UNDEF: 2)
       c:	000d0efb 	strdeq	r0, [sp], -fp
      10:	01010101 	tsteq	r1, r1, lsl #2
      14:	01000000 	mrseq	r0, (UNDEF: 0)
      18:	74010000 	strvc	r0, [r1], #-0
      1c:	73747365 	cmnvc	r4, #-1811939327	; 0x94000001
      20:	302e322d 	eorcc	r3, lr, sp, lsr #4
      24:	2f002e00 	svccs	0x00002e00
      28:	2f727375 	svccs	0x00727375
      2c:	61636f6c 	cmnvs	r3, ip, ror #30
      30:	65432f6c 	strbvs	r2, [r3, #-3948]	; 0xfffff094
      34:	72616c6c 	rsbvc	r6, r1, #108, 24	; 0x6c00
      38:	6d72612f 	ldfvse	f6, [r2, #-188]!	; 0xffffff44
      3c:	6e6f6e2d 	cdpvs	14, 6, cr6, cr15, cr13, {1}
      40:	61652d65 	cmnvs	r5, r5, ror #26
      44:	742d6962 	strtvc	r6, [sp], #-2402	; 0xfffff69e
      48:	2f747365 	svccs	0x00747365
      4c:	30322d39 	eorscc	r2, r2, r9, lsr sp
      50:	34713931 	ldrbtcc	r3, [r1], #-2353	; 0xfffff6cf
      54:	3173632d 	cmncc	r3, sp, lsr #6
      58:	2f653730 	svccs	0x00653730
      5c:	2f62696c 	svccs	0x0062696c
      60:	2f636367 	svccs	0x00636367
      64:	2d6d7261 	sfmcs	f7, 2, [sp, #-388]!	; 0xfffffe7c
      68:	656e6f6e 	strbvs	r6, [lr, #-3950]!	; 0xfffff092
      6c:	6261652d 	rsbvs	r6, r1, #188743680	; 0xb400000
      70:	2e392f69 	cdpcs	15, 3, cr2, cr9, cr9, {3}
      74:	2f312e32 	svccs	0x00312e32
      78:	6c636e69 	stclvs	14, cr6, [r3], #-420	; 0xfffffe5c
      7c:	00656475 	rsbeq	r6, r5, r5, ror r4
      80:	6573552f 	ldrbvs	r5, [r3, #-1327]!	; 0xfffffad1
      84:	742f7372 	strtvc	r7, [pc], #-882	; 8c <__code_start__-0x7f74>
      88:	74736972 	ldrbtvc	r6, [r3], #-2418	; 0xfffff68e
      8c:	6f6e6e65 	svcvs	0x006e6e65
      90:	616d6c6c 	cmnvs	sp, ip, ror #24
      94:	6f442f6e 	svcvs	0x00442f6e
      98:	656d7563 	strbvs	r7, [sp, #-1379]!	; 0xfffffa9d
      9c:	2f73746e 	svccs	0x0073746e
      a0:	69727053 	ldmdbvs	r2!, {r0, r1, r4, r6, ip, sp, lr}^
      a4:	515f676e 	cmppl	pc, lr, ror #14
      a8:	74726175 	ldrbtvc	r6, [r2], #-373	; 0xfffffe8b
      ac:	325f7265 	subscc	r7, pc, #1342177286	; 0x50000006
      b0:	2f323230 	svccs	0x00323230
      b4:	34325343 	ldrtcc	r5, [r2], #-835	; 0xfffffcbd
      b8:	2d584c30 	ldclcs	12, cr4, [r8, #-192]	; 0xffffff40
      bc:	32727073 	rsbscc	r7, r2, #115, 0	; 0x73
      c0:	696c2f32 	stmdbvs	ip!, {r1, r4, r5, r8, r9, sl, fp, sp}^
      c4:	2f697062 	svccs	0x00697062
      c8:	6c636e69 	stclvs	14, cr6, [r3], #-420	; 0xfffffe5c
      cc:	00656475 	rsbeq	r6, r5, r5, ror r4
      d0:	72617000 	rsbvc	r7, r1, #0, 0
      d4:	742d3174 	strtvc	r3, [sp], #-372	; 0xfffffe8c
      d8:	31747365 	cmncc	r4, r5, ror #6
      dc:	0100632e 	tsteq	r0, lr, lsr #6
      e0:	72730000 	rsbsvc	r0, r3, #0, 0
      e4:	6f6c2d63 	svcvs	0x006c2d63
      e8:	00682e63 	rsbeq	r2, r8, r3, ror #28
      ec:	73000002 	movwvc	r0, #2
      f0:	6e696474 	mcrvs	4, 3, r6, cr9, cr4, {3}
      f4:	63672d74 	cmnvs	r7, #116, 26	; 0x1d00
      f8:	00682e63 	rsbeq	r2, r8, r3, ror #28
      fc:	72000003 	andvc	r0, r0, #3, 0
     100:	682e6970 	stmdavs	lr!, {r4, r5, r6, r8, fp, sp, lr}
     104:	00000400 	andeq	r0, r0, r0, lsl #8
     108:	6c616b63 			; <UNDEFINED> instruction: 0x6c616b63
     10c:	2e636f6c 	cdpcs	15, 6, cr6, cr3, cr12, {3}
     110:	00020068 	andeq	r0, r2, r8, rrx
     114:	14050000 	strne	r0, [r5], #-0
     118:	38020500 	stmdacc	r2, {r8, sl}
     11c:	03000080 	movweq	r0, #128	; 0x80
     120:	0505010c 	streq	r0, [r5, #-268]	; 0xfffffef4
     124:	02044c4b 	andeq	r4, r4, #19200	; 0x4b00
     128:	050e0b05 	streq	r0, [lr, #-2821]	; 0xfffff4fb
     12c:	0c051305 	stceq	3, cr1, [r5], {5}
     130:	04ba0106 	ldrteq	r0, [sl], #262	; 0x106
     134:	150f0501 	strne	r0, [pc, #-1281]	; fffffc3b <__bss_end__+0xffff51d3>
     138:	9f060505 	svcls	0x00060505
     13c:	064a0601 	strbeq	r0, [sl], -r1, lsl #12
     140:	0483132e 	streq	r1, [r3], #814	; 0x32e
     144:	030b0502 	movweq	r0, #46338	; 0xb502
     148:	05050179 	streq	r0, [r5, #-377]	; 0xfffffe87
     14c:	060c0513 			; <UNDEFINED> instruction: 0x060c0513
     150:	01048201 	tsteq	r4, r1, lsl #4
     154:	06180505 	ldreq	r0, [r8], -r5, lsl #10
     158:	08056884 	stmdaeq	r5, {r2, r7, fp, sp, lr}
     15c:	07050106 	streq	r0, [r5, -r6, lsl #2]
     160:	0609052e 	streq	r0, [r9], -lr, lsr #10
     164:	4a01144b 	bmi	45298 <__bss_end__+0x3a830>
     168:	13060105 	movwne	r0, #24837	; 0x6105
     16c:	47060905 	strmi	r0, [r6, -r5, lsl #18]
     170:	10029e01 	andne	r9, r2, r1, lsl #28
     174:	85010100 	strhi	r0, [r1, #-256]	; 0xffffff00
     178:	03000004 	movweq	r0, #4
     17c:	00010b00 	andeq	r0, r1, r0, lsl #22
     180:	fb010200 	blx	4098a <__bss_end__+0x35f22>
     184:	01000d0e 	tsteq	r0, lr, lsl #26
     188:	00010101 	andeq	r0, r1, r1, lsl #2
     18c:	00010000 	andeq	r0, r1, r0
     190:	752f0100 	strvc	r0, [pc, #-256]!	; 98 <__code_start__-0x7f68>
     194:	6c2f7273 	sfmvs	f7, 4, [pc], #-460	; ffffffd0 <__bss_end__+0xffff5568>
     198:	6c61636f 	stclvs	3, cr6, [r1], #-444	; 0xfffffe44
     19c:	6c65432f 	stclvs	3, cr4, [r5], #-188	; 0xffffff44
     1a0:	2f72616c 	svccs	0x0072616c
     1a4:	2d6d7261 	sfmcs	f7, 2, [sp, #-388]!	; 0xfffffe7c
     1a8:	656e6f6e 	strbvs	r6, [lr, #-3950]!	; 0xfffff092
     1ac:	6261652d 	rsbvs	r6, r1, #188743680	; 0xb400000
     1b0:	65742d69 	ldrbvs	r2, [r4, #-3433]!	; 0xfffff297
     1b4:	392f7473 	stmdbcc	pc!, {r0, r1, r4, r5, r6, sl, ip, sp, lr}	; <UNPREDICTABLE>
     1b8:	3130322d 	teqcc	r0, sp, lsr #4
     1bc:	2d347139 	ldfcss	f7, [r4, #-228]!	; 0xffffff1c
     1c0:	30317363 	eorscc	r7, r1, r3, ror #6
     1c4:	6c2f6537 	cfstr32vs	mvfx6, [pc], #-220	; f0 <__code_start__-0x7f10>
     1c8:	672f6269 	strvs	r6, [pc, -r9, ror #4]!
     1cc:	612f6363 			; <UNDEFINED> instruction: 0x612f6363
     1d0:	6e2d6d72 	mcrvs	13, 1, r6, cr13, cr2, {3}
     1d4:	2d656e6f 	stclcs	14, cr6, [r5, #-444]!	; 0xfffffe44
     1d8:	69626165 	stmdbvs	r2!, {r0, r2, r5, r6, r8, sp, lr}^
     1dc:	322e392f 	eorcc	r3, lr, #770048	; 0xbc000
     1e0:	692f312e 	stmdbvs	pc!, {r1, r2, r3, r5, r8, ip, sp}	; <UNPREDICTABLE>
     1e4:	756c636e 	strbvc	r6, [ip, #-878]!	; 0xfffffc92
     1e8:	2f006564 	svccs	0x00006564
     1ec:	72657355 	rsbvc	r7, r5, #1409286145	; 0x54000001
     1f0:	72742f73 	rsbsvc	r2, r4, #460	; 0x1cc
     1f4:	65747369 	ldrbvs	r7, [r4, #-873]!	; 0xfffffc97
     1f8:	6c6f6e6e 	stclvs	14, cr6, [pc], #-440	; 48 <__code_start__-0x7fb8>
     1fc:	6e616d6c 	cdpvs	13, 6, cr6, cr1, cr12, {3}
     200:	636f442f 	cmnvs	pc, #788529152	; 0x2f000000
     204:	6e656d75 	mcrvs	13, 3, r6, cr5, cr5, {3}
     208:	532f7374 			; <UNDEFINED> instruction: 0x532f7374
     20c:	6e697270 	mcrvs	2, 3, r7, cr9, cr0, {3}
     210:	75515f67 	ldrbvc	r5, [r1, #-3943]	; 0xfffff099
     214:	65747261 	ldrbvs	r7, [r4, #-609]!	; 0xfffffd9f
     218:	30325f72 	eorscc	r5, r2, r2, ror pc
     21c:	432f3232 			; <UNDEFINED> instruction: 0x432f3232
     220:	30343253 	eorscc	r3, r4, r3, asr r2
     224:	732d584c 			; <UNDEFINED> instruction: 0x732d584c
     228:	32327270 	eorscc	r7, r2, #112, 4
     22c:	62696c2f 	rsbvs	r6, r9, #12032	; 0x2f00
     230:	692f6970 	stmdbvs	pc!, {r4, r5, r6, r8, fp, sp, lr}	; <UNPREDICTABLE>
     234:	756c636e 	strbvc	r6, [ip, #-878]!	; 0xfffffc92
     238:	00006564 	andeq	r6, r0, r4, ror #10
     23c:	6c616b63 			; <UNDEFINED> instruction: 0x6c616b63
     240:	2e636f6c 	cdpcs	15, 6, cr6, cr3, cr12, {3}
     244:	00000063 	andeq	r0, r0, r3, rrx
     248:	616b6300 	cmnvs	fp, r0, lsl #6
     24c:	636f6c6c 	cmnvs	pc, #108, 24	; 0x6c00
     250:	0000682e 	andeq	r6, r0, lr, lsr #16
     254:	74730000 	ldrbtvc	r0, [r3], #-0
     258:	746e6964 	strbtvc	r6, [lr], #-2404	; 0xfffff69c
     25c:	6363672d 	cmnvs	r3, #11796480	; 0xb40000
     260:	0100682e 	tsteq	r0, lr, lsr #16
     264:	70720000 	rsbsvc	r0, r2, r0
     268:	00682e69 	rsbeq	r2, r8, r9, ror #28
     26c:	73000002 	movwvc	r0, #2
     270:	6c2d6372 	stcvs	3, cr6, [sp], #-456	; 0xfffffe38
     274:	682e636f 	stmdavs	lr!, {r0, r1, r2, r3, r5, r6, r8, r9, sp, lr}
     278:	00000000 	andeq	r0, r0, r0
     27c:	6d2d726b 	sfmvs	f7, 4, [sp, #-428]!	; 0xfffffe54
     280:	6f6c6c61 	svcvs	0x006c6c61
     284:	00682e63 	rsbeq	r2, r8, r3, ror #28
     288:	00000000 	andeq	r0, r0, r0
     28c:	05002d05 	streq	r2, [r0, #-3333]	; 0xfffff2fb
     290:	00810c02 	addeq	r0, r1, r2, lsl #24
     294:	011e0300 	tsteq	lr, r0, lsl #6
     298:	05130205 	ldreq	r0, [r3, #-517]	; 0xfffffdfb
     29c:	05010610 	streq	r0, [r1, #-1552]	; 0xfffff9f0
     2a0:	03054a05 	movweq	r4, #23045	; 0x5a05
     2a4:	00015006 	andeq	r5, r1, r6
     2a8:	4a020402 	bmi	812b8 <__bss_end__+0x76850>
     2ac:	02040200 	andeq	r0, r4, #0, 4
     2b0:	04020001 	streq	r0, [r2], #-1
     2b4:	02001302 	andeq	r1, r0, #134217728	; 0x8000000
     2b8:	05130204 	ldreq	r0, [r3, #-516]	; 0xfffffdfc
     2bc:	0402000d 	streq	r0, [r2], #-13
     2c0:	05010602 	streq	r0, [r1, #-1538]	; 0xfffff9fe
     2c4:	04020003 	streq	r0, [r2], #-3
     2c8:	054b0602 	strbeq	r0, [fp, #-1538]	; 0xfffff9fe
     2cc:	04020013 	streq	r0, [r2], #-19	; 0xffffffed
     2d0:	05010602 	streq	r0, [r1, #-1538]	; 0xfffff9fe
     2d4:	04020003 	streq	r0, [r2], #-3
     2d8:	002f0602 	eoreq	r0, pc, r2, lsl #12
     2dc:	06020402 	streq	r0, [r2], -r2, lsl #8
     2e0:	7803062e 	stmdavc	r3, {r1, r2, r3, r5, r9, sl}
     2e4:	060e0501 	streq	r0, [lr], -r1, lsl #10
     2e8:	06030501 	streq	r0, [r3], -r1, lsl #10
     2ec:	060d054b 	streq	r0, [sp], -fp, asr #10
     2f0:	06030501 	streq	r0, [r3], -r1, lsl #10
     2f4:	002d052f 	eoreq	r0, sp, pc, lsr #10
     2f8:	06010402 	streq	r0, [r1], -r2, lsl #8
     2fc:	00030529 	andeq	r0, r3, r9, lsr #10
     300:	06010402 	streq	r0, [r1], -r2, lsl #8
     304:	04020051 	streq	r0, [r2], #-81	; 0xffffffaf
     308:	02000101 	andeq	r0, r0, #1073741824	; 0x40000000
     30c:	9e060104 	adflss	f0, f6, f4
     310:	01040200 	mrseq	r0, R12_usr
     314:	0402002e 	streq	r0, [r2], #-46	; 0xffffffd2
     318:	052e0601 	streq	r0, [lr, #-1537]!	; 0xfffff9ff
     31c:	ba09031b 	blt	240f90 <__bss_end__+0x236528>
     320:	05130505 	ldreq	r0, [r3, #-1285]	; 0xfffffafb
     324:	05130601 	ldreq	r0, [r3, #-1537]	; 0xfffff9ff
     328:	0585061e 	streq	r0, [r5, #1566]	; 0x61e
     32c:	07051305 	streq	r1, [r5, -r5, lsl #6]
     330:	052e0106 	streq	r0, [lr, #-262]!	; 0xfffffefa
     334:	052f0609 	streq	r0, [pc, #-1545]!	; fffffd33 <__bss_end__+0xffff52cb>
     338:	05010611 	streq	r0, [r1, #-1553]	; 0xfffff9ef
     33c:	1e053001 	cdpne	0, 0, cr3, cr5, cr1, {0}
     340:	05053106 	streq	r3, [r5, #-262]	; 0xfffffefa
     344:	06010513 			; <UNDEFINED> instruction: 0x06010513
     348:	1c052e13 	stcne	14, cr2, [r5], {19}
     34c:	01063106 	tsteq	r6, r6, lsl #2
     350:	4b060505 	blmi	18176c <__bss_end__+0x176d04>
     354:	01061405 	tsteq	r6, r5, lsl #8
     358:	18050204 	stmdane	r5, {r2, r9}
     35c:	2e740306 	cdpcs	3, 7, cr0, cr4, cr6, {0}
     360:	05130505 	ldreq	r0, [r3, #-1285]	; 0xfffffafb
     364:	2e01060d 	cfmadd32cs	mvax0, mvfx0, mvfx1, mvfx13
     368:	01050104 	tsteq	r5, r4, lsl #2
     36c:	05010c03 	streq	r0, [r1, #-3075]	; 0xfffff3fd
     370:	054d062f 	strbeq	r0, [sp, #-1583]	; 0xfffff9d1
     374:	1a051302 	bne	144f84 <__bss_end__+0x13a51c>
     378:	29050106 	stmdbcs	r5, {r1, r2, r8}
     37c:	4a05052e 	bmi	14183c <__bss_end__+0x136dd4>
     380:	02004805 	andeq	r4, r0, #327680	; 0x50000
     384:	054a0104 	strbeq	r0, [sl, #-260]	; 0xfffffefc
     388:	04020035 	streq	r0, [r2], #-53	; 0xffffffcb
     38c:	09052e01 	stmdbeq	r5, {r0, r9, sl, fp, sp}
     390:	2e2e2e4d 	cdpcs	14, 2, cr2, cr14, cr13, {2}
     394:	052c0a05 	streq	r0, [ip, #-2565]!	; 0xfffff5fb
     398:	25053101 	strcs	r3, [r5, #-257]	; 0xfffffeff
     39c:	01063106 	tsteq	r6, r6, lsl #2
     3a0:	4b060505 	blmi	1817bc <__bss_end__+0x176d54>
     3a4:	05010905 	streq	r0, [r1, #-2309]	; 0xfffff6fb
     3a8:	2e010614 	mcrcs	6, 0, r0, cr1, cr4, {0}
     3ac:	052e0505 	streq	r0, [lr, #-1285]!	; 0xfffffafb
     3b0:	04020027 	streq	r0, [r2], #-39	; 0xffffffd9
     3b4:	052e0602 	streq	r0, [lr, #-1538]!	; 0xfffff9fe
     3b8:	0402002b 	streq	r0, [r2], #-43	; 0xffffffd5
     3bc:	05010602 	streq	r0, [r1, #-1538]	; 0xfffff9fe
     3c0:	04020024 	streq	r0, [r2], #-36	; 0xffffffdc
     3c4:	05660601 	strbeq	r0, [r6, #-1537]!	; 0xfffff9ff
     3c8:	04020005 	streq	r0, [r2], #-5
     3cc:	05010601 	streq	r0, [r1, #-1537]	; 0xfffff9ff
     3d0:	054b0609 	strbeq	r0, [fp, #-1545]	; 0xfffff9f7
     3d4:	4a01060c 	bmi	41c0c <__bss_end__+0x371a4>
     3d8:	052e0b05 	streq	r0, [lr, #-2821]!	; 0xfffff4fb
     3dc:	04020027 	streq	r0, [r2], #-39	; 0xffffffd9
     3e0:	23054a01 	movwcs	r4, #23041	; 0x5a01
     3e4:	01040200 	mrseq	r0, R12_usr
     3e8:	0402002e 	streq	r0, [r2], #-46	; 0xffffffd2
     3ec:	01054a01 	tsteq	r5, r1, lsl #20
     3f0:	06210518 			; <UNDEFINED> instruction: 0x06210518
     3f4:	0501064d 	streq	r0, [r1, #-1613]	; 0xfffff9b3
     3f8:	044b0602 	strbeq	r0, [fp], #-1538	; 0xfffff9fe
     3fc:	03180502 	tsteq	r8, #8388608	; 0x800000
     400:	0505016a 	streq	r0, [r5, #-362]	; 0xfffffe96
     404:	060c0513 			; <UNDEFINED> instruction: 0x060c0513
     408:	01042e01 	tsteq	r4, r1, lsl #28
     40c:	03060205 	movweq	r0, #25093	; 0x6205
     410:	07050118 	smladeq	r5, r8, r1, r0
     414:	06100501 	ldreq	r0, [r0], -r1, lsl #10
     418:	2e020501 	cfsh32cs	mvfx0, mvfx2, #1
     41c:	02002b05 	andeq	r2, r0, #5120	; 0x1400
     420:	2e060204 	cdpcs	2, 0, cr0, cr6, cr4, {0}
     424:	02002c05 	andeq	r2, r0, #1280	; 0x500
     428:	01060204 	tsteq	r6, r4, lsl #4
     42c:	02001705 	andeq	r1, r0, #1310720	; 0x140000
     430:	2e060104 	adfcss	f0, f6, f4
     434:	02000205 	andeq	r0, r0, #1342177280	; 0x50000000
     438:	01060104 	tsteq	r6, r4, lsl #2
     43c:	4b060305 	blmi	181058 <__bss_end__+0x1765f0>
     440:	01060d05 	tsteq	r6, r5, lsl #26
     444:	054a0605 	strbeq	r0, [sl, #-1541]	; 0xfffff9fb
     448:	04020023 	streq	r0, [r2], #-35	; 0xffffffdd
     44c:	1d054a01 	vstrne	s8, [r5, #-4]
     450:	01040200 	mrseq	r0, R12_usr
     454:	4b0b052e 	blmi	2c1914 <__bss_end__+0x2b6eac>
     458:	1701052e 	strne	r0, [r1, -lr, lsr #10]
     45c:	2e2d0905 	vmulcs.f16	s0, s26, s10	; <UNPREDICTABLE>
     460:	2e2a0b05 	vmulcs.f64	d0, d10, d5
     464:	36061e05 	strcc	r1, [r6], -r5, lsl #28
     468:	05140205 	ldreq	r0, [r4, #-517]	; 0xfffffdfb
     46c:	05010607 	streq	r0, [r1, #-1543]	; 0xfffff9f9
     470:	10052e05 	andne	r2, r5, r5, lsl #28
     474:	0017054e 	andseq	r0, r7, lr, asr #10
     478:	06010402 	streq	r0, [r1], -r2, lsl #8
     47c:	001c052e 	andseq	r0, ip, lr, lsr #10
     480:	06010402 	streq	r0, [r1], -r2, lsl #8
     484:	00020501 	andeq	r0, r2, r1, lsl #10
     488:	2e010402 	cdpcs	4, 0, cr0, cr1, cr2, {0}
     48c:	4b060305 	blmi	1810a8 <__bss_end__+0x176640>
     490:	01060b05 	tsteq	r6, r5, lsl #22
     494:	054a0605 	strbeq	r0, [sl, #-1541]	; 0xfffff9fb
     498:	0402002c 	streq	r0, [r2], #-44	; 0xffffffd4
     49c:	05490602 	strbeq	r0, [r9, #-1538]	; 0xfffff9fe
     4a0:	0402002d 	streq	r0, [r2], #-45	; 0xffffffd3
     4a4:	00010602 	andeq	r0, r1, r2, lsl #12
     4a8:	2e020402 	cdpcs	4, 0, cr0, cr2, cr2, {0}
     4ac:	02040200 	andeq	r0, r4, #0, 4
     4b0:	1709052e 	strne	r0, [r9, -lr, lsr #10]
     4b4:	0a052e2e 	beq	14bd74 <__bss_end__+0x14130c>
     4b8:	2e017803 	cdpcs	8, 0, cr7, cr1, cr3, {0}
     4bc:	2e330b05 	vaddcs.f64	d0, d3, d5
     4c0:	05160105 	ldreq	r0, [r6, #-261]	; 0xfffffefb
     4c4:	0530061a 	ldreq	r0, [r0, #-1562]!	; 0xfffff9e6
     4c8:	10052f02 	andne	r2, r5, r2, lsl #30
     4cc:	02050106 	andeq	r0, r5, #-2147483647	; 0x80000001
     4d0:	05134b06 	ldreq	r4, [r3, #-2822]	; 0xfffff4fa
     4d4:	0511060b 	ldreq	r0, [r1, #-1547]	; 0xfffff9f5
     4d8:	03052f08 	movweq	r2, #24328	; 0x5f08
     4dc:	07053406 	streq	r3, [r5, -r6, lsl #8]
     4e0:	06050106 	streq	r0, [r5], -r6, lsl #2
     4e4:	0608054a 	streq	r0, [r8], -sl, asr #10
     4e8:	054a7a03 	strbeq	r7, [sl, #-2563]	; 0xfffff5fd
     4ec:	07054b03 	streq	r4, [r5, -r3, lsl #22]
     4f0:	06050106 	streq	r0, [r5], -r6, lsl #2
     4f4:	0604054a 	streq	r0, [r4], -sl, asr #10
     4f8:	06080530 			; <UNDEFINED> instruction: 0x06080530
     4fc:	04052e01 	streq	r2, [r5], #-3585	; 0xfffff1ff
     500:	08053206 	stmdaeq	r5, {r1, r2, r9, ip, sp}
     504:	052e0106 	streq	r0, [lr, #-262]!	; 0xfffffefa
     508:	05320602 	ldreq	r0, [r2, #-1538]!	; 0xfffff9fe
     50c:	05130601 	ldreq	r0, [r3, #-1537]	; 0xfffff9ff
     510:	064e0628 	strbeq	r0, [lr], -r8, lsr #12
     514:	05058201 	streq	r8, [r5, #-513]	; 0xfffffdff
     518:	05142f06 	ldreq	r2, [r4, #-3846]	; 0xfffff0fa
     51c:	05010609 	streq	r0, [r1, #-1545]	; 0xfffff9f7
     520:	09052e07 	stmdbeq	r5, {r0, r1, r2, r9, sl, fp, sp}
     524:	05054b06 	streq	r4, [r5, #-2822]	; 0xfffff4fa
     528:	829e0113 	addshi	r0, lr, #-1073741820	; 0xc0000004
     52c:	02000113 	andeq	r0, r0, #-1073741820	; 0xc0000004
     530:	00820204 	addeq	r0, r2, r4, lsl #4
     534:	01020402 	tsteq	r2, r2, lsl #8
     538:	02040200 	andeq	r0, r4, #0, 4
     53c:	000e0513 	andeq	r0, lr, r3, lsl r5
     540:	06020402 	streq	r0, [r2], -r2, lsl #8
     544:	00020501 	andeq	r0, r2, r1, lsl #10
     548:	06020402 	streq	r0, [r2], -r2, lsl #8
     54c:	0005054b 	andeq	r0, r5, fp, asr #10
     550:	83020402 	movwhi	r0, #9218	; 0x2402
     554:	02040200 	andeq	r0, r4, #0, 4
     558:	06010501 	streq	r0, [r1], -r1, lsl #10
     55c:	06090584 	streq	r0, [r9], -r4, lsl #11
     560:	014a7903 	cmpeq	sl, r3, lsl #18
     564:	0505829e 	streq	r8, [r5, #-670]	; 0xfffffd62
     568:	01040200 	mrseq	r0, R12_usr
     56c:	04020030 	streq	r0, [r2], #-48	; 0xffffffd0
     570:	02000101 	andeq	r0, r0, #1073741824	; 0x40000000
     574:	00d60104 	sbcseq	r0, r6, r4, lsl #2
     578:	31010402 	tstcc	r1, r2, lsl #8
     57c:	01040200 	mrseq	r0, R12_usr
     580:	04020001 	streq	r0, [r2], #-1
     584:	2f05d601 	svccs	0x0005d601
     588:	01064308 	tsteq	r6, r8, lsl #6
     58c:	a0060505 	andge	r0, r6, r5, lsl #10
     590:	01061005 	tsteq	r6, r5
     594:	0602052e 	streq	r0, [r2], -lr, lsr #10
     598:	0483674b 	streq	r6, [r3], #1867	; 0x74b
     59c:	03180502 	tsteq	r8, #8388608	; 0x800000
     5a0:	05017fa7 	streq	r7, [r1, #-4007]	; 0xfffff059
     5a4:	0c051305 	stceq	3, cr1, [r5], {5}
     5a8:	044a0106 	strbeq	r0, [sl], #-262	; 0xfffffefa
     5ac:	03020501 	movweq	r0, #9473	; 0x2501
     5b0:	050100d8 	streq	r0, [r1, #-216]	; 0xffffff28
     5b4:	05670605 	strbeq	r0, [r7, #-1541]!	; 0xfffff9fb
     5b8:	05010615 	streq	r0, [r1, #-1557]	; 0xfffff9eb
     5bc:	052f0605 	streq	r0, [pc, #-1541]!	; ffffffbf <__bss_end__+0xffff5557>
     5c0:	0501060e 	streq	r0, [r1, #-1550]	; 0xfffff9f2
     5c4:	054b0605 	strbeq	r0, [fp, #-1541]	; 0xfffff9fb
     5c8:	05010612 	streq	r0, [r1, #-1554]	; 0xfffff9ee
     5cc:	05670602 	strbeq	r0, [r7, #-1538]!	; 0xfffff9fe
     5d0:	0501060a 	streq	r0, [r1, #-1546]	; 0xfffff9f6
     5d4:	054b0602 	strbeq	r0, [fp, #-1538]	; 0xfffff9fe
     5d8:	0501060b 	streq	r0, [r1, #-1547]	; 0xfffff9f5
     5dc:	05310602 	ldreq	r0, [r1, #-1538]!	; 0xfffff9fe
     5e0:	0501060e 	streq	r0, [r1, #-1550]	; 0xfffff9f2
     5e4:	05670602 	strbeq	r0, [r7, #-1538]!	; 0xfffff9fe
     5e8:	0501060f 	streq	r0, [r1, #-1551]	; 0xfffff9f1
     5ec:	014c0605 	cmpeq	ip, r5, lsl #12
     5f0:	02059e9e 	andeq	r9, r5, #2528	; 0x9e0
     5f4:	01058314 	tsteq	r5, r4, lsl r3
     5f8:	02661406 	rsbeq	r1, r6, #100663296	; 0x6000000
     5fc:	01010008 	tsteq	r1, r8
     600:	000005ce 	andeq	r0, r0, lr, asr #11
     604:	00fa0003 	rscseq	r0, sl, r3
     608:	01020000 	mrseq	r0, (UNDEF: 2)
     60c:	000d0efb 	strdeq	r0, [sp], -fp
     610:	01010101 	tsteq	r1, r1, lsl #2
     614:	01000000 	mrseq	r0, (UNDEF: 0)
     618:	2f010000 	svccs	0x00010000
     61c:	2f727375 	svccs	0x00727375
     620:	61636f6c 	cmnvs	r3, ip, ror #30
     624:	65432f6c 	strbvs	r2, [r3, #-3948]	; 0xfffff094
     628:	72616c6c 	rsbvc	r6, r1, #108, 24	; 0x6c00
     62c:	6d72612f 	ldfvse	f6, [r2, #-188]!	; 0xffffff44
     630:	6e6f6e2d 	cdpvs	14, 6, cr6, cr15, cr13, {1}
     634:	61652d65 	cmnvs	r5, r5, ror #26
     638:	742d6962 	strtvc	r6, [sp], #-2402	; 0xfffff69e
     63c:	2f747365 	svccs	0x00747365
     640:	30322d39 	eorscc	r2, r2, r9, lsr sp
     644:	34713931 	ldrbtcc	r3, [r1], #-2353	; 0xfffff6cf
     648:	3173632d 	cmncc	r3, sp, lsr #6
     64c:	2f653730 	svccs	0x00653730
     650:	2f62696c 	svccs	0x0062696c
     654:	2f636367 	svccs	0x00636367
     658:	2d6d7261 	sfmcs	f7, 2, [sp, #-388]!	; 0xfffffe7c
     65c:	656e6f6e 	strbvs	r6, [lr, #-3950]!	; 0xfffff092
     660:	6261652d 	rsbvs	r6, r1, #188743680	; 0xb400000
     664:	2e392f69 	cdpcs	15, 3, cr2, cr9, cr9, {3}
     668:	2f312e32 	svccs	0x00312e32
     66c:	6c636e69 	stclvs	14, cr6, [r3], #-420	; 0xfffffe5c
     670:	00656475 	rsbeq	r6, r5, r5, ror r4
     674:	6573552f 	ldrbvs	r5, [r3, #-1327]!	; 0xfffffad1
     678:	742f7372 	strtvc	r7, [pc], #-882	; 680 <__code_start__-0x7980>
     67c:	74736972 	ldrbtvc	r6, [r3], #-2418	; 0xfffff68e
     680:	6f6e6e65 	svcvs	0x006e6e65
     684:	616d6c6c 	cmnvs	sp, ip, ror #24
     688:	6f442f6e 	svcvs	0x00442f6e
     68c:	656d7563 	strbvs	r7, [sp, #-1379]!	; 0xfffffa9d
     690:	2f73746e 	svccs	0x0073746e
     694:	69727053 	ldmdbvs	r2!, {r0, r1, r4, r6, ip, sp, lr}^
     698:	515f676e 	cmppl	pc, lr, ror #14
     69c:	74726175 	ldrbtvc	r6, [r2], #-373	; 0xfffffe8b
     6a0:	325f7265 	subscc	r7, pc, #1342177286	; 0x50000006
     6a4:	2f323230 	svccs	0x00323230
     6a8:	34325343 	ldrtcc	r5, [r2], #-835	; 0xfffffcbd
     6ac:	2d584c30 	ldclcs	12, cr4, [r8, #-192]	; 0xffffff40
     6b0:	32727073 	rsbscc	r7, r2, #115, 0	; 0x73
     6b4:	696c2f32 	stmdbvs	ip!, {r1, r4, r5, r8, r9, sl, fp, sp}^
     6b8:	2f697062 	svccs	0x00697062
     6bc:	6c636e69 	stclvs	14, cr6, [r3], #-420	; 0xfffffe5c
     6c0:	00656475 	rsbeq	r6, r5, r5, ror r4
     6c4:	2d6b6300 	stclcs	3, cr6, [fp, #-0]
     6c8:	632e6367 			; <UNDEFINED> instruction: 0x632e6367
     6cc:	00000000 	andeq	r0, r0, r0
     6d0:	69647473 	stmdbvs	r4!, {r0, r1, r4, r5, r6, sl, ip, sp, lr}^
     6d4:	672d746e 	strvs	r7, [sp, -lr, ror #8]!
     6d8:	682e6363 	stmdavs	lr!, {r0, r1, r5, r6, r8, r9, sp, lr}
     6dc:	00000100 	andeq	r0, r0, r0, lsl #2
     6e0:	2e697072 	mcrcs	0, 3, r7, cr9, cr2, {3}
     6e4:	00020068 	andeq	r0, r2, r8, rrx
     6e8:	63727300 	cmnvs	r2, #0, 6
     6ec:	636f6c2d 	cmnvs	pc, #11520	; 0x2d00
     6f0:	0000682e 	andeq	r6, r0, lr, lsr #16
     6f4:	6b630000 	blvs	18c06fc <__bss_end__+0x18b5c94>
     6f8:	6f6c6c61 	svcvs	0x006c6c61
     6fc:	00682e63 	rsbeq	r2, r8, r3, ror #28
     700:	00000000 	andeq	r0, r0, r0
     704:	05001d05 	streq	r1, [r0, #-3333]	; 0xfffff2fb
     708:	00852402 	addeq	r2, r5, r2, lsl #8
     70c:	01270300 			; <UNDEFINED> instruction: 0x01270300
     710:	05140505 	ldreq	r0, [r4, #-1285]	; 0xfffffafb
     714:	0501060a 	streq	r0, [r1, #-1546]	; 0xfffff9f6
     718:	1c054a07 			; <UNDEFINED> instruction: 0x1c054a07
     71c:	01040200 	mrseq	r0, R12_usr
     720:	0017054a 	andseq	r0, r7, sl, asr #10
     724:	4a010402 	bmi	41734 <__bss_end__+0x36ccc>
     728:	2e4d0c05 	cdpcs	12, 4, cr0, cr13, cr5, {0}
     72c:	2e2c1005 	cdpcs	0, 2, cr1, cr12, cr5, {0}
     730:	3101052e 	tstcc	r1, lr, lsr #10
     734:	03063505 	movweq	r3, #25861	; 0x6505
     738:	01064a3b 	tsteq	r6, fp, lsr sl
     73c:	2f060205 	svccs	0x00060205
     740:	062e0613 			; <UNDEFINED> instruction: 0x062e0613
     744:	10054d2f 	andne	r4, r5, pc, lsr #26
     748:	02050106 	andeq	r0, r5, #-2147483647	; 0x80000001
     74c:	24054b06 	strcs	r4, [r5], #-2822	; 0xfffff4fa
     750:	017a0306 	cmneq	sl, r6, lsl #6
     754:	052e1805 	streq	r1, [lr, #-2053]!	; 0xfffff7fb
     758:	08052e0b 	stmdaeq	r5, {r0, r1, r3, r9, sl, fp, sp}
     75c:	060b0534 			; <UNDEFINED> instruction: 0x060b0534
     760:	060e0535 			; <UNDEFINED> instruction: 0x060e0535
     764:	00290501 	eoreq	r0, r9, r1, lsl #10
     768:	4a010402 	bmi	41778 <__bss_end__+0x36d10>
     76c:	02002105 	andeq	r2, r0, #1073741825	; 0x40000001
     770:	052e0104 	streq	r0, [lr, #-260]!	; 0xfffffefc
     774:	05300605 	ldreq	r0, [r0, #-1541]!	; 0xfffff9fb
     778:	0501060b 	streq	r0, [r1, #-1547]	; 0xfffff9f5
     77c:	052f0605 	streq	r0, [pc, #-1541]!	; 17f <__code_start__-0x7e81>
     780:	05010612 	streq	r0, [r1, #-1554]	; 0xfffff9ee
     784:	014d0604 	cmpeq	sp, r4, lsl #12
     788:	02006606 	andeq	r6, r0, #6291456	; 0x600000
     78c:	2e060104 	adfcss	f0, f6, f4
     790:	02000305 	andeq	r0, r0, #335544320	; 0x14000000
     794:	05140104 	ldreq	r0, [r4, #-260]	; 0xfffffefc
     798:	0402000a 	streq	r0, [r2], #-10
     79c:	05010601 	streq	r0, [r1, #-1537]	; 0xfffff9ff
     7a0:	71030608 	tstvc	r3, r8, lsl #12
     7a4:	4b030566 	blmi	c1d44 <__bss_end__+0xb72dc>
     7a8:	01060a05 	tsteq	r6, r5, lsl #20
     7ac:	2f060305 	svccs	0x00060305
     7b0:	01060b05 	tsteq	r6, r5, lsl #22
     7b4:	052e0605 	streq	r0, [lr, #-1541]!	; 0xfffff9fb
     7b8:	04020031 	streq	r0, [r2], #-49	; 0xffffffcf
     7bc:	04054a01 	streq	r4, [r5], #-2561	; 0xfffff5ff
     7c0:	0d056806 	stceq	8, cr6, [r5, #-24]	; 0xffffffe8
     7c4:	07050106 	streq	r0, [r5, -r6, lsl #2]
     7c8:	0021052e 	eoreq	r0, r1, lr, lsr #10
     7cc:	4a010402 	bmi	417dc <__bss_end__+0x36d74>
     7d0:	02001a05 	andeq	r1, r0, #20480	; 0x5000
     7d4:	052e0104 	streq	r0, [lr, #-260]!	; 0xfffffefc
     7d8:	054c0605 	strbeq	r0, [ip, #-1541]	; 0xfffff9fb
     7dc:	2e010611 	mcrcs	6, 0, r0, cr1, cr1, {0}
     7e0:	03060205 	movweq	r0, #25093	; 0x6205
     7e4:	06012e0d 	streq	r2, [r1], -sp, lsl #28
     7e8:	132e064a 			; <UNDEFINED> instruction: 0x132e064a
     7ec:	01060405 	tsteq	r6, r5, lsl #8
     7f0:	4b060305 	blmi	18140c <__bss_end__+0x1769a4>
     7f4:	02004a01 	andeq	r4, r0, #4096	; 0x1000
     7f8:	05140104 	ldreq	r0, [r4, #-260]	; 0xfffffefc
     7fc:	04020002 	streq	r0, [r2], #-2
     800:	02001401 	andeq	r1, r0, #16777216	; 0x1000000
     804:	054b0104 	strbeq	r0, [fp, #-260]	; 0xfffffefc
     808:	04020001 	streq	r0, [r2], #-1
     80c:	05130601 	ldreq	r0, [r3, #-1537]	; 0xfffff9ff
     810:	01460603 	cmpeq	r6, r3, lsl #12
     814:	d8032205 	stmdale	r3, {r0, r2, r9, sp}
     818:	05740800 	ldrbeq	r0, [r4, #-2048]!	; 0xfffff800
     81c:	4b132f02 	blmi	4cc42c <__bss_end__+0x4c19c4>
     820:	0610054c 	ldreq	r0, [r0], -ip, asr #10
     824:	06020501 	streq	r0, [r2], -r1, lsl #10
     828:	0622054b 	strteq	r0, [r2], -fp, asr #10
     82c:	2e18050d 	cfmul32cs	mvfx0, mvfx8, mvfx13
     830:	052e0b05 	streq	r0, [lr, #-2821]!	; 0xfffff4fb
     834:	04053308 	streq	r3, [r5], #-776	; 0xfffffcf8
     838:	01040200 	mrseq	r0, R12_usr
     83c:	03053506 	movweq	r3, #21766	; 0x5506
     840:	01040200 	mrseq	r0, R12_usr
     844:	000a0514 	andeq	r0, sl, r4, lsl r5
     848:	06010402 	streq	r0, [r1], -r2, lsl #8
     84c:	06080501 	streq	r0, [r8], -r1, lsl #10
     850:	05667703 	strbeq	r7, [r6, #-1795]!	; 0xfffff8fd
     854:	0a054b03 	beq	153468 <__bss_end__+0x148a00>
     858:	03050106 	movweq	r0, #20742	; 0x5106
     85c:	0b052f06 	bleq	14c47c <__bss_end__+0x141a14>
     860:	06050106 	streq	r0, [r5], -r6, lsl #2
     864:	0025052e 	eoreq	r0, r5, lr, lsr #10
     868:	4a010402 	bmi	41878 <__bss_end__+0x36e10>
     86c:	02001e05 	andeq	r1, r0, #80	; 0x50
     870:	052e0104 	streq	r0, [lr, #-260]!	; 0xfffffefc
     874:	04020038 	streq	r0, [r2], #-56	; 0xffffffc8
     878:	31054a02 	tstcc	r5, r2, lsl #20
     87c:	02040200 	andeq	r0, r4, #0, 4
     880:	0604052e 	streq	r0, [r4], -lr, lsr #10
     884:	0610054c 	ldreq	r0, [r0], -ip, asr #10
     888:	06040501 	streq	r0, [r4], -r1, lsl #10
     88c:	060a054b 	streq	r0, [sl], -fp, asr #10
     890:	06040501 	streq	r0, [r4], -r1, lsl #10
     894:	0618052f 	ldreq	r0, [r8], -pc, lsr #10
     898:	2e110501 	cfmul32cs	mvfx0, mvfx1, mvfx1
     89c:	2f060405 	svccs	0x00060405
     8a0:	2e660601 	cdpcs	6, 6, cr0, cr6, cr1, {0}
     8a4:	33060205 	movwcc	r0, #25093	; 0x6205
     8a8:	06820601 	streq	r0, [r2], r1, lsl #12
     8ac:	1405052e 	strne	r0, [r5], #-1326	; 0xfffffad2
     8b0:	13060105 	movwne	r0, #24837	; 0x6105
     8b4:	03062505 	movweq	r2, #25861	; 0x6505
     8b8:	06ba7ec4 	ldrteq	r7, [sl], r4, asr #29
     8bc:	06050501 	streq	r0, [r5], -r1, lsl #10
     8c0:	0905144b 	stmdbeq	r5, {r0, r1, r3, r6, sl, ip}
     8c4:	07050106 	streq	r0, [r5, -r6, lsl #2]
     8c8:	0605052e 	streq	r0, [r5], -lr, lsr #10
     8cc:	060c054c 	streq	r0, [ip], -ip, asr #10
     8d0:	65100501 	ldrvs	r0, [r0, #-1281]	; 0xfffffaff
     8d4:	05300105 	ldreq	r0, [r0, #-261]!	; 0xfffffefb
     8d8:	0d03062c 	stceq	6, cr0, [r3, #-176]	; 0xffffff50
     8dc:	0501062e 	streq	r0, [r1, #-1582]	; 0xfffff9d2
     8e0:	014b0605 	cmpeq	fp, r5, lsl #12
     8e4:	02040200 	andeq	r0, r4, #0, 4
     8e8:	04020066 	streq	r0, [r2], #-102	; 0xffffff9a
     8ec:	02000102 	andeq	r0, r0, #-2147483648	; 0x80000000
     8f0:	00140204 	andseq	r0, r4, r4, lsl #4
     8f4:	01020402 	tsteq	r2, r2, lsl #8
     8f8:	02040200 	andeq	r0, r4, #0, 4
     8fc:	0402004a 	streq	r0, [r2], #-74	; 0xffffffb6
     900:	02000102 	andeq	r0, r0, #-2147483648	; 0x80000000
     904:	00130204 	andseq	r0, r3, r4, lsl #4
     908:	01020402 	tsteq	r2, r2, lsl #8
     90c:	02040200 	andeq	r0, r4, #0, 4
     910:	0402004a 	streq	r0, [r2], #-74	; 0xffffffb6
     914:	02050102 	andeq	r0, r5, #-2147483648	; 0x80000000
     918:	02040200 	andeq	r0, r4, #0, 4
     91c:	001f0514 	andseq	r0, pc, r4, lsl r5	; <UNPREDICTABLE>
     920:	06020402 	streq	r0, [r2], -r2, lsl #8
     924:	00110501 	andseq	r0, r1, r1, lsl #10
     928:	2e020402 	cdpcs	4, 0, cr0, cr2, cr2, {0}
     92c:	02000205 	andeq	r0, r0, #1342177280	; 0x50000000
     930:	2f060204 	svccs	0x00060204
     934:	02000705 	andeq	r0, r0, #1310720	; 0x140000
     938:	05010204 	streq	r0, [r1, #-516]	; 0xfffffdfc
     93c:	04020002 	streq	r0, [r2], #-2
     940:	00010602 	andeq	r0, r1, r2, lsl #12
     944:	2e020402 	cdpcs	4, 0, cr0, cr2, cr2, {0}
     948:	02000505 	andeq	r0, r0, #20971520	; 0x1400000
     94c:	03060104 	movweq	r0, #24836	; 0x6104
     950:	0200017a 	andeq	r0, r0, #-2147483618	; 0x8000001e
     954:	00010104 	andeq	r0, r1, r4, lsl #2
     958:	06010402 	streq	r0, [r1], -r2, lsl #8
     95c:	0402009e 	streq	r0, [r2], #-158	; 0xffffff62
     960:	02002e01 	andeq	r2, r0, #1, 28
     964:	2e060104 	adfcss	f0, f6, f4
     968:	01040200 	mrseq	r0, R12_usr
     96c:	04020030 	streq	r0, [r2], #-48	; 0xffffffd0
     970:	02000101 	andeq	r0, r0, #1073741824	; 0x40000000
     974:	9e060104 	adflss	f0, f6, f4
     978:	01040200 	mrseq	r0, R12_usr
     97c:	0402002e 	streq	r0, [r2], #-46	; 0xffffffd2
     980:	002e0601 	eoreq	r0, lr, r1, lsl #12
     984:	2f010402 	svccs	0x00010402
     988:	01040200 	mrseq	r0, R12_usr
     98c:	04020001 	streq	r0, [r2], #-1
     990:	009e0601 	addseq	r0, lr, r1, lsl #12
     994:	2e010402 	cdpcs	4, 0, cr0, cr1, cr2, {0}
     998:	01040200 	mrseq	r0, R12_usr
     99c:	0b052e06 	bleq	14c1bc <__bss_end__+0x141754>
     9a0:	052e0b03 	streq	r0, [lr, #-2819]!	; 0xfffff4fd
     9a4:	05010617 	streq	r0, [r1, #-1559]	; 0xfffff9e9
     9a8:	04052e0e 	streq	r2, [r5], #-3598	; 0xfffff1f2
     9ac:	0e054e06 	cdpeq	14, 0, cr4, cr5, cr6, {0}
     9b0:	04050106 	streq	r0, [r5], #-262	; 0xfffffefa
     9b4:	44052f06 	strmi	r2, [r5], #-3846	; 0xfffff0fa
     9b8:	04050106 	streq	r0, [r5], #-262	; 0xfffffefa
     9bc:	2e062f06 	cdpcs	15, 0, cr2, cr6, cr6, {0}
     9c0:	0026052e 	eoreq	r0, r6, lr, lsr #10
     9c4:	06020402 	streq	r0, [r2], -r2, lsl #8
     9c8:	05017203 	streq	r7, [r1, #-515]	; 0xfffffdfd
     9cc:	04020027 	streq	r0, [r2], #-39	; 0xffffffd9
     9d0:	05010602 	streq	r0, [r1, #-1538]	; 0xfffff9fe
     9d4:	04020017 	streq	r0, [r2], #-23	; 0xffffffe9
     9d8:	052e0601 	streq	r0, [lr, #-1537]!	; 0xfffff9ff
     9dc:	04020002 	streq	r0, [r2], #-2
     9e0:	05010601 	streq	r0, [r1, #-1537]	; 0xfffff9ff
     9e4:	054b0603 	strbeq	r0, [fp, #-1539]	; 0xfffff9fd
     9e8:	0501061e 	streq	r0, [r1, #-1566]	; 0xfffff9e2
     9ec:	03052e16 	movweq	r2, #24086	; 0x5e16
     9f0:	06054b06 	streq	r4, [r5], -r6, lsl #22
     9f4:	1e050106 	adfnes	f0, f5, f6
     9f8:	01040200 	mrseq	r0, R12_usr
     9fc:	0011054a 	andseq	r0, r1, sl, asr #10
     a00:	2e010402 	cdpcs	4, 0, cr0, cr1, cr2, {0}
     a04:	4c060405 	cfstrsmi	mvf0, [r6], {5}
     a08:	01061405 	tsteq	r6, r5, lsl #8
     a0c:	4b060405 	blmi	181a28 <__bss_end__+0x176fc0>
     a10:	01060805 	tsteq	r6, r5, lsl #16
     a14:	2e07054a 	cfsh32cs	mvfx0, mvfx7, #42
     a18:	4c060505 	cfstr32mi	mvfx0, [r6], {5}
     a1c:	01060e05 	tsteq	r6, r5, lsl #28
     a20:	052e1b05 	streq	r1, [lr, #-2821]!	; 0xfffff4fb
     a24:	05680605 	strbeq	r0, [r8, #-1541]!	; 0xfffff9fb
     a28:	0501060e 	streq	r0, [r1, #-1550]	; 0xfffff9f2
     a2c:	05662e1a 	strbeq	r2, [r6, #-3610]!	; 0xfffff1e6
     a30:	054a1a01 	strbeq	r1, [sl, #-2561]	; 0xfffff5ff
     a34:	0500061c 	streq	r0, [r0, #-1564]	; 0xfffff9e4
     a38:	00887c02 	addeq	r7, r8, r2, lsl #24
     a3c:	01300300 	teqeq	r0, r0, lsl #6
     a40:	054e0505 	strbeq	r0, [lr, #-1285]	; 0xfffffafb
     a44:	14050109 	strne	r0, [r5], #-265	; 0xfffffef7
     a48:	24050106 	strcs	r0, [r5], #-262	; 0xfffffefa
     a4c:	01040200 	mrseq	r0, R12_usr
     a50:	05052e06 	streq	r2, [r5, #-3590]	; 0xfffff1fa
     a54:	01040200 	mrseq	r0, R12_usr
     a58:	09050106 	stmdbeq	r5, {r1, r2, r8}
     a5c:	03040200 	movweq	r0, #16896	; 0x4200
     a60:	32054b06 	andcc	r4, r5, #6144	; 0x1800
     a64:	03040200 	movweq	r0, #16896	; 0x4200
     a68:	21050106 	tstcs	r5, r6, lsl #2
     a6c:	03040200 	movweq	r0, #16896	; 0x4200
     a70:	0011054a 	andseq	r0, r1, sl, asr #10
     a74:	2e030402 	cdpcs	4, 0, cr0, cr3, cr2, {0}
     a78:	02002705 	andeq	r2, r0, #1310720	; 0x140000
     a7c:	2d060304 	stccs	3, cr0, [r6, #-16]
     a80:	02002b05 	andeq	r2, r0, #5120	; 0x1400
     a84:	01060304 	tsteq	r6, r4, lsl #6
     a88:	03040200 	movweq	r0, #16896	; 0x4200
     a8c:	0402002e 	streq	r0, [r2], #-46	; 0xffffffd2
     a90:	05052e03 	streq	r2, [r5, #-3587]	; 0xfffff1fd
     a94:	06131806 	ldreq	r1, [r3], -r6, lsl #16
     a98:	0531062e 	ldreq	r0, [r1, #-1582]!	; 0xfffff9d2
     a9c:	0501060d 	streq	r0, [r1, #-1549]	; 0xfffff9f3
     aa0:	054b0605 	strbeq	r0, [fp, #-1541]	; 0xfffff9fb
     aa4:	0501060d 	streq	r0, [r1, #-1549]	; 0xfffff9f3
     aa8:	052f0605 	streq	r0, [pc, #-1541]!	; 4ab <__code_start__-0x7b55>
     aac:	0501060d 	streq	r0, [r1, #-1549]	; 0xfffff9f3
     ab0:	052f0605 	streq	r0, [pc, #-1541]!	; 4b3 <__code_start__-0x7b4d>
     ab4:	0501060d 	streq	r0, [r1, #-1549]	; 0xfffff9f3
     ab8:	68300605 	ldmdavs	r0!, {r0, r2, r9, sl}
     abc:	18010101 	stmdane	r1, {r0, r8}
     ac0:	05130205 	ldreq	r0, [r3, #-517]	; 0xfffffdfb
     ac4:	68136905 	ldmdavs	r3, {r0, r2, r8, fp, sp, lr}
     ac8:	06010513 			; <UNDEFINED> instruction: 0x06010513
     acc:	061c0567 	ldreq	r0, [ip], -r7, ror #10
     ad0:	ba7edc03 	blt	1fb7ae4 <__bss_end__+0x1fad07c>
     ad4:	02050106 	andeq	r0, r5, #-2147483647	; 0x80000001
     ad8:	06016706 	streq	r6, [r1], -r6, lsl #14
     adc:	052e062e 	streq	r0, [lr, #-1582]!	; 0xfffff9d2
     ae0:	00011305 	andeq	r1, r1, r5, lsl #6
     ae4:	4a020402 	bmi	81af4 <__bss_end__+0x7708c>
     ae8:	02040200 	andeq	r0, r4, #0, 4
     aec:	04020001 	streq	r0, [r2], #-1
     af0:	08051302 	stmdaeq	r5, {r1, r8, r9, ip}
     af4:	02040200 	andeq	r0, r4, #0, 4
     af8:	07050106 	streq	r0, [r5, -r6, lsl #2]
     afc:	02040200 	andeq	r0, r4, #0, 4
     b00:	0609054a 	streq	r0, [r9], -sl, asr #10
     b04:	0513144b 	ldreq	r1, [r3, #-1099]	; 0xfffffbb5
     b08:	05010614 	streq	r0, [r1, #-1556]	; 0xfffff9ec
     b0c:	05670609 	strbeq	r0, [r7, #-1545]!	; 0xfffff9f7
     b10:	05010612 	streq	r0, [r1, #-1554]	; 0xfffff9ee
     b14:	4b4b0609 	blmi	12c2340 <__bss_end__+0x12b78d8>
     b18:	01061005 	tsteq	r6, r5
     b1c:	4c060505 	cfstr32mi	mvfx0, [r6], {5}
     b20:	01060c05 	tsteq	r6, r5, lsl #24
     b24:	054b0105 	strbeq	r0, [fp, #-261]	; 0xfffffefb
     b28:	04020005 	streq	r0, [r2], #-5
     b2c:	75030601 	strvc	r0, [r3, #-1537]	; 0xfffff9ff
     b30:	0402004a 	streq	r0, [r2], #-74	; 0xffffffb6
     b34:	02000101 	andeq	r0, r0, #1073741824	; 0x40000000
     b38:	05d60104 	ldrbeq	r0, [r6, #260]	; 0x104
     b3c:	9e013009 	cdpls	0, 0, cr3, cr1, cr9, {0}
     b40:	a4033105 	strge	r3, [r3], #-261	; 0xfffffefb
     b44:	0106f201 	tsteq	r6, r1, lsl #4	; <UNPREDICTABLE>
     b48:	4b060205 	blmi	181364 <__bss_end__+0x1768fc>
     b4c:	062e0601 	strteq	r0, [lr], -r1, lsl #12
     b50:	1305052e 	movwne	r0, #21806	; 0x552e
     b54:	052f0205 	streq	r0, [pc, #-517]!	; 957 <__code_start__-0x76a9>
     b58:	0c054b05 			; <UNDEFINED> instruction: 0x0c054b05
     b5c:	01050106 	tsteq	r5, r6, lsl #2
     b60:	061a054b 	ldreq	r0, [sl], -fp, asr #10
     b64:	32050569 	andcc	r0, r5, #440401920	; 0x1a400000
     b68:	06080513 			; <UNDEFINED> instruction: 0x06080513
     b6c:	4a070501 	bmi	1c1f78 <__bss_end__+0x1b7510>
     b70:	4b060905 	blmi	182f8c <__bss_end__+0x178524>
     b74:	054a0114 	strbeq	r0, [sl, #-276]	; 0xfffffeec
     b78:	01051305 	tsteq	r5, r5, lsl #6
     b7c:	09051306 	stmdbeq	r5, {r1, r2, r8, r9, ip}
     b80:	9e012a06 	vmlals.f32	s4, s2, s12
     b84:	05a52205 	streq	r2, [r5, #517]!	; 0x205
     b88:	05133205 	ldreq	r3, [r3, #-517]	; 0xfffffdfb
     b8c:	05010617 	streq	r0, [r1, #-1559]	; 0xfffff9e9
     b90:	054b0605 	strbeq	r0, [fp, #-1541]	; 0xfffff9fb
     b94:	05010607 	streq	r0, [r1, #-1543]	; 0xfffff9f9
     b98:	144b0609 	strbne	r0, [fp], #-1545	; 0xfffff9f7
     b9c:	064a0601 	strbeq	r0, [sl], -r1, lsl #12
     ba0:	1305052e 	movwne	r0, #21806	; 0x552e
     ba4:	06010513 			; <UNDEFINED> instruction: 0x06010513
     ba8:	06090513 			; <UNDEFINED> instruction: 0x06090513
     bac:	059e0145 	ldreq	r0, [lr, #325]	; 0x145
     bb0:	9e1f0316 	mrcls	3, 0, r0, cr15, cr6, {0}
     bb4:	2f2f0505 	svccs	0x002f0505
     bb8:	01061705 	tsteq	r6, r5, lsl #14
     bbc:	32060505 	andcc	r0, r6, #20971520	; 0x1400000
     bc0:	13060105 	movwne	r0, #24837	; 0x6105
     bc4:	30061b05 	andcc	r1, r6, r5, lsl #22
     bc8:	012f0505 			; <UNDEFINED> instruction: 0x012f0505
     bcc:	0008029e 	muleq	r8, lr, r2
     bd0:	02520101 	subseq	r0, r2, #1073741824	; 0x40000000
     bd4:	00030000 	andeq	r0, r3, r0
     bd8:	0000008a 	andeq	r0, r0, sl, lsl #1
     bdc:	0efb0102 	cdpeq	1, 15, cr0, cr11, cr2, {0}
     be0:	0101000d 	tsteq	r1, sp
     be4:	00000101 	andeq	r0, r0, r1, lsl #2
     be8:	00000100 	andeq	r0, r0, r0, lsl #2
     bec:	73552f01 	cmpvc	r5, #1, 30
     bf0:	2f737265 	svccs	0x00737265
     bf4:	73697274 	cmnvc	r9, #116, 4	; 0x40000007
     bf8:	6e6e6574 	mcrvs	5, 3, r6, cr14, cr4, {3}
     bfc:	6d6c6c6f 	stclvs	12, cr6, [ip, #-444]!	; 0xfffffe44
     c00:	442f6e61 	strtmi	r6, [pc], #-3681	; c08 <__code_start__-0x73f8>
     c04:	6d75636f 	ldclvs	3, cr6, [r5, #-444]!	; 0xfffffe44
     c08:	73746e65 	cmnvc	r4, #1616	; 0x650
     c0c:	7270532f 	rsbsvc	r5, r0, #-1140850688	; 0xbc000000
     c10:	5f676e69 	svcpl	0x00676e69
     c14:	72617551 	rsbvc	r7, r1, #339738624	; 0x14400000
     c18:	5f726574 	svcpl	0x00726574
     c1c:	32323032 	eorscc	r3, r2, #50, 0	; 0x32
     c20:	3253432f 	subscc	r4, r3, #-1140850688	; 0xbc000000
     c24:	584c3034 	stmdapl	ip, {r2, r4, r5, ip, sp}^
     c28:	7270732d 	rsbsvc	r7, r0, #-1275068416	; 0xb4000000
     c2c:	6c2f3232 	sfmvs	f3, 4, [pc], #-200	; b6c <__code_start__-0x7494>
     c30:	69706269 	ldmdbvs	r0!, {r0, r3, r5, r6, r9, sp, lr}^
     c34:	636e692f 	cmnvs	lr, #770048	; 0xbc000
     c38:	6564756c 	strbvs	r7, [r4, #-1388]!	; 0xfffffa94
     c3c:	726b0000 	rsbvc	r0, fp, #0, 0
     c40:	6c616d2d 	stclvs	13, cr6, [r1], #-180	; 0xffffff4c
     c44:	2e636f6c 	cdpcs	15, 6, cr6, cr3, cr12, {3}
     c48:	00000063 	andeq	r0, r0, r3, rrx
     c4c:	69707200 	ldmdbvs	r0!, {r9, ip, sp, lr}^
     c50:	0100682e 	tsteq	r0, lr, lsr #16
     c54:	726b0000 	rsbvc	r0, fp, #0, 0
     c58:	6c616d2d 	stclvs	13, cr6, [r1], #-180	; 0xffffff4c
     c5c:	2e636f6c 	cdpcs	15, 6, cr6, cr3, cr12, {3}
     c60:	00000068 	andeq	r0, r0, r8, rrx
     c64:	19050000 	stmdbne	r5, {}	; <UNPREDICTABLE>
     c68:	04020500 	streq	r0, [r2], #-1280	; 0xfffffb00
     c6c:	0300008b 	movweq	r0, #139	; 0x8b
     c70:	060100d2 			; <UNDEFINED> instruction: 0x060100d2
     c74:	06020501 	streq	r0, [r2], -r1, lsl #10
     c78:	0505132f 	streq	r1, [r5, #-815]	; 0xfffffcd1
     c7c:	02050106 	andeq	r0, r5, #-2147483647	; 0x80000001
     c80:	09052f06 	stmdbeq	r5, {r1, r2, r8, r9, sl, fp, sp}
     c84:	02050106 	andeq	r0, r5, #-2147483647	; 0x80000001
     c88:	12052e4a 	andne	r2, r5, #1184	; 0x4a0
     c8c:	01040200 	mrseq	r0, R12_usr
     c90:	02052e06 	andeq	r2, r5, #96	; 0x60
     c94:	01040200 	mrseq	r0, R12_usr
     c98:	26050106 	strcs	r0, [r5], -r6, lsl #2
     c9c:	03040200 	movweq	r0, #16896	; 0x4200
     ca0:	0012054a 	andseq	r0, r2, sl, asr #10
     ca4:	2e030402 	cdpcs	4, 0, cr0, cr3, cr2, {0}
     ca8:	4b060305 	blmi	1818c4 <__bss_end__+0x176e5c>
     cac:	01061005 	tsteq	r6, r5
     cb0:	052e0605 	streq	r0, [lr, #-1541]!	; 0xfffff9fb
     cb4:	04020015 	streq	r0, [r2], #-21	; 0xffffffeb
     cb8:	20054a01 	andcs	r4, r5, r1, lsl #20
     cbc:	02040200 	andeq	r0, r4, #0, 4
     cc0:	0402004a 	streq	r0, [r2], #-74	; 0xffffffb6
     cc4:	02054a02 	andeq	r4, r5, #8192	; 0x2000
     cc8:	10053206 	andne	r3, r5, r6, lsl #4
     ccc:	09050106 	stmdbeq	r5, {r1, r2, r8}
     cd0:	2e1d052e 	cfmul64cs	mvdx0, mvdx13, mvdx14
     cd4:	052e0505 	streq	r0, [lr, #-1285]!	; 0xfffffafb
     cd8:	054e060c 	strbeq	r0, [lr, #-1548]	; 0xfffff9f4
     cdc:	05010616 	streq	r0, [r1, #-1558]	; 0xfffff9ea
     ce0:	052f0608 	streq	r0, [pc, #-1544]!	; 6e0 <__code_start__-0x7920>
     ce4:	05010614 	streq	r0, [r1, #-1556]	; 0xfffff9ec
     ce8:	0b052e0e 	bleq	14c528 <__bss_end__+0x141ac0>
     cec:	060c052e 	streq	r0, [ip], -lr, lsr #10
     cf0:	0615054e 	ldreq	r0, [r5], -lr, asr #10
     cf4:	06020501 	streq	r0, [r2], -r1, lsl #10
     cf8:	06080530 			; <UNDEFINED> instruction: 0x06080530
     cfc:	4b010501 	blmi	42108 <__bss_end__+0x376a0>
     d00:	03060c05 	movweq	r0, #27653	; 0x6c05
     d04:	25052e75 	strcs	r2, [r5, #-3701]	; 0xfffff18b
     d08:	17050106 	strne	r0, [r5, -r6, lsl #2]
     d0c:	060c052e 	streq	r0, [ip], -lr, lsr #10
     d10:	061c054b 	ldreq	r0, [ip], -fp, asr #10
     d14:	2e230501 	cfsh64cs	mvdx0, mvdx3, #1
     d18:	052e1605 	streq	r1, [lr, #-1541]!	; 0xfffff9fb
     d1c:	054e060c 	strbeq	r0, [lr, #-1548]	; 0xfffff9f4
     d20:	0501061e 	streq	r0, [r1, #-1566]	; 0xfffff9e2
     d24:	0c052e16 	stceq	14, cr2, [r5], {22}
     d28:	1c054b06 			; <UNDEFINED> instruction: 0x1c054b06
     d2c:	15050106 	strne	r0, [r5, #-262]	; 0xfffffefa
     d30:	062a052e 	strteq	r0, [sl], -lr, lsr #10
     d34:	667fb703 	ldrbtvs	fp, [pc], -r3, lsl #14
     d38:	02050106 	andeq	r0, r5, #-2147483647	; 0x80000001
     d3c:	14134b06 	ldrne	r4, [r3], #-2822	; 0xfffff4fa
     d40:	01060505 	tsteq	r6, r5, lsl #10
     d44:	052f0705 	streq	r0, [pc, #-1797]!	; 647 <__code_start__-0x79b9>
     d48:	05310602 	ldreq	r0, [r1, #-1538]!	; 0xfffff9fe
     d4c:	05010607 	streq	r0, [r1, #-1543]	; 0xfffff9f9
     d50:	054b0602 	strbeq	r0, [fp, #-1538]	; 0xfffff9fe
     d54:	05010605 	streq	r0, [r1, #-1541]	; 0xfffff9fb
     d58:	134e0602 	movtne	r0, #58882	; 0xe602
     d5c:	01060d05 	tsteq	r6, r5, lsl #26
     d60:	2f060205 	svccs	0x00060205
     d64:	2f062e06 	svccs	0x00062e06
     d68:	01060905 	tsteq	r6, r5, lsl #18
     d6c:	7a030a05 	bvc	c3588 <__bss_end__+0xb8b20>
     d70:	35010566 	strcc	r0, [r1, #-1382]	; 0xfffffa9a
     d74:	4d062205 	sfmmi	f2, 4, [r6, #-20]	; 0xffffffec
     d78:	02050106 	andeq	r0, r5, #-2147483647	; 0x80000001
     d7c:	13132f06 	tstne	r3, #6, 30
     d80:	06240514 			; <UNDEFINED> instruction: 0x06240514
     d84:	2e290501 	cfsh64cs	mvdx0, mvdx9, #1
     d88:	052e0905 	streq	r0, [lr, #-2309]!	; 0xfffff6fb
     d8c:	052f0602 	streq	r0, [pc, #-1538]!	; 792 <__code_start__-0x786e>
     d90:	0501060d 	streq	r0, [r1, #-1549]	; 0xfffff9f3
     d94:	02054a05 	andeq	r4, r5, #20480	; 0x5000
     d98:	09055006 	stmdbeq	r5, {r1, r2, ip, lr}
     d9c:	052e0106 	streq	r0, [lr, #-262]!	; 0xfffffefa
     da0:	052a0603 	streq	r0, [sl, #-1539]!	; 0xfffff9fd
     da4:	05010616 	streq	r0, [r1, #-1558]	; 0xfffff9ea
     da8:	03054a0e 	movweq	r4, #23054	; 0x5a0e
     dac:	0f052f06 	svceq	0x00052f06
     db0:	04050106 	streq	r0, [r5], #-262	; 0xfffffefa
     db4:	07056c06 	streq	r6, [r5, -r6, lsl #24]
     db8:	05050106 	streq	r0, [r5, #-262]	; 0xfffffefa
     dbc:	0f053206 	svceq	0x00053206
     dc0:	05050106 	streq	r0, [r5, #-262]	; 0xfffffefa
     dc4:	07054b06 	streq	r4, [r5, -r6, lsl #22]
     dc8:	05050106 	streq	r0, [r5, #-262]	; 0xfffffefa
     dcc:	0f052f06 	svceq	0x00052f06
     dd0:	04050106 	streq	r0, [r5], #-262	; 0xfffffefa
     dd4:	0a053006 	beq	14cdf4 <__bss_end__+0x14238c>
     dd8:	04050106 	streq	r0, [r5], #-262	; 0xfffffefa
     ddc:	0b054b06 	bleq	1539fc <__bss_end__+0x148f94>
     de0:	052e0106 	streq	r0, [lr, #-262]!	; 0xfffffefa
     de4:	79030605 	stmdbvc	r3, {r0, r2, r9, sl}
     de8:	0618052e 	ldreq	r0, [r8], -lr, lsr #10
     dec:	2e120501 	cfmul32cs	mvfx0, mvfx2, mvfx1
     df0:	45061a05 	strmi	r1, [r6, #-2565]	; 0xfffff5fb
     df4:	05011805 	streq	r1, [r1, #-2053]	; 0xfffff7fb
     df8:	05010620 	streq	r0, [r1, #-1568]	; 0xfffff9e0
     dfc:	03052e27 	movweq	r2, #24103	; 0x5e27
     e00:	0b052f06 	bleq	14ca20 <__bss_end__+0x141fb8>
     e04:	06050106 	streq	r0, [r5], -r6, lsl #2
     e08:	0603052e 	streq	r0, [r3], -lr, lsr #10
     e0c:	054a0e03 	strbeq	r0, [sl, #-3587]	; 0xfffff1fd
     e10:	05010609 	streq	r0, [r1, #-1545]	; 0xfffff9f7
     e14:	04054a06 	streq	r4, [r5], #-2566	; 0xfffff5fa
     e18:	0d054c06 	stceq	12, cr4, [r5, #-24]	; 0xffffffe8
     e1c:	052e0106 	streq	r0, [lr, #-262]!	; 0xfffffefa
     e20:	022e2e07 	eoreq	r2, lr, #112	; 0x70
     e24:	01010006 	tsteq	r1, r6
     e28:	00000114 	andeq	r0, r0, r4, lsl r1
     e2c:	00e40003 	rsceq	r0, r4, r3
     e30:	01020000 	mrseq	r0, (UNDEF: 2)
     e34:	000d0efb 	strdeq	r0, [sp], -fp
     e38:	01010101 	tsteq	r1, r1, lsl #2
     e3c:	01000000 	mrseq	r0, (UNDEF: 0)
     e40:	2e010000 	cdpcs	0, 0, cr0, cr1, cr0, {0}
     e44:	62696c2f 	rsbvs	r6, r9, #12032	; 0x2f00
     e48:	552f0063 	strpl	r0, [pc, #-99]!	; ded <__code_start__-0x7213>
     e4c:	73726573 	cmnvc	r2, #482344960	; 0x1cc00000
     e50:	6972742f 	ldmdbvs	r2!, {r0, r1, r2, r3, r5, sl, ip, sp, lr}^
     e54:	6e657473 	mcrvs	4, 3, r7, cr5, cr3, {3}
     e58:	6c6c6f6e 	stclvs	15, cr6, [ip], #-440	; 0xfffffe48
     e5c:	2f6e616d 	svccs	0x006e616d
     e60:	75636f44 	strbvc	r6, [r3, #-3908]!	; 0xfffff0bc
     e64:	746e656d 	strbtvc	r6, [lr], #-1389	; 0xfffffa93
     e68:	70532f73 	subsvc	r2, r3, r3, ror pc
     e6c:	676e6972 			; <UNDEFINED> instruction: 0x676e6972
     e70:	6175515f 	cmnvs	r5, pc, asr r1
     e74:	72657472 	rsbvc	r7, r5, #1912602624	; 0x72000000
     e78:	3230325f 	eorscc	r3, r0, #-268435451	; 0xf0000005
     e7c:	53432f32 	movtpl	r2, #16178	; 0x3f32
     e80:	4c303432 	cfldrsmi	mvf3, [r0], #-200	; 0xffffff38
     e84:	70732d58 	rsbsvc	r2, r3, r8, asr sp
     e88:	2f323272 	svccs	0x00323272
     e8c:	7062696c 	rsbvc	r6, r2, ip, ror #18
     e90:	6e692f69 	cdpvs	15, 6, cr2, cr9, cr9, {3}
     e94:	64756c63 	ldrbtvs	r6, [r5], #-3171	; 0xfffff39d
     e98:	752f0065 	strvc	r0, [pc, #-101]!	; e3b <__code_start__-0x71c5>
     e9c:	6c2f7273 	sfmvs	f7, 4, [pc], #-460	; cd8 <__code_start__-0x7328>
     ea0:	6c61636f 	stclvs	3, cr6, [r1], #-444	; 0xfffffe44
     ea4:	6c65432f 	stclvs	3, cr4, [r5], #-188	; 0xffffff44
     ea8:	2f72616c 	svccs	0x0072616c
     eac:	2d6d7261 	sfmcs	f7, 2, [sp, #-388]!	; 0xfffffe7c
     eb0:	656e6f6e 	strbvs	r6, [lr, #-3950]!	; 0xfffff092
     eb4:	6261652d 	rsbvs	r6, r1, #188743680	; 0xb400000
     eb8:	65742d69 	ldrbvs	r2, [r4, #-3433]!	; 0xfffff297
     ebc:	392f7473 	stmdbcc	pc!, {r0, r1, r4, r5, r6, sl, ip, sp, lr}	; <UNPREDICTABLE>
     ec0:	3130322d 	teqcc	r0, sp, lsr #4
     ec4:	2d347139 	ldfcss	f7, [r4, #-228]!	; 0xffffff1c
     ec8:	30317363 	eorscc	r7, r1, r3, ror #6
     ecc:	6c2f6537 	cfstr32vs	mvfx6, [pc], #-220	; df8 <__code_start__-0x7208>
     ed0:	672f6269 	strvs	r6, [pc, -r9, ror #4]!
     ed4:	612f6363 			; <UNDEFINED> instruction: 0x612f6363
     ed8:	6e2d6d72 	mcrvs	13, 1, r6, cr13, cr2, {3}
     edc:	2d656e6f 	stclcs	14, cr6, [r5, #-444]!	; 0xfffffe44
     ee0:	69626165 	stmdbvs	r2!, {r0, r2, r5, r6, r8, sp, lr}^
     ee4:	322e392f 	eorcc	r3, lr, #770048	; 0xbc000
     ee8:	692f312e 	stmdbvs	pc!, {r1, r2, r3, r5, r8, ip, sp}	; <UNPREDICTABLE>
     eec:	756c636e 	strbvc	r6, [ip, #-878]!	; 0xfffffc92
     ef0:	00006564 	andeq	r6, r0, r4, ror #10
     ef4:	736d656d 	cmnvc	sp, #457179136	; 0x1b400000
     ef8:	632e7465 			; <UNDEFINED> instruction: 0x632e7465
     efc:	00000100 	andeq	r0, r0, r0, lsl #2
     f00:	2e697072 	mcrcs	0, 3, r7, cr9, cr2, {3}
     f04:	00020068 	andeq	r0, r2, r8, rrx
     f08:	64747300 	ldrbtvs	r7, [r4], #-768	; 0xfffffd00
     f0c:	2e666564 	cdpcs	5, 6, cr6, cr6, cr4, {3}
     f10:	00030068 	andeq	r0, r3, r8, rrx
     f14:	29050000 	stmdbcs	r5, {}	; <UNPREDICTABLE>
     f18:	b0020500 	andlt	r0, r2, r0, lsl #10
     f1c:	1500008c 	strne	r0, [r0, #-140]	; 0xffffff74
     f20:	05130505 	ldreq	r0, [r3, #-1285]	; 0xfffffafb
     f24:	05010614 	streq	r0, [r1, #-1556]	; 0xfffff9ec
     f28:	05300605 	ldreq	r0, [r0, #-1541]!	; 0xfffff9fb
     f2c:	0510060b 	ldreq	r0, [r0, #-1547]	; 0xfffff9f5
     f30:	0530060a 	ldreq	r0, [r0, #-1546]!	; 0xfffff9f6
     f34:	0e054b09 	vmlaeq.f64	d4, d5, d9
     f38:	022e0106 	eoreq	r0, lr, #-2147483647	; 0x80000001
     f3c:	01010002 	tsteq	r1, r2
     f40:	00000133 	andeq	r0, r0, r3, lsr r1
     f44:	01010003 	tsteq	r1, r3
     f48:	01020000 	mrseq	r0, (UNDEF: 2)
     f4c:	000d0efb 	strdeq	r0, [sp], -fp
     f50:	01010101 	tsteq	r1, r1, lsl #2
     f54:	01000000 	mrseq	r0, (UNDEF: 0)
     f58:	2e010000 	cdpcs	0, 0, cr0, cr1, cr0, {0}
     f5c:	62696c2f 	rsbvs	r6, r9, #12032	; 0x2f00
     f60:	752f0063 	strvc	r0, [pc, #-99]!	; f05 <__code_start__-0x70fb>
     f64:	6c2f7273 	sfmvs	f7, 4, [pc], #-460	; da0 <__code_start__-0x7260>
     f68:	6c61636f 	stclvs	3, cr6, [r1], #-444	; 0xfffffe44
     f6c:	6c65432f 	stclvs	3, cr4, [r5], #-188	; 0xffffff44
     f70:	2f72616c 	svccs	0x0072616c
     f74:	2d6d7261 	sfmcs	f7, 2, [sp, #-388]!	; 0xfffffe7c
     f78:	656e6f6e 	strbvs	r6, [lr, #-3950]!	; 0xfffff092
     f7c:	6261652d 	rsbvs	r6, r1, #188743680	; 0xb400000
     f80:	65742d69 	ldrbvs	r2, [r4, #-3433]!	; 0xfffff297
     f84:	392f7473 	stmdbcc	pc!, {r0, r1, r4, r5, r6, sl, ip, sp, lr}	; <UNPREDICTABLE>
     f88:	3130322d 	teqcc	r0, sp, lsr #4
     f8c:	2d347139 	ldfcss	f7, [r4, #-228]!	; 0xffffff1c
     f90:	30317363 	eorscc	r7, r1, r3, ror #6
     f94:	6c2f6537 	cfstr32vs	mvfx6, [pc], #-220	; ec0 <__code_start__-0x7140>
     f98:	672f6269 	strvs	r6, [pc, -r9, ror #4]!
     f9c:	612f6363 			; <UNDEFINED> instruction: 0x612f6363
     fa0:	6e2d6d72 	mcrvs	13, 1, r6, cr13, cr2, {3}
     fa4:	2d656e6f 	stclcs	14, cr6, [r5, #-444]!	; 0xfffffe44
     fa8:	69626165 	stmdbvs	r2!, {r0, r2, r5, r6, r8, sp, lr}^
     fac:	322e392f 	eorcc	r3, lr, #770048	; 0xbc000
     fb0:	692f312e 	stmdbvs	pc!, {r1, r2, r3, r5, r8, ip, sp}	; <UNPREDICTABLE>
     fb4:	756c636e 	strbvc	r6, [ip, #-878]!	; 0xfffffc92
     fb8:	2f006564 	svccs	0x00006564
     fbc:	72657355 	rsbvc	r7, r5, #1409286145	; 0x54000001
     fc0:	72742f73 	rsbsvc	r2, r4, #460	; 0x1cc
     fc4:	65747369 	ldrbvs	r7, [r4, #-873]!	; 0xfffffc97
     fc8:	6c6f6e6e 	stclvs	14, cr6, [pc], #-440	; e18 <__code_start__-0x71e8>
     fcc:	6e616d6c 	cdpvs	13, 6, cr6, cr1, cr12, {3}
     fd0:	636f442f 	cmnvs	pc, #788529152	; 0x2f000000
     fd4:	6e656d75 	mcrvs	13, 3, r6, cr5, cr5, {3}
     fd8:	532f7374 			; <UNDEFINED> instruction: 0x532f7374
     fdc:	6e697270 	mcrvs	2, 3, r7, cr9, cr0, {3}
     fe0:	75515f67 	ldrbvc	r5, [r1, #-3943]	; 0xfffff099
     fe4:	65747261 	ldrbvs	r7, [r4, #-609]!	; 0xfffffd9f
     fe8:	30325f72 	eorscc	r5, r2, r2, ror pc
     fec:	432f3232 			; <UNDEFINED> instruction: 0x432f3232
     ff0:	30343253 	eorscc	r3, r4, r3, asr r2
     ff4:	732d584c 			; <UNDEFINED> instruction: 0x732d584c
     ff8:	32327270 	eorscc	r7, r2, #112, 4
     ffc:	62696c2f 	rsbvs	r6, r9, #12032	; 0x2f00
    1000:	692f6970 	stmdbvs	pc!, {r4, r5, r6, r8, fp, sp, lr}	; <UNPREDICTABLE>
    1004:	756c636e 	strbvc	r6, [ip, #-878]!	; 0xfffffc92
    1008:	00006564 	andeq	r6, r0, r4, ror #10
    100c:	6e697270 	mcrvs	2, 3, r7, cr9, cr0, {3}
    1010:	632e6b74 			; <UNDEFINED> instruction: 0x632e6b74
    1014:	00000100 	andeq	r0, r0, r0, lsl #2
    1018:	61647473 	smcvs	18243	; 0x4743
    101c:	682e6772 	stmdavs	lr!, {r1, r4, r5, r6, r8, r9, sl, sp, lr}
    1020:	00000200 	andeq	r0, r0, r0, lsl #4
    1024:	2e697072 	mcrcs	0, 3, r7, cr9, cr2, {3}
    1028:	00030068 	andeq	r0, r3, r8, rrx
    102c:	75623c00 	strbvc	r3, [r2, #-3072]!	; 0xfffff400
    1030:	2d746c69 	ldclcs	12, cr6, [r4, #-420]!	; 0xfffffe5c
    1034:	003e6e69 	eorseq	r6, lr, r9, ror #28
    1038:	76000000 	strvc	r0, [r0], -r0
    103c:	72702d61 	rsbsvc	r2, r0, #6208	; 0x1840
    1040:	6b746e69 	blvs	1d1c9ec <__bss_end__+0x1d11f84>
    1044:	0100682e 	tsteq	r0, lr, lsr #16
    1048:	05000000 	streq	r0, [r0, #-0]
    104c:	02050022 	andeq	r0, r5, #34, 0	; 0x22
    1050:	00008cc8 	andeq	r8, r0, r8, asr #25
    1054:	05010617 	streq	r0, [r1, #-1559]	; 0xfffff9e9
    1058:	13680605 	cmnne	r8, #5242880	; 0x500000
    105c:	4b090514 	blmi	2424b4 <__bss_end__+0x237a4c>
    1060:	01061205 	tsteq	r6, r5, lsl #4
    1064:	bb060505 	bllt	182480 <__bss_end__+0x177a18>
    1068:	06660616 			; <UNDEFINED> instruction: 0x06660616
    106c:	06010534 			; <UNDEFINED> instruction: 0x06010534
    1070:	08026613 	stmdaeq	r2, {r0, r1, r4, r9, sl, sp, lr}
    1074:	cb010100 	blgt	4147c <__bss_end__+0x36a14>
    1078:	03000000 	movweq	r0, #0
    107c:	00007d00 	andeq	r7, r0, r0, lsl #26
    1080:	fb010200 	blx	4188a <__bss_end__+0x36e22>
    1084:	01000d0e 	tsteq	r0, lr, lsl #26
    1088:	00010101 	andeq	r0, r1, r1, lsl #2
    108c:	00010000 	andeq	r0, r1, r0
    1090:	2f2e0100 	svccs	0x002e0100
    1094:	6362696c 	cmnvs	r2, #108, 18	; 0x1b0000
    1098:	73552f00 	cmpvc	r5, #0, 30
    109c:	2f737265 	svccs	0x00737265
    10a0:	73697274 	cmnvc	r9, #116, 4	; 0x40000007
    10a4:	6e6e6574 	mcrvs	5, 3, r6, cr14, cr4, {3}
    10a8:	6d6c6c6f 	stclvs	12, cr6, [ip, #-444]!	; 0xfffffe44
    10ac:	442f6e61 	strtmi	r6, [pc], #-3681	; 10b4 <__code_start__-0x6f4c>
    10b0:	6d75636f 	ldclvs	3, cr6, [r5, #-444]!	; 0xfffffe44
    10b4:	73746e65 	cmnvc	r4, #1616	; 0x650
    10b8:	7270532f 	rsbsvc	r5, r0, #-1140850688	; 0xbc000000
    10bc:	5f676e69 	svcpl	0x00676e69
    10c0:	72617551 	rsbvc	r7, r1, #339738624	; 0x14400000
    10c4:	5f726574 	svcpl	0x00726574
    10c8:	32323032 	eorscc	r3, r2, #50, 0	; 0x32
    10cc:	3253432f 	subscc	r4, r3, #-1140850688	; 0xbc000000
    10d0:	584c3034 	stmdapl	ip, {r2, r4, r5, ip, sp}^
    10d4:	7270732d 	rsbsvc	r7, r0, #-1275068416	; 0xb4000000
    10d8:	6c2f3232 	sfmvs	f3, 4, [pc], #-200	; 1018 <__code_start__-0x6fe8>
    10dc:	69706269 	ldmdbvs	r0!, {r0, r3, r5, r6, r9, sp, lr}^
    10e0:	636e692f 	cmnvs	lr, #770048	; 0xbc000
    10e4:	6564756c 	strbvs	r7, [r4, #-1388]!	; 0xfffffa94
    10e8:	75700000 	ldrbvc	r0, [r0, #-0]!
    10ec:	632e6b74 			; <UNDEFINED> instruction: 0x632e6b74
    10f0:	00000100 	andeq	r0, r0, r0, lsl #2
    10f4:	2e697072 	mcrcs	0, 3, r7, cr9, cr2, {3}
    10f8:	00020068 	andeq	r0, r2, r8, rrx
    10fc:	22050000 	andcs	r0, r5, #0, 0
    1100:	20020500 	andcs	r0, r2, r0, lsl #10
    1104:	1500008d 	strne	r0, [r0, #-141]	; 0xffffff73
    1108:	05050106 	streq	r0, [r5, #-262]	; 0xfffffefa
    110c:	0b054b06 	bleq	153d2c <__bss_end__+0x1492c4>
    1110:	01040200 	mrseq	r0, R12_usr
    1114:	00050501 	andeq	r0, r5, r1, lsl #10
    1118:	06010402 	streq	r0, [r1], -r2, lsl #8
    111c:	0009052e 	andeq	r0, r9, lr, lsr #10
    1120:	06020402 	streq	r0, [r2], -r2, lsl #8
    1124:	000f054b 	andeq	r0, pc, fp, asr #10
    1128:	65020402 	strvs	r0, [r2, #-1026]	; 0xfffffbfe
    112c:	02001005 	andeq	r1, r0, #5, 0
    1130:	01060204 	tsteq	r6, r4, lsl #4
    1134:	02040200 	andeq	r0, r4, #0, 4
    1138:	0605052e 	streq	r0, [r5], -lr, lsr #10
    113c:	06010532 			; <UNDEFINED> instruction: 0x06010532
    1140:	00060213 	andeq	r0, r6, r3, lsl r2
    1144:	061d0101 	ldreq	r0, [sp], -r1, lsl #2
    1148:	00030000 	andeq	r0, r3, r0
    114c:	00000117 	andeq	r0, r0, r7, lsl r1
    1150:	0efb0102 	cdpeq	1, 15, cr0, cr11, cr2, {0}
    1154:	0101000d 	tsteq	r1, sp
    1158:	00000101 	andeq	r0, r0, r1, lsl #2
    115c:	00000100 	andeq	r0, r0, r0, lsl #2
    1160:	6c2f2e01 	stcvs	14, cr2, [pc], #-4	; 1164 <__code_start__-0x6e9c>
    1164:	00636269 	rsbeq	r6, r3, r9, ror #4
    1168:	7273752f 	rsbsvc	r7, r3, #197132288	; 0xbc00000
    116c:	636f6c2f 	cmnvs	pc, #12032	; 0x2f00
    1170:	432f6c61 			; <UNDEFINED> instruction: 0x432f6c61
    1174:	616c6c65 	cmnvs	ip, r5, ror #24
    1178:	72612f72 	rsbvc	r2, r1, #456	; 0x1c8
    117c:	6f6e2d6d 	svcvs	0x006e2d6d
    1180:	652d656e 	strvs	r6, [sp, #-1390]!	; 0xfffffa92
    1184:	2d696261 	sfmcs	f6, 2, [r9, #-388]!	; 0xfffffe7c
    1188:	74736574 	ldrbtvc	r6, [r3], #-1396	; 0xfffffa8c
    118c:	322d392f 	eorcc	r3, sp, #770048	; 0xbc000
    1190:	71393130 	teqvc	r9, r0, lsr r1
    1194:	73632d34 	cmnvc	r3, #52, 26	; 0xd00
    1198:	65373031 	ldrvs	r3, [r7, #-49]!	; 0xffffffcf
    119c:	62696c2f 	rsbvs	r6, r9, #12032	; 0x2f00
    11a0:	6363672f 	cmnvs	r3, #12320768	; 0xbc0000
    11a4:	6d72612f 	ldfvse	f6, [r2, #-188]!	; 0xffffff44
    11a8:	6e6f6e2d 	cdpvs	14, 6, cr6, cr15, cr13, {1}
    11ac:	61652d65 	cmnvs	r5, r5, ror #26
    11b0:	392f6962 	stmdbcc	pc!, {r1, r5, r6, r8, fp, sp, lr}	; <UNPREDICTABLE>
    11b4:	312e322e 			; <UNDEFINED> instruction: 0x312e322e
    11b8:	636e692f 	cmnvs	lr, #770048	; 0xbc000
    11bc:	6564756c 	strbvs	r7, [r4, #-1388]!	; 0xfffffa94
    11c0:	73552f00 	cmpvc	r5, #0, 30
    11c4:	2f737265 	svccs	0x00737265
    11c8:	73697274 	cmnvc	r9, #116, 4	; 0x40000007
    11cc:	6e6e6574 	mcrvs	5, 3, r6, cr14, cr4, {3}
    11d0:	6d6c6c6f 	stclvs	12, cr6, [ip, #-444]!	; 0xfffffe44
    11d4:	442f6e61 	strtmi	r6, [pc], #-3681	; 11dc <__code_start__-0x6e24>
    11d8:	6d75636f 	ldclvs	3, cr6, [r5, #-444]!	; 0xfffffe44
    11dc:	73746e65 	cmnvc	r4, #1616	; 0x650
    11e0:	7270532f 	rsbsvc	r5, r0, #-1140850688	; 0xbc000000
    11e4:	5f676e69 	svcpl	0x00676e69
    11e8:	72617551 	rsbvc	r7, r1, #339738624	; 0x14400000
    11ec:	5f726574 	svcpl	0x00726574
    11f0:	32323032 	eorscc	r3, r2, #50, 0	; 0x32
    11f4:	3253432f 	subscc	r4, r3, #-1140850688	; 0xbc000000
    11f8:	584c3034 	stmdapl	ip, {r2, r4, r5, ip, sp}^
    11fc:	7270732d 	rsbsvc	r7, r0, #-1275068416	; 0xb4000000
    1200:	6c2f3232 	sfmvs	f3, 4, [pc], #-200	; 1140 <__code_start__-0x6ec0>
    1204:	69706269 	ldmdbvs	r0!, {r0, r3, r5, r6, r9, sp, lr}^
    1208:	636e692f 	cmnvs	lr, #770048	; 0xbc000
    120c:	6564756c 	strbvs	r7, [r4, #-1388]!	; 0xfffffa94
    1210:	61760000 	cmnvs	r6, r0
    1214:	6972702d 	ldmdbvs	r2!, {r0, r2, r3, r5, ip, sp, lr}^
    1218:	2e6b746e 	cdpcs	4, 6, cr7, cr11, cr14, {3}
    121c:	00010063 	andeq	r0, r1, r3, rrx
    1220:	64747300 	ldrbtvs	r7, [r4], #-768	; 0xfffffd00
    1224:	2d746e69 	ldclcs	14, cr6, [r4, #-420]!	; 0xfffffe5c
    1228:	2e636367 	cdpcs	3, 6, cr6, cr3, cr7, {3}
    122c:	00020068 	andeq	r0, r2, r8, rrx
    1230:	69707200 	ldmdbvs	r0!, {r9, ip, sp, lr}^
    1234:	0300682e 	movweq	r6, #2094	; 0x82e
    1238:	70720000 	rsbsvc	r0, r2, r0
    123c:	6e692d69 	cdpvs	13, 6, cr2, cr9, cr9, {3}
    1240:	6e726574 	mrcvs	5, 3, r6, cr2, cr4, {3}
    1244:	682e6c61 	stmdavs	lr!, {r0, r5, r6, sl, fp, sp, lr}
    1248:	00000300 	andeq	r0, r0, r0, lsl #6
    124c:	61647473 	smcvs	18243	; 0x4743
    1250:	682e6772 	stmdavs	lr!, {r1, r4, r5, r6, r8, r9, sl, sp, lr}
    1254:	00000200 	andeq	r0, r0, r0, lsl #4
    1258:	6975623c 	ldmdbvs	r5!, {r2, r3, r4, r5, r9, sp, lr}^
    125c:	692d746c 	pushvs	{r2, r3, r5, r6, sl, ip, sp, lr}
    1260:	00003e6e 	andeq	r3, r0, lr, ror #28
    1264:	05000000 	streq	r0, [r0, #-0]
    1268:	0205001b 	andeq	r0, r5, #27, 0
    126c:	00008d54 	andeq	r8, r0, r4, asr sp
    1270:	05012603 	streq	r2, [r1, #-1539]	; 0xfffff9fd
    1274:	2d05011d 	stfcss	f0, [r5, #-116]	; 0xffffff8c
    1278:	01050106 	tsteq	r5, r6, lsl #2
    127c:	33054a2e 	movwcc	r4, #23086	; 0x5a2e
    1280:	02055106 	andeq	r5, r5, #-2147483647	; 0x80000001
    1284:	06060513 			; <UNDEFINED> instruction: 0x06060513
    1288:	06020501 	streq	r0, [r2], -r1, lsl #10
    128c:	00080530 	andeq	r0, r8, r0, lsr r5
    1290:	01010402 	tsteq	r1, r2, lsl #8
    1294:	02000205 	andeq	r0, r0, #1342177280	; 0x50000000
    1298:	01060104 	tsteq	r6, r4, lsl #2
    129c:	02000305 	andeq	r0, r0, #335544320	; 0x14000000
    12a0:	2f060204 	svccs	0x00060204
    12a4:	02000805 	andeq	r0, r0, #327680	; 0x50000
    12a8:	01060204 	tsteq	r6, r4, lsl #4
    12ac:	02001505 	andeq	r1, r0, #20971520	; 0x1400000
    12b0:	49060204 	stmdbmi	r6, {r2, r9}
    12b4:	02001805 	andeq	r1, r0, #327680	; 0x50000
    12b8:	01060204 	tsteq	r6, r4, lsl #4
    12bc:	02040200 	andeq	r0, r4, #0, 4
    12c0:	0602052e 	streq	r0, [r2], -lr, lsr #10
    12c4:	06050530 			; <UNDEFINED> instruction: 0x06050530
    12c8:	06020501 	streq	r0, [r2], -r1, lsl #10
    12cc:	0601054b 	streq	r0, [r1], -fp, asr #10
    12d0:	063e0513 			; <UNDEFINED> instruction: 0x063e0513
    12d4:	14020531 	strne	r0, [r2], #-1329	; 0xfffffacf
    12d8:	01060e05 	tsteq	r6, r5, lsl #28
    12dc:	052e0605 	streq	r0, [lr, #-1541]!	; 0xfffff9fb
    12e0:	052f0602 	streq	r0, [pc, #-1538]!	; ce6 <__code_start__-0x731a>
    12e4:	05010604 	streq	r0, [r1, #-1540]	; 0xfffff9fc
    12e8:	052f0603 	streq	r0, [pc, #-1539]!	; ced <__code_start__-0x7313>
    12ec:	05010611 	streq	r0, [r1, #-1553]	; 0xfffff9ef
    12f0:	02052e09 	andeq	r2, r5, #144	; 0x90
    12f4:	05153006 	ldreq	r3, [r5, #-6]
    12f8:	05010607 	streq	r0, [r1, #-1543]	; 0xfffff9f9
    12fc:	0b052e02 	bleq	14cb0c <__bss_end__+0x1420a4>
    1300:	01040200 	mrseq	r0, R12_usr
    1304:	02052e06 	andeq	r2, r5, #96	; 0x60
    1308:	01040200 	mrseq	r0, R12_usr
    130c:	03050106 	movweq	r0, #20742	; 0x5106
    1310:	03040200 	movweq	r0, #16896	; 0x4200
    1314:	0c052f06 	stceq	15, cr2, [r5], {6}
    1318:	03040200 	movweq	r0, #16896	; 0x4200
    131c:	0a050106 	beq	14173c <__bss_end__+0x136cd4>
    1320:	03040200 	movweq	r0, #16896	; 0x4200
    1324:	0017052e 	andseq	r0, r7, lr, lsr #10
    1328:	06030402 	streq	r0, [r3], -r2, lsl #8
    132c:	0402002d 	streq	r0, [r2], #-45	; 0xffffffd3
    1330:	05010603 	streq	r0, [r1, #-1539]	; 0xfffff9fd
    1334:	05300602 	ldreq	r0, [r0, #-1538]!	; 0xfffff9fe
    1338:	2e010609 	cfmadd32cs	mvax0, mvfx0, mvfx1, mvfx9
    133c:	30060205 	andcc	r0, r6, r5, lsl #4
    1340:	13060105 	movwne	r0, #24837	; 0x6105
    1344:	31064905 	tstcc	r6, r5, lsl #18
    1348:	02050106 	andeq	r0, r5, #-2147483647	; 0x80000001
    134c:	0405a006 	streq	sl, [r5], #-6
    1350:	03050106 	movweq	r0, #20742	; 0x5106
    1354:	09052f06 	stmdbeq	r5, {r1, r2, r8, r9, sl, fp, sp}
    1358:	02050106 	andeq	r0, r5, #-2147483647	; 0x80000001
    135c:	05133006 	ldreq	r3, [r3, #-6]
    1360:	0501060b 	streq	r0, [r1, #-1547]	; 0xfffff9f5
    1364:	06300602 	ldrteq	r0, [r0], -r2, lsl #12
    1368:	0604052e 	streq	r0, [r4], -lr, lsr #10
    136c:	13152402 	tstne	r5, #33554432	; 0x2000000
    1370:	01060f05 	tsteq	r6, r5, lsl #30
    1374:	4a06052e 	bmi	182834 <__bss_end__+0x177dcc>
    1378:	4b060505 	blmi	182794 <__bss_end__+0x177d2c>
    137c:	06090513 			; <UNDEFINED> instruction: 0x06090513
    1380:	06050501 	streq	r0, [r5], -r1, lsl #10
    1384:	060b052f 	streq	r0, [fp], -pc, lsr #10
    1388:	000d0510 	andeq	r0, sp, r0, lsl r5
    138c:	2c010402 	cfstrscs	mvf0, [r1], {2}
    1390:	02000405 	andeq	r0, r0, #83886080	; 0x5000000
    1394:	34060104 	strcc	r0, [r6], #-260	; 0xfffffefc
    1398:	02000505 	andeq	r0, r0, #20971520	; 0x1400000
    139c:	05130104 	ldreq	r0, [r3, #-260]	; 0xfffffefc
    13a0:	0402001b 	streq	r0, [r2], #-27	; 0xffffffe5
    13a4:	05010601 	streq	r0, [r1, #-1537]	; 0xfffff9ff
    13a8:	04020007 	streq	r0, [r2], #-7
    13ac:	1805d601 	stmdane	r5, {r0, r9, sl, ip, lr, pc}
    13b0:	01040200 	mrseq	r0, R12_usr
    13b4:	000a052e 	andeq	r0, sl, lr, lsr #10
    13b8:	4a010402 	bmi	423c8 <__bss_end__+0x37960>
    13bc:	02000b05 	andeq	r0, r0, #5120	; 0x1400
    13c0:	2f060104 	svccs	0x00060104
    13c4:	02000e05 	andeq	r0, r0, #80	; 0x50
    13c8:	2e060104 	adfcss	f0, f6, f4
    13cc:	02000405 	andeq	r0, r0, #83886080	; 0x5000000
    13d0:	062e0104 	strteq	r0, [lr], -r4, lsl #2
    13d4:	0606054b 	streq	r0, [r6], -fp, asr #10
    13d8:	06050501 	streq	r0, [r5], -r1, lsl #10
    13dc:	060a052f 	streq	r0, [sl], -pc, lsr #10
    13e0:	4a070501 	bmi	1c27ec <__bss_end__+0x1b7d84>
    13e4:	030d052e 	movweq	r0, #54574	; 0xd52e
    13e8:	054a2e76 	strbeq	r2, [sl, #-3702]	; 0xfffff18a
    13ec:	0d050d0b 	stceq	13, cr0, [r5, #-44]	; 0xffffffd4
    13f0:	01040200 	mrseq	r0, R12_usr
    13f4:	2e140306 	cdpcs	3, 1, cr0, cr4, cr6, {0}
    13f8:	02001105 	andeq	r1, r0, #1073741825	; 0x40000001
    13fc:	05130104 	ldreq	r0, [r3, #-260]	; 0xfffffefc
    1400:	0402002d 	streq	r0, [r2], #-45	; 0xffffffd3
    1404:	05010601 	streq	r0, [r1, #-1537]	; 0xfffff9ff
    1408:	0402002a 	streq	r0, [r2], #-42	; 0xffffffd6
    140c:	16052e01 	strne	r2, [r5], -r1, lsl #28
    1410:	01040200 	mrseq	r0, R12_usr
    1414:	0014054a 	andseq	r0, r4, sl, asr #10
    1418:	06010402 	streq	r0, [r1], -r2, lsl #8
    141c:	000d054b 	andeq	r0, sp, fp, asr #10
    1420:	06010402 	streq	r0, [r1], -r2, lsl #8
    1424:	04020001 	streq	r0, [r2], #-1
    1428:	2f064a01 	svccs	0x00064a01
    142c:	01061205 	tsteq	r6, r5, lsl #4
    1430:	060d054a 	streq	r0, [sp], -sl, asr #10
    1434:	0612052f 	ldreq	r0, [r2], -pc, lsr #10
    1438:	06190501 	ldreq	r0, [r9], -r1, lsl #10
    143c:	0004054b 	andeq	r0, r4, fp, asr #10
    1440:	03020402 	movweq	r0, #9218	; 0x2402
    1444:	02000111 	andeq	r0, r0, #1073741828	; 0x40000004
    1448:	05010204 	streq	r0, [r1, #-516]	; 0xfffffdfc
    144c:	04020002 	streq	r0, [r2], #-2
    1450:	09051502 	stmdbeq	r5, {r1, r8, sl, ip}
    1454:	02040200 	andeq	r0, r4, #0, 4
    1458:	02000106 	andeq	r0, r0, #-2147483647	; 0x80000001
    145c:	054a0204 	strbeq	r0, [sl, #-516]	; 0xfffffdfc
    1460:	04020001 	streq	r0, [r2], #-1
    1464:	04059f02 	streq	r9, [r5], #-3842	; 0xfffff0fe
    1468:	4a6e0306 	bmi	1b82088 <__bss_end__+0x1b77620>
    146c:	01060905 	tsteq	r6, r5, lsl #18
    1470:	2f060405 	svccs	0x00060405
    1474:	11060605 	tstne	r6, r5, lsl #12
    1478:	052f0405 	streq	r0, [pc, #-1029]!	; 107b <__code_start__-0x6f85>
    147c:	2e63030b 	cdpcs	3, 6, cr0, cr3, cr11, {0}
    1480:	02001905 	andeq	r1, r0, #81920	; 0x14000
    1484:	03060104 	movweq	r0, #24836	; 0x6104
    1488:	1a052e24 	bne	14cd20 <__bss_end__+0x1422b8>
    148c:	01040200 	mrseq	r0, R12_usr
    1490:	00280513 	eoreq	r0, r8, r3, lsl r5
    1494:	06010402 	streq	r0, [r1], -r2, lsl #8
    1498:	00250501 	eoreq	r0, r5, r1, lsl #10
    149c:	2e010402 	cdpcs	4, 0, cr0, cr1, cr2, {0}
    14a0:	02001f05 	andeq	r1, r0, #5, 30
    14a4:	054a0104 	strbeq	r0, [sl, #-260]	; 0xfffffefc
    14a8:	0402000b 	streq	r0, [r2], #-11
    14ac:	054b0601 	strbeq	r0, [fp, #-1537]	; 0xfffff9ff
    14b0:	04020004 	streq	r0, [r2], #-4
    14b4:	00010601 	andeq	r0, r1, r1, lsl #12
    14b8:	4a010402 	bmi	424c8 <__bss_end__+0x37a60>
    14bc:	01040200 	mrseq	r0, R12_usr
    14c0:	02004e06 	andeq	r4, r0, #96	; 0x60
    14c4:	00010104 	andeq	r0, r1, r4, lsl #2
    14c8:	01010402 	tsteq	r1, r2, lsl #8
    14cc:	01040200 	mrseq	r0, R12_usr
    14d0:	04020001 	streq	r0, [r2], #-1
    14d4:	002e0601 	eoreq	r0, lr, r1, lsl #12
    14d8:	66010402 	strvs	r0, [r1], -r2, lsl #8
    14dc:	01040200 	mrseq	r0, R12_usr
    14e0:	0402002e 	streq	r0, [r2], #-46	; 0xffffffd2
    14e4:	054a0601 	strbeq	r0, [sl, #-1537]	; 0xfffff9ff
    14e8:	7fa60348 	svcvc	0x00a60348
    14ec:	05052008 	streq	r2, [r5, #-8]
    14f0:	2e060113 	mcrcs	1, 0, r0, cr6, cr3, {0}
    14f4:	02040200 	andeq	r0, r4, #0, 4
    14f8:	02002e06 	andeq	r2, r0, #96	; 0x60
    14fc:	00010204 	andeq	r0, r1, r4, lsl #4
    1500:	13020402 	movwne	r0, #9218	; 0x2402
    1504:	02001105 	andeq	r1, r0, #1073741825	; 0x40000001
    1508:	01060204 	tsteq	r6, r4, lsl #4
    150c:	02000505 	andeq	r0, r0, #20971520	; 0x1400000
    1510:	4b060204 	blmi	181d28 <__bss_end__+0x1772c0>
    1514:	02000705 	andeq	r0, r0, #1310720	; 0x140000
    1518:	01060204 	tsteq	r6, r4, lsl #4
    151c:	4b060905 	blmi	183938 <__bss_end__+0x178ed0>
    1520:	01060e05 	tsteq	r6, r5, lsl #28
    1524:	02004805 	andeq	r4, r0, #327680	; 0x50000
    1528:	05620104 	strbeq	r0, [r2, #-260]!	; 0xfffffefc
    152c:	04020005 	streq	r0, [r2], #-5
    1530:	004b0601 	subeq	r0, fp, r1, lsl #12
    1534:	01010402 	tsteq	r1, r2, lsl #8
    1538:	01040200 	mrseq	r0, R12_usr
    153c:	02009e06 	andeq	r9, r0, #96	; 0x60
    1540:	002e0104 	eoreq	r0, lr, r4, lsl #2
    1544:	06010402 	streq	r0, [r1], -r2, lsl #8
    1548:	0340052e 	movteq	r0, #1326	; 0x52e
    154c:	06d600e1 	ldrbeq	r0, [r6], r1, ror #1
    1550:	06020501 	streq	r0, [r2], -r1, lsl #10
    1554:	061e059f 			; <UNDEFINED> instruction: 0x061e059f
    1558:	2e120501 	cfmul32cs	mvfx0, mvfx2, mvfx1
    155c:	2f060505 	svccs	0x00060505
    1560:	05140205 	ldreq	r0, [r4, #-517]	; 0xfffffdfb
    1564:	05010609 	streq	r0, [r1, #-1545]	; 0xfffff9f7
    1568:	054b0605 	strbeq	r0, [fp, #-1541]	; 0xfffff9fb
    156c:	08051302 	stmdaeq	r5, {r1, r8, r9, ip}
    1570:	02050d06 	andeq	r0, r5, #384	; 0x180
    1574:	06040533 			; <UNDEFINED> instruction: 0x06040533
    1578:	060f054c 	streq	r0, [pc], -ip, asr #10
    157c:	2e090501 	cfsh32cs	mvfx0, mvfx9, #1
    1580:	2c060805 	stccs	8, cr0, [r6], {5}
    1584:	2e060205 	cdpcs	2, 0, cr0, cr6, cr5, {0}
    1588:	02000d05 	andeq	r0, r0, #320	; 0x140
    158c:	054a0104 	strbeq	r0, [sl, #-260]	; 0xfffffefc
    1590:	054b0603 	strbeq	r0, [fp, #-1539]	; 0xfffff9fd
    1594:	05010605 	streq	r0, [r1, #-1541]	; 0xfffff9fb
    1598:	054d0608 	strbeq	r0, [sp, #-1544]	; 0xfffff9f8
    159c:	0501060e 	streq	r0, [r1, #-1550]	; 0xfffff9f2
    15a0:	04052e0a 	streq	r2, [r5], #-3594	; 0xfffff1f6
    15a4:	09052f06 	stmdbeq	r5, {r1, r2, r8, r9, sl, fp, sp}
    15a8:	04050106 	streq	r0, [r5], #-262	; 0xfffffefa
    15ac:	07052f06 	streq	r2, [r5, -r6, lsl #30]
    15b0:	052e0106 	streq	r0, [lr, #-262]!	; 0xfffffefa
    15b4:	05300604 	ldreq	r0, [r0, #-1540]!	; 0xfffff9fc
    15b8:	05010607 	streq	r0, [r1, #-1543]	; 0xfffff9f9
    15bc:	13300604 	teqne	r0, #4, 12	; 0x400000
    15c0:	060d0514 			; <UNDEFINED> instruction: 0x060d0514
    15c4:	06090510 			; <UNDEFINED> instruction: 0x06090510
    15c8:	06120530 			; <UNDEFINED> instruction: 0x06120530
    15cc:	2e0a0501 	cfsh32cs	mvfx0, mvfx10, #1
    15d0:	05660905 	strbeq	r0, [r6, #-2309]!	; 0xfffff6fb
    15d4:	054b0605 	strbeq	r0, [fp, #-1541]	; 0xfffff9fb
    15d8:	05010612 	streq	r0, [r1, #-1554]	; 0xfffff9ee
    15dc:	0b052e16 	bleq	14ce3c <__bss_end__+0x1423d4>
    15e0:	0605052e 	streq	r0, [r5], -lr, lsr #10
    15e4:	0608052f 	streq	r0, [r8], -pc, lsr #10
    15e8:	04052e01 	streq	r2, [r5], #-3585	; 0xfffff1ff
    15ec:	4a013006 	bmi	4d60c <__bss_end__+0x42ba4>
    15f0:	02001501 	andeq	r1, r0, #4194304	; 0x400000
    15f4:	36020104 	strcc	r0, [r2], -r4, lsl #2
    15f8:	0402000f 	streq	r0, [r2], #-15
    15fc:	02000101 	andeq	r0, r0, #1073741824	; 0x40000000
    1600:	05d60104 	ldrbeq	r0, [r6, #260]	; 0x104
    1604:	01133411 	tsteq	r3, r1, lsl r4
    1608:	02040200 	andeq	r0, r4, #0, 4
    160c:	0200ba06 	andeq	fp, r0, #24576	; 0x6000
    1610:	ba060304 	blt	182228 <__bss_end__+0x1777c0>
    1614:	03040200 	movweq	r0, #16896	; 0x4200
    1618:	04020001 	streq	r0, [r2], #-1
    161c:	15051403 	strne	r1, [r5, #-1027]	; 0xfffffbfd
    1620:	03040200 	movweq	r0, #16896	; 0x4200
    1624:	11050106 	tstne	r5, r6, lsl #2
    1628:	03040200 	movweq	r0, #16896	; 0x4200
    162c:	1a052f06 	bne	14d24c <__bss_end__+0x1427e4>
    1630:	03040200 	movweq	r0, #16896	; 0x4200
    1634:	11050106 	tstne	r5, r6, lsl #2
    1638:	03040200 	movweq	r0, #16896	; 0x4200
    163c:	0200d706 	andeq	sp, r0, #1572864	; 0x180000
    1640:	00130304 	andseq	r0, r3, r4, lsl #6
    1644:	14030402 	strne	r0, [r3], #-1026	; 0xfffffbfe
    1648:	03040200 	movweq	r0, #16896	; 0x4200
    164c:	04020067 	streq	r0, [r2], #-103	; 0xffffff99
    1650:	14056803 	strne	r6, [r5], #-2051	; 0xfffff7fd
    1654:	03040200 	movweq	r0, #16896	; 0x4200
    1658:	13050106 	movwne	r0, #20742	; 0x5106
    165c:	03040200 	movweq	r0, #16896	; 0x4200
    1660:	06180582 	ldreq	r0, [r8], -r2, lsl #11
    1664:	061b054e 	ldreq	r0, [fp], -lr, asr #10
    1668:	821a0501 	andshi	r0, sl, #4194304	; 0x400000
    166c:	4b060905 	blmi	183a88 <__bss_end__+0x179020>
    1670:	01060d05 	tsteq	r6, r5, lsl #26
    1674:	0609052e 	streq	r0, [r9], -lr, lsr #10
    1678:	05ba06f3 	ldreq	r0, [sl, #1779]!	; 0x6f3
    167c:	05300615 	ldreq	r0, [r0, #-1557]!	; 0xfffff9eb
    1680:	05010618 	streq	r0, [r1, #-1560]	; 0xfffff9e8
    1684:	19056617 	stmdbne	r5, {r0, r1, r2, r4, r9, sl, sp, lr}
    1688:	15054b06 	strne	r4, [r5, #-2822]	; 0xfffff4fa
    168c:	666f0306 	strbtvs	r0, [pc], -r6, lsl #6
    1690:	48061105 	stmdami	r6, {r0, r2, r8, ip}
    1694:	0905d601 	stmdbeq	r5, {r0, r9, sl, ip, lr, pc}
    1698:	052e0b03 	streq	r0, [lr, #-2819]!	; 0xfffff4fd
    169c:	2e01060d 	cfmadd32cs	mvax0, mvfx0, mvfx1, mvfx13
    16a0:	f3060905 	vmls.i8	d0, d6, d5
    16a4:	1505ba06 	strne	fp, [r5, #-2566]	; 0xfffff5fa
    16a8:	03062f06 	movweq	r2, #28422	; 0x6f06
    16ac:	19056675 	stmdbne	r5, {r0, r2, r4, r5, r6, r9, sl, sp, lr}
    16b0:	4a130306 	bmi	4c22d0 <__bss_end__+0x4b7868>
    16b4:	03061505 	movweq	r1, #25861	; 0x6505
    16b8:	0306666d 	movweq	r6, #26221	; 0x666d
    16bc:	ba014a15 	blt	53f18 <__bss_end__+0x494b0>
    16c0:	05052e06 	streq	r2, [r5, #-3590]	; 0xfffff1fa
    16c4:	9e011a06 	vmlals.f32	s2, s2, s12
    16c8:	010e032e 	tsteq	lr, lr, lsr #6
    16cc:	01060905 	tsteq	r6, r5, lsl #18
    16d0:	08060505 	stmdaeq	r6, {r0, r2, r8, sl}
    16d4:	03040575 	movweq	r0, #17781	; 0x4575
    16d8:	07050118 	smladeq	r5, r8, r1, r0
    16dc:	04050106 	streq	r0, [r5], #-262	; 0xfffffefa
    16e0:	05053106 	streq	r3, [r5, #-262]	; 0xfffffefa
    16e4:	052e6703 	streq	r6, [lr, #-1795]!	; 0xfffff8fd
    16e8:	0501061c 	streq	r0, [r1, #-1564]	; 0xfffff9e4
    16ec:	05058209 	streq	r8, [r5, #-521]	; 0xfffffdf7
    16f0:	0531f306 	ldreq	pc, [r1, #-774]!	; 0xfffffcfa
    16f4:	0501061c 	streq	r0, [r1, #-1564]	; 0xfffff9e4
    16f8:	05058209 	streq	r8, [r5, #-521]	; 0xfffffdf7
    16fc:	0530f306 	ldreq	pc, [r0, #-774]!	; 0xfffffcfa
    1700:	0501061b 	streq	r0, [r1, #-1563]	; 0xfffff9e5
    1704:	05058209 	streq	r8, [r5, #-521]	; 0xfffffdf7
    1708:	0530f306 	ldreq	pc, [r0, #-774]!	; 0xfffffcfa
    170c:	05010607 	streq	r0, [r1, #-1543]	; 0xfffff9f9
    1710:	30830605 	addcc	r0, r3, r5, lsl #12
    1714:	01060905 	tsteq	r6, r5, lsl #18
    1718:	08060505 	stmdaeq	r6, {r0, r2, r8, sl}
    171c:	30110575 	andscc	r0, r1, r5, ror r5
    1720:	01062205 	tsteq	r6, r5, lsl #4
    1724:	4b060505 	blmi	182b40 <__bss_end__+0x1780d8>
    1728:	05831105 	streq	r1, [r3, #261]	; 0x105
    172c:	9e018305 	cdpls	3, 0, cr8, cr1, cr5, {0}
    1730:	060e0535 			; <UNDEFINED> instruction: 0x060e0535
    1734:	2e0a0501 	cfsh32cs	mvfx0, mvfx10, #1
    1738:	04052d06 	streq	r2, [r5], #-3334	; 0xfffff2fa
    173c:	13050106 	movwne	r0, #20742	; 0x5106
    1740:	01040200 	mrseq	r0, R12_usr
    1744:	0010054a 	andseq	r0, r0, sl, asr #10
    1748:	2e010402 	cdpcs	4, 0, cr0, cr1, cr2, {0}
    174c:	01040200 	mrseq	r0, R12_usr
    1750:	06020566 	streq	r0, [r2], -r6, ror #10
    1754:	06070516 			; <UNDEFINED> instruction: 0x06070516
    1758:	06020501 	streq	r0, [r2], -r1, lsl #10
    175c:	0601054b 	streq	r0, [r1], -fp, asr #10
    1760:	1e026613 	mcrne	6, 0, r6, cr2, cr3, {0}
    1764:	a5010100 	strge	r0, [r1, #-256]	; 0xffffff00
    1768:	03000000 	movweq	r0, #0
    176c:	00008a00 	andeq	r8, r0, r0, lsl #20
    1770:	fb010200 	blx	41f7a <__bss_end__+0x37512>
    1774:	01000d0e 	tsteq	r0, lr, lsl #26
    1778:	00010101 	andeq	r0, r1, r1, lsl #2
    177c:	00010000 	andeq	r0, r1, r0
    1780:	2f2e0100 	svccs	0x002e0100
    1784:	66617473 			; <UNDEFINED> instruction: 0x66617473
    1788:	72732d66 	rsbsvc	r2, r3, #6528	; 0x1980
    178c:	552f0063 	strpl	r0, [pc, #-99]!	; 1731 <__code_start__-0x68cf>
    1790:	73726573 	cmnvc	r2, #482344960	; 0x1cc00000
    1794:	6972742f 	ldmdbvs	r2!, {r0, r1, r2, r3, r5, sl, ip, sp, lr}^
    1798:	6e657473 	mcrvs	4, 3, r7, cr5, cr3, {3}
    179c:	6c6c6f6e 	stclvs	15, cr6, [ip], #-440	; 0xfffffe48
    17a0:	2f6e616d 	svccs	0x006e616d
    17a4:	75636f44 	strbvc	r6, [r3, #-3908]!	; 0xfffff0bc
    17a8:	746e656d 	strbtvc	r6, [lr], #-1389	; 0xfffffa93
    17ac:	70532f73 	subsvc	r2, r3, r3, ror pc
    17b0:	676e6972 			; <UNDEFINED> instruction: 0x676e6972
    17b4:	6175515f 	cmnvs	r5, pc, asr r1
    17b8:	72657472 	rsbvc	r7, r5, #1912602624	; 0x72000000
    17bc:	3230325f 	eorscc	r3, r0, #-268435451	; 0xf0000005
    17c0:	53432f32 	movtpl	r2, #16178	; 0x3f32
    17c4:	4c303432 	cfldrsmi	mvf3, [r0], #-200	; 0xffffff38
    17c8:	70732d58 	rsbsvc	r2, r3, r8, asr sp
    17cc:	2f323272 	svccs	0x00323272
    17d0:	7062696c 	rsbvc	r6, r2, ip, ror #18
    17d4:	6e692f69 	cdpvs	15, 6, cr2, cr9, cr9, {3}
    17d8:	64756c63 	ldrbtvs	r6, [r5], #-3171	; 0xfffff39d
    17dc:	63000065 	movwvs	r0, #101	; 0x65
    17e0:	6e61656c 	cdpvs	5, 6, cr6, cr1, cr12, {3}
    17e4:	6265722d 	rsbvs	r7, r5, #-805306366	; 0xd0000002
    17e8:	2e746f6f 	cdpcs	15, 7, cr6, cr4, cr15, {3}
    17ec:	00010063 	andeq	r0, r1, r3, rrx
    17f0:	69707200 	ldmdbvs	r0!, {r9, ip, sp, lr}^
    17f4:	0200682e 	andeq	r6, r0, #3014656	; 0x2e0000
    17f8:	05000000 	streq	r0, [r0, #-0]
    17fc:	02050019 	andeq	r0, r5, #25, 0
    1800:	00009494 	muleq	r0, r4, r4
    1804:	2f050515 	svccs	0x00050515
    1808:	024b2f83 	subeq	r2, fp, #524	; 0x20c
    180c:	01010006 	tsteq	r1, r6
    1810:	000000bf 	strheq	r0, [r0], -pc	; <UNPREDICTABLE>
    1814:	00840003 	addeq	r0, r4, r3
    1818:	01020000 	mrseq	r0, (UNDEF: 2)
    181c:	000d0efb 	strdeq	r0, [sp], -fp
    1820:	01010101 	tsteq	r1, r1, lsl #2
    1824:	01000000 	mrseq	r0, (UNDEF: 0)
    1828:	2e010000 	cdpcs	0, 0, cr0, cr1, cr0, {0}
    182c:	6174732f 	cmnvs	r4, pc, lsr #6
    1830:	732d6666 			; <UNDEFINED> instruction: 0x732d6666
    1834:	2f006372 	svccs	0x00006372
    1838:	72657355 	rsbvc	r7, r5, #1409286145	; 0x54000001
    183c:	72742f73 	rsbsvc	r2, r4, #460	; 0x1cc
    1840:	65747369 	ldrbvs	r7, [r4, #-873]!	; 0xfffffc97
    1844:	6c6f6e6e 	stclvs	14, cr6, [pc], #-440	; 1694 <__code_start__-0x696c>
    1848:	6e616d6c 	cdpvs	13, 6, cr6, cr1, cr12, {3}
    184c:	636f442f 	cmnvs	pc, #788529152	; 0x2f000000
    1850:	6e656d75 	mcrvs	13, 3, r6, cr5, cr5, {3}
    1854:	532f7374 			; <UNDEFINED> instruction: 0x532f7374
    1858:	6e697270 	mcrvs	2, 3, r7, cr9, cr0, {3}
    185c:	75515f67 	ldrbvc	r5, [r1, #-3943]	; 0xfffff099
    1860:	65747261 	ldrbvs	r7, [r4, #-609]!	; 0xfffffd9f
    1864:	30325f72 	eorscc	r5, r2, r2, ror pc
    1868:	432f3232 			; <UNDEFINED> instruction: 0x432f3232
    186c:	30343253 	eorscc	r3, r4, r3, asr r2
    1870:	732d584c 			; <UNDEFINED> instruction: 0x732d584c
    1874:	32327270 	eorscc	r7, r2, #112, 4
    1878:	62696c2f 	rsbvs	r6, r9, #12032	; 0x2f00
    187c:	692f6970 	stmdbvs	pc!, {r4, r5, r6, r8, fp, sp, lr}	; <UNPREDICTABLE>
    1880:	756c636e 	strbvc	r6, [ip, #-878]!	; 0xfffffc92
    1884:	00006564 	andeq	r6, r0, r4, ror #10
    1888:	61747363 	cmnvs	r4, r3, ror #6
    188c:	632e7472 			; <UNDEFINED> instruction: 0x632e7472
    1890:	00000100 	andeq	r0, r0, r0, lsl #2
    1894:	2e697072 	mcrcs	0, 3, r7, cr9, cr2, {3}
    1898:	00020068 	andeq	r0, r2, r8, rrx
    189c:	10050000 	andne	r0, r5, r0
    18a0:	c0020500 	andgt	r0, r2, r0, lsl #10
    18a4:	15000094 	strne	r0, [r0, #-148]	; 0xffffff6c
    18a8:	052f0505 	streq	r0, [pc, #-1285]!	; 13ab <__code_start__-0x6c55>
    18ac:	05051302 	streq	r1, [r5, #-770]	; 0xfffffcfe
    18b0:	14133014 	ldrne	r3, [r3], #-20	; 0xffffffec
    18b4:	0f060a05 	svceq	0x00060a05
    18b8:	09053106 	stmdbeq	r5, {r1, r2, r8, ip, sp}
    18bc:	0610054b 	ldreq	r0, [r0], -fp, asr #10
    18c0:	05054a01 	streq	r4, [r5, #-2561]	; 0xfffff5ff
    18c4:	01323006 	teqeq	r2, r6
    18c8:	05144a01 	ldreq	r4, [r4, #-2561]	; 0xfffff5ff
    18cc:	06022f02 	streq	r2, [r2], -r2, lsl #30
    18d0:	a3010100 	movwge	r0, #4352	; 0x1100
    18d4:	03000000 	movweq	r0, #0
    18d8:	00008b00 	andeq	r8, r0, r0, lsl #22
    18dc:	fb010200 	blx	420e6 <__bss_end__+0x3767e>
    18e0:	01000d0e 	tsteq	r0, lr, lsl #26
    18e4:	00010101 	andeq	r0, r1, r1, lsl #2
    18e8:	00010000 	andeq	r0, r1, r0
    18ec:	2f2e0100 	svccs	0x002e0100
    18f0:	66617473 			; <UNDEFINED> instruction: 0x66617473
    18f4:	72732d66 	rsbsvc	r2, r3, #6528	; 0x1980
    18f8:	552f0063 	strpl	r0, [pc, #-99]!	; 189d <__code_start__-0x6763>
    18fc:	73726573 	cmnvc	r2, #482344960	; 0x1cc00000
    1900:	6972742f 	ldmdbvs	r2!, {r0, r1, r2, r3, r5, sl, ip, sp, lr}^
    1904:	6e657473 	mcrvs	4, 3, r7, cr5, cr3, {3}
    1908:	6c6c6f6e 	stclvs	15, cr6, [ip], #-440	; 0xfffffe48
    190c:	2f6e616d 	svccs	0x006e616d
    1910:	75636f44 	strbvc	r6, [r3, #-3908]!	; 0xfffff0bc
    1914:	746e656d 	strbtvc	r6, [lr], #-1389	; 0xfffffa93
    1918:	70532f73 	subsvc	r2, r3, r3, ror pc
    191c:	676e6972 			; <UNDEFINED> instruction: 0x676e6972
    1920:	6175515f 	cmnvs	r5, pc, asr r1
    1924:	72657472 	rsbvc	r7, r5, #1912602624	; 0x72000000
    1928:	3230325f 	eorscc	r3, r0, #-268435451	; 0xf0000005
    192c:	53432f32 	movtpl	r2, #16178	; 0x3f32
    1930:	4c303432 	cfldrsmi	mvf3, [r0], #-200	; 0xffffff38
    1934:	70732d58 	rsbsvc	r2, r3, r8, asr sp
    1938:	2f323272 	svccs	0x00323272
    193c:	7062696c 	rsbvc	r6, r2, ip, ror #18
    1940:	6e692f69 	cdpvs	15, 6, cr2, cr9, cr9, {3}
    1944:	64756c63 	ldrbtvs	r6, [r5], #-3171	; 0xfffff39d
    1948:	63000065 	movwvs	r0, #101	; 0x65
    194c:	6f747375 	svcvs	0x00747375
    1950:	6f6c2d6d 	svcvs	0x006c2d6d
    1954:	72656461 	rsbvc	r6, r5, #1627389952	; 0x61000000
    1958:	0100632e 	tsteq	r0, lr, lsr #6
    195c:	70720000 	rsbsvc	r0, r2, r0
    1960:	00682e69 	rsbeq	r2, r8, r9, ror #28
    1964:	00000002 	andeq	r0, r0, r2
    1968:	05001a05 	streq	r1, [r0, #-2565]	; 0xfffff5fb
    196c:	0094fc02 	addseq	pc, r4, r2, lsl #24
    1970:	01051500 	tsteq	r5, r0, lsl #10
    1974:	00020214 	andeq	r0, r2, r4, lsl r2
    1978:	00f30101 	rscseq	r0, r3, r1, lsl #2
    197c:	00030000 	andeq	r0, r3, r0
    1980:	00000084 	andeq	r0, r0, r4, lsl #1
    1984:	0efb0102 	cdpeq	1, 15, cr0, cr11, cr2, {0}
    1988:	0101000d 	tsteq	r1, sp
    198c:	00000101 	andeq	r0, r0, r1, lsl #2
    1990:	00000100 	andeq	r0, r0, r0, lsl #2
    1994:	732f2e01 			; <UNDEFINED> instruction: 0x732f2e01
    1998:	66666174 			; <UNDEFINED> instruction: 0x66666174
    199c:	6372732d 	cmnvs	r2, #-1275068416	; 0xb4000000
    19a0:	73552f00 	cmpvc	r5, #0, 30
    19a4:	2f737265 	svccs	0x00737265
    19a8:	73697274 	cmnvc	r9, #116, 4	; 0x40000007
    19ac:	6e6e6574 	mcrvs	5, 3, r6, cr14, cr4, {3}
    19b0:	6d6c6c6f 	stclvs	12, cr6, [ip, #-444]!	; 0xfffffe44
    19b4:	442f6e61 	strtmi	r6, [pc], #-3681	; 19bc <__code_start__-0x6644>
    19b8:	6d75636f 	ldclvs	3, cr6, [r5, #-444]!	; 0xfffffe44
    19bc:	73746e65 	cmnvc	r4, #1616	; 0x650
    19c0:	7270532f 	rsbsvc	r5, r0, #-1140850688	; 0xbc000000
    19c4:	5f676e69 	svcpl	0x00676e69
    19c8:	72617551 	rsbvc	r7, r1, #339738624	; 0x14400000
    19cc:	5f726574 	svcpl	0x00726574
    19d0:	32323032 	eorscc	r3, r2, #50, 0	; 0x32
    19d4:	3253432f 	subscc	r4, r3, #-1140850688	; 0xbc000000
    19d8:	584c3034 	stmdapl	ip, {r2, r4, r5, ip, sp}^
    19dc:	7270732d 	rsbsvc	r7, r0, #-1275068416	; 0xb4000000
    19e0:	6c2f3232 	sfmvs	f3, 4, [pc], #-200	; 1920 <__code_start__-0x66e0>
    19e4:	69706269 	ldmdbvs	r0!, {r0, r3, r5, r6, r9, sp, lr}^
    19e8:	636e692f 	cmnvs	lr, #770048	; 0xbc000
    19ec:	6564756c 	strbvs	r7, [r4, #-1388]!	; 0xfffffa94
    19f0:	65720000 	ldrbvs	r0, [r2, #-0]!
    19f4:	746f6f62 	strbtvc	r6, [pc], #-3938	; 19fc <__code_start__-0x6604>
    19f8:	0100632e 	tsteq	r0, lr, lsr #6
    19fc:	70720000 	rsbsvc	r0, r2, r0
    1a00:	00682e69 	rsbeq	r2, r8, r9, ror #28
    1a04:	00000002 	andeq	r0, r0, r2
    1a08:	05001905 	streq	r1, [r0, #-2309]	; 0xfffff6fb
    1a0c:	00950002 	addseq	r0, r5, r2
    1a10:	010d0300 	mrseq	r0, SP_mon
    1a14:	13130505 	tstne	r3, #20971520	; 0x1400000
    1a18:	06130531 			; <UNDEFINED> instruction: 0x06130531
    1a1c:	2f010501 	svccs	0x00010501
    1a20:	85061b05 	strhi	r1, [r6, #-2821]	; 0xfffff4fb
    1a24:	14130505 	ldrne	r0, [r3], #-1285	; 0xfffffafb
    1a28:	052f0905 	streq	r0, [pc, #-2309]!	; 112b <__code_start__-0x6ed5>
    1a2c:	05010616 	streq	r0, [r1, #-1558]	; 0xfffff9ea
    1a30:	05052e0e 	streq	r2, [r5, #-3598]	; 0xfffff1f2
    1a34:	01052f06 	tsteq	r5, r6, lsl #30
    1a38:	17052f06 	strne	r2, [r5, -r6, lsl #30]
    1a3c:	05053006 	streq	r3, [r5, #-6]
    1a40:	0608052f 	streq	r0, [r8], -pc, lsr #10
    1a44:	2e070501 	cfsh32cs	mvfx0, mvfx7, #1
    1a48:	50060505 	andpl	r0, r6, r5, lsl #10
    1a4c:	134d2f30 	movtne	r2, #57136	; 0xdf30
    1a50:	67151313 			; <UNDEFINED> instruction: 0x67151313
    1a54:	01040200 	mrseq	r0, R12_usr
    1a58:	000d0567 	andeq	r0, sp, r7, ror #10
    1a5c:	01010402 	tsteq	r1, r2, lsl #8
    1a60:	02000a05 	andeq	r0, r0, #20480	; 0x5000
    1a64:	05010104 	streq	r0, [r1, #-260]	; 0xfffffefc
    1a68:	2e6d0309 	cdpcs	3, 6, cr0, cr13, cr9, {0}
    1a6c:	01000c02 	tsteq	r0, r2, lsl #24
    1a70:	0000fa01 	andeq	pc, r0, r1, lsl #20
    1a74:	83000300 	movwhi	r0, #768	; 0x300
    1a78:	02000000 	andeq	r0, r0, #0, 0
    1a7c:	0d0efb01 	vstreq	d15, [lr, #-4]
    1a80:	01010100 	mrseq	r0, (UNDEF: 17)
    1a84:	00000001 	andeq	r0, r0, r1
    1a88:	01000001 	tsteq	r0, r1
    1a8c:	74732f2e 	ldrbtvc	r2, [r3], #-3886	; 0xfffff0d2
    1a90:	2d666661 	stclcs	6, cr6, [r6, #-388]!	; 0xfffffe7c
    1a94:	00637273 	rsbeq	r7, r3, r3, ror r2
    1a98:	6573552f 	ldrbvs	r5, [r3, #-1327]!	; 0xfffffad1
    1a9c:	742f7372 	strtvc	r7, [pc], #-882	; 1aa4 <__code_start__-0x655c>
    1aa0:	74736972 	ldrbtvc	r6, [r3], #-2418	; 0xfffff68e
    1aa4:	6f6e6e65 	svcvs	0x006e6e65
    1aa8:	616d6c6c 	cmnvs	sp, ip, ror #24
    1aac:	6f442f6e 	svcvs	0x00442f6e
    1ab0:	656d7563 	strbvs	r7, [sp, #-1379]!	; 0xfffffa9d
    1ab4:	2f73746e 	svccs	0x0073746e
    1ab8:	69727053 	ldmdbvs	r2!, {r0, r1, r4, r6, ip, sp, lr}^
    1abc:	515f676e 	cmppl	pc, lr, ror #14
    1ac0:	74726175 	ldrbtvc	r6, [r2], #-373	; 0xfffffe8b
    1ac4:	325f7265 	subscc	r7, pc, #1342177286	; 0x50000006
    1ac8:	2f323230 	svccs	0x00323230
    1acc:	34325343 	ldrtcc	r5, [r2], #-835	; 0xfffffcbd
    1ad0:	2d584c30 	ldclcs	12, cr4, [r8, #-192]	; 0xffffff40
    1ad4:	32727073 	rsbscc	r7, r2, #115, 0	; 0x73
    1ad8:	696c2f32 	stmdbvs	ip!, {r1, r4, r5, r8, r9, sl, fp, sp}^
    1adc:	2f697062 	svccs	0x00697062
    1ae0:	6c636e69 	stclvs	14, cr6, [r3], #-420	; 0xfffffe5c
    1ae4:	00656475 	rsbeq	r6, r5, r5, ror r4
    1ae8:	6d697400 	cfstrdvs	mvd7, [r9, #-0]
    1aec:	632e7265 			; <UNDEFINED> instruction: 0x632e7265
    1af0:	00000100 	andeq	r0, r0, r0, lsl #2
    1af4:	2e697072 	mcrcs	0, 3, r7, cr9, cr2, {3}
    1af8:	00020068 	andeq	r0, r2, r8, rrx
    1afc:	23050000 	movwcs	r0, #20480	; 0x5000
    1b00:	80020500 	andhi	r0, r2, r0, lsl #10
    1b04:	15000095 	strne	r0, [r0, #-149]	; 0xffffff6b
    1b08:	052f0505 	streq	r0, [pc, #-1285]!	; 160b <__code_start__-0x69f5>
    1b0c:	0501060c 	streq	r0, [r1, #-1548]	; 0xfffff9f4
    1b10:	1f054b01 	svcne	0x00054b01
    1b14:	05054d06 	streq	r4, [r5, #-3334]	; 0xfffff2fa
    1b18:	12052f31 	andne	r2, r5, #196	; 0xc4
    1b1c:	05050106 	streq	r0, [r5, #-262]	; 0xfffffefa
    1b20:	052f4b06 	streq	r4, [pc, #-2822]!	; 1022 <__code_start__-0x6fde>
    1b24:	05130601 	ldreq	r0, [r3, #-1537]	; 0xfffff9ff
    1b28:	064c061c 			; <UNDEFINED> instruction: 0x064c061c
    1b2c:	06050501 	streq	r0, [r5], -r1, lsl #10
    1b30:	0613054b 	ldreq	r0, [r3], -fp, asr #10
    1b34:	05052e01 	streq	r2, [r5, #-3585]	; 0xfffff1ff
    1b38:	09052f06 	stmdbeq	r5, {r1, r2, r8, r9, sl, fp, sp}
    1b3c:	06170513 			; <UNDEFINED> instruction: 0x06170513
    1b40:	06090501 	streq	r0, [r9], -r1, lsl #10
    1b44:	0611052f 	ldreq	r0, [r1], -pc, lsr #10
    1b48:	2e0c0501 	cfsh32cs	mvfx0, mvfx12, #1
    1b4c:	6b061c05 	blvs	188b68 <__bss_end__+0x17e100>
    1b50:	05050106 	streq	r0, [r5, #-262]	; 0xfffffefa
    1b54:	4a062f06 	bmi	18d774 <__bss_end__+0x182d0c>
    1b58:	054b0105 	strbeq	r0, [fp, #-261]	; 0xfffffefb
    1b5c:	062f061e 			; <UNDEFINED> instruction: 0x062f061e
    1b60:	06050501 	streq	r0, [r5], -r1, lsl #10
    1b64:	054a062f 	strbeq	r0, [sl, #-1583]	; 0xfffff9d1
    1b68:	02024b01 	andeq	r4, r2, #1024	; 0x400
    1b6c:	05010100 	streq	r0, [r1, #-256]	; 0xffffff00
    1b70:	03000002 	movweq	r0, #2
    1b74:	0000c900 	andeq	ip, r0, r0, lsl #18
    1b78:	fb010200 	blx	42382 <__bss_end__+0x3791a>
    1b7c:	01000d0e 	tsteq	r0, lr, lsl #26
    1b80:	00010101 	andeq	r0, r1, r1, lsl #2
    1b84:	00010000 	andeq	r0, r1, r0
    1b88:	682f0100 	stmdavs	pc!, {r8}	; <UNPREDICTABLE>
    1b8c:	2f656d6f 	svccs	0x00656d6f
    1b90:	6c676e65 	stclvs	14, cr6, [r7], #-404	; 0xfffffe6c
    1b94:	632f7265 			; <UNDEFINED> instruction: 0x632f7265
    1b98:	7373616c 	cmnvc	r3, #27
    1b9c:	3273632f 	rsbscc	r6, r3, #-1140850688	; 0xbc000000
    1ba0:	786c3034 	stmdavc	ip!, {r2, r4, r5, ip, sp}^
    1ba4:	7332322d 	teqvc	r2, #-805306366	; 0xd0000002
    1ba8:	2f2f7270 	svccs	0x002f7270
    1bac:	7062696c 	rsbvc	r6, r2, ip, ror #18
    1bb0:	6e692f69 	cdpvs	15, 6, cr2, cr9, cr9, {3}
    1bb4:	64756c63 	ldrbtvs	r6, [r5], #-3171	; 0xfffff39d
    1bb8:	752f0065 	strvc	r0, [pc, #-101]!	; 1b5b <__code_start__-0x64a5>
    1bbc:	732f7273 			; <UNDEFINED> instruction: 0x732f7273
    1bc0:	65726168 	ldrbvs	r6, [r2, #-360]!	; 0xfffffe98
    1bc4:	6363672f 	cmnvs	r3, #12320768	; 0xbc0000
    1bc8:	6d72612d 	ldfvse	f6, [r2, #-180]!	; 0xffffff4c
    1bcc:	6e6f6e2d 	cdpvs	14, 6, cr6, cr15, cr13, {1}
    1bd0:	61652d65 	cmnvs	r5, r5, ror #26
    1bd4:	312d6962 			; <UNDEFINED> instruction: 0x312d6962
    1bd8:	2d332e30 	ldccs	14, cr2, [r3, #-192]!	; 0xffffff40
    1bdc:	31323032 	teqcc	r2, r2, lsr r0
    1be0:	2f30312e 	svccs	0x0030312e
    1be4:	2f62696c 	svccs	0x0062696c
    1be8:	2f636367 	svccs	0x00636367
    1bec:	2d6d7261 	sfmcs	f7, 2, [sp, #-388]!	; 0xfffffe7c
    1bf0:	656e6f6e 	strbvs	r6, [lr, #-3950]!	; 0xfffff092
    1bf4:	6261652d 	rsbvs	r6, r1, #188743680	; 0xb400000
    1bf8:	30312f69 	eorscc	r2, r1, r9, ror #30
    1bfc:	312e332e 			; <UNDEFINED> instruction: 0x312e332e
    1c00:	636e692f 	cmnvs	lr, #770048	; 0xbc000
    1c04:	6564756c 	strbvs	r7, [r4, #-1388]!	; 0xfffffa94
    1c08:	61750000 	cmnvs	r5, r0
    1c0c:	632e7472 			; <UNDEFINED> instruction: 0x632e7472
    1c10:	00000000 	andeq	r0, r0, r0
    1c14:	74726175 	ldrbtvc	r6, [r2], #-373	; 0xfffffe8b
    1c18:	0100682e 	tsteq	r0, lr, lsr #16
    1c1c:	70720000 	rsbsvc	r0, r2, r0
    1c20:	00682e69 	rsbeq	r2, r8, r9, ror #28
    1c24:	67000001 	strvs	r0, [r0, -r1]
    1c28:	2e6f6970 			; <UNDEFINED> instruction: 0x2e6f6970
    1c2c:	00010068 	andeq	r0, r1, r8, rrx
    1c30:	64747300 	ldrbtvs	r7, [r4], #-768	; 0xfffffd00
    1c34:	2d746e69 	ldclcs	14, cr6, [r4, #-420]!	; 0xfffffe5c
    1c38:	2e636367 	cdpcs	3, 6, cr6, cr3, cr7, {3}
    1c3c:	00020068 	andeq	r0, r2, r8, rrx
    1c40:	39050000 	stmdbcc	r5, {}	; <UNPREDICTABLE>
    1c44:	04020500 	streq	r0, [r2], #-1280	; 0xfffffb00
    1c48:	03000096 	movweq	r0, #150	; 0x96
    1c4c:	01060130 	tsteq	r6, r0, lsr r1
    1c50:	67060505 	strvs	r0, [r6, -r5, lsl #10]
    1c54:	01061105 	tsteq	r6, r5, lsl #2
    1c58:	052e0505 	streq	r0, [lr, #-1285]!	; 0xfffffafb
    1c5c:	38056701 	stmdacc	r5, {r0, r8, r9, sl, sp, lr}
    1c60:	01062906 	tsteq	r6, r6, lsl #18
    1c64:	67060505 	strvs	r0, [r6, -r5, lsl #10]
    1c68:	01061105 	tsteq	r6, r5, lsl #2
    1c6c:	052e0505 	streq	r0, [lr, #-1285]!	; 0xfffffafb
    1c70:	16056701 	strne	r6, [r5], -r1, lsl #14
    1c74:	2e150306 	cdpcs	3, 1, cr0, cr5, cr6, {0}
    1c78:	67350505 	ldrvs	r0, [r5, -r5, lsl #10]!
    1c7c:	03683568 	cmneq	r8, #104, 10	; 0x1a000000
    1c80:	6b852e0c 	blvs	fe14d4b8 <__bss_end__+0xfe142a50>
    1c84:	0c036969 			; <UNDEFINED> instruction: 0x0c036969
    1c88:	676b1366 	strbvs	r1, [fp, -r6, ror #6]!
    1c8c:	2f060105 	svccs	0x00060105
    1c90:	08061905 	stmdaeq	r6, {r0, r2, r8, fp, ip}
    1c94:	34050525 	strcc	r0, [r5], #-1317	; 0xfffffadb
    1c98:	01060d05 	tsteq	r6, r5, lsl #26
    1c9c:	054c0105 	strbeq	r0, [ip, #-261]	; 0xfffffefb
    1ca0:	05670619 	strbeq	r0, [r7, #-1561]!	; 0xfffff9e7
    1ca4:	0d053605 	stceq	6, cr3, [r5, #-20]	; 0xffffffec
    1ca8:	28050106 	stmdacs	r5, {r1, r2, r8}
    1cac:	3001054a 	andcc	r0, r1, sl, asr #10
    1cb0:	87061505 	strhi	r1, [r6, -r5, lsl #10]
    1cb4:	2f2f0505 	svccs	0x002f0505
    1cb8:	02000905 	andeq	r0, r0, #81920	; 0x14000
    1cbc:	05130104 	ldreq	r0, [r3, #-260]	; 0xfffffefc
    1cc0:	0402000a 	streq	r0, [r2], #-10
    1cc4:	0c051101 	stfeqs	f1, [r5], {1}
    1cc8:	01040200 	mrseq	r0, R12_usr
    1ccc:	0a050106 	beq	1420ec <__bss_end__+0x137684>
    1cd0:	01040200 	mrseq	r0, R12_usr
    1cd4:	0605052e 	streq	r0, [r5], -lr, lsr #10
    1cd8:	060e054c 	streq	r0, [lr], -ip, asr #10
    1cdc:	4a090501 	bmi	2430e8 <__bss_end__+0x238680>
    1ce0:	2f060505 	svccs	0x00060505
    1ce4:	0601052f 	streq	r0, [r1], -pc, lsr #10
    1ce8:	061c0513 			; <UNDEFINED> instruction: 0x061c0513
    1cec:	05010667 	streq	r0, [r1, #-1639]	; 0xfffff999
    1cf0:	2f4b0605 	svccs	0x004b0605
    1cf4:	02000905 	andeq	r0, r0, #81920	; 0x14000
    1cf8:	05130104 	ldreq	r0, [r3, #-260]	; 0xfffffefc
    1cfc:	0402000a 	streq	r0, [r2], #-10
    1d00:	0c051101 	stfeqs	f1, [r5], {1}
    1d04:	01040200 	mrseq	r0, R12_usr
    1d08:	0a050106 	beq	142128 <__bss_end__+0x1376c0>
    1d0c:	01040200 	mrseq	r0, R12_usr
    1d10:	0605052e 	streq	r0, [r5], -lr, lsr #10
    1d14:	0105674c 	tsteq	r5, ip, asr #14
    1d18:	19052f06 	stmdbne	r5, {r1, r2, r8, r9, sl, fp, sp}
    1d1c:	1b054c06 	blne	154d3c <__bss_end__+0x14a2d4>
    1d20:	2e2a052e 	cfsh64cs	mvdx0, mvdx10, #30
    1d24:	01063105 	tsteq	r6, r5, lsl #2
    1d28:	052e4205 	streq	r4, [lr, #-517]!	; 0xfffffdfb
    1d2c:	0531061c 	ldreq	r0, [r1, #-1564]!	; 0xfffff9e4
    1d30:	09032f05 	stmdbeq	r3, {r0, r2, r8, r9, sl, fp, sp}
    1d34:	060e052e 	streq	r0, [lr], -lr, lsr #10
    1d38:	4a210501 	bmi	843144 <__bss_end__+0x8386dc>
    1d3c:	0a030105 	beq	c2158 <__bss_end__+0xb76f0>
    1d40:	061a052e 	ldreq	r0, [sl], -lr, lsr #10
    1d44:	00090568 	andeq	r0, r9, r8, ror #10
    1d48:	30010402 	andcc	r0, r1, r2, lsl #8
    1d4c:	02000a05 	andeq	r0, r0, #20480	; 0x5000
    1d50:	05110104 	ldreq	r0, [r1, #-260]	; 0xfffffefc
    1d54:	0402000c 	streq	r0, [r2], #-12
    1d58:	05010601 	streq	r0, [r1, #-1537]	; 0xfffff9ff
    1d5c:	0402000a 	streq	r0, [r2], #-10
    1d60:	19052e01 	stmdbne	r5, {r0, r9, sl, fp, sp}
    1d64:	7ee80306 	cdpvc	3, 14, cr0, cr8, cr6, {0}
    1d68:	2f050566 	svccs	0x00050566
    1d6c:	05672f2f 	strbeq	r2, [r7, #-3887]!	; 0xfffff0d1
    1d70:	022f0601 	eoreq	r0, pc, #1048576	; 0x100000
    1d74:	01010004 	tsteq	r1, r4
    1d78:	00000393 	muleq	r0, r3, r3
    1d7c:	00b80003 	adcseq	r0, r8, r3
    1d80:	01020000 	mrseq	r0, (UNDEF: 2)
    1d84:	000d0efb 	strdeq	r0, [sp], -fp
    1d88:	01010101 	tsteq	r1, r1, lsl #2
    1d8c:	01000000 	mrseq	r0, (UNDEF: 0)
    1d90:	2f010000 	svccs	0x00010000
    1d94:	656d6f68 	strbvs	r6, [sp, #-3944]!	; 0xfffff098
    1d98:	676e652f 	strbvs	r6, [lr, -pc, lsr #10]!
    1d9c:	2f72656c 	svccs	0x0072656c
    1da0:	73616c63 	cmnvc	r1, #25344	; 0x6300
    1da4:	73632f73 	cmnvc	r3, #460	; 0x1cc
    1da8:	6c303432 	cfldrsvs	mvf3, [r0], #-200	; 0xffffff38
    1dac:	32322d78 	eorscc	r2, r2, #120, 26	; 0x1e00
    1db0:	2f727073 	svccs	0x00727073
    1db4:	62696c2f 	rsbvs	r6, r9, #12032	; 0x2f00
    1db8:	692f6970 	stmdbvs	pc!, {r4, r5, r6, r8, fp, sp, lr}	; <UNPREDICTABLE>
    1dbc:	756c636e 	strbvc	r6, [ip, #-878]!	; 0xfffffc92
    1dc0:	2f006564 	svccs	0x00006564
    1dc4:	2f727375 	svccs	0x00727375
    1dc8:	72616873 	rsbvc	r6, r1, #7536640	; 0x730000
    1dcc:	63672f65 	cmnvs	r7, #404	; 0x194
    1dd0:	72612d63 	rsbvc	r2, r1, #6336	; 0x18c0
    1dd4:	6f6e2d6d 	svcvs	0x006e2d6d
    1dd8:	652d656e 	strvs	r6, [sp, #-1390]!	; 0xfffffa92
    1ddc:	2d696261 	sfmcs	f6, 2, [r9, #-388]!	; 0xfffffe7c
    1de0:	332e3031 			; <UNDEFINED> instruction: 0x332e3031
    1de4:	3230322d 	eorscc	r3, r0, #-805306366	; 0xd0000002
    1de8:	30312e31 	eorscc	r2, r1, r1, lsr lr
    1dec:	62696c2f 	rsbvs	r6, r9, #12032	; 0x2f00
    1df0:	6363672f 	cmnvs	r3, #12320768	; 0xbc0000
    1df4:	6d72612f 	ldfvse	f6, [r2, #-188]!	; 0xffffff44
    1df8:	6e6f6e2d 	cdpvs	14, 6, cr6, cr15, cr13, {1}
    1dfc:	61652d65 	cmnvs	r5, r5, ror #26
    1e00:	312f6962 			; <UNDEFINED> instruction: 0x312f6962
    1e04:	2e332e30 	mrccs	14, 1, r2, cr3, cr0, {1}
    1e08:	6e692f31 	mcrvs	15, 3, r2, cr9, cr1, {1}
    1e0c:	64756c63 	ldrbtvs	r6, [r5], #-3171	; 0xfffff39d
    1e10:	6b000065 	blvs	1fac <__code_start__-0x6054>
    1e14:	6c6c616d 	stfvse	f6, [ip], #-436	; 0xfffffe4c
    1e18:	632e636f 			; <UNDEFINED> instruction: 0x632e636f
    1e1c:	00000000 	andeq	r0, r0, r0
    1e20:	2e697072 	mcrcs	0, 3, r7, cr9, cr2, {3}
    1e24:	00010068 	andeq	r0, r1, r8, rrx
    1e28:	64747300 	ldrbtvs	r7, [r4], #-768	; 0xfffffd00
    1e2c:	2d746e69 	ldclcs	14, cr6, [r4, #-420]!	; 0xfffffe5c
    1e30:	2e636367 	cdpcs	3, 6, cr6, cr3, cr7, {3}
    1e34:	00020068 	andeq	r0, r2, r8, rrx
    1e38:	1e050000 	cdpne	0, 0, cr0, cr5, cr0, {0}
    1e3c:	f4020500 	vst3.8	{d0,d2,d4}, [r2], r0
    1e40:	03000097 	movweq	r0, #151	; 0x97
    1e44:	20050127 	andcs	r0, r5, r7, lsr #2
    1e48:	06310501 	ldrteq	r0, [r1], -r1, lsl #10
    1e4c:	06200501 	strteq	r0, [r0], -r1, lsl #10
    1e50:	01220583 	smlawbeq	r2, r3, r5, r0
    1e54:	01063505 	tsteq	r6, r5, lsl #10
    1e58:	83061e05 	movwhi	r1, #28165	; 0x6e05
    1e5c:	05012005 	streq	r2, [r1, #-5]
    1e60:	0501062d 	streq	r0, [r1, #-1581]	; 0xfffff9d3
    1e64:	06850642 	streq	r0, [r5], r2, asr #12
    1e68:	06050501 	streq	r0, [r5], -r1, lsl #10
    1e6c:	0601144b 	streq	r1, [r1], -fp, asr #8
    1e70:	0402002e 	streq	r0, [r2], #-46	; 0xffffffd2
    1e74:	002e0602 	eoreq	r0, lr, r2, lsl #12
    1e78:	01020402 	tsteq	r2, r2, lsl #8
    1e7c:	02040200 	andeq	r0, r4, #0, 4
    1e80:	000d0515 	andeq	r0, sp, r5, lsl r5
    1e84:	06020402 	streq	r0, [r2], -r2, lsl #8
    1e88:	00070501 	andeq	r0, r7, r1, lsl #10
    1e8c:	4a020402 	bmi	82e9c <__bss_end__+0x78434>
    1e90:	4b060905 	blmi	1842ac <__bss_end__+0x179844>
    1e94:	05150505 	ldreq	r0, [r5, #-1285]	; 0xfffffafb
    1e98:	05010617 	streq	r0, [r1, #-1559]	; 0xfffff9e9
    1e9c:	05054a10 	streq	r4, [r5, #-2576]	; 0xfffff5f0
    1ea0:	1b052f06 	blne	14dac0 <__bss_end__+0x143058>
    1ea4:	0e050106 	adfeqs	f0, f5, f6
    1ea8:	2f01052e 	svccs	0x0001052e
    1eac:	02000505 	andeq	r0, r0, #20971520	; 0x1400000
    1eb0:	03060104 	movweq	r0, #24836	; 0x6104
    1eb4:	02004a77 	andeq	r4, r0, #487424	; 0x77000
    1eb8:	00010104 	andeq	r0, r1, r4, lsl #2
    1ebc:	06010402 	streq	r0, [r1], -r2, lsl #8
    1ec0:	0402009e 	streq	r0, [r2], #-158	; 0xffffff62
    1ec4:	02002e01 	andeq	r2, r0, #1, 28
    1ec8:	2e060104 	adfcss	f0, f6, f4
    1ecc:	01320905 	teqeq	r2, r5, lsl #18
    1ed0:	062ed606 	strteq	sp, [lr], -r6, lsl #12
    1ed4:	de19052e 	cfmul64le	mvdx0, mvdx9, mvdx14
    1ed8:	142f0505 	strtne	r0, [pc], #-1285	; 1ee0 <__code_start__-0x6120>
    1edc:	01060805 	tsteq	r6, r5, lsl #16
    1ee0:	054a0705 	strbeq	r0, [sl, #-1797]	; 0xfffff8fb
    1ee4:	054b0609 	strbeq	r0, [fp, #-1545]	; 0xfffff9f7
    1ee8:	0c051305 	stceq	3, cr1, [r5], {5}
    1eec:	05050106 	streq	r0, [r5, #-262]	; 0xfffffefa
    1ef0:	05136706 	ldreq	r6, [r3, #-1798]	; 0xfffff8fa
    1ef4:	05670601 	strbeq	r0, [r7, #-1537]!	; 0xfffff9ff
    1ef8:	012a0609 			; <UNDEFINED> instruction: 0x012a0609
    1efc:	a528059e 	strge	r0, [r8, #-1438]!	; 0xfffffa62
    1f00:	05050106 	streq	r0, [r5, #-262]	; 0xfffffefa
    1f04:	06014b06 	streq	r4, [r1], -r6, lsl #22
    1f08:	012e062e 			; <UNDEFINED> instruction: 0x012e062e
    1f0c:	03180513 	tsteq	r8, #79691776	; 0x4c00000
    1f10:	05050147 	streq	r0, [r5, #-327]	; 0xfffffeb9
    1f14:	01060113 	tsteq	r6, r3, lsl r1
    1f18:	01150f06 	tsteq	r5, r6, lsl #30
    1f1c:	060e0513 			; <UNDEFINED> instruction: 0x060e0513
    1f20:	2e160501 	cfmul32cs	mvfx0, mvfx6, mvfx1
    1f24:	0605052e 	streq	r0, [r5], -lr, lsr #10
    1f28:	05013903 	streq	r3, [r1, #-2307]	; 0xfffff6fd
    1f2c:	0501060b 	streq	r0, [r1, #-1547]	; 0xfffff9f5
    1f30:	054b0605 	strbeq	r0, [fp, #-1541]	; 0xfffff9fb
    1f34:	0501060a 	streq	r0, [r1, #-1546]	; 0xfffff9f6
    1f38:	054b0605 	strbeq	r0, [fp, #-1541]	; 0xfffff9fb
    1f3c:	0501060d 	streq	r0, [r1, #-1549]	; 0xfffff9f3
    1f40:	01052e07 	tsteq	r5, r7, lsl #28
    1f44:	0005054d 	andeq	r0, r5, sp, asr #10
    1f48:	06010402 	streq	r0, [r1], -r2, lsl #8
    1f4c:	004a7803 	subeq	r7, sl, r3, lsl #16
    1f50:	01010402 	tsteq	r1, r2, lsl #8
    1f54:	01040200 	mrseq	r0, R12_usr
    1f58:	0200ba06 	andeq	fp, r0, #24576	; 0x6000
    1f5c:	2e060104 	adfcss	f0, f6, f4
    1f60:	01340905 	teqeq	r4, r5, lsl #18
    1f64:	06668206 	strbteq	r8, [r6], -r6, lsl #4
    1f68:	db20052e 	blle	803428 <__bss_end__+0x7f89c0>
    1f6c:	05050106 	streq	r0, [r5, #-262]	; 0xfffffefa
    1f70:	00014b06 	andeq	r4, r1, r6, lsl #22
    1f74:	4a020402 	bmi	82f84 <__bss_end__+0x7851c>
    1f78:	02040200 	andeq	r0, r4, #0, 4
    1f7c:	04020001 	streq	r0, [r2], #-1
    1f80:	12051302 	andne	r1, r5, #134217728	; 0x8000000
    1f84:	02040200 	andeq	r0, r4, #0, 4
    1f88:	02000106 	andeq	r0, r0, #-2147483647	; 0x80000001
    1f8c:	002e0204 	eoreq	r0, lr, r4, lsl #4
    1f90:	2e020402 	cdpcs	4, 0, cr0, cr2, cr2, {0}
    1f94:	02000505 	andeq	r0, r0, #20971520	; 0x1400000
    1f98:	2f060204 	svccs	0x00060204
    1f9c:	02040200 	andeq	r0, r4, #0, 4
    1fa0:	00010567 	andeq	r0, r1, r7, ror #10
    1fa4:	06020402 	streq	r0, [r2], -r2, lsl #8
    1fa8:	00050513 	andeq	r0, r5, r3, lsl r5
    1fac:	06010402 	streq	r0, [r1], -r2, lsl #8
    1fb0:	04020062 	streq	r0, [r2], #-98	; 0xffffff9e
    1fb4:	02000101 	andeq	r0, r0, #1073741824	; 0x40000000
    1fb8:	ba060104 	blt	1823d0 <__bss_end__+0x177968>
    1fbc:	01040200 	mrseq	r0, R12_usr
    1fc0:	3c052e06 	stccc	14, cr2, [r5], {6}
    1fc4:	069e0a03 	ldreq	r0, [lr], r3, lsl #20
    1fc8:	06050501 	streq	r0, [r5], -r1, lsl #10
    1fcc:	2e06014b 	adfcssm	f0, f6, #3.0
    1fd0:	13012e06 	movwne	r2, #7686	; 0x1e06
    1fd4:	03180501 	tsteq	r8, #4194304	; 0x400000
    1fd8:	05017fad 	streq	r7, [r1, #-4013]	; 0xfffff053
    1fdc:	11051305 	tstne	r5, r5, lsl #6
    1fe0:	052e0106 	streq	r0, [lr, #-262]!	; 0xfffffefa
    1fe4:	00d20305 	sbcseq	r0, r2, r5, lsl #6
    1fe8:	134a0601 	movtne	r0, #42497	; 0xa601
    1fec:	a3031805 	movwge	r1, #14341	; 0x3805
    1ff0:	0505017f 	streq	r0, [r5, #-383]	; 0xfffffe81
    1ff4:	06160513 			; <UNDEFINED> instruction: 0x06160513
    1ff8:	05054a01 	streq	r4, [r5, #-2561]	; 0xfffff5ff
    1ffc:	00e10306 	rsceq	r0, r1, r6, lsl #6
    2000:	06120501 	ldreq	r0, [r2], -r1, lsl #10
    2004:	06050501 	streq	r0, [r5], -r1, lsl #10
    2008:	0318054b 	tsteq	r8, #314572800	; 0x12c00000
    200c:	05017fa9 	streq	r7, [r1, #-4009]	; 0xfffff057
    2010:	05011305 	streq	r1, [r1, #-773]	; 0xfffffcfb
    2014:	05050e18 	streq	r0, [r5, #-3608]	; 0xfffff1e8
    2018:	06110513 			; <UNDEFINED> instruction: 0x06110513
    201c:	05052e01 	streq	r2, [r5, #-3585]	; 0xfffff1ff
    2020:	014a0615 	cmpeq	sl, r5, lsl r6
    2024:	060e0513 			; <UNDEFINED> instruction: 0x060e0513
    2028:	16052e01 	strne	r2, [r5], -r1, lsl #28
    202c:	05052e2e 	streq	r2, [r5, #-3630]	; 0xfffff1d2
    2030:	00d60306 	sbcseq	r0, r6, r6, lsl #6
    2034:	18050101 	stmdane	r5, {r0, r8}
    2038:	017f9f03 	cmneq	pc, r3, lsl #30
    203c:	05130505 	ldreq	r0, [r3, #-1285]	; 0xfffffafb
    2040:	2e010619 	mcrcs	6, 0, r0, cr1, cr9, {0}
    2044:	e0030505 	and	r0, r3, r5, lsl #10
    2048:	02000100 	andeq	r0, r0, #0
    204c:	4a060204 	bmi	182864 <__bss_end__+0x177dfc>
    2050:	02040200 	andeq	r0, r4, #0, 4
    2054:	000a0514 	andeq	r0, sl, r4, lsl r5
    2058:	06020402 	streq	r0, [r2], -r2, lsl #8
    205c:	00050501 	andeq	r0, r5, r1, lsl #10
    2060:	06020402 	streq	r0, [r2], -r2, lsl #8
    2064:	000c054b 	andeq	r0, ip, fp, asr #10
    2068:	06020402 	streq	r0, [r2], -r2, lsl #8
    206c:	00010501 	andeq	r0, r1, r1, lsl #10
    2070:	2f020402 	svccs	0x00020402
    2074:	02000505 	andeq	r0, r0, #20971520	; 0x1400000
    2078:	03060104 	movweq	r0, #24836	; 0x6104
    207c:	02004a73 	andeq	r4, r0, #471040	; 0x73000
    2080:	00010104 	andeq	r0, r1, r4, lsl #2
    2084:	06010402 	streq	r0, [r1], -r2, lsl #8
    2088:	0402009e 	streq	r0, [r2], #-158	; 0xffffff62
    208c:	02002e01 	andeq	r2, r0, #1, 28
    2090:	2e060104 	adfcss	f0, f6, f4
    2094:	01040200 	mrseq	r0, R12_usr
    2098:	0402002f 	streq	r0, [r2], #-47	; 0xffffffd1
    209c:	02002e01 	andeq	r2, r0, #1, 28
    20a0:	03d60104 	bicseq	r0, r6, #1
    20a4:	012e7fb1 			; <UNDEFINED> instruction: 0x012e7fb1
    20a8:	2e2e8206 	cdpcs	2, 2, cr8, cr14, cr6, {0}
    20ac:	2e062e06 	cdpcs	14, 0, cr2, cr6, cr6, {0}
    20b0:	01040200 	mrseq	r0, R12_usr
    20b4:	00d70306 	sbcseq	r0, r7, r6, lsl #6
    20b8:	04020001 	streq	r0, [r2], #-1
    20bc:	02002e01 	andeq	r2, r0, #1, 28
    20c0:	05d60104 	ldrbeq	r0, [r6, #260]	; 0x104
    20c4:	057b0815 	ldrbeq	r0, [fp, #-2069]!	; 0xfffff7eb
    20c8:	16050117 			; <UNDEFINED> instruction: 0x16050117
    20cc:	01180531 	tsteq	r8, r1, lsr r5
    20d0:	01061d05 	tsteq	r6, r5, lsl #26
    20d4:	05662b05 	strbeq	r2, [r6, #-2821]!	; 0xfffff4fb
    20d8:	054d0619 	strbeq	r0, [sp, #-1561]	; 0xfffff9e7
    20dc:	0c051305 	stceq	3, cr1, [r5], {5}
    20e0:	07050106 	streq	r0, [r5, -r6, lsl #2]
    20e4:	0025054a 	eoreq	r0, r5, sl, asr #10
    20e8:	4a010402 	bmi	430f8 <__bss_end__+0x38690>
    20ec:	02001e05 	andeq	r1, r0, #80	; 0x50
    20f0:	054a0104 	strbeq	r0, [sl, #-260]	; 0xfffffefc
    20f4:	054b0609 	strbeq	r0, [fp, #-1545]	; 0xfffff9f7
    20f8:	0a051305 	beq	146d14 <__bss_end__+0x13c2ac>
    20fc:	19050106 	stmdbne	r5, {r1, r2, r8}
    2100:	06090563 	streq	r0, [r9], -r3, ror #10
    2104:	9e06014c 	adflssm	f0, f6, #4.0
    2108:	0a022e06 	beq	8d928 <__bss_end__+0x82ec0>
    210c:	be010100 	adflts	f0, f1, f0
    2110:	03000000 	movweq	r0, #0
    2114:	00008000 	andeq	r8, r0, r0
    2118:	fb010200 	blx	42922 <__bss_end__+0x37eba>
    211c:	01000d0e 	tsteq	r0, lr, lsl #26
    2120:	00010101 	andeq	r0, r1, r1, lsl #2
    2124:	00010000 	andeq	r0, r1, r0
    2128:	2f2e0100 	svccs	0x002e0100
    212c:	6362696c 	cmnvs	r2, #108, 18	; 0x1b0000
    2130:	73552f00 	cmpvc	r5, #0, 30
    2134:	2f737265 	svccs	0x00737265
    2138:	73697274 	cmnvc	r9, #116, 4	; 0x40000007
    213c:	6e6e6574 	mcrvs	5, 3, r6, cr14, cr4, {3}
    2140:	6d6c6c6f 	stclvs	12, cr6, [ip, #-444]!	; 0xfffffe44
    2144:	442f6e61 	strtmi	r6, [pc], #-3681	; 214c <__code_start__-0x5eb4>
    2148:	6d75636f 	ldclvs	3, cr6, [r5, #-444]!	; 0xfffffe44
    214c:	73746e65 	cmnvc	r4, #1616	; 0x650
    2150:	7270532f 	rsbsvc	r5, r0, #-1140850688	; 0xbc000000
    2154:	5f676e69 	svcpl	0x00676e69
    2158:	72617551 	rsbvc	r7, r1, #339738624	; 0x14400000
    215c:	5f726574 	svcpl	0x00726574
    2160:	32323032 	eorscc	r3, r2, #50, 0	; 0x32
    2164:	3253432f 	subscc	r4, r3, #-1140850688	; 0xbc000000
    2168:	584c3034 	stmdapl	ip, {r2, r4, r5, ip, sp}^
    216c:	7270732d 	rsbsvc	r7, r0, #-1275068416	; 0xb4000000
    2170:	6c2f3232 	sfmvs	f3, 4, [pc], #-200	; 20b0 <__code_start__-0x5f50>
    2174:	69706269 	ldmdbvs	r0!, {r0, r3, r5, r6, r9, sp, lr}^
    2178:	636e692f 	cmnvs	lr, #770048	; 0xbc000
    217c:	6564756c 	strbvs	r7, [r4, #-1388]!	; 0xfffffa94
    2180:	75700000 	ldrbvc	r0, [r0, #-0]!
    2184:	61686374 	smcvs	34356	; 0x8634
    2188:	00632e72 	rsbeq	r2, r3, r2, ror lr
    218c:	72000001 	andvc	r0, r0, #1, 0
    2190:	682e6970 	stmdavs	lr!, {r4, r5, r6, r8, fp, sp, lr}
    2194:	00000200 	andeq	r0, r0, r0, lsl #4
    2198:	00240500 	eoreq	r0, r4, r0, lsl #10
    219c:	9ba40205 	blls	fe9029b8 <__bss_end__+0xfe8f7f50>
    21a0:	06140000 	ldreq	r0, [r4], -r0
    21a4:	06260501 	strteq	r0, [r6], -r1, lsl #10
    21a8:	2e34054a 	cdpcs	5, 3, cr0, cr4, cr10, {2}
    21ac:	01060105 	tsteq	r6, r5, lsl #2
    21b0:	4f061b05 	svcmi	0x00061b05
    21b4:	05130505 	ldreq	r0, [r3, #-1285]	; 0xfffffafb
    21b8:	05010611 	streq	r0, [r1, #-1553]	; 0xfffff9ef
    21bc:	23056701 	movwcs	r6, #22273	; 0x5701
    21c0:	05056706 	streq	r6, [r5, #-1798]	; 0xfffff8fa
    21c4:	06110513 			; <UNDEFINED> instruction: 0x06110513
    21c8:	4b010501 	blmi	435d4 <__bss_end__+0x38b6c>
    21cc:	01000402 	tsteq	r0, r2, lsl #8
    21d0:	00010a01 	andeq	r0, r1, r1, lsl #20
    21d4:	7f000300 	svcvc	0x00000300
    21d8:	02000000 	andeq	r0, r0, #0, 0
    21dc:	0d0efb01 	vstreq	d15, [lr, #-4]
    21e0:	01010100 	mrseq	r0, (UNDEF: 17)
    21e4:	00000001 	andeq	r0, r0, r1
    21e8:	01000001 	tsteq	r0, r1
    21ec:	696c2f2e 	stmdbvs	ip!, {r1, r2, r3, r5, r8, r9, sl, fp, sp}^
    21f0:	2f006362 	svccs	0x00006362
    21f4:	72657355 	rsbvc	r7, r5, #1409286145	; 0x54000001
    21f8:	72742f73 	rsbsvc	r2, r4, #460	; 0x1cc
    21fc:	65747369 	ldrbvs	r7, [r4, #-873]!	; 0xfffffc97
    2200:	6c6f6e6e 	stclvs	14, cr6, [pc], #-440	; 2050 <__code_start__-0x5fb0>
    2204:	6e616d6c 	cdpvs	13, 6, cr6, cr1, cr12, {3}
    2208:	636f442f 	cmnvs	pc, #788529152	; 0x2f000000
    220c:	6e656d75 	mcrvs	13, 3, r6, cr5, cr5, {3}
    2210:	532f7374 			; <UNDEFINED> instruction: 0x532f7374
    2214:	6e697270 	mcrvs	2, 3, r7, cr9, cr0, {3}
    2218:	75515f67 	ldrbvc	r5, [r1, #-3943]	; 0xfffff099
    221c:	65747261 	ldrbvs	r7, [r4, #-609]!	; 0xfffffd9f
    2220:	30325f72 	eorscc	r5, r2, r2, ror pc
    2224:	432f3232 			; <UNDEFINED> instruction: 0x432f3232
    2228:	30343253 	eorscc	r3, r4, r3, asr r2
    222c:	732d584c 			; <UNDEFINED> instruction: 0x732d584c
    2230:	32327270 	eorscc	r7, r2, #112, 4
    2234:	62696c2f 	rsbvs	r6, r9, #12032	; 0x2f00
    2238:	692f6970 	stmdbvs	pc!, {r4, r5, r6, r8, fp, sp, lr}	; <UNPREDICTABLE>
    223c:	756c636e 	strbvc	r6, [ip, #-878]!	; 0xfffffc92
    2240:	00006564 	andeq	r6, r0, r4, ror #10
    2244:	63727473 	cmnvs	r2, #1929379840	; 0x73000000
    2248:	632e7461 			; <UNDEFINED> instruction: 0x632e7461
    224c:	00000100 	andeq	r0, r0, r0, lsl #2
    2250:	2e697072 	mcrcs	0, 3, r7, cr9, cr2, {3}
    2254:	00020068 	andeq	r0, r2, r8, rrx
    2258:	2c050000 	stccs	0, cr0, [r5], {-0}
    225c:	e0020500 	and	r0, r2, r0, lsl #10
    2260:	1500009b 	strne	r0, [r0, #-155]	; 0xffffff65
    2264:	13130505 	tstne	r3, #20971520	; 0x1400000
    2268:	11060b05 	tstne	r6, r5, lsl #22
    226c:	02000505 	andeq	r0, r0, #20971520	; 0x1400000
    2270:	30060104 	andcc	r0, r6, r4, lsl #2
    2274:	01040200 	mrseq	r0, R12_usr
    2278:	00090515 	andeq	r0, r9, r5, lsl r5
    227c:	13010402 	movwne	r0, #5122	; 0x1402
    2280:	02001005 	andeq	r1, r0, #5, 0
    2284:	2e060104 	adfcss	f0, f6, f4
    2288:	02000b05 	andeq	r0, r0, #5120	; 0x1400
    228c:	002e0104 	eoreq	r0, lr, r4, lsl #2
    2290:	06010402 	streq	r0, [r1], -r2, lsl #8
    2294:	0005052f 	andeq	r0, r5, pc, lsr #10
    2298:	06010402 	streq	r0, [r1], -r2, lsl #8
    229c:	054e0601 	strbeq	r0, [lr, #-1537]	; 0xfffff9ff
    22a0:	05010608 	streq	r0, [r1, #-1544]	; 0xfffff9f8
    22a4:	04020005 	streq	r0, [r2], #-5
    22a8:	052f0601 	streq	r0, [pc, #-1537]!	; 1caf <__code_start__-0x6351>
    22ac:	04020009 	streq	r0, [r2], #-9
    22b0:	0b051301 	bleq	146ebc <__bss_end__+0x13c454>
    22b4:	01040200 	mrseq	r0, R12_usr
    22b8:	09050106 	stmdbeq	r5, {r1, r2, r8}
    22bc:	01040200 	mrseq	r0, R12_usr
    22c0:	0f054b06 	svceq	0x00054b06
    22c4:	01040200 	mrseq	r0, R12_usr
    22c8:	0d050106 	stfeqs	f0, [r5, #-24]	; 0xffffffe8
    22cc:	01040200 	mrseq	r0, R12_usr
    22d0:	05052f06 	streq	r2, [r5, #-3846]	; 0xfffff0fa
    22d4:	01040200 	mrseq	r0, R12_usr
    22d8:	06020106 	streq	r0, [r2], -r6, lsl #2
    22dc:	c3010100 	movwgt	r0, #4352	; 0x1100
    22e0:	03000000 	movweq	r0, #0
    22e4:	00007f00 	andeq	r7, r0, r0, lsl #30
    22e8:	fb010200 	blx	42af2 <__bss_end__+0x3808a>
    22ec:	01000d0e 	tsteq	r0, lr, lsl #26
    22f0:	00010101 	andeq	r0, r1, r1, lsl #2
    22f4:	00010000 	andeq	r0, r1, r0
    22f8:	2f2e0100 	svccs	0x002e0100
    22fc:	6362696c 	cmnvs	r2, #108, 18	; 0x1b0000
    2300:	73552f00 	cmpvc	r5, #0, 30
    2304:	2f737265 	svccs	0x00737265
    2308:	73697274 	cmnvc	r9, #116, 4	; 0x40000007
    230c:	6e6e6574 	mcrvs	5, 3, r6, cr14, cr4, {3}
    2310:	6d6c6c6f 	stclvs	12, cr6, [ip, #-444]!	; 0xfffffe44
    2314:	442f6e61 	strtmi	r6, [pc], #-3681	; 231c <__code_start__-0x5ce4>
    2318:	6d75636f 	ldclvs	3, cr6, [r5, #-444]!	; 0xfffffe44
    231c:	73746e65 	cmnvc	r4, #1616	; 0x650
    2320:	7270532f 	rsbsvc	r5, r0, #-1140850688	; 0xbc000000
    2324:	5f676e69 	svcpl	0x00676e69
    2328:	72617551 	rsbvc	r7, r1, #339738624	; 0x14400000
    232c:	5f726574 	svcpl	0x00726574
    2330:	32323032 	eorscc	r3, r2, #50, 0	; 0x32
    2334:	3253432f 	subscc	r4, r3, #-1140850688	; 0xbc000000
    2338:	584c3034 	stmdapl	ip, {r2, r4, r5, ip, sp}^
    233c:	7270732d 	rsbsvc	r7, r0, #-1275068416	; 0xb4000000
    2340:	6c2f3232 	sfmvs	f3, 4, [pc], #-200	; 2280 <__code_start__-0x5d80>
    2344:	69706269 	ldmdbvs	r0!, {r0, r3, r5, r6, r9, sp, lr}^
    2348:	636e692f 	cmnvs	lr, #770048	; 0xbc000
    234c:	6564756c 	strbvs	r7, [r4, #-1388]!	; 0xfffffa94
    2350:	74730000 	ldrbtvc	r0, [r3], #-0
    2354:	706d6372 	rsbvc	r6, sp, r2, ror r3
    2358:	0100632e 	tsteq	r0, lr, lsr #6
    235c:	70720000 	rsbsvc	r0, r2, r0
    2360:	00682e69 	rsbeq	r2, r8, r9, ror #28
    2364:	00000002 	andeq	r0, r0, r2
    2368:	05002a05 	streq	r2, [r0, #-2565]	; 0xfffff5fb
    236c:	009c1402 	addseq	r1, ip, r2, lsl #8
    2370:	09051400 	stmdbeq	r5, {sl, ip}
    2374:	010f0513 	tsteq	pc, r3, lsl r5	; <UNPREDICTABLE>
    2378:	01061005 	tsteq	r6, r5
    237c:	052e0f05 	streq	r0, [lr, #-3845]!	; 0xfffff0fb
    2380:	0402001c 	streq	r0, [r2], #-28	; 0xffffffe4
    2384:	13054a01 	movwne	r4, #23041	; 0x5a01
    2388:	01040200 	mrseq	r0, R12_usr
    238c:	0611052e 	ldreq	r0, [r1], -lr, lsr #10
    2390:	0616052f 	ldreq	r0, [r6], -pc, lsr #10
    2394:	09052e2e 	stmdbeq	r5, {r1, r2, r3, r5, r9, sl, fp, sp}
    2398:	15052f06 	strne	r2, [r5, #-3846]	; 0xfffff0fa
    239c:	01050106 	tsteq	r5, r6, lsl #2
    23a0:	0004022f 	andeq	r0, r4, pc, lsr #4
    23a4:	00c10101 	sbceq	r0, r1, r1, lsl #2
    23a8:	00030000 	andeq	r0, r3, r0
    23ac:	0000007f 	andeq	r0, r0, pc, ror r0
    23b0:	0efb0102 	cdpeq	1, 15, cr0, cr11, cr2, {0}
    23b4:	0101000d 	tsteq	r1, sp
    23b8:	00000101 	andeq	r0, r0, r1, lsl #2
    23bc:	00000100 	andeq	r0, r0, r0, lsl #2
    23c0:	6c2f2e01 	stcvs	14, cr2, [pc], #-4	; 23c4 <__code_start__-0x5c3c>
    23c4:	00636269 	rsbeq	r6, r3, r9, ror #4
    23c8:	6573552f 	ldrbvs	r5, [r3, #-1327]!	; 0xfffffad1
    23cc:	742f7372 	strtvc	r7, [pc], #-882	; 23d4 <__code_start__-0x5c2c>
    23d0:	74736972 	ldrbtvc	r6, [r3], #-2418	; 0xfffff68e
    23d4:	6f6e6e65 	svcvs	0x006e6e65
    23d8:	616d6c6c 	cmnvs	sp, ip, ror #24
    23dc:	6f442f6e 	svcvs	0x00442f6e
    23e0:	656d7563 	strbvs	r7, [sp, #-1379]!	; 0xfffffa9d
    23e4:	2f73746e 	svccs	0x0073746e
    23e8:	69727053 	ldmdbvs	r2!, {r0, r1, r4, r6, ip, sp, lr}^
    23ec:	515f676e 	cmppl	pc, lr, ror #14
    23f0:	74726175 	ldrbtvc	r6, [r2], #-373	; 0xfffffe8b
    23f4:	325f7265 	subscc	r7, pc, #1342177286	; 0x50000006
    23f8:	2f323230 	svccs	0x00323230
    23fc:	34325343 	ldrtcc	r5, [r2], #-835	; 0xfffffcbd
    2400:	2d584c30 	ldclcs	12, cr4, [r8, #-192]	; 0xffffff40
    2404:	32727073 	rsbscc	r7, r2, #115, 0	; 0x73
    2408:	696c2f32 	stmdbvs	ip!, {r1, r4, r5, r8, r9, sl, fp, sp}^
    240c:	2f697062 	svccs	0x00697062
    2410:	6c636e69 	stclvs	14, cr6, [r3], #-420	; 0xfffffe5c
    2414:	00656475 	rsbeq	r6, r5, r5, ror r4
    2418:	72747300 	rsbsvc	r7, r4, #0, 6
    241c:	2e797063 	cdpcs	0, 7, cr7, cr9, cr3, {3}
    2420:	00010063 	andeq	r0, r1, r3, rrx
    2424:	69707200 	ldmdbvs	r0!, {r9, ip, sp, lr}^
    2428:	0200682e 	andeq	r6, r0, #3014656	; 0x2e0000
    242c:	05000000 	streq	r0, [r0, #-0]
    2430:	0205002a 	andeq	r0, r5, #42, 0	; 0x2a
    2434:	00009c40 	andeq	r9, r0, r0, asr #24
    2438:	13050514 	movwne	r0, #21780	; 0x5514
    243c:	06140513 			; <UNDEFINED> instruction: 0x06140513
    2440:	00220511 	eoreq	r0, r2, r1, lsl r5
    2444:	06010402 	streq	r0, [r1], -r2, lsl #8
    2448:	000b052f 	andeq	r0, fp, pc, lsr #10
    244c:	01010402 	tsteq	r1, r2, lsl #8
    2450:	02001505 	andeq	r1, r0, #20971520	; 0x1400000
    2454:	01060104 	tsteq	r6, r4, lsl #2
    2458:	02001305 	andeq	r1, r0, #335544320	; 0x14000000
    245c:	054a0104 	strbeq	r0, [sl, #-260]	; 0xfffffefc
    2460:	0402000b 	streq	r0, [r2], #-11
    2464:	06024a01 	streq	r4, [r2], -r1, lsl #20
    2468:	21010100 	mrscs	r0, (UNDEF: 17)
    246c:	03000001 	movweq	r0, #1
    2470:	0000e500 	andeq	lr, r0, r0, lsl #10
    2474:	fb010200 	blx	42c7e <__bss_end__+0x38216>
    2478:	01000d0e 	tsteq	r0, lr, lsl #26
    247c:	00010101 	andeq	r0, r1, r1, lsl #2
    2480:	00010000 	andeq	r0, r1, r0
    2484:	2f2e0100 	svccs	0x002e0100
    2488:	6362696c 	cmnvs	r2, #108, 18	; 0x1b0000
    248c:	73552f00 	cmpvc	r5, #0, 30
    2490:	2f737265 	svccs	0x00737265
    2494:	73697274 	cmnvc	r9, #116, 4	; 0x40000007
    2498:	6e6e6574 	mcrvs	5, 3, r6, cr14, cr4, {3}
    249c:	6d6c6c6f 	stclvs	12, cr6, [ip, #-444]!	; 0xfffffe44
    24a0:	442f6e61 	strtmi	r6, [pc], #-3681	; 24a8 <__code_start__-0x5b58>
    24a4:	6d75636f 	ldclvs	3, cr6, [r5, #-444]!	; 0xfffffe44
    24a8:	73746e65 	cmnvc	r4, #1616	; 0x650
    24ac:	7270532f 	rsbsvc	r5, r0, #-1140850688	; 0xbc000000
    24b0:	5f676e69 	svcpl	0x00676e69
    24b4:	72617551 	rsbvc	r7, r1, #339738624	; 0x14400000
    24b8:	5f726574 	svcpl	0x00726574
    24bc:	32323032 	eorscc	r3, r2, #50, 0	; 0x32
    24c0:	3253432f 	subscc	r4, r3, #-1140850688	; 0xbc000000
    24c4:	584c3034 	stmdapl	ip, {r2, r4, r5, ip, sp}^
    24c8:	7270732d 	rsbsvc	r7, r0, #-1275068416	; 0xb4000000
    24cc:	6c2f3232 	sfmvs	f3, 4, [pc], #-200	; 240c <__code_start__-0x5bf4>
    24d0:	69706269 	ldmdbvs	r0!, {r0, r3, r5, r6, r9, sp, lr}^
    24d4:	636e692f 	cmnvs	lr, #770048	; 0xbc000
    24d8:	6564756c 	strbvs	r7, [r4, #-1388]!	; 0xfffffa94
    24dc:	73752f00 	cmnvc	r5, #0, 30
    24e0:	6f6c2f72 	svcvs	0x006c2f72
    24e4:	2f6c6163 	svccs	0x006c6163
    24e8:	6c6c6543 	cfstr64vs	mvdx6, [ip], #-268	; 0xfffffef4
    24ec:	612f7261 			; <UNDEFINED> instruction: 0x612f7261
    24f0:	6e2d6d72 	mcrvs	13, 1, r6, cr13, cr2, {3}
    24f4:	2d656e6f 	stclcs	14, cr6, [r5, #-444]!	; 0xfffffe44
    24f8:	69626165 	stmdbvs	r2!, {r0, r2, r5, r6, r8, sp, lr}^
    24fc:	7365742d 	cmnvc	r5, #754974720	; 0x2d000000
    2500:	2d392f74 	ldccs	15, cr2, [r9, #-464]!	; 0xfffffe30
    2504:	39313032 	ldmdbcc	r1!, {r1, r4, r5, ip, sp}
    2508:	632d3471 			; <UNDEFINED> instruction: 0x632d3471
    250c:	37303173 			; <UNDEFINED> instruction: 0x37303173
    2510:	696c2f65 	stmdbvs	ip!, {r0, r2, r5, r6, r8, r9, sl, fp, sp}^
    2514:	63672f62 	cmnvs	r7, #392	; 0x188
    2518:	72612f63 	rsbvc	r2, r1, #396	; 0x18c
    251c:	6f6e2d6d 	svcvs	0x006e2d6d
    2520:	652d656e 	strvs	r6, [sp, #-1390]!	; 0xfffffa92
    2524:	2f696261 	svccs	0x00696261
    2528:	2e322e39 	mrccs	14, 1, r2, cr2, cr9, {1}
    252c:	6e692f31 	mcrvs	15, 3, r2, cr9, cr1, {1}
    2530:	64756c63 	ldrbtvs	r6, [r5], #-3171	; 0xfffff39d
    2534:	73000065 	movwvc	r0, #101	; 0x65
    2538:	636e7274 	cmnvs	lr, #116, 4	; 0x40000007
    253c:	632e706d 			; <UNDEFINED> instruction: 0x632e706d
    2540:	00000100 	andeq	r0, r0, r0, lsl #2
    2544:	2e697072 	mcrcs	0, 3, r7, cr9, cr2, {3}
    2548:	00020068 	andeq	r0, r2, r8, rrx
    254c:	64747300 	ldrbtvs	r7, [r4], #-768	; 0xfffffd00
    2550:	2e666564 	cdpcs	5, 6, cr6, cr6, cr4, {3}
    2554:	00030068 	andeq	r0, r3, r8, rrx
    2558:	39050000 	stmdbcc	r5, {}	; <UNPREDICTABLE>
    255c:	60020500 	andvs	r0, r2, r0, lsl #10
    2560:	1500009c 	strne	r0, [r0, #-156]	; 0xffffff64
    2564:	13130505 	tstne	r3, #20971520	; 0x1400000
    2568:	06010a05 	streq	r0, [r1], -r5, lsl #20
    256c:	09054a01 	stmdbeq	r5, {r0, r9, fp, lr}
    2570:	0c052f06 	stceq	15, cr2, [r5], {6}
    2574:	13050106 	movwne	r0, #20742	; 0x5106
    2578:	2e0b052e 	cfsh32cs	mvfx0, mvfx11, #30
    257c:	4b060d05 	blmi	185998 <__bss_end__+0x17af30>
    2580:	01061b05 	tsteq	r6, r5, lsl #22
    2584:	300c052e 	andcc	r0, ip, lr, lsr #10
    2588:	022f0105 	eoreq	r0, pc, #1073741825	; 0x40000001
    258c:	01010002 	tsteq	r1, r2
    2590:	000000b0 	strheq	r0, [r0], -r0	; <UNPREDICTABLE>
    2594:	00940003 	addseq	r0, r4, r3
    2598:	01020000 	mrseq	r0, (UNDEF: 2)
    259c:	000d0efb 	strdeq	r0, [sp], -fp
    25a0:	01010101 	tsteq	r1, r1, lsl #2
    25a4:	01000000 	mrseq	r0, (UNDEF: 0)
    25a8:	2e010000 	cdpcs	0, 0, cr0, cr1, cr0, {0}
    25ac:	6174732f 	cmnvs	r4, pc, lsr #6
    25b0:	732d6666 			; <UNDEFINED> instruction: 0x732d6666
    25b4:	2f006372 	svccs	0x00006372
    25b8:	72657355 	rsbvc	r7, r5, #1409286145	; 0x54000001
    25bc:	72742f73 	rsbsvc	r2, r4, #460	; 0x1cc
    25c0:	65747369 	ldrbvs	r7, [r4, #-873]!	; 0xfffffc97
    25c4:	6c6f6e6e 	stclvs	14, cr6, [pc], #-440	; 2414 <__code_start__-0x5bec>
    25c8:	6e616d6c 	cdpvs	13, 6, cr6, cr1, cr12, {3}
    25cc:	636f442f 	cmnvs	pc, #788529152	; 0x2f000000
    25d0:	6e656d75 	mcrvs	13, 3, r6, cr5, cr5, {3}
    25d4:	532f7374 			; <UNDEFINED> instruction: 0x532f7374
    25d8:	6e697270 	mcrvs	2, 3, r7, cr9, cr0, {3}
    25dc:	75515f67 	ldrbvc	r5, [r1, #-3943]	; 0xfffff099
    25e0:	65747261 	ldrbvs	r7, [r4, #-609]!	; 0xfffffd9f
    25e4:	30325f72 	eorscc	r5, r2, r2, ror pc
    25e8:	432f3232 			; <UNDEFINED> instruction: 0x432f3232
    25ec:	30343253 	eorscc	r3, r4, r3, asr r2
    25f0:	732d584c 			; <UNDEFINED> instruction: 0x732d584c
    25f4:	32327270 	eorscc	r7, r2, #112, 4
    25f8:	62696c2f 	rsbvs	r6, r9, #12032	; 0x2f00
    25fc:	692f6970 	stmdbvs	pc!, {r4, r5, r6, r8, fp, sp, lr}	; <UNPREDICTABLE>
    2600:	756c636e 	strbvc	r6, [ip, #-878]!	; 0xfffffc92
    2604:	00006564 	andeq	r6, r0, r4, ror #10
    2608:	61666564 	cmnvs	r6, r4, ror #10
    260c:	2d746c75 	ldclcs	12, cr6, [r4, #-468]!	; 0xfffffe2c
    2610:	6f626572 	svcvs	0x00626572
    2614:	632d746f 			; <UNDEFINED> instruction: 0x632d746f
    2618:	6f6c6c61 	svcvs	0x006c6c61
    261c:	632e7475 			; <UNDEFINED> instruction: 0x632e7475
    2620:	00000100 	andeq	r0, r0, r0, lsl #2
    2624:	2e697072 	mcrcs	0, 3, r7, cr9, cr2, {3}
    2628:	00020068 	andeq	r0, r2, r8, rrx
    262c:	1b050000 	blne	142634 <__bss_end__+0x137bcc>
    2630:	8c020500 	cfstr32hi	mvfx0, [r2], {-0}
    2634:	1400009c 	strne	r0, [r0], #-156	; 0xffffff64
    2638:	05011c05 	streq	r1, [r1, #-3077]	; 0xfffff3fb
    263c:	02010601 	andeq	r0, r1, #1048576	; 0x100000
    2640:	01010002 	tsteq	r1, r2
    2644:	000001bb 			; <UNDEFINED> instruction: 0x000001bb
    2648:	00bf0003 	adcseq	r0, pc, r3
    264c:	01020000 	mrseq	r0, (UNDEF: 2)
    2650:	000d0efb 	strdeq	r0, [sp], -fp
    2654:	01010101 	tsteq	r1, r1, lsl #2
    2658:	01000000 	mrseq	r0, (UNDEF: 0)
    265c:	2f010000 	svccs	0x00010000
    2660:	656d6f68 	strbvs	r6, [sp, #-3944]!	; 0xfffff098
    2664:	676e652f 	strbvs	r6, [lr, -pc, lsr #10]!
    2668:	2f72656c 	svccs	0x0072656c
    266c:	73616c63 	cmnvc	r1, #25344	; 0x6300
    2670:	73632f73 	cmnvc	r3, #460	; 0x1cc
    2674:	6c303432 	cfldrsvs	mvf3, [r0], #-200	; 0xffffff38
    2678:	32322d78 	eorscc	r2, r2, #120, 26	; 0x1e00
    267c:	2f727073 	svccs	0x00727073
    2680:	62696c2f 	rsbvs	r6, r9, #12032	; 0x2f00
    2684:	692f6970 	stmdbvs	pc!, {r4, r5, r6, r8, fp, sp, lr}	; <UNPREDICTABLE>
    2688:	756c636e 	strbvc	r6, [ip, #-878]!	; 0xfffffc92
    268c:	2f006564 	svccs	0x00006564
    2690:	2f727375 	svccs	0x00727375
    2694:	72616873 	rsbvc	r6, r1, #7536640	; 0x730000
    2698:	63672f65 	cmnvs	r7, #404	; 0x194
    269c:	72612d63 	rsbvc	r2, r1, #6336	; 0x18c0
    26a0:	6f6e2d6d 	svcvs	0x006e2d6d
    26a4:	652d656e 	strvs	r6, [sp, #-1390]!	; 0xfffffa92
    26a8:	2d696261 	sfmcs	f6, 2, [r9, #-388]!	; 0xfffffe7c
    26ac:	332e3031 			; <UNDEFINED> instruction: 0x332e3031
    26b0:	3230322d 	eorscc	r3, r0, #-805306366	; 0xd0000002
    26b4:	30312e31 	eorscc	r2, r1, r1, lsr lr
    26b8:	62696c2f 	rsbvs	r6, r9, #12032	; 0x2f00
    26bc:	6363672f 	cmnvs	r3, #12320768	; 0xbc0000
    26c0:	6d72612f 	ldfvse	f6, [r2, #-188]!	; 0xffffff44
    26c4:	6e6f6e2d 	cdpvs	14, 6, cr6, cr15, cr13, {1}
    26c8:	61652d65 	cmnvs	r5, r5, ror #26
    26cc:	312f6962 			; <UNDEFINED> instruction: 0x312f6962
    26d0:	2e332e30 	mrccs	14, 1, r2, cr3, cr0, {1}
    26d4:	6e692f31 	mcrvs	15, 3, r2, cr9, cr1, {1}
    26d8:	64756c63 	ldrbtvs	r6, [r5], #-3171	; 0xfffff39d
    26dc:	67000065 	strvs	r0, [r0, -r5, rrx]
    26e0:	2e6f6970 			; <UNDEFINED> instruction: 0x2e6f6970
    26e4:	00000063 	andeq	r0, r0, r3, rrx
    26e8:	69707200 	ldmdbvs	r0!, {r9, ip, sp, lr}^
    26ec:	0100682e 	tsteq	r0, lr, lsr #16
    26f0:	74730000 	ldrbtvc	r0, [r3], #-0
    26f4:	746e6964 	strbtvc	r6, [lr], #-2404	; 0xfffff69c
    26f8:	6363672d 	cmnvs	r3, #11796480	; 0xb40000
    26fc:	0200682e 	andeq	r6, r0, #3014656	; 0x2e0000
    2700:	70670000 	rsbvc	r0, r7, r0
    2704:	682e6f69 	stmdavs	lr!, {r0, r3, r5, r6, r8, r9, sl, fp, sp, lr}
    2708:	00000100 	andeq	r0, r0, r0, lsl #2
    270c:	00380500 	eorseq	r0, r8, r0, lsl #10
    2710:	9ca80205 	sfmls	f0, 4, [r8], #20
    2714:	27030000 	strcs	r0, [r3, -r0]
    2718:	13050501 	movwne	r0, #21761	; 0x5501
    271c:	01060705 	tsteq	r6, r5, lsl #14
    2720:	05493805 	strbeq	r3, [r9, #-2053]	; 0xfffff7fb
    2724:	054d0605 	strbeq	r0, [sp, #-1541]	; 0xfffff9fb
    2728:	05010607 	streq	r0, [r1, #-1543]	; 0xfffff9f9
    272c:	054c0605 	strbeq	r0, [ip, #-1541]	; 0xfffff9fb
    2730:	05010618 	streq	r0, [r1, #-1560]	; 0xfffff9e8
    2734:	0505ba0e 	streq	fp, [r5, #-2574]	; 0xfffff5f2
    2738:	1c052f06 	stcne	15, cr2, [r5], {6}
    273c:	052e0106 	streq	r0, [lr, #-262]!	; 0xfffffefa
    2740:	05052e0e 	streq	r2, [r5, #-3598]	; 0xfffff1f2
    2744:	12053006 	andne	r3, r5, #6, 0
    2748:	05050106 	streq	r0, [r5, #-262]	; 0xfffffefa
    274c:	07054b06 	streq	r4, [r5, -r6, lsl #22]
    2750:	05050106 	streq	r0, [r5, #-262]	; 0xfffffefa
    2754:	06134b06 	ldreq	r4, [r3], -r6, lsl #22
    2758:	4b01052e 	blmi	43c18 <__bss_end__+0x391b0>
    275c:	4c062405 	cfstrsmi	mvf2, [r6], {5}
    2760:	05050106 	streq	r0, [r5, #-262]	; 0xfffffefa
    2764:	01052f06 	tsteq	r5, r6, lsl #30
    2768:	20054b06 	andcs	r4, r5, r6, lsl #22
    276c:	05053106 	streq	r3, [r5, #-262]	; 0xfffffefa
    2770:	06070513 			; <UNDEFINED> instruction: 0x06070513
    2774:	49200501 	stmdbmi	r0!, {r0, r8, sl}
    2778:	31060505 	tstcc	r6, r5, lsl #10
    277c:	01056606 	tsteq	r5, r6, lsl #12
    2780:	0621052f 	strteq	r0, [r1], -pc, lsr #10
    2784:	1305054d 	movwne	r0, #21837	; 0x554d
    2788:	01060705 	tsteq	r6, r5, lsl #14
    278c:	05492105 	strbeq	r2, [r9, #-261]	; 0xfffffefb
    2790:	06310605 	ldrteq	r0, [r1], -r5, lsl #12
    2794:	2f010566 	svccs	0x00010566
    2798:	4d062305 	stcmi	3, cr2, [r6, #-20]	; 0xffffffec
    279c:	05050106 	streq	r0, [r5, #-262]	; 0xfffffefa
    27a0:	01052f06 	tsteq	r5, r6, lsl #30
    27a4:	2b054b06 	blcs	1553c4 <__bss_end__+0x14a95c>
    27a8:	01063106 	tsteq	r6, r6, lsl #2
    27ac:	2f060505 	svccs	0x00060505
    27b0:	01060705 	tsteq	r6, r5, lsl #14
    27b4:	4b060905 	blmi	184bd0 <__bss_end__+0x17a168>
    27b8:	30062e06 	andcc	r2, r6, r6, lsl #28
    27bc:	2f060105 	svccs	0x00060105
    27c0:	30061d05 	andcc	r1, r6, r5, lsl #26
    27c4:	05130505 	ldreq	r0, [r3, #-1285]	; 0xfffffafb
    27c8:	05010607 	streq	r0, [r1, #-1543]	; 0xfffff9f9
    27cc:	0505491d 	streq	r4, [r5, #-2333]	; 0xfffff6e3
    27d0:	05133106 	ldreq	r3, [r3, #-262]	; 0xfffffefa
    27d4:	0501060e 	streq	r0, [r1, #-1550]	; 0xfffff9f2
    27d8:	052f0605 	streq	r0, [pc, #-1541]!	; 21db <__code_start__-0x5e25>
    27dc:	4a010617 	bmi	44040 <__bss_end__+0x395d8>
    27e0:	042e2305 	strteq	r2, [lr], #-773	; 0xfffffcfb
    27e4:	06300502 	ldrteq	r0, [r0], -r2, lsl #10
    27e8:	2e00dc03 	cdpcs	12, 0, cr13, cr0, cr3, {0}
    27ec:	0c050104 	stfeqs	f0, [r5], {4}
    27f0:	7fa40306 	svcvc	0x00a40306
    27f4:	2f010501 	svccs	0x00010501
    27f8:	052a1005 	streq	r1, [sl, #-5]!
    27fc:	04023201 	streq	r3, [r2], #-513	; 0xfffffdff
    2800:	Address 0x0000000000002800 is out of bounds.


Disassembly of section .debug_str:

00000000 <.debug_str>:
   0:	765f6b63 	ldrbvc	r6, [pc], -r3, ror #22
   4:	6f627265 	svcvs	0x00627265
   8:	705f6573 	subsvc	r6, pc, r3, ror r5	; <UNPREDICTABLE>
   c:	72646800 	rsbvc	r6, r4, #0, 16
  10:	6e00745f 	cfmvsrvs	mvf0, r7
  14:	00747865 	rsbseq	r7, r4, r5, ror #16
  18:	6c616b63 			; <UNDEFINED> instruction: 0x6c616b63
  1c:	00636f6c 	rsbeq	r6, r3, ip, ror #30
  20:	74617473 	strbtvc	r7, [r1], #-1139	; 0xfffffb8d
  24:	696c0065 	stmdbvs	ip!, {r0, r2, r5, r6}^
  28:	6f6e656e 	svcvs	0x006e656e
  2c:	72616d00 	rsbvc	r6, r1, #0, 26
  30:	6f6e006b 	svcvs	0x006e006b
  34:	69616d74 	stmdbvs	r1!, {r2, r4, r5, r6, r8, sl, fp, sp, lr}^
  38:	626e006e 	rsbvs	r0, lr, #110, 0	; 0x6e
  3c:	73657479 	cmnvc	r5, #2030043136	; 0x79000000
  40:	6c6c615f 	stfvse	f6, [ip], #-380	; 0xfffffe84
  44:	6300636f 	movwvs	r6, #879	; 0x36f
  48:	65685f6b 	strbvs	r5, [r8, #-3947]!	; 0xfffff095
  4c:	655f7061 	ldrbvs	r7, [pc, #-97]	; fffffff3 <__bss_end__+0xffff558b>
  50:	726f7272 	rsbvc	r7, pc, #536870919	; 0x20000007
  54:	69660073 	stmdbvs	r6!, {r0, r1, r4, r5, r6}^
  58:	7500656c 	strvc	r6, [r0, #-1388]	; 0xfffffa94
  5c:	6769736e 	strbvs	r7, [r9, -lr, ror #6]!
  60:	2064656e 	rsbcs	r6, r4, lr, ror #10
  64:	72616863 	rsbvc	r6, r1, #6488064	; 0x630000
  68:	656c6300 	strbvs	r6, [ip, #-768]!	; 0xfffffd00
  6c:	725f6e61 	subsvc	r6, pc, #1552	; 0x610
  70:	6f6f6265 	svcvs	0x006f6265
  74:	68730074 	ldmdavs	r3!, {r2, r4, r5, r6}^
  78:	2074726f 	rsbscs	r7, r4, pc, ror #4
  7c:	69736e75 	ldmdbvs	r3!, {r0, r2, r4, r5, r6, r9, sl, fp, sp, lr}^
  80:	64656e67 	strbtvs	r6, [r5], #-3687	; 0xfffff199
  84:	746e6920 	strbtvc	r6, [lr], #-2336	; 0xfffff6e0
  88:	5f6b6300 	svcpl	0x006b6300
  8c:	00726468 	rsbseq	r6, r2, r8, ror #8
  90:	5f637273 	svcpl	0x00637273
  94:	5f636f6c 	svcpl	0x00636f6c
  98:	6d006b6d 	vstrvs	d6, [r0, #-436]	; 0xfffffe4c
  9c:	65736d65 	ldrbvs	r6, [r3, #-3429]!	; 0xfffff29b
  a0:	75660074 	strbvc	r0, [r6, #-116]!	; 0xffffff8c
  a4:	5f00636e 	svcpl	0x0000636e
  a8:	4e55465f 	mrcmi	6, 2, r4, cr5, cr15, {2}
  ac:	4f495443 	svcmi	0x00495443
  b0:	005f5f4e 	subseq	r5, pc, lr, asr #30
  b4:	6f6c6c61 	svcvs	0x006c6c61
  b8:	696c5f63 	stmdbvs	ip!, {r0, r1, r5, r6, r8, r9, sl, fp, ip, lr}^
  bc:	6c007473 	cfstrsvs	mvf7, [r0], {115}	; 0x73
  c0:	20676e6f 	rsbcs	r6, r7, pc, ror #28
  c4:	676e6f6c 	strbvs	r6, [lr, -ip, ror #30]!
  c8:	736e7520 	cmnvc	lr, #32, 10	; 0x8000000
  cc:	656e6769 	strbvs	r6, [lr, #-1897]!	; 0xfffff897
  d0:	6e692064 	cdpvs	0, 6, cr2, cr9, cr4, {3}
  d4:	69750074 	ldmdbvs	r5!, {r2, r4, r5, r6}^
  d8:	5f38746e 	svcpl	0x0038746e
  dc:	6c610074 	stclvs	0, cr0, [r1], #-464	; 0xfffffe30
  e0:	5f636f6c 	svcpl	0x00636f6c
  e4:	00636f6c 	rsbeq	r6, r3, ip, ror #30
  e8:	6b61656c 	blvs	18596a0 <__bss_end__+0x184ec38>
  ec:	74006465 	strvc	r6, [r0], #-1125	; 0xfffffb9b
  f0:	73747365 	cmnvc	r4, #-1811939327	; 0x94000001
  f4:	302e322d 	eorcc	r3, lr, sp, lsr #4
  f8:	7261702f 	rsbvc	r7, r1, #47, 0	; 0x2f
  fc:	742d3174 	strtvc	r3, [sp], #-372	; 0xfffffe8c
 100:	31747365 	cmncc	r4, r5, ror #6
 104:	2f00632e 	svccs	0x0000632e
 108:	72657355 	rsbvc	r7, r5, #1409286145	; 0x54000001
 10c:	72742f73 	rsbsvc	r2, r4, #460	; 0x1cc
 110:	65747369 	ldrbvs	r7, [r4, #-873]!	; 0xfffffc97
 114:	6c6f6e6e 	stclvs	14, cr6, [pc], #-440	; ffffff64 <__bss_end__+0xffff54fc>
 118:	6e616d6c 	cdpvs	13, 6, cr6, cr1, cr12, {3}
 11c:	636f442f 	cmnvs	pc, #788529152	; 0x2f000000
 120:	6e656d75 	mcrvs	13, 3, r6, cr5, cr5, {3}
 124:	532f7374 			; <UNDEFINED> instruction: 0x532f7374
 128:	6e697270 	mcrvs	2, 3, r7, cr9, cr0, {3}
 12c:	75515f67 	ldrbvc	r5, [r1, #-3943]	; 0xfffff099
 130:	65747261 	ldrbvs	r7, [r4, #-609]!	; 0xfffffd9f
 134:	30325f72 	eorscc	r5, r2, r2, ror pc
 138:	432f3232 			; <UNDEFINED> instruction: 0x432f3232
 13c:	30343253 	eorscc	r3, r4, r3, asr r2
 140:	732d584c 			; <UNDEFINED> instruction: 0x732d584c
 144:	32327270 	eorscc	r7, r2, #112, 4
 148:	62616c2f 	rsbvs	r6, r1, #12032	; 0x2f00
 14c:	2d352f73 	ldccs	15, cr2, [r5, #-460]!	; 0xfffffe34
 150:	6c6c616d 	stfvse	f6, [ip], #-436	; 0xfffffe4c
 154:	672b636f 	strvs	r6, [fp, -pc, ror #6]!
 158:	6f632f63 	svcvs	0x00632f63
 15c:	6c006564 	cfstr32vs	mvfx6, [r0], {100}	; 0x64
 160:	20676e6f 	rsbcs	r6, r7, pc, ror #28
 164:	676e6f6c 	strbvs	r6, [lr, -ip, ror #30]!
 168:	746e6920 	strbtvc	r6, [lr], #-2336	; 0xfffff6e0
 16c:	69707200 	ldmdbvs	r0!, {r9, ip, sp, lr}^
 170:	7475705f 	ldrbtvc	r7, [r5], #-95	; 0xffffffa1
 174:	72616863 	rsbvc	r6, r1, #6488064	; 0x630000
 178:	666b6300 	strbtvs	r6, [fp], -r0, lsl #6
 17c:	00656572 	rsbeq	r6, r5, r2, ror r5
 180:	726f6873 	rsbvc	r6, pc, #7536640	; 0x730000
 184:	6e692074 	mcrvs	0, 3, r2, cr9, cr4, {3}
 188:	72730074 	rsbsvc	r0, r3, #116, 0	; 0x74
 18c:	6f6c5f63 	svcvs	0x006c5f63
 190:	00745f63 	rsbseq	r5, r4, r3, ror #30
 194:	746e6975 	strbtvc	r6, [lr], #-2421	; 0xfffff68b
 198:	745f3631 	ldrbvc	r3, [pc], #-1585	; 1a0 <__code_start__-0x7e60>
 19c:	6e697500 	cdpvs	5, 6, cr7, cr9, cr0, {0}
 1a0:	5f323374 	svcpl	0x00323374
 1a4:	616c0074 	smcvs	49156	; 0xc004
 1a8:	6e5f7473 	mrcvs	4, 2, r7, cr15, cr3, {3}
 1ac:	0065646f 	rsbeq	r6, r5, pc, ror #8
 1b0:	20554e47 	subscs	r4, r5, r7, asr #28
 1b4:	20393943 	eorscs	r3, r9, r3, asr #18
 1b8:	2e322e39 	mrccs	14, 1, r2, cr2, cr9, {1}
 1bc:	30322031 	eorscc	r2, r2, r1, lsr r0
 1c0:	30313931 	eorscc	r3, r1, r1, lsr r9
 1c4:	28203532 	stmdacs	r0!, {r1, r4, r5, r8, sl, ip, sp}
 1c8:	656c6572 	strbvs	r6, [ip, #-1394]!	; 0xfffffa8e
 1cc:	29657361 	stmdbcs	r5!, {r0, r5, r6, r8, r9, ip, sp, lr}^
 1d0:	52415b20 	subpl	r5, r1, #32, 22	; 0x8000
 1d4:	72612f4d 	rsbvc	r2, r1, #308	; 0x134
 1d8:	2d392d6d 	ldccs	13, cr2, [r9, #-436]!	; 0xfffffe4c
 1dc:	6e617262 	cdpvs	2, 6, cr7, cr1, cr2, {3}
 1e0:	72206863 	eorvc	r6, r0, #6488064	; 0x630000
 1e4:	73697665 	cmnvc	r9, #105906176	; 0x6500000
 1e8:	206e6f69 	rsbcs	r6, lr, r9, ror #30
 1ec:	35373732 	ldrcc	r3, [r7, #-1842]!	; 0xfffff8ce
 1f0:	205d3939 	subscs	r3, sp, r9, lsr r9
 1f4:	70636d2d 	rsbvc	r6, r3, sp, lsr #26
 1f8:	72613d75 	rsbvc	r3, r1, #7488	; 0x1d40
 1fc:	3731316d 	ldrcc	r3, [r1, -sp, ror #2]!
 200:	667a6a36 			; <UNDEFINED> instruction: 0x667a6a36
 204:	2d20732d 	stccs	3, cr7, [r0, #-180]!	; 0xffffff4c
 208:	6e75746d 	cdpvs	4, 7, cr7, cr5, cr13, {3}
 20c:	72613d65 	rsbvc	r3, r1, #6464	; 0x1940
 210:	3731316d 	ldrcc	r3, [r1, -sp, ror #2]!
 214:	667a6a36 			; <UNDEFINED> instruction: 0x667a6a36
 218:	2d20732d 	stccs	3, cr7, [r0, #-180]!	; 0xffffff4c
 21c:	6f6c666d 	svcvs	0x006c666d
 220:	612d7461 			; <UNDEFINED> instruction: 0x612d7461
 224:	733d6962 	teqvc	sp, #1605632	; 0x188000
 228:	2074666f 	rsbscs	r6, r4, pc, ror #12
 22c:	72616d2d 	rsbvc	r6, r1, #2880	; 0xb40
 230:	6d2d206d 	stcvs	0, cr2, [sp, #-436]!	; 0xfffffe4c
 234:	68637261 	stmdavs	r3!, {r0, r5, r6, r9, ip, sp, lr}^
 238:	6d72613d 	ldfvse	f6, [r2, #-244]!	; 0xffffff0c
 23c:	7a6b3676 	bvc	1acdc1c <__bss_end__+0x1ac31b4>
 240:	67672d20 	strbvs	r2, [r7, -r0, lsr #26]!
 244:	2d206264 	sfmcs	f6, 4, [r0, #-400]!	; 0xfffffe70
 248:	2d20674f 	stccs	7, cr6, [r0, #-316]!	; 0xfffffec4
 24c:	3d647473 	cfstrdcc	mvd7, [r4, #-460]!	; 0xfffffe34
 250:	39756e67 	ldmdbcc	r5!, {r0, r1, r2, r5, r6, r9, sl, fp, sp, lr}^
 254:	662d2039 			; <UNDEFINED> instruction: 0x662d2039
 258:	65657266 	strbvs	r7, [r5, #-614]!	; 0xfffffd9a
 25c:	6e617473 	mcrvs	4, 3, r7, cr1, cr3, {3}
 260:	676e6964 	strbvs	r6, [lr, -r4, ror #18]!
 264:	66657200 	strbtvs	r7, [r5], -r0, lsl #4
 268:	74735f73 	ldrbtvc	r5, [r3], #-3955	; 0xfffff08d
 26c:	00747261 	rsbseq	r7, r4, r1, ror #4
 270:	7478656e 	ldrbtvc	r6, [r8], #-1390	; 0xfffffa92
 274:	6f6c625f 	svcvs	0x006c625f
 278:	695f6b63 	ldmdbvs	pc, {r0, r1, r5, r6, r8, r9, fp, sp, lr}^	; <UNPREDICTABLE>
 27c:	65720064 	ldrbvs	r0, [r2, #-100]!	; 0xffffff9c
 280:	6d5f7366 	ldclvs	3, cr7, [pc, #-408]	; f0 <__code_start__-0x7f10>
 284:	6c646469 	cfstrdvs	mvd6, [r4], #-420	; 0xfffffe5c
 288:	6b630065 	blvs	18c0424 <__bss_end__+0x18b59bc>
 28c:	7274705f 	rsbsvc	r7, r4, #95, 0	; 0x5f
 290:	5f6e695f 	svcpl	0x006e695f
 294:	636f6c62 	cmnvs	pc, #25088	; 0x6200
 298:	7270006b 	rsbsvc	r0, r0, #107, 0	; 0x6b
 29c:	6c5f7665 	mrrcvs	6, 6, r7, pc, cr5	; <UNPREDICTABLE>
 2a0:	00747361 	rsbseq	r7, r4, r1, ror #6
 2a4:	675f6b63 	ldrbvs	r6, [pc, -r3, ror #22]
 2a8:	725f7465 	subsvc	r7, pc, #1694498816	; 0x65000000
 2ac:	4600327a 			; <UNDEFINED> instruction: 0x4600327a
 2b0:	44454552 	strbmi	r4, [r5], #-1362	; 0xfffffaae
 2b4:	73696c00 	cmnvc	r9, #0, 24
 2b8:	70615f74 	rsbvc	r5, r1, r4, ror pc
 2bc:	646e6570 	strbtvs	r6, [lr], #-1392	; 0xfffffa90
 2c0:	44455200 	strbmi	r5, [r5], #-512	; 0xfffffe00
 2c4:	454e4f5a 	strbmi	r4, [lr, #-3930]	; 0xfffff0a6
 2c8:	4c41565f 	mcrrmi	6, 5, r5, r1, cr15
 2cc:	44455200 	strbmi	r5, [r5], #-512	; 0xfffffe00
 2d0:	454e4f5a 	strbmi	r4, [lr, #-3930]	; 0xfffff0a6
 2d4:	59424e5f 	stmdbpl	r2, {r0, r1, r2, r3, r4, r6, r9, sl, fp, lr}^
 2d8:	00534554 	subseq	r4, r3, r4, asr r5
 2dc:	665f6b63 	ldrbvs	r6, [pc], -r3, ror #22
 2e0:	74737269 	ldrbtvc	r7, [r3], #-617	; 0xfffffd97
 2e4:	7264685f 	rsbvc	r6, r4, #6225920	; 0x5f0000
 2e8:	5f6b6300 	svcpl	0x006b6300
 2ec:	63656863 	cmnvs	r5, #6488064	; 0x630000
 2f0:	64755f6b 	ldrbtvs	r5, [r5], #-3947	; 0xfffff095
 2f4:	00617461 	rsbeq	r7, r1, r1, ror #8
 2f8:	73727265 	cmnvc	r2, #1342177286	; 0x50000006
 2fc:	5f6b6300 	svcpl	0x006b6300
 300:	5f727470 	svcpl	0x00727470
 304:	615f7369 	cmpvs	pc, r9, ror #6
 308:	636f6c6c 	cmnvs	pc, #108, 24	; 0x6c00
 30c:	63006465 	movwvs	r6, #1125	; 0x465
 310:	656e5f6b 	strbvs	r5, [lr, #-3947]!	; 0xfffff095
 314:	685f7478 	ldmdavs	pc, {r3, r4, r5, r6, sl, ip, sp, lr}^	; <UNPREDICTABLE>
 318:	63007264 	movwvs	r7, #612	; 0x264
 31c:	00727275 	rsbseq	r7, r2, r5, ror r2
 320:	6c616b63 			; <UNDEFINED> instruction: 0x6c616b63
 324:	2e636f6c 	cdpcs	15, 6, cr6, cr3, cr12, {3}
 328:	65730063 	ldrbvs	r0, [r3, #-99]!	; 0xffffff9d
 32c:	6e69746e 	cdpvs	4, 6, cr7, cr9, cr14, {3}
 330:	41006c61 	tstmi	r0, r1, ror #24
 334:	434f4c4c 	movtmi	r4, #64588	; 0xfc4c
 338:	63004445 	movwvs	r4, #1093	; 0x445
 33c:	64685f6b 	strbtvs	r5, [r8], #-3947	; 0xfffff095
 340:	74735f72 	ldrbtvc	r5, [r3], #-3954	; 0xfffff08e
 344:	00747261 	rsbseq	r7, r4, r1, ror #4
 348:	685f6b63 	ldmdavs	pc, {r0, r1, r5, r6, r8, r9, fp, sp, lr}^	; <UNPREDICTABLE>
 34c:	655f7264 	ldrbvs	r7, [pc, #-612]	; f0 <__code_start__-0x7f10>
 350:	6300646e 	movwvs	r6, #1134	; 0x46e
 354:	626e5f6b 	rsbvs	r5, lr, #428	; 0x1ac
 358:	73657479 	cmnvc	r5, #2030043136	; 0x79000000
 35c:	5f726b00 	svcpl	0x00726b00
 360:	6c6c616d 	stfvse	f6, [ip], #-436	; 0xfffffe4c
 364:	6300636f 	movwvs	r6, #879	; 0x36f
 368:	68635f6b 	stmdavs	r3!, {r0, r1, r3, r5, r6, r8, r9, sl, fp, ip, lr}^
 36c:	5f6b6365 	svcpl	0x006b6365
 370:	7a646572 	bvc	1919940 <__bss_end__+0x190eed8>
 374:	73656e6f 	cmnvc	r5, #1776	; 0x6f0
 378:	61747300 	cmnvs	r4, r0, lsl #6
 37c:	745f6b63 	ldrbvc	r6, [pc], #-2915	; 384 <__code_start__-0x7c7c>
 380:	6200706f 	andvs	r7, r0, #111, 0	; 0x6f
 384:	6b636f6c 	blvs	18dc13c <__bss_end__+0x18d16d4>
 388:	6174735f 	cmnvs	r4, pc, asr r3
 38c:	6d007472 	cfstrsvs	mvf7, [r0, #-456]	; 0xfffffe38
 390:	5f6b7261 	svcpl	0x006b7261
 394:	006c6c61 	rsbeq	r6, ip, r1, ror #24
 398:	6c706d69 	ldclvs	13, cr6, [r0], #-420	; 0xfffffe5c
 39c:	6e656d65 	cdpvs	13, 6, cr6, cr5, cr5, {3}
 3a0:	68745f74 	ldmdavs	r4!, {r2, r4, r5, r6, r8, r9, sl, fp, ip, lr}^
 3a4:	5f007369 	svcpl	0x00007369
 3a8:	7373625f 	cmnvc	r3, #-268435451	; 0xf0000005
 3ac:	6174735f 	cmnvs	r4, pc, asr r3
 3b0:	5f5f7472 	svcpl	0x005f7472
 3b4:	6d756e00 	ldclvs	14, cr6, [r5, #-0]
 3b8:	726f775f 	rsbvc	r7, pc, #24903680	; 0x17c0000
 3bc:	6e007364 	cdpvs	3, 0, cr7, cr0, cr4, {3}
 3c0:	636f6c62 	cmnvs	pc, #25088	; 0x6200
 3c4:	6900736b 	stmdbvs	r0, {r0, r1, r3, r5, r6, r8, r9, ip, sp, lr}
 3c8:	5f74696e 	svcpl	0x0074696e
 3cc:	626e0070 	rsbvs	r0, lr, #112, 0	; 0x70
 3d0:	73657479 	cmnvc	r5, #2030043136	; 0x79000000
 3d4:	6572665f 	ldrbvs	r6, [r2, #-1631]!	; 0xfffff9a1
 3d8:	69006465 	stmdbvs	r0, {r0, r2, r5, r6, sl, sp, lr}
 3dc:	6572636e 	ldrbvs	r6, [r2, #-878]!	; 0xfffffc92
 3e0:	746e656d 	strbtvc	r6, [lr], #-1389	; 0xfffffa93
 3e4:	79616d00 	stmdbvc	r1!, {r8, sl, fp, sp, lr}^
 3e8:	655f6562 	ldrbvs	r6, [pc, #-1378]	; fffffe8e <__bss_end__+0xffff5426>
 3ec:	726f7272 	rsbvc	r7, pc, #536870919	; 0x20000007
 3f0:	6b630073 	blvs	18c05c4 <__bss_end__+0x18b5b5c>
 3f4:	0063675f 	rsbeq	r6, r3, pc, asr r7
 3f8:	706d7564 	rsbvc	r7, sp, r4, ror #10
 3fc:	6765725f 			; <UNDEFINED> instruction: 0x6765725f
 400:	6c6e0073 	stclvs	0, cr0, [lr], #-460	; 0xfffffe34
 404:	736b6165 	cmnvc	fp, #1073741849	; 0x40000019
 408:	645f5f00 	ldrbvs	r5, [pc], #-3840	; 410 <__code_start__-0x7bf0>
 40c:	5f617461 	svcpl	0x00617461
 410:	5f646e65 	svcpl	0x00646e65
 414:	6b63005f 	blvs	18c0598 <__bss_end__+0x18b5b30>
 418:	6e69665f 	mcrvs	6, 3, r6, cr9, cr15, {2}
 41c:	656c5f64 	strbvs	r5, [ip, #-3940]!	; 0xfffff09c
 420:	00736b61 	rsbseq	r6, r3, r1, ror #22
 424:	6b726273 	blvs	1c98df8 <__bss_end__+0x1c8e390>
 428:	5f736900 	svcpl	0x00736900
 42c:	00727470 	rsbseq	r7, r2, r0, ror r4
 430:	63656863 	cmnvs	r5, #6488064	; 0x630000
 434:	6f6e5f6b 	svcvs	0x006e5f6b
 438:	61656c5f 	cmnvs	r5, pc, asr ip
 43c:	666e006b 	strbtvs	r0, [lr], -fp, rrx
 440:	64656572 	strbtvs	r6, [r5], #-1394	; 0xfffffa8e
 444:	72756300 	rsbsvc	r6, r5, #0, 6
 448:	6f775f72 	svcvs	0x00775f72
 44c:	62006472 	andvs	r6, r0, #1912602624	; 0x72000000
 450:	6b636f6c 	blvs	18dc208 <__bss_end__+0x18d17a0>
 454:	646e655f 	strbtvs	r6, [lr], #-1375	; 0xfffffaa1
 458:	5f6e6900 	svcpl	0x006e6900
 45c:	70616568 	rsbvc	r6, r1, r8, ror #10
 460:	656e6f00 	strbvs	r6, [lr, #-3840]!	; 0xfffff100
 464:	6300626d 	movwvs	r6, #621	; 0x26d
 468:	63672d6b 	cmnvs	r7, #6848	; 0x1ac0
 46c:	6300632e 	movwvs	r6, #814	; 0x32e
 470:	6b636568 	blvs	18d9a18 <__bss_end__+0x18cefb0>
 474:	6f68735f 	svcvs	0x0068735f
 478:	5f646c75 	svcpl	0x00646c75
 47c:	6b61656c 	blvs	1859a34 <__bss_end__+0x184efcc>
 480:	625f5f00 	subsvs	r5, pc, #0, 30
 484:	655f7373 	ldrbvs	r7, [pc, #-883]	; 119 <__code_start__-0x7ee7>
 488:	5f5f646e 	svcpl	0x005f646e
 48c:	616d6b00 	cmnvs	sp, r0, lsl #22
 490:	636f6c6c 	cmnvs	pc, #108, 24	; 0x6c00
 494:	616d6b00 	cmnvs	sp, r0, lsl #22
 498:	636f6c6c 	cmnvs	pc, #108, 24	; 0x6c00
 49c:	696e695f 	stmdbvs	lr!, {r0, r1, r2, r3, r4, r6, r8, fp, sp, lr}^
 4a0:	65735f74 	ldrbvs	r5, [r3, #-3956]!	; 0xfffff08c
 4a4:	74735f74 	ldrbtvc	r5, [r3], #-3956	; 0xfffff08c
 4a8:	00747261 	rsbseq	r7, r4, r1, ror #4
 4ac:	65657773 	strbvs	r7, [r5, #-1907]!	; 0xfffff88d
 4b0:	656c5f70 	strbvs	r5, [ip, #-3952]!	; 0xfffff090
 4b4:	5f006b61 	svcpl	0x00006b61
 4b8:	7461645f 	strbtvc	r6, [r1], #-1119	; 0xfffffba1
 4bc:	74735f61 	ldrbtvc	r5, [r3], #-3937	; 0xfffff09f
 4c0:	5f747261 	svcpl	0x00747261
 4c4:	7773005f 			; <UNDEFINED> instruction: 0x7773005f
 4c8:	5f706565 	svcpl	0x00706565
 4cc:	65657266 	strbvs	r7, [r5, #-614]!	; 0xfffffd9a
 4d0:	72617700 	rsbvc	r7, r1, #0, 14
 4d4:	6f6e5f6e 	svcvs	0x006e5f6e
 4d8:	6174735f 	cmnvs	r4, pc, asr r3
 4dc:	725f7472 	subsvc	r7, pc, #1912602624	; 0x72000000
 4e0:	705f6665 	subsvc	r6, pc, r5, ror #12
 4e4:	61656800 	cmnvs	r5, r0, lsl #16
 4e8:	00726564 	rsbseq	r6, r2, r4, ror #10
 4ec:	76657270 			; <UNDEFINED> instruction: 0x76657270
 4f0:	6c610070 	stclvs	0, cr0, [r1], #-448	; 0xfffffe40
 4f4:	006e6769 	rsbeq	r6, lr, r9, ror #14
 4f8:	665f726b 	ldrbvs	r7, [pc], -fp, ror #4
 4fc:	00656572 	rsbeq	r6, r5, r2, ror r5
 500:	65657266 	strbvs	r7, [r5, #-614]!	; 0xfffffd9a
 504:	756e0070 	strbvc	r0, [lr, #-112]!	; 0xffffff90
 508:	7374696e 	cmnvc	r4, #1802240	; 0x1b8000
 50c:	2d726b00 	vldmdbcs	r2!, {d22-d21}
 510:	6c6c616d 	stfvse	f6, [ip], #-436	; 0xfffffe4c
 514:	632e636f 			; <UNDEFINED> instruction: 0x632e636f
 518:	756f6400 	strbvc	r6, [pc, #-1024]!	; 120 <__code_start__-0x7ee0>
 51c:	00656c62 	rsbeq	r6, r5, r2, ror #24
 520:	65736162 	ldrbvs	r6, [r3, #-354]!	; 0xfffffe9e
 524:	5f726b00 	svcpl	0x00726b00
 528:	65726f6d 	ldrbvs	r6, [r2, #-3949]!	; 0xfffff093
 52c:	65726f63 	ldrbvs	r6, [r2, #-3939]!	; 0xfffff09d
 530:	7a697300 	bvc	1a5d138 <__bss_end__+0x1a526d0>
 534:	65480065 	strbvs	r0, [r8, #-101]	; 0xffffff9b
 538:	72656461 	rsbvc	r6, r5, #1627389952	; 0x61000000
 53c:	554e4700 	strbpl	r4, [lr, #-1792]	; 0xfffff900
 540:	39394320 	ldmdbcc	r9!, {r5, r8, r9, lr}
 544:	322e3920 	eorcc	r3, lr, #32, 18	; 0x80000
 548:	3220312e 	eorcc	r3, r0, #-2147483637	; 0x8000000b
 54c:	31393130 	teqcc	r9, r0, lsr r1
 550:	20353230 	eorscs	r3, r5, r0, lsr r2
 554:	6c657228 	sfmvs	f7, 2, [r5], #-160	; 0xffffff60
 558:	65736165 	ldrbvs	r6, [r3, #-357]!	; 0xfffffe9b
 55c:	415b2029 	cmpmi	fp, r9, lsr #32
 560:	612f4d52 			; <UNDEFINED> instruction: 0x612f4d52
 564:	392d6d72 	pushcc	{r1, r4, r5, r6, r8, sl, fp, sp, lr}
 568:	6172622d 	cmnvs	r2, sp, lsr #4
 56c:	2068636e 	rsbcs	r6, r8, lr, ror #6
 570:	69766572 	ldmdbvs	r6!, {r1, r4, r5, r6, r8, sl, sp, lr}^
 574:	6e6f6973 			; <UNDEFINED> instruction: 0x6e6f6973
 578:	37373220 	ldrcc	r3, [r7, -r0, lsr #4]!
 57c:	5d393935 			; <UNDEFINED> instruction: 0x5d393935
 580:	636d2d20 	cmnvs	sp, #32, 26	; 0x800
 584:	613d7570 	teqvs	sp, r0, ror r5
 588:	31316d72 	teqcc	r1, r2, ror sp
 58c:	7a6a3637 	bvc	1a8de70 <__bss_end__+0x1a83408>
 590:	20732d66 	rsbscs	r2, r3, r6, ror #26
 594:	75746d2d 	ldrbvc	r6, [r4, #-3373]!	; 0xfffff2d3
 598:	613d656e 	teqvs	sp, lr, ror #10
 59c:	31316d72 	teqcc	r1, r2, ror sp
 5a0:	7a6a3637 	bvc	1a8de84 <__bss_end__+0x1a8341c>
 5a4:	20732d66 	rsbscs	r2, r3, r6, ror #26
 5a8:	6c666d2d 	stclvs	13, cr6, [r6], #-180	; 0xffffff4c
 5ac:	2d74616f 	ldfcse	f6, [r4, #-444]!	; 0xfffffe44
 5b0:	3d696261 	sfmcc	f6, 2, [r9, #-388]!	; 0xfffffe7c
 5b4:	74666f73 	strbtvc	r6, [r6], #-3955	; 0xfffff08d
 5b8:	616d2d20 	cmnvs	sp, r0, lsr #26
 5bc:	2d206d72 	stccs	13, cr6, [r0, #-456]!	; 0xfffffe38
 5c0:	6372616d 	cmnvs	r2, #1073741851	; 0x4000001b
 5c4:	72613d68 	rsbvc	r3, r1, #104, 26	; 0x1a00
 5c8:	6b36766d 	blvs	d9df84 <__bss_end__+0xd9351c>
 5cc:	672d207a 			; <UNDEFINED> instruction: 0x672d207a
 5d0:	20626467 	rsbcs	r6, r2, r7, ror #8
 5d4:	6467672d 	strbtvs	r6, [r7], #-1837	; 0xfffff8d3
 5d8:	4f2d2062 	svcmi	0x002d2062
 5dc:	4f2d2067 	svcmi	0x002d2067
 5e0:	732d2067 			; <UNDEFINED> instruction: 0x732d2067
 5e4:	673d6474 			; <UNDEFINED> instruction: 0x673d6474
 5e8:	3939756e 	ldmdbcc	r9!, {r1, r2, r3, r5, r6, r8, sl, ip, sp, lr}
 5ec:	74732d20 	ldrbtvc	r2, [r3], #-3360	; 0xfffff2e0
 5f0:	6e673d64 	cdpvs	13, 6, cr3, cr7, cr4, {3}
 5f4:	20393975 	eorscs	r3, r9, r5, ror r9
 5f8:	7266662d 	rsbvc	r6, r6, #47185920	; 0x2d00000
 5fc:	74736565 	ldrbtvc	r6, [r3], #-1381	; 0xfffffa9b
 600:	69646e61 	stmdbvs	r4!, {r0, r5, r6, r9, sl, fp, sp, lr}^
 604:	7300676e 	movwvc	r6, #1902	; 0x76e
 608:	5f657a69 	svcpl	0x00657a69
 60c:	2f2e0074 	svccs	0x002e0074
 610:	6362696c 	cmnvs	r2, #108, 18	; 0x1b0000
 614:	6d656d2f 	stclvs	13, cr6, [r5, #-188]!	; 0xffffff44
 618:	2e746573 	mrccs	5, 3, r6, cr4, cr3, {3}
 61c:	552f0063 	strpl	r0, [pc, #-99]!	; 5c1 <__code_start__-0x7a3f>
 620:	73726573 	cmnvc	r2, #482344960	; 0x1cc00000
 624:	6972742f 	ldmdbvs	r2!, {r0, r1, r2, r3, r5, sl, ip, sp, lr}^
 628:	6e657473 	mcrvs	4, 3, r7, cr5, cr3, {3}
 62c:	6c6c6f6e 	stclvs	15, cr6, [ip], #-440	; 0xfffffe48
 630:	2f6e616d 	svccs	0x006e616d
 634:	75636f44 	strbvc	r6, [r3, #-3908]!	; 0xfffff0bc
 638:	746e656d 	strbtvc	r6, [lr], #-1389	; 0xfffffa93
 63c:	70532f73 	subsvc	r2, r3, r3, ror pc
 640:	676e6972 			; <UNDEFINED> instruction: 0x676e6972
 644:	6175515f 	cmnvs	r5, pc, asr r1
 648:	72657472 	rsbvc	r7, r5, #1912602624	; 0x72000000
 64c:	3230325f 	eorscc	r3, r0, #-268435451	; 0xf0000005
 650:	53432f32 	movtpl	r2, #16178	; 0x3f32
 654:	4c303432 	cfldrsmi	mvf3, [r0], #-200	; 0xffffff38
 658:	70732d58 	rsbsvc	r2, r3, r8, asr sp
 65c:	2f323272 	svccs	0x00323272
 660:	7062696c 	rsbvc	r6, r2, ip, ror #18
 664:	72610069 	rsbvc	r0, r1, #105, 0	; 0x69
 668:	76007367 	strvc	r7, [r0], -r7, ror #6
 66c:	72705f61 	rsbsvc	r5, r0, #388	; 0x184
 670:	6b746e69 	blvs	1d1c01c <__bss_end__+0x1d115b4>
 674:	675f5f00 	ldrbvs	r5, [pc, -r0, lsl #30]
 678:	5f63756e 	svcpl	0x0063756e
 67c:	6c5f6176 	ldfvse	f6, [pc], {118}	; 0x76
 680:	00747369 	rsbseq	r7, r4, r9, ror #6
 684:	61765f5f 	cmnvs	r6, pc, asr pc
 688:	73696c5f 	cmnvc	r9, #24320	; 0x5f00
 68c:	5f5f0074 	svcpl	0x005f0074
 690:	2e007061 	cdpcs	0, 0, cr7, cr0, cr1, {3}
 694:	62696c2f 	rsbvs	r6, r9, #12032	; 0x2f00
 698:	72702f63 	rsbsvc	r2, r0, #396	; 0x18c
 69c:	6b746e69 	blvs	1d1c048 <__bss_end__+0x1d115e0>
 6a0:	6900632e 	stmdbvs	r0, {r1, r2, r3, r5, r8, r9, sp, lr}
 6a4:	7265746e 	rsbvc	r7, r5, #1845493760	; 0x6e000000
 6a8:	5f6c616e 	svcpl	0x006c616e
 6ac:	6b747570 	blvs	1d1dc74 <__bss_end__+0x1d1320c>
 6b0:	6c2f2e00 	stcvs	14, cr2, [pc], #-0	; 6b8 <__code_start__-0x7948>
 6b4:	2f636269 	svccs	0x00636269
 6b8:	6b747570 	blvs	1d1dc80 <__bss_end__+0x1d13218>
 6bc:	6900632e 	stmdbvs	r0, {r1, r2, r3, r5, r8, r9, sp, lr}
 6c0:	67696473 			; <UNDEFINED> instruction: 0x67696473
 6c4:	75007469 	strvc	r7, [r0, #-1129]	; 0xfffffb97
 6c8:	36746e69 	ldrbtcc	r6, [r4], -r9, ror #28
 6cc:	00745f34 	rsbseq	r5, r4, r4, lsr pc
 6d0:	696c2f2e 	stmdbvs	ip!, {r1, r2, r3, r5, r8, r9, sl, fp, sp}^
 6d4:	762f6362 	strtvc	r6, [pc], -r2, ror #6
 6d8:	72702d61 	rsbsvc	r2, r0, #6208	; 0x1840
 6dc:	6b746e69 	blvs	1d1c088 <__bss_end__+0x1d11620>
 6e0:	5f00632e 	svcpl	0x0000632e
 6e4:	646f635f 	strbtvs	r6, [pc], #-863	; 6ec <__code_start__-0x7914>
 6e8:	74735f65 	ldrbtvc	r5, [r3], #-3941	; 0xfffff09b
 6ec:	5f747261 	svcpl	0x00747261
 6f0:	6977005f 	ldmdbvs	r7!, {r0, r1, r2, r3, r4, r6}^
 6f4:	00687464 	rsbeq	r7, r8, r4, ror #8
 6f8:	63747570 	cmnvs	r4, #112, 10	; 0x1c000000
 6fc:	0070665f 	rsbseq	r6, r0, pc, asr r6
 700:	65685f5f 	strbvs	r5, [r8, #-3935]!	; 0xfffff0a1
 704:	735f7061 	cmpvc	pc, #97, 0	; 0x61
 708:	74726174 	ldrbtvc	r6, [r2], #-372	; 0xfffffe8c
 70c:	72005f5f 	andvc	r5, r0, #380	; 0x17c
 710:	735f6970 	cmpvc	pc, #112, 18	; 0x1c0000
 714:	6f5f7465 	svcvs	0x005f7465
 718:	75707475 	ldrbvc	r7, [r0, #-1141]!	; 0xfffffb8b
 71c:	6d660074 	stclvs	0, cr0, [r6, #-464]!	; 0xfffffe30
 720:	74735f74 	ldrbtvc	r5, [r3], #-3956	; 0xfffff08c
 724:	00747261 	rsbseq	r7, r4, r1, ror #4
 728:	63727473 	cmnvs	r2, #1929379840	; 0x73000000
 72c:	6e007970 			; <UNDEFINED> instruction: 0x6e007970
 730:	705f6765 	subsvc	r6, pc, r5, ror #14
 734:	635f5f00 	cmpvs	pc, #0, 30
 738:	5f65646f 	svcpl	0x0065646f
 73c:	5f646e65 	svcpl	0x00646e65
 740:	6d65005f 	stclvs	0, cr0, [r5, #-380]!	; 0xfffffe84
 744:	70007469 	andvc	r7, r0, r9, ror #8
 748:	5f737475 	svcpl	0x00737475
 74c:	72007066 	andvc	r7, r0, #102, 0	; 0x66
 750:	72657665 	rsbvc	r7, r5, #105906176	; 0x6500000
 754:	73006573 	movwvc	r6, #1395	; 0x573
 758:	61637274 	smcvs	14116	; 0x3724
 75c:	74730074 	ldrbtvc	r0, [r3], #-116	; 0xffffff8c
 760:	706d6372 	rsbvc	r6, sp, r2, ror r3
 764:	705f5f00 	subsvc	r5, pc, r0, lsl #30
 768:	5f676f72 	svcpl	0x00676f72
 76c:	5f646e65 	svcpl	0x00646e65
 770:	756e005f 	strbvc	r0, [lr, #-95]!	; 0xffffffa1
 774:	7300316d 	movwvc	r3, #365	; 0x16d
 778:	636e7274 	cmnvs	lr, #116, 4	; 0x40000007
 77c:	7300706d 	movwvc	r7, #109	; 0x6d
 780:	656e6769 	strbvs	r6, [lr, #-1897]!	; 0xfffff897
 784:	00705f64 	rsbseq	r5, r0, r4, ror #30
 788:	5f697072 	svcpl	0x00697072
 78c:	6f626572 	svcvs	0x00626572
 790:	6400746f 	strvs	r7, [r0], #-1135	; 0xfffffb91
 794:	79616c65 	stmdbvc	r1!, {r0, r2, r5, r6, sl, fp, sp, lr}^
 798:	00736d5f 	rsbseq	r6, r3, pc, asr sp
 79c:	74732f2e 	ldrbtvc	r2, [r3], #-3886	; 0xfffff0d2
 7a0:	2d666661 	stclcs	6, cr6, [r6, #-388]!	; 0xfffffe7c
 7a4:	2f637273 	svccs	0x00637273
 7a8:	61656c63 	cmnvs	r5, r3, ror #24
 7ac:	65722d6e 	ldrbvs	r2, [r2, #-3438]!	; 0xfffff292
 7b0:	746f6f62 	strbtvc	r6, [pc], #-3938	; 7b8 <__code_start__-0x7848>
 7b4:	7500632e 	strvc	r6, [r0, #-814]	; 0xfffffcd2
 7b8:	5f747261 	svcpl	0x00747261
 7bc:	73756c66 	cmnvc	r5, #26112	; 0x6600
 7c0:	78745f68 	ldmdavc	r4!, {r3, r5, r6, r8, r9, sl, fp, ip, lr}^
 7c4:	73635f00 	cmnvc	r3, #0, 30
 7c8:	74726174 	ldrbtvc	r6, [r2], #-372	; 0xfffffe8c
 7cc:	73736200 	cmnvc	r3, #0, 4
 7d0:	646e655f 	strbtvs	r6, [lr], #-1375	; 0xfffffaa1
 7d4:	72617500 	rsbvc	r7, r1, #0, 10
 7d8:	6e695f74 	mcrvs	15, 3, r5, cr9, cr4, {3}
 7dc:	63007469 	movwvs	r7, #1129	; 0x469
 7e0:	6f747375 	svcvs	0x00747375
 7e4:	6f6c5f6d 	svcvs	0x006c5f6d
 7e8:	72656461 	rsbvc	r6, r5, #1627389952	; 0x61000000
 7ec:	732f2e00 			; <UNDEFINED> instruction: 0x732f2e00
 7f0:	66666174 			; <UNDEFINED> instruction: 0x66666174
 7f4:	6372732d 	cmnvs	r2, #-1275068416	; 0xb4000000
 7f8:	7473632f 	ldrbtvc	r6, [r3], #-815	; 0xfffffcd1
 7fc:	2e747261 	cdpcs	2, 7, cr7, cr4, cr1, {3}
 800:	2f2e0063 	svccs	0x002e0063
 804:	66617473 			; <UNDEFINED> instruction: 0x66617473
 808:	72732d66 	rsbsvc	r2, r3, #6528	; 0x1980
 80c:	75632f63 	strbvc	r2, [r3, #-3939]!	; 0xfffff09d
 810:	6d6f7473 	cfstrdvs	mvd7, [pc, #-460]!	; 64c <__code_start__-0x79b4>
 814:	616f6c2d 	cmnvs	pc, sp, lsr #24
 818:	2e726564 	cdpcs	5, 7, cr6, cr2, cr4, {3}
 81c:	65720063 	ldrbvs	r0, [r2, #-99]!	; 0xffffff9d
 820:	746f6f62 	strbtvc	r6, [pc], #-3938	; 828 <__code_start__-0x77d8>
 824:	6c61635f 	stclvs	3, cr6, [r1], #-380	; 0xfffffe84
 828:	74756f6c 	ldrbtvc	r6, [r5], #-3948	; 0xfffff094
 82c:	5f4d5000 	svcpl	0x004d5000
 830:	474f4457 	smlsldmi	r4, pc, r7, r4	; <UNPREDICTABLE>
 834:	54555000 	ldrbpl	r5, [r5], #-0
 838:	73003233 	movwvc	r3, #563	; 0x233
 83c:	755f7465 	ldrbvc	r7, [pc, #-1125]	; 3df <__code_start__-0x7c21>
 840:	5f726573 	svcpl	0x00726573
 844:	6576656c 	ldrbvs	r6, [r6, #-1388]!	; 0xfffffa94
 848:	2f2e006c 	svccs	0x002e006c
 84c:	66617473 			; <UNDEFINED> instruction: 0x66617473
 850:	72732d66 	rsbsvc	r2, r3, #6528	; 0x1980
 854:	65722f63 	ldrbvs	r2, [r2, #-3939]!	; 0xfffff09d
 858:	746f6f62 	strbtvc	r6, [pc], #-3938	; 860 <__code_start__-0x77a0>
 85c:	5000632e 	andpl	r6, r0, lr, lsr #6
 860:	41505f4d 	cmpmi	r0, sp, asr #30
 864:	4f575353 	svcmi	0x00575353
 868:	61004452 	tstvs	r0, r2, asr r4
 86c:	73755f74 	cmnvc	r5, #116, 30	; 0x1d0
 870:	6c5f7265 	lfmvs	f7, 2, [pc], {101}	; 0x65
 874:	6c657665 	stclvs	6, cr7, [r5], #-404	; 0xfffffe6c
 878:	5f4d5000 	svcpl	0x004d5000
 87c:	43545352 	cmpmi	r4, #1207959553	; 0x48000001
 880:	4352575f 	cmpmi	r2, #24903680	; 0x17c0000
 884:	465f4746 	ldrbmi	r4, [pc], -r6, asr #14
 888:	5f4c4c55 	svcpl	0x004c4c55
 88c:	45534552 	ldrbmi	r4, [r3, #-1362]	; 0xfffffaae
 890:	4d500054 	ldclmi	0, cr0, [r0, #-336]	; 0xfffffeb0
 894:	5453525f 	ldrbpl	r5, [r3], #-607	; 0xfffffda1
 898:	70630043 	rsbvc	r0, r3, r3, asr #32
 89c:	64007273 	strvs	r7, [r0], #-627	; 0xfffffd8d
 8a0:	625f7665 	subsvs	r7, pc, #105906176	; 0x6500000
 8a4:	69727261 	ldmdbvs	r2!, {r0, r5, r6, r9, ip, sp, lr}^
 8a8:	64007265 	strvs	r7, [r0], #-613	; 0xfffffd9b
 8ac:	79616c65 	stmdbvc	r1!, {r0, r2, r5, r6, sl, fp, sp, lr}^
 8b0:	6365735f 	cmnvs	r5, #2080374785	; 0x7c000001
 8b4:	732f2e00 			; <UNDEFINED> instruction: 0x732f2e00
 8b8:	66666174 			; <UNDEFINED> instruction: 0x66666174
 8bc:	6372732d 	cmnvs	r2, #-1275068416	; 0xb4000000
 8c0:	6d69742f 	cfstrdvs	mvd7, [r9, #-188]!	; 0xffffff44
 8c4:	632e7265 			; <UNDEFINED> instruction: 0x632e7265
 8c8:	54454700 	strbpl	r4, [r5], #-1792	; 0xfffff900
 8cc:	74003233 	strvc	r3, [r0], #-563	; 0xfffffdcd
 8d0:	72656d69 	rsbvc	r6, r5, #6720	; 0x1a40
 8d4:	7465675f 	strbtvc	r6, [r5], #-1887	; 0xfffff8a1
 8d8:	6573755f 	ldrbvs	r7, [r3, #-1375]!	; 0xfffffaa1
 8dc:	65640063 	strbvs	r0, [r4, #-99]!	; 0xffffff9d
 8e0:	5f79616c 	svcpl	0x0079616c
 8e4:	74007375 	strvc	r7, [r0], #-885	; 0xfffffc8b
 8e8:	72656d69 	rsbvc	r6, r5, #6720	; 0x1a40
 8ec:	7465675f 	strbtvc	r6, [r5], #-1887	; 0xfffff8a1
 8f0:	6573755f 	ldrbvs	r7, [r3, #-1375]!	; 0xfffffaa1
 8f4:	61725f63 	cmnvs	r2, r3, ror #30
 8f8:	75700077 	ldrbvc	r0, [r0, #-119]!	; 0xffffff89
 8fc:	00323374 	eorseq	r3, r2, r4, ror r3
 900:	64756162 	ldrbtvs	r6, [r5], #-354	; 0xfffffe9e
 904:	6c61765f 	stclvs	6, cr7, [r1], #-380	; 0xfffffe84
 908:	61747300 	cmnvs	r4, r0, lsl #6
 90c:	61750074 	cmnvs	r5, r4, ror r0
 910:	635f7472 	cmpvs	pc, #1912602624	; 0x72000000
 914:	675f6e61 	ldrbvs	r6, [pc, -r1, ror #28]
 918:	00637465 	rsbeq	r7, r3, r5, ror #8
 91c:	4f495047 	svcmi	0x00495047
 920:	4e55465f 	mrcmi	6, 2, r4, cr5, cr15, {2}
 924:	554f5f43 	strbpl	r5, [pc, #-3907]	; fffff9e9 <__bss_end__+0xffff4f81>
 928:	54555054 	ldrbpl	r5, [r5], #-84	; 0xffffffac
 92c:	78756100 	ldmdavc	r5!, {r8, sp, lr}^
 930:	7265705f 	rsbvc	r7, r5, #95, 0	; 0x5f
 934:	73687069 	cmnvc	r8, #105, 0	; 0x69
 938:	72617500 	rsbvc	r7, r1, #0, 10
 93c:	00632e74 	rsbeq	r2, r3, r4, ror lr
 940:	74726175 	ldrbtvc	r6, [r2], #-373	; 0xfffffe8b
 944:	6e61635f 	mcrvs	3, 3, r6, cr1, cr15, {2}
 948:	7475705f 	ldrbtvc	r7, [r5], #-95	; 0xffffffa1
 94c:	61750063 	cmnvs	r5, r3, rrx
 950:	745f7472 	ldrbvc	r7, [pc], #-1138	; 958 <__code_start__-0x76a8>
 954:	73695f78 	cmnvc	r9, #120, 30	; 0x1e0
 958:	706d655f 	rsbvc	r6, sp, pc, asr r5
 95c:	47007974 	smlsdxmi	r0, r4, r9, r7
 960:	5f4f4950 	svcpl	0x004f4950
 964:	434e5546 	movtmi	r5, #58694	; 0xe546
 968:	544c415f 	strbpl	r4, [ip], #-351	; 0xfffffea1
 96c:	50470030 	subpl	r0, r7, r0, lsr r0
 970:	465f4f49 	ldrbmi	r4, [pc], -r9, asr #30
 974:	5f434e55 	svcpl	0x00434e55
 978:	31544c41 	cmpcc	r4, r1, asr #24
 97c:	49504700 	ldmdbmi	r0, {r8, r9, sl, lr}^
 980:	55465f4f 	strbpl	r5, [r6, #-3919]	; 0xfffff0b1
 984:	415f434e 	cmpmi	pc, lr, asr #6
 988:	0032544c 	eorseq	r5, r2, ip, asr #8
 98c:	4f495047 	svcmi	0x00495047
 990:	4e55465f 	mrcmi	6, 2, r4, cr5, cr15, {2}
 994:	4c415f43 	mcrrmi	15, 4, r5, r1, cr3
 998:	47003354 	smlsdmi	r0, r4, r3, r3
 99c:	5f4f4950 	svcpl	0x004f4950
 9a0:	434e5546 	movtmi	r5, #58694	; 0xe546
 9a4:	544c415f 	strbpl	r4, [ip], #-351	; 0xfffffea1
 9a8:	682f0035 	stmdavs	pc!, {r0, r2, r4, r5}	; <UNPREDICTABLE>
 9ac:	2f656d6f 	svccs	0x00656d6f
 9b0:	6c676e65 	stclvs	14, cr6, [r7], #-404	; 0xfffffe6c
 9b4:	632f7265 			; <UNDEFINED> instruction: 0x632f7265
 9b8:	7373616c 	cmnvc	r3, #27
 9bc:	3273632f 	rsbscc	r6, r3, #-1140850688	; 0xbc000000
 9c0:	786c3034 	stmdavc	ip!, {r2, r4, r5, ip, sp}^
 9c4:	7332322d 	teqvc	r2, #-805306366	; 0xd0000002
 9c8:	6c2f7270 	sfmvs	f7, 4, [pc], #-448	; 810 <__code_start__-0x77f0>
 9cc:	69706269 	ldmdbvs	r0!, {r0, r3, r5, r6, r9, sp, lr}^
 9d0:	6174732f 	cmnvs	r4, pc, lsr #6
 9d4:	702d6666 	eorvc	r6, sp, r6, ror #12
 9d8:	61766972 	cmnvs	r6, r2, ror r9
 9dc:	62006574 	andvs	r6, r0, #116, 10	; 0x1d000000
 9e0:	00647561 	rsbeq	r7, r4, r1, ror #10
 9e4:	5f787561 	svcpl	0x00787561
 9e8:	62616e65 	rsbvs	r6, r1, #1616	; 0x650
 9ec:	0073656c 	rsbseq	r6, r3, ip, ror #10
 9f0:	74726175 	ldrbtvc	r6, [r2], #-373	; 0xfffffe8b
 9f4:	7465675f 	strbtvc	r6, [r5], #-1887	; 0xfffff8a1
 9f8:	4e470063 	cdpmi	0, 4, cr0, cr7, cr3, {3}
 9fc:	39432055 	stmdbcc	r3, {r0, r2, r4, r6, sp}^
 a00:	30312039 	eorscc	r2, r1, r9, lsr r0
 a04:	312e332e 			; <UNDEFINED> instruction: 0x312e332e
 a08:	32303220 	eorscc	r3, r0, #32, 4
 a0c:	32383031 	eorscc	r3, r8, #49, 0	; 0x31
 a10:	72282034 	eorvc	r2, r8, #52, 0	; 0x34
 a14:	61656c65 	cmnvs	r5, r5, ror #24
 a18:	20296573 	eorcs	r6, r9, r3, ror r5
 a1c:	70636d2d 	rsbvc	r6, r3, sp, lsr #26
 a20:	72613d75 	rsbvc	r3, r1, #7488	; 0x1d40
 a24:	3731316d 	ldrcc	r3, [r1, -sp, ror #2]!
 a28:	667a6a36 			; <UNDEFINED> instruction: 0x667a6a36
 a2c:	2d20732d 	stccs	3, cr7, [r0, #-180]!	; 0xffffff4c
 a30:	6e75746d 	cdpvs	4, 7, cr7, cr5, cr13, {3}
 a34:	72613d65 	rsbvc	r3, r1, #6464	; 0x1940
 a38:	3731316d 	ldrcc	r3, [r1, -sp, ror #2]!
 a3c:	667a6a36 			; <UNDEFINED> instruction: 0x667a6a36
 a40:	2d20732d 	stccs	3, cr7, [r0, #-180]!	; 0xffffff4c
 a44:	6f6c666d 	svcvs	0x006c666d
 a48:	612d7461 			; <UNDEFINED> instruction: 0x612d7461
 a4c:	733d6962 	teqvc	sp, #1605632	; 0x188000
 a50:	2074666f 	rsbscs	r6, r4, pc, ror #12
 a54:	72616d2d 	rsbvc	r6, r1, #2880	; 0xb40
 a58:	6d2d206d 	stcvs	0, cr2, [sp, #-436]!	; 0xfffffe4c
 a5c:	68637261 	stmdavs	r3!, {r0, r5, r6, r9, ip, sp, lr}^
 a60:	6d72613d 	ldfvse	f6, [r2, #-244]!	; 0xffffff0c
 a64:	7a6b3676 	bvc	1ace444 <__bss_end__+0x1ac39dc>
 a68:	67672d20 	strbvs	r2, [r7, -r0, lsr #26]!
 a6c:	2d206264 	sfmcs	f6, 4, [r0, #-400]!	; 0xfffffe70
 a70:	2d20674f 	stccs	7, cr6, [r0, #-316]!	; 0xfffffec4
 a74:	3d647473 	cfstrdcc	mvd7, [r4, #-460]!	; 0xfffffe34
 a78:	39756e67 	ldmdbcc	r5!, {r0, r1, r2, r5, r6, r9, sl, fp, sp, lr}^
 a7c:	662d2039 			; <UNDEFINED> instruction: 0x662d2039
 a80:	65657266 	strbvs	r7, [r5, #-614]!	; 0xfffffd9a
 a84:	6e617473 	mcrvs	4, 3, r7, cr1, cr3, {3}
 a88:	676e6964 	strbvs	r6, [lr, -r4, ror #18]!
 a8c:	746e6300 	strbtvc	r6, [lr], #-768	; 0xfffffd00
 a90:	6175006c 	cmnvs	r5, ip, rrx
 a94:	645f7472 	ldrbvs	r7, [pc], #-1138	; a9c <__code_start__-0x7564>
 a98:	62617369 	rsbvs	r7, r1, #-1543503871	; 0xa4000001
 a9c:	7500656c 	strvc	r6, [r0, #-1388]	; 0xfffffa94
 aa0:	5f747261 	svcpl	0x00747261
 aa4:	5f736168 	svcpl	0x00736168
 aa8:	61746164 	cmnvs	r4, r4, ror #2
 aac:	49504700 	ldmdbmi	r0, {r8, r9, sl, lr}^
 ab0:	55465f4f 	strbpl	r5, [r6, #-3919]	; 0xfffff0b1
 ab4:	415f434e 	cmpmi	pc, lr, asr #6
 ab8:	0034544c 	eorseq	r5, r4, ip, asr #8
 abc:	695f726f 	ldmdbvs	pc, {r0, r1, r2, r3, r5, r6, r9, ip, sp, lr}^	; <UNPREDICTABLE>
 ac0:	0032336e 	eorseq	r3, r2, lr, ror #6
 ac4:	61726373 	cmnvs	r2, r3, ror r3
 ac8:	00686374 	rsbeq	r6, r8, r4, ror r3
 acc:	74726175 	ldrbtvc	r6, [r2], #-373	; 0xfffffe8b
 ad0:	646e6100 	strbtvs	r6, [lr], #-256	; 0xffffff00
 ad4:	336e695f 	cmncc	lr, #1556480	; 0x17c000
 ad8:	61750032 	cmnvs	r5, r2, lsr r0
 adc:	705f7472 	subsvc	r7, pc, r2, ror r4	; <UNPREDICTABLE>
 ae0:	00637475 	rsbeq	r7, r3, r5, ror r4
 ae4:	4f495047 	svcmi	0x00495047
 ae8:	4e55465f 	mrcmi	6, 2, r4, cr5, cr15, {2}
 aec:	4e495f43 	cdpmi	15, 4, cr5, cr9, cr3, {2}
 af0:	00545550 	subseq	r5, r4, r0, asr r5
 af4:	6f697067 	svcvs	0x00697067
 af8:	7465735f 	strbtvc	r7, [r5], #-863	; 0xfffffca1
 afc:	6e75665f 	mrcvs	6, 3, r6, cr5, cr15, {2}
 b00:	6f697463 	svcvs	0x00697463
 b04:	6567006e 	strbvs	r0, [r7, #-110]!	; 0xffffff92
 b08:	00323374 	eorseq	r3, r2, r4, ror r3
 b0c:	6c616d6b 	stclvs	13, cr6, [r1], #-428	; 0xfffffe54
 b10:	5f636f6c 	svcpl	0x00636f6c
 b14:	70616568 	rsbvc	r6, r1, r8, ror #10
 b18:	6174735f 	cmnvs	r4, pc, asr r3
 b1c:	6d007472 	cfstrsvs	mvf7, [r0, #-456]	; 0xfffffe38
 b20:	6e5f7861 	cdpvs	8, 5, cr7, cr15, cr1, {3}
 b24:	65747962 	ldrbvs	r7, [r4, #-2402]!	; 0xfffff69e
 b28:	615f0073 	cmpvs	pc, r3, ror r0	; <UNPREDICTABLE>
 b2c:	00726464 	rsbseq	r6, r2, r4, ror #8
 b30:	70616568 	rsbvc	r6, r1, r8, ror #10
 b34:	78616d5f 	stmdavc	r1!, {r0, r1, r2, r3, r4, r6, r8, sl, fp, sp, lr}^
 b38:	72666b00 	rsbvc	r6, r6, #0, 22
 b3c:	615f6565 	cmpvs	pc, r5, ror #10
 b40:	72006c6c 	andvc	r6, r0, #108, 24	; 0x6c00
 b44:	646e756f 	strbtvs	r7, [lr], #-1391	; 0xfffffa91
 b48:	6b007075 	blvs	1cd24 <__bss_end__+0x122bc>
 b4c:	65657266 	strbvs	r7, [r5, #-614]!	; 0xfffffd9a
 b50:	706f705f 	rsbvc	r7, pc, pc, asr r0	; <UNPREDICTABLE>
 b54:	696c6100 	stmdbvs	ip!, {r8, sp, lr}^
 b58:	656d6e67 	strbvs	r6, [sp, #-3687]!	; 0xfffff199
 b5c:	6d00746e 	cfstrsvs	mvf7, [r0, #-440]	; 0xfffffe48
 b60:	755f7861 	ldrbvc	r7, [pc, #-2145]	; 307 <__code_start__-0x7cf9>
 b64:	4f003233 	svcmi	0x00003233
 b68:	424d656e 	submi	r6, sp, #461373440	; 0x1b800000
 b6c:	616d6b00 	cmnvs	sp, r0, lsl #22
 b70:	636f6c6c 	cmnvs	pc, #108, 24	; 0x6c00
 b74:	6165685f 	cmnvs	r5, pc, asr r8
 b78:	6e655f70 	mcrvs	15, 3, r5, cr5, cr0, {3}
 b7c:	6d6b0064 	stclvs	0, cr0, [fp, #-400]!	; 0xfffffe70
 b80:	6f6c6c61 	svcvs	0x006c6c61
 b84:	6f6e5f63 	svcvs	0x006e5f63
 b88:	72657a74 	rsbvc	r7, r5, #116, 20	; 0x74000
 b8c:	7369006f 	cmnvc	r9, #111, 0	; 0x6f
 b90:	776f705f 			; <UNDEFINED> instruction: 0x776f705f
 b94:	6d6b0032 	stclvs	0, cr0, [fp, #-200]!	; 0xffffff38
 b98:	6f6c6c61 	svcvs	0x006c6c61
 b9c:	00632e63 	rsbeq	r2, r3, r3, ror #28
 ba0:	6c616d6b 	stclvs	13, cr6, [r1], #-428	; 0xfffffe54
 ba4:	5f636f6c 	svcpl	0x00636f6c
 ba8:	74696e69 	strbtvc	r6, [r9], #-3689	; 0xfffff197
 bac:	5f736900 	svcpl	0x00736900
 bb0:	67696c61 	strbvs	r6, [r9, -r1, ror #24]!
 bb4:	0064656e 	rsbeq	r6, r4, lr, ror #10
 bb8:	6c616d6b 	stclvs	13, cr6, [r1], #-428	; 0xfffffe54
 bbc:	5f636f6c 	svcpl	0x00636f6c
 bc0:	70616568 	rsbvc	r6, r1, r8, ror #10
 bc4:	7274705f 	rsbsvc	r7, r4, #95, 0	; 0x5f
 bc8:	69707200 	ldmdbvs	r0!, {r9, ip, sp, lr}^
 bcc:	7365725f 	cmnvc	r5, #-268435451	; 0xf0000005
 bd0:	705f7465 	subsvc	r7, pc, r5, ror #8
 bd4:	00637475 	rsbeq	r7, r3, r5, ror r4
 bd8:	6c616d6b 	stclvs	13, cr6, [r1], #-428	; 0xfffffe54
 bdc:	5f636f6c 	svcpl	0x00636f6c
 be0:	67696c61 	strbvs	r6, [r9, -r1, ror #24]!
 be4:	0064656e 	rsbeq	r6, r4, lr, ror #10
 be8:	65746e69 	ldrbvs	r6, [r4, #-3689]!	; 0xfffff197
 bec:	6c616e72 	stclvs	14, cr6, [r1], #-456	; 0xfffffe38
 bf0:	7475705f 	ldrbtvc	r7, [r5], #-95	; 0xffffffa1
 bf4:	72616863 	rsbvc	r6, r1, #6488064	; 0x630000
 bf8:	69707200 	ldmdbvs	r0!, {r9, ip, sp, lr}^
 bfc:	7465735f 	strbtvc	r7, [r5], #-863	; 0xfffffca1
 c00:	7475705f 	ldrbtvc	r7, [r5], #-95	; 0xffffffa1
 c04:	2f2e0063 	svccs	0x002e0063
 c08:	6362696c 	cmnvs	r2, #108, 18	; 0x1b0000
 c0c:	7475702f 	ldrbtvc	r7, [r5], #-47	; 0xffffffd1
 c10:	72616863 	rsbvc	r6, r1, #6488064	; 0x630000
 c14:	6400632e 	strvs	r6, [r0], #-814	; 0xfffffcd2
 c18:	00747365 	rsbseq	r7, r4, r5, ror #6
 c1c:	696c2f2e 	stmdbvs	ip!, {r1, r2, r3, r5, r8, r9, sl, fp, sp}^
 c20:	732f6362 			; <UNDEFINED> instruction: 0x732f6362
 c24:	61637274 	smcvs	14116	; 0x3724
 c28:	00632e74 	rsbeq	r2, r3, r4, ror lr
 c2c:	696c2f2e 	stmdbvs	ip!, {r1, r2, r3, r5, r8, r9, sl, fp, sp}^
 c30:	732f6362 			; <UNDEFINED> instruction: 0x732f6362
 c34:	6d637274 	sfmvs	f7, 2, [r3, #-464]!	; 0xfffffe30
 c38:	00632e70 	rsbeq	r2, r3, r0, ror lr
 c3c:	696c2f2e 	stmdbvs	ip!, {r1, r2, r3, r5, r8, r9, sl, fp, sp}^
 c40:	732f6362 			; <UNDEFINED> instruction: 0x732f6362
 c44:	70637274 	rsbvc	r7, r3, r4, ror r2
 c48:	00632e79 	rsbeq	r2, r3, r9, ror lr
 c4c:	696c2f2e 	stmdbvs	ip!, {r1, r2, r3, r5, r8, r9, sl, fp, sp}^
 c50:	732f6362 			; <UNDEFINED> instruction: 0x732f6362
 c54:	636e7274 	cmnvs	lr, #116, 4	; 0x40000007
 c58:	632e706d 			; <UNDEFINED> instruction: 0x632e706d
 c5c:	732f2e00 			; <UNDEFINED> instruction: 0x732f2e00
 c60:	66666174 			; <UNDEFINED> instruction: 0x66666174
 c64:	6372732d 	cmnvs	r2, #-1275068416	; 0xb4000000
 c68:	6665642f 	strbtvs	r6, [r5], -pc, lsr #8
 c6c:	746c7561 	strbtvc	r7, [ip], #-1377	; 0xfffffa9f
 c70:	6265722d 	rsbvs	r7, r5, #-805306366	; 0xd0000002
 c74:	2d746f6f 	ldclcs	15, cr6, [r4, #-444]!	; 0xfffffe44
 c78:	6c6c6163 	stfvse	f6, [ip], #-396	; 0xfffffe74
 c7c:	2e74756f 	cdpcs	5, 7, cr7, cr4, cr15, {3}
 c80:	70670063 	rsbvc	r0, r7, r3, rrx
 c84:	635f6f69 	cmpvs	pc, #420	; 0x1a4
 c88:	0030726c 	eorseq	r7, r0, ip, ror #4
 c8c:	6f697067 	svcvs	0x00697067
 c90:	7465735f 	strbtvc	r7, [r5], #-863	; 0xfffffca1
 c94:	70670030 	rsbvc	r0, r7, r0, lsr r0
 c98:	775f6f69 	ldrbvc	r6, [pc, -r9, ror #30]
 c9c:	65746972 	ldrbvs	r6, [r4, #-2418]!	; 0xfffff68e
 ca0:	56454400 	strbpl	r4, [r5], -r0, lsl #8
 ca4:	4c41565f 	mcrrmi	6, 5, r5, r1, cr15
 ca8:	67003233 	smladxvs	r0, r3, r2, r3
 cac:	5f6f6970 	svcpl	0x006f6970
 cb0:	64616572 	strbtvs	r6, [r1], #-1394	; 0xfffffa8e
 cb4:	69706700 	ldmdbvs	r0!, {r8, r9, sl, sp, lr}^
 cb8:	65735f6f 	ldrbvs	r5, [r3, #-3951]!	; 0xfffff091
 cbc:	6e695f74 	mcrvs	15, 3, r5, cr9, cr4, {3}
 cc0:	00747570 	rsbseq	r7, r4, r0, ror r5
 cc4:	6f697067 	svcvs	0x00697067
 cc8:	7465735f 	strbtvc	r7, [r5], #-863	; 0xfffffca1
 ccc:	66666f5f 	uqsaxvs	r6, r6, pc	; <UNPREDICTABLE>
 cd0:	69706700 	ldmdbvs	r0!, {r8, r9, sl, sp, lr}^
 cd4:	65735f6f 	ldrbvs	r5, [r3, #-3951]!	; 0xfffff091
 cd8:	756f5f74 	strbvc	r5, [pc, #-3956]!	; fffffd6c <__bss_end__+0xffff5304>
 cdc:	74757074 	ldrbtvc	r7, [r5], #-116	; 0xffffff8c
 ce0:	69706700 	ldmdbvs	r0!, {r8, r9, sl, sp, lr}^
 ce4:	75665f6f 	strbvc	r5, [r6, #-3951]!	; 0xfffff091
 ce8:	745f636e 	ldrbvc	r6, [pc], #-878	; cf0 <__code_start__-0x7310>
 cec:	69706700 	ldmdbvs	r0!, {r8, r9, sl, sp, lr}^
 cf0:	656c5f6f 	strbvs	r5, [ip, #-3951]!	; 0xfffff091
 cf4:	62003076 	andvs	r3, r0, #118, 0	; 0x76
 cf8:	006b6e61 	rsbeq	r6, fp, r1, ror #28
 cfc:	6f697067 	svcvs	0x00697067
 d00:	6700632e 	strvs	r6, [r0, -lr, lsr #6]
 d04:	5f6f6970 	svcpl	0x006f6970
 d08:	5f746573 	svcpl	0x00746573
 d0c:	Address 0x0000000000000d0c is out of bounds.


Disassembly of section .debug_frame:

00000000 <.debug_frame>:
   0:	0000000c 	andeq	r0, r0, ip
   4:	ffffffff 			; <UNDEFINED> instruction: 0xffffffff
   8:	7c020001 	stcvc	0, cr0, [r2], {1}
   c:	000d0c0e 	andeq	r0, sp, lr, lsl #24
  10:	00000024 	andeq	r0, r0, r4, lsr #32
  14:	00000000 	andeq	r0, r0, r0
  18:	00008038 	andeq	r8, r0, r8, lsr r0
  1c:	000000d4 	ldrdeq	r0, [r0], -r4
  20:	84100e42 	ldrhi	r0, [r0], #-3650	; 0xfffff1be
  24:	86038504 	strhi	r8, [r3], -r4, lsl #10
  28:	42018e02 	andmi	r8, r1, #2, 28
  2c:	4a02280e 	bmi	8a06c <__bss_end__+0x7f604>
  30:	42100e0a 	andsmi	r0, r0, #160	; 0xa0
  34:	0000000b 	andeq	r0, r0, fp
  38:	0000000c 	andeq	r0, r0, ip
  3c:	ffffffff 			; <UNDEFINED> instruction: 0xffffffff
  40:	7c020001 	stcvc	0, cr0, [r2], {1}
  44:	000d0c0e 	andeq	r0, sp, lr, lsl #24
  48:	00000014 	andeq	r0, r0, r4, lsl r0
  4c:	00000038 	andeq	r0, r0, r8, lsr r0
  50:	0000810c 	andeq	r8, r0, ip, lsl #2
  54:	00000074 	andeq	r0, r0, r4, ror r0
  58:	8e040e5e 	mcrhi	14, 0, r0, cr4, cr14, {2}
  5c:	100e4201 	andne	r4, lr, r1, lsl #4
  60:	0000000c 	andeq	r0, r0, ip
  64:	00000038 	andeq	r0, r0, r8, lsr r0
  68:	00008180 	andeq	r8, r0, r0, lsl #3
  6c:	00000010 	andeq	r0, r0, r0, lsl r0
  70:	0000000c 	andeq	r0, r0, ip
  74:	00000038 	andeq	r0, r0, r8, lsr r0
  78:	00008190 	muleq	r0, r0, r1
  7c:	00000010 	andeq	r0, r0, r0, lsl r0
  80:	0000000c 	andeq	r0, r0, ip
  84:	00000038 	andeq	r0, r0, r8, lsr r0
  88:	000081a0 	andeq	r8, r0, r0, lsr #3
  8c:	00000008 	andeq	r0, r0, r8
  90:	00000014 	andeq	r0, r0, r4, lsl r0
  94:	00000038 	andeq	r0, r0, r8, lsr r0
  98:	000081a8 	andeq	r8, r0, r8, lsr #3
  9c:	00000018 	andeq	r0, r0, r8, lsl r0
  a0:	84080e42 	strhi	r0, [r8], #-3650	; 0xfffff1be
  a4:	00018e02 	andeq	r8, r1, r2, lsl #28
  a8:	0000000c 	andeq	r0, r0, ip
  ac:	00000038 	andeq	r0, r0, r8, lsr r0
  b0:	000081c0 	andeq	r8, r0, r0, asr #3
  b4:	00000038 	andeq	r0, r0, r8, lsr r0
  b8:	00000018 	andeq	r0, r0, r8, lsl r0
  bc:	00000038 	andeq	r0, r0, r8, lsr r0
  c0:	000081f8 	strdeq	r8, [r0], -r8	; <UNPREDICTABLE>
  c4:	00000050 	andeq	r0, r0, r0, asr r0
  c8:	84100e42 	ldrhi	r0, [r0], #-3650	; 0xfffff1be
  cc:	86038504 	strhi	r8, [r3], -r4, lsl #10
  d0:	00018e02 	andeq	r8, r1, r2, lsl #28
  d4:	00000014 	andeq	r0, r0, r4, lsl r0
  d8:	00000038 	andeq	r0, r0, r8, lsr r0
  dc:	00008248 	andeq	r8, r0, r8, asr #4
  e0:	00000054 	andeq	r0, r0, r4, asr r0
  e4:	84080e42 	strhi	r0, [r8], #-3650	; 0xfffff1be
  e8:	00018e02 	andeq	r8, r1, r2, lsl #28
  ec:	0000000c 	andeq	r0, r0, ip
  f0:	00000038 	andeq	r0, r0, r8, lsr r0
  f4:	0000829c 	muleq	r0, ip, r2
  f8:	0000004c 	andeq	r0, r0, ip, asr #32
  fc:	00000018 	andeq	r0, r0, r8, lsl r0
 100:	00000038 	andeq	r0, r0, r8, lsr r0
 104:	000082e8 	andeq	r8, r0, r8, ror #5
 108:	00000050 	andeq	r0, r0, r0, asr r0
 10c:	84100e42 	ldrhi	r0, [r0], #-3650	; 0xfffff1be
 110:	86038504 	strhi	r8, [r3], -r4, lsl #10
 114:	00018e02 	andeq	r8, r1, r2, lsl #28
 118:	0000001c 	andeq	r0, r0, ip, lsl r0
 11c:	00000038 	andeq	r0, r0, r8, lsr r0
 120:	00008338 	andeq	r8, r0, r8, lsr r3
 124:	00000110 	andeq	r0, r0, r0, lsl r1
 128:	84080e42 	strhi	r0, [r8], #-3650	; 0xfffff1be
 12c:	42018e02 	andmi	r8, r1, #2, 28
 130:	0a7c200e 	beq	1f08170 <__bss_end__+0x1efd708>
 134:	0b42080e 	bleq	1082174 <__bss_end__+0x107770c>
 138:	00000020 	andeq	r0, r0, r0, lsr #32
 13c:	00000038 	andeq	r0, r0, r8, lsr r0
 140:	00008448 	andeq	r8, r0, r8, asr #8
 144:	000000dc 	ldrdeq	r0, [r0], -ip
 148:	84100e42 	ldrhi	r0, [r0], #-3650	; 0xfffff1be
 14c:	86038504 	strhi	r8, [r3], -r4, lsl #10
 150:	42018e02 	andmi	r8, r1, #2, 28
 154:	6002200e 	andvs	r2, r2, lr
 158:	0000100e 	andeq	r1, r0, lr
 15c:	0000000c 	andeq	r0, r0, ip
 160:	ffffffff 			; <UNDEFINED> instruction: 0xffffffff
 164:	7c020001 	stcvc	0, cr0, [r2], {1}
 168:	000d0c0e 	andeq	r0, sp, lr, lsl #24
 16c:	0000000c 	andeq	r0, r0, ip
 170:	0000015c 	andeq	r0, r0, ip, asr r1
 174:	00008524 	andeq	r8, r0, r4, lsr #10
 178:	0000003c 	andeq	r0, r0, ip, lsr r0
 17c:	0000001c 	andeq	r0, r0, ip, lsl r0
 180:	0000015c 	andeq	r0, r0, ip, asr r1
 184:	00008560 	andeq	r8, r0, r0, ror #10
 188:	00000104 	andeq	r0, r0, r4, lsl #2
 18c:	84180e42 	ldrhi	r0, [r8], #-3650	; 0xfffff1be
 190:	86058506 	strhi	r8, [r5], -r6, lsl #10
 194:	88038704 	stmdahi	r3, {r2, r8, r9, sl, pc}
 198:	00018e02 	andeq	r8, r1, r2, lsl #28
 19c:	0000001c 	andeq	r0, r0, ip, lsl r0
 1a0:	0000015c 	andeq	r0, r0, ip, asr r1
 1a4:	00008664 	andeq	r8, r0, r4, ror #12
 1a8:	000000bc 	strheq	r0, [r0], -ip
 1ac:	84180e42 	ldrhi	r0, [r8], #-3650	; 0xfffff1be
 1b0:	86058506 	strhi	r8, [r5], -r6, lsl #10
 1b4:	88038704 	stmdahi	r3, {r2, r8, r9, sl, pc}
 1b8:	00018e02 	andeq	r8, r1, r2, lsl #28
 1bc:	00000014 	andeq	r0, r0, r4, lsl r0
 1c0:	0000015c 	andeq	r0, r0, ip, asr r1
 1c4:	00008720 	andeq	r8, r0, r0, lsr #14
 1c8:	00000028 	andeq	r0, r0, r8, lsr #32
 1cc:	84080e42 	strhi	r0, [r8], #-3650	; 0xfffff1be
 1d0:	00018e02 	andeq	r8, r1, r2, lsl #28
 1d4:	00000024 	andeq	r0, r0, r4, lsr #32
 1d8:	0000015c 	andeq	r0, r0, ip, asr r1
 1dc:	00008748 	andeq	r8, r0, r8, asr #14
 1e0:	00000134 	andeq	r0, r0, r4, lsr r1
 1e4:	84180e42 	ldrhi	r0, [r8], #-3650	; 0xfffff1be
 1e8:	86058506 	strhi	r8, [r5], -r6, lsl #10
 1ec:	88038704 	stmdahi	r3, {r2, r8, r9, sl, pc}
 1f0:	42018e02 	andmi	r8, r1, #2, 28
 1f4:	8802200e 	stmdahi	r2, {r1, r2, r3, sp}
 1f8:	0000180e 	andeq	r1, r0, lr, lsl #16
 1fc:	00000018 	andeq	r0, r0, r8, lsl r0
 200:	0000015c 	andeq	r0, r0, ip, asr r1
 204:	0000887c 	andeq	r8, r0, ip, ror r8
 208:	00000090 	muleq	r0, r0, r0
 20c:	8e040e42 	cdphi	14, 0, cr0, cr4, cr2, {2}
 210:	480e4201 	stmdami	lr, {r0, r9, lr}
 214:	00040e7a 	andeq	r0, r4, sl, ror lr
 218:	00000020 	andeq	r0, r0, r0, lsr #32
 21c:	0000015c 	andeq	r0, r0, ip, asr r1
 220:	0000890c 	andeq	r8, r0, ip, lsl #18
 224:	000000b4 	strheq	r0, [r0], -r4
 228:	840c0e42 	strhi	r0, [ip], #-3650	; 0xfffff1be
 22c:	8e028503 	cfsh32hi	mvfx8, mvfx2, #3
 230:	180e4201 	stmdane	lr, {r0, r9, lr}
 234:	0c0e0a6a 			; <UNDEFINED> instruction: 0x0c0e0a6a
 238:	00000b42 	andeq	r0, r0, r2, asr #22
 23c:	00000014 	andeq	r0, r0, r4, lsl r0
 240:	0000015c 	andeq	r0, r0, ip, asr r1
 244:	000089c0 	andeq	r8, r0, r0, asr #19
 248:	00000030 	andeq	r0, r0, r0, lsr r0
 24c:	84080e42 	strhi	r0, [r8], #-3650	; 0xfffff1be
 250:	00018e02 	andeq	r8, r1, r2, lsl #28
 254:	00000014 	andeq	r0, r0, r4, lsl r0
 258:	0000015c 	andeq	r0, r0, ip, asr r1
 25c:	000089f0 	strdeq	r8, [r0], -r0
 260:	00000048 	andeq	r0, r0, r8, asr #32
 264:	84080e42 	strhi	r0, [r8], #-3650	; 0xfffff1be
 268:	00018e02 	andeq	r8, r1, r2, lsl #28
 26c:	00000014 	andeq	r0, r0, r4, lsl r0
 270:	0000015c 	andeq	r0, r0, ip, asr r1
 274:	00008a38 	andeq	r8, r0, r8, lsr sl
 278:	00000050 	andeq	r0, r0, r0, asr r0
 27c:	84080e42 	strhi	r0, [r8], #-3650	; 0xfffff1be
 280:	00018e02 	andeq	r8, r1, r2, lsl #28
 284:	00000014 	andeq	r0, r0, r4, lsl r0
 288:	0000015c 	andeq	r0, r0, ip, asr r1
 28c:	00008a88 	andeq	r8, r0, r8, lsl #21
 290:	00000010 	andeq	r0, r0, r0, lsl r0
 294:	84080e42 	strhi	r0, [r8], #-3650	; 0xfffff1be
 298:	00018e02 	andeq	r8, r1, r2, lsl #28
 29c:	00000014 	andeq	r0, r0, r4, lsl r0
 2a0:	0000015c 	andeq	r0, r0, ip, asr r1
 2a4:	00008a98 	muleq	r0, r8, sl
 2a8:	00000028 	andeq	r0, r0, r8, lsr #32
 2ac:	84080e42 	strhi	r0, [r8], #-3650	; 0xfffff1be
 2b0:	00018e02 	andeq	r8, r1, r2, lsl #28
 2b4:	0000000c 	andeq	r0, r0, ip
 2b8:	ffffffff 			; <UNDEFINED> instruction: 0xffffffff
 2bc:	7c020001 	stcvc	0, cr0, [r2], {1}
 2c0:	000d0c0e 	andeq	r0, sp, lr, lsl #24
 2c4:	00000014 	andeq	r0, r0, r4, lsl r0
 2c8:	000002b4 			; <UNDEFINED> instruction: 0x000002b4
 2cc:	00008b04 	andeq	r8, r0, r4, lsl #22
 2d0:	000000bc 	strheq	r0, [r0], -ip
 2d4:	8e040e42 	cdphi	14, 0, cr0, cr4, cr2, {2}
 2d8:	00000001 	andeq	r0, r0, r1
 2dc:	00000014 	andeq	r0, r0, r4, lsl r0
 2e0:	000002b4 			; <UNDEFINED> instruction: 0x000002b4
 2e4:	00008bc0 	andeq	r8, r0, r0, asr #23
 2e8:	00000044 	andeq	r0, r0, r4, asr #32
 2ec:	84080e42 	strhi	r0, [r8], #-3650	; 0xfffff1be
 2f0:	00018e02 	andeq	r8, r1, r2, lsl #28
 2f4:	00000014 	andeq	r0, r0, r4, lsl r0
 2f8:	000002b4 			; <UNDEFINED> instruction: 0x000002b4
 2fc:	00008c04 	andeq	r8, r0, r4, lsl #24
 300:	000000ac 	andeq	r0, r0, ip, lsr #1
 304:	84080e42 	strhi	r0, [r8], #-3650	; 0xfffff1be
 308:	00018e02 	andeq	r8, r1, r2, lsl #28
 30c:	0000000c 	andeq	r0, r0, ip
 310:	ffffffff 			; <UNDEFINED> instruction: 0xffffffff
 314:	7c020001 	stcvc	0, cr0, [r2], {1}
 318:	000d0c0e 	andeq	r0, sp, lr, lsl #24
 31c:	0000000c 	andeq	r0, r0, ip
 320:	0000030c 	andeq	r0, r0, ip, lsl #6
 324:	00008cb0 			; <UNDEFINED> instruction: 0x00008cb0
 328:	00000018 	andeq	r0, r0, r8, lsl r0
 32c:	0000000c 	andeq	r0, r0, ip
 330:	ffffffff 			; <UNDEFINED> instruction: 0xffffffff
 334:	7c020001 	stcvc	0, cr0, [r2], {1}
 338:	000d0c0e 	andeq	r0, sp, lr, lsl #24
 33c:	00000034 	andeq	r0, r0, r4, lsr r0
 340:	0000032c 	andeq	r0, r0, ip, lsr #6
 344:	00008cc8 	andeq	r8, r0, r8, asr #25
 348:	00000058 	andeq	r0, r0, r8, asr r0
 34c:	80100e42 	andshi	r0, r0, r2, asr #28
 350:	82038104 	andhi	r8, r3, #1
 354:	42018302 	andmi	r8, r1, #134217728	; 0x8000000
 358:	07841c0e 	streq	r1, [r4, lr, lsl #24]
 35c:	058e0685 	streq	r0, [lr, #1669]	; 0x685
 360:	5c280e42 	stcpl	14, cr0, [r8], #-264	; 0xfffffef8
 364:	ce421c0e 	cdpgt	12, 4, cr1, cr2, cr14, {0}
 368:	100ec4c5 	andne	ip, lr, r5, asr #9
 36c:	c1c2c342 	bicgt	ip, r2, r2, asr #6
 370:	00000ec0 	andeq	r0, r0, r0, asr #29
 374:	0000000c 	andeq	r0, r0, ip
 378:	ffffffff 			; <UNDEFINED> instruction: 0xffffffff
 37c:	7c020001 	stcvc	0, cr0, [r2], {1}
 380:	000d0c0e 	andeq	r0, sp, lr, lsl #24
 384:	00000014 	andeq	r0, r0, r4, lsl r0
 388:	00000374 	andeq	r0, r0, r4, ror r3
 38c:	00008d20 	andeq	r8, r0, r0, lsr #26
 390:	00000034 	andeq	r0, r0, r4, lsr r0
 394:	84080e42 	strhi	r0, [r8], #-3650	; 0xfffff1be
 398:	00018e02 	andeq	r8, r1, r2, lsl #28
 39c:	0000000c 	andeq	r0, r0, ip
 3a0:	ffffffff 			; <UNDEFINED> instruction: 0xffffffff
 3a4:	7c020001 	stcvc	0, cr0, [r2], {1}
 3a8:	000d0c0e 	andeq	r0, sp, lr, lsl #24
 3ac:	0000000c 	andeq	r0, r0, ip
 3b0:	0000039c 	muleq	r0, ip, r3
 3b4:	00008d54 	andeq	r8, r0, r4, asr sp
 3b8:	00000014 	andeq	r0, r0, r4, lsl r0
 3bc:	0000000c 	andeq	r0, r0, ip
 3c0:	0000039c 	muleq	r0, ip, r3
 3c4:	00008d68 	andeq	r8, r0, r8, ror #26
 3c8:	00000024 	andeq	r0, r0, r4, lsr #32
 3cc:	0000000c 	andeq	r0, r0, ip
 3d0:	0000039c 	muleq	r0, ip, r3
 3d4:	00008d8c 	andeq	r8, r0, ip, lsl #27
 3d8:	00000038 	andeq	r0, r0, r8, lsr r0
 3dc:	00000024 	andeq	r0, r0, r4, lsr #32
 3e0:	0000039c 	muleq	r0, ip, r3
 3e4:	00008dc4 	andeq	r8, r0, r4, asr #27
 3e8:	000001b4 			; <UNDEFINED> instruction: 0x000001b4
 3ec:	84140e42 	ldrhi	r0, [r4], #-3650	; 0xfffff1be
 3f0:	86048505 	strhi	r8, [r4], -r5, lsl #10
 3f4:	8e028703 	cdphi	7, 0, cr8, cr2, cr3, {0}
 3f8:	600e4201 	andvs	r4, lr, r1, lsl #4
 3fc:	0e0a9a02 	vmlaeq.f32	s18, s20, s4
 400:	000b4214 	andeq	r4, fp, r4, lsl r2
 404:	00000014 	andeq	r0, r0, r4, lsl r0
 408:	0000039c 	muleq	r0, ip, r3
 40c:	00008f78 	andeq	r8, r0, r8, ror pc
 410:	00000064 	andeq	r0, r0, r4, rrx
 414:	8e040e54 	mcrhi	14, 0, r0, cr4, cr4, {2}
 418:	100e4201 	andne	r4, lr, r1, lsl #4
 41c:	0000002c 	andeq	r0, r0, ip, lsr #32
 420:	0000039c 	muleq	r0, ip, r3
 424:	00008fdc 	ldrdeq	r8, [r0], -ip
 428:	000004b8 			; <UNDEFINED> instruction: 0x000004b8
 42c:	84240e42 	strthi	r0, [r4], #-3650	; 0xfffff1be
 430:	86088509 	strhi	r8, [r8], -r9, lsl #10
 434:	88068707 	stmdahi	r6, {r0, r1, r2, r8, r9, sl, pc}
 438:	8a048905 	bhi	122854 <__bss_end__+0x117dec>
 43c:	8e028b03 	vmlahi.f64	d8, d2, d3
 440:	b80e4201 	stmdalt	lr, {r0, r9, lr}
 444:	02380302 	eorseq	r0, r8, #134217728	; 0x8000000
 448:	0000240e 	andeq	r2, r0, lr, lsl #8
 44c:	0000000c 	andeq	r0, r0, ip
 450:	ffffffff 			; <UNDEFINED> instruction: 0xffffffff
 454:	7c020001 	stcvc	0, cr0, [r2], {1}
 458:	000d0c0e 	andeq	r0, sp, lr, lsl #24
 45c:	00000014 	andeq	r0, r0, r4, lsl r0
 460:	0000044c 	andeq	r0, r0, ip, asr #8
 464:	00009494 	muleq	r0, r4, r4
 468:	0000002c 	andeq	r0, r0, ip, lsr #32
 46c:	84080e42 	strhi	r0, [r8], #-3650	; 0xfffff1be
 470:	00018e02 	andeq	r8, r1, r2, lsl #28
 474:	0000000c 	andeq	r0, r0, ip
 478:	ffffffff 			; <UNDEFINED> instruction: 0xffffffff
 47c:	7c020001 	stcvc	0, cr0, [r2], {1}
 480:	000d0c0e 	andeq	r0, sp, lr, lsl #24
 484:	00000014 	andeq	r0, r0, r4, lsl r0
 488:	00000474 	andeq	r0, r0, r4, ror r4
 48c:	000094c0 	andeq	r9, r0, r0, asr #9
 490:	0000003c 	andeq	r0, r0, ip, lsr r0
 494:	84080e42 	strhi	r0, [r8], #-3650	; 0xfffff1be
 498:	00018e02 	andeq	r8, r1, r2, lsl #28
 49c:	0000000c 	andeq	r0, r0, ip
 4a0:	ffffffff 			; <UNDEFINED> instruction: 0xffffffff
 4a4:	7c020001 	stcvc	0, cr0, [r2], {1}
 4a8:	000d0c0e 	andeq	r0, sp, lr, lsl #24
 4ac:	0000000c 	andeq	r0, r0, ip
 4b0:	0000049c 	muleq	r0, ip, r4
 4b4:	000094fc 	strdeq	r9, [r0], -ip
 4b8:	00000004 	andeq	r0, r0, r4
 4bc:	0000000c 	andeq	r0, r0, ip
 4c0:	ffffffff 			; <UNDEFINED> instruction: 0xffffffff
 4c4:	7c020001 	stcvc	0, cr0, [r2], {1}
 4c8:	000d0c0e 	andeq	r0, sp, lr, lsl #24
 4cc:	0000000c 	andeq	r0, r0, ip
 4d0:	000004bc 			; <UNDEFINED> instruction: 0x000004bc
 4d4:	00009500 	andeq	r9, r0, r0, lsl #10
 4d8:	00000018 	andeq	r0, r0, r8, lsl r0
 4dc:	0000000c 	andeq	r0, r0, ip
 4e0:	000004bc 			; <UNDEFINED> instruction: 0x000004bc
 4e4:	00009518 	andeq	r9, r0, r8, lsl r5
 4e8:	00000014 	andeq	r0, r0, r4, lsl r0
 4ec:	00000014 	andeq	r0, r0, r4, lsl r0
 4f0:	000004bc 			; <UNDEFINED> instruction: 0x000004bc
 4f4:	0000952c 	andeq	r9, r0, ip, lsr #10
 4f8:	00000054 	andeq	r0, r0, r4, asr r0
 4fc:	84080e42 	strhi	r0, [r8], #-3650	; 0xfffff1be
 500:	00018e02 	andeq	r8, r1, r2, lsl #28
 504:	0000000c 	andeq	r0, r0, ip
 508:	ffffffff 			; <UNDEFINED> instruction: 0xffffffff
 50c:	7c020001 	stcvc	0, cr0, [r2], {1}
 510:	000d0c0e 	andeq	r0, sp, lr, lsl #24
 514:	00000014 	andeq	r0, r0, r4, lsl r0
 518:	00000504 	andeq	r0, r0, r4, lsl #10
 51c:	00009580 	andeq	r9, r0, r0, lsl #11
 520:	00000014 	andeq	r0, r0, r4, lsl r0
 524:	84080e42 	strhi	r0, [r8], #-3650	; 0xfffff1be
 528:	00018e02 	andeq	r8, r1, r2, lsl #28
 52c:	00000014 	andeq	r0, r0, r4, lsl r0
 530:	00000504 	andeq	r0, r0, r4, lsl #10
 534:	00009594 	muleq	r0, r4, r5
 538:	0000001c 	andeq	r0, r0, ip, lsl r0
 53c:	84080e42 	strhi	r0, [r8], #-3650	; 0xfffff1be
 540:	00018e02 	andeq	r8, r1, r2, lsl #28
 544:	00000018 	andeq	r0, r0, r8, lsl r0
 548:	00000504 	andeq	r0, r0, r4, lsl #10
 54c:	000095b0 			; <UNDEFINED> instruction: 0x000095b0
 550:	00000024 	andeq	r0, r0, r4, lsr #32
 554:	84100e42 	ldrhi	r0, [r0], #-3650	; 0xfffff1be
 558:	86038504 	strhi	r8, [r3], -r4, lsl #10
 55c:	00018e02 	andeq	r8, r1, r2, lsl #28
 560:	00000014 	andeq	r0, r0, r4, lsl r0
 564:	00000504 	andeq	r0, r0, r4, lsl #10
 568:	000095d4 	ldrdeq	r9, [r0], -r4
 56c:	00000018 	andeq	r0, r0, r8, lsl r0
 570:	84080e42 	strhi	r0, [r8], #-3650	; 0xfffff1be
 574:	00018e02 	andeq	r8, r1, r2, lsl #28
 578:	00000014 	andeq	r0, r0, r4, lsl r0
 57c:	00000504 	andeq	r0, r0, r4, lsl #10
 580:	000095ec 	andeq	r9, r0, ip, ror #11
 584:	00000018 	andeq	r0, r0, r8, lsl r0
 588:	84080e42 	strhi	r0, [r8], #-3650	; 0xfffff1be
 58c:	00018e02 	andeq	r8, r1, r2, lsl #28
 590:	0000000c 	andeq	r0, r0, ip
 594:	ffffffff 			; <UNDEFINED> instruction: 0xffffffff
 598:	7c020001 	stcvc	0, cr0, [r2], {1}
 59c:	000d0c0e 	andeq	r0, sp, lr, lsl #24
 5a0:	00000018 	andeq	r0, r0, r8, lsl r0
 5a4:	00000590 	muleq	r0, r0, r5
 5a8:	00009604 	andeq	r9, r0, r4, lsl #12
 5ac:	00000020 	andeq	r0, r0, r0, lsr #32
 5b0:	84100e42 	ldrhi	r0, [r0], #-3650	; 0xfffff1be
 5b4:	86038504 	strhi	r8, [r3], -r4, lsl #10
 5b8:	00018e02 	andeq	r8, r1, r2, lsl #28
 5bc:	00000018 	andeq	r0, r0, r8, lsl r0
 5c0:	00000590 	muleq	r0, r0, r5
 5c4:	00009624 	andeq	r9, r0, r4, lsr #12
 5c8:	00000020 	andeq	r0, r0, r0, lsr #32
 5cc:	84100e42 	ldrhi	r0, [r0], #-3650	; 0xfffff1be
 5d0:	86038504 	strhi	r8, [r3], -r4, lsl #10
 5d4:	00018e02 	andeq	r8, r1, r2, lsl #28
 5d8:	00000014 	andeq	r0, r0, r4, lsl r0
 5dc:	00000590 	muleq	r0, r0, r5
 5e0:	00009644 	andeq	r9, r0, r4, asr #12
 5e4:	000000b0 	strheq	r0, [r0], -r0	; <UNPREDICTABLE>
 5e8:	84080e42 	strhi	r0, [r8], #-3650	; 0xfffff1be
 5ec:	00018e02 	andeq	r8, r1, r2, lsl #28
 5f0:	00000014 	andeq	r0, r0, r4, lsl r0
 5f4:	00000590 	muleq	r0, r0, r5
 5f8:	000096f4 	strdeq	r9, [r0], -r4
 5fc:	00000018 	andeq	r0, r0, r8, lsl r0
 600:	84080e42 	strhi	r0, [r8], #-3650	; 0xfffff1be
 604:	00018e02 	andeq	r8, r1, r2, lsl #28
 608:	00000014 	andeq	r0, r0, r4, lsl r0
 60c:	00000590 	muleq	r0, r0, r5
 610:	0000970c 	andeq	r9, r0, ip, lsl #14
 614:	00000020 	andeq	r0, r0, r0, lsr #32
 618:	84080e42 	strhi	r0, [r8], #-3650	; 0xfffff1be
 61c:	00018e02 	andeq	r8, r1, r2, lsl #28
 620:	00000014 	andeq	r0, r0, r4, lsl r0
 624:	00000590 	muleq	r0, r0, r5
 628:	0000972c 	andeq	r9, r0, ip, lsr #14
 62c:	00000030 	andeq	r0, r0, r0, lsr r0
 630:	84080e42 	strhi	r0, [r8], #-3650	; 0xfffff1be
 634:	00018e02 	andeq	r8, r1, r2, lsl #28
 638:	00000014 	andeq	r0, r0, r4, lsl r0
 63c:	00000590 	muleq	r0, r0, r5
 640:	0000975c 	andeq	r9, r0, ip, asr r7
 644:	00000030 	andeq	r0, r0, r0, lsr r0
 648:	84080e42 	strhi	r0, [r8], #-3650	; 0xfffff1be
 64c:	00018e02 	andeq	r8, r1, r2, lsl #28
 650:	00000014 	andeq	r0, r0, r4, lsl r0
 654:	00000590 	muleq	r0, r0, r5
 658:	0000978c 	andeq	r9, r0, ip, lsl #15
 65c:	00000010 	andeq	r0, r0, r0, lsl r0
 660:	84080e42 	strhi	r0, [r8], #-3650	; 0xfffff1be
 664:	00018e02 	andeq	r8, r1, r2, lsl #28
 668:	00000014 	andeq	r0, r0, r4, lsl r0
 66c:	00000590 	muleq	r0, r0, r5
 670:	0000979c 	muleq	r0, ip, r7
 674:	00000020 	andeq	r0, r0, r0, lsr #32
 678:	84080e42 	strhi	r0, [r8], #-3650	; 0xfffff1be
 67c:	00018e02 	andeq	r8, r1, r2, lsl #28
 680:	00000014 	andeq	r0, r0, r4, lsl r0
 684:	00000590 	muleq	r0, r0, r5
 688:	000097bc 			; <UNDEFINED> instruction: 0x000097bc
 68c:	00000014 	andeq	r0, r0, r4, lsl r0
 690:	84080e42 	strhi	r0, [r8], #-3650	; 0xfffff1be
 694:	00018e02 	andeq	r8, r1, r2, lsl #28
 698:	00000014 	andeq	r0, r0, r4, lsl r0
 69c:	00000590 	muleq	r0, r0, r5
 6a0:	000097d0 	ldrdeq	r9, [r0], -r0
 6a4:	00000024 	andeq	r0, r0, r4, lsr #32
 6a8:	84080e42 	strhi	r0, [r8], #-3650	; 0xfffff1be
 6ac:	00018e02 	andeq	r8, r1, r2, lsl #28
 6b0:	0000000c 	andeq	r0, r0, ip
 6b4:	ffffffff 			; <UNDEFINED> instruction: 0xffffffff
 6b8:	7c020001 	stcvc	0, cr0, [r2], {1}
 6bc:	000d0c0e 	andeq	r0, sp, lr, lsl #24
 6c0:	0000000c 	andeq	r0, r0, ip
 6c4:	000006b0 			; <UNDEFINED> instruction: 0x000006b0
 6c8:	000097f4 	strdeq	r9, [r0], -r4
 6cc:	00000010 	andeq	r0, r0, r0, lsl r0
 6d0:	0000000c 	andeq	r0, r0, ip
 6d4:	000006b0 			; <UNDEFINED> instruction: 0x000006b0
 6d8:	00009804 	andeq	r9, r0, r4, lsl #16
 6dc:	00000010 	andeq	r0, r0, r0, lsl r0
 6e0:	0000000c 	andeq	r0, r0, ip
 6e4:	000006b0 			; <UNDEFINED> instruction: 0x000006b0
 6e8:	00009814 	andeq	r9, r0, r4, lsl r8
 6ec:	00000010 	andeq	r0, r0, r0, lsl r0
 6f0:	0000001c 	andeq	r0, r0, ip, lsl r0
 6f4:	000006b0 			; <UNDEFINED> instruction: 0x000006b0
 6f8:	00009824 	andeq	r9, r0, r4, lsr #16
 6fc:	0000009c 	muleq	r0, ip, r0
 700:	8e040e42 	cdphi	14, 0, cr0, cr4, cr2, {2}
 704:	100e4201 	andne	r4, lr, r1, lsl #4
 708:	040e0a58 	streq	r0, [lr], #-2648	; 0xfffff5a8
 70c:	00000b42 	andeq	r0, r0, r2, asr #22
 710:	00000014 	andeq	r0, r0, r4, lsl r0
 714:	000006b0 			; <UNDEFINED> instruction: 0x000006b0
 718:	000098c0 	andeq	r9, r0, r0, asr #17
 71c:	00000058 	andeq	r0, r0, r8, asr r0
 720:	84080e42 	strhi	r0, [r8], #-3650	; 0xfffff1be
 724:	00018e02 	andeq	r8, r1, r2, lsl #28
 728:	0000001c 	andeq	r0, r0, ip, lsl r0
 72c:	000006b0 			; <UNDEFINED> instruction: 0x000006b0
 730:	00009918 	andeq	r9, r0, r8, lsl r9
 734:	00000098 	muleq	r0, r8, r0
 738:	8e040e42 	cdphi	14, 0, cr0, cr4, cr2, {2}
 73c:	100e4201 	andne	r4, lr, r1, lsl #4
 740:	040e0a58 	streq	r0, [lr], #-2648	; 0xfffff5a8
 744:	00000b42 	andeq	r0, r0, r2, asr #22
 748:	00000020 	andeq	r0, r0, r0, lsr #32
 74c:	000006b0 			; <UNDEFINED> instruction: 0x000006b0
 750:	000099b0 			; <UNDEFINED> instruction: 0x000099b0
 754:	00000064 	andeq	r0, r0, r4, rrx
 758:	840c0e42 	strhi	r0, [ip], #-3650	; 0xfffff1be
 75c:	8e028503 	cfsh32hi	mvfx8, mvfx2, #3
 760:	180e4201 	stmdane	lr, {r0, r9, lr}
 764:	0c0e0a54 			; <UNDEFINED> instruction: 0x0c0e0a54
 768:	00000b42 	andeq	r0, r0, r2, asr #22
 76c:	0000001c 	andeq	r0, r0, ip, lsl r0
 770:	000006b0 			; <UNDEFINED> instruction: 0x000006b0
 774:	00009a14 	andeq	r9, r0, r4, lsl sl
 778:	00000118 	andeq	r0, r0, r8, lsl r1
 77c:	8e040e42 	cdphi	14, 0, cr0, cr4, cr2, {2}
 780:	100e4201 	andne	r4, lr, r1, lsl #4
 784:	040e0a6c 	streq	r0, [lr], #-2668	; 0xfffff594
 788:	00000b42 	andeq	r0, r0, r2, asr #22
 78c:	0000000c 	andeq	r0, r0, ip
 790:	000006b0 			; <UNDEFINED> instruction: 0x000006b0
 794:	00009b2c 	andeq	r9, r0, ip, lsr #22
 798:	00000004 	andeq	r0, r0, r4
 79c:	0000000c 	andeq	r0, r0, ip
 7a0:	000006b0 			; <UNDEFINED> instruction: 0x000006b0
 7a4:	00009b30 	andeq	r9, r0, r0, lsr fp
 7a8:	00000014 	andeq	r0, r0, r4, lsl r0
 7ac:	00000014 	andeq	r0, r0, r4, lsl r0
 7b0:	000006b0 			; <UNDEFINED> instruction: 0x000006b0
 7b4:	00009b44 	andeq	r9, r0, r4, asr #22
 7b8:	00000060 	andeq	r0, r0, r0, rrx
 7bc:	8e040e58 	mcrhi	14, 0, r0, cr4, cr8, {2}
 7c0:	100e4201 	andne	r4, lr, r1, lsl #4
 7c4:	0000000c 	andeq	r0, r0, ip
 7c8:	ffffffff 			; <UNDEFINED> instruction: 0xffffffff
 7cc:	7c020001 	stcvc	0, cr0, [r2], {1}
 7d0:	000d0c0e 	andeq	r0, sp, lr, lsl #24
 7d4:	00000014 	andeq	r0, r0, r4, lsl r0
 7d8:	000007c4 	andeq	r0, r0, r4, asr #15
 7dc:	00009ba4 	andeq	r9, r0, r4, lsr #23
 7e0:	00000014 	andeq	r0, r0, r4, lsl r0
 7e4:	84080e42 	strhi	r0, [r8], #-3650	; 0xfffff1be
 7e8:	00018e02 	andeq	r8, r1, r2, lsl #28
 7ec:	0000000c 	andeq	r0, r0, ip
 7f0:	000007c4 	andeq	r0, r0, r4, asr #15
 7f4:	00009bb8 			; <UNDEFINED> instruction: 0x00009bb8
 7f8:	00000018 	andeq	r0, r0, r8, lsl r0
 7fc:	0000000c 	andeq	r0, r0, ip
 800:	000007c4 	andeq	r0, r0, r4, asr #15
 804:	00009bd0 	ldrdeq	r9, [r0], -r0
 808:	00000010 	andeq	r0, r0, r0, lsl r0
 80c:	0000000c 	andeq	r0, r0, ip
 810:	ffffffff 			; <UNDEFINED> instruction: 0xffffffff
 814:	7c020001 	stcvc	0, cr0, [r2], {1}
 818:	000d0c0e 	andeq	r0, sp, lr, lsl #24
 81c:	0000000c 	andeq	r0, r0, ip
 820:	0000080c 	andeq	r0, r0, ip, lsl #16
 824:	00009be0 	andeq	r9, r0, r0, ror #23
 828:	00000034 	andeq	r0, r0, r4, lsr r0
 82c:	0000000c 	andeq	r0, r0, ip
 830:	ffffffff 			; <UNDEFINED> instruction: 0xffffffff
 834:	7c020001 	stcvc	0, cr0, [r2], {1}
 838:	000d0c0e 	andeq	r0, sp, lr, lsl #24
 83c:	0000000c 	andeq	r0, r0, ip
 840:	0000082c 	andeq	r0, r0, ip, lsr #16
 844:	00009c14 	andeq	r9, r0, r4, lsl ip
 848:	0000002c 	andeq	r0, r0, ip, lsr #32
 84c:	0000000c 	andeq	r0, r0, ip
 850:	ffffffff 			; <UNDEFINED> instruction: 0xffffffff
 854:	7c020001 	stcvc	0, cr0, [r2], {1}
 858:	000d0c0e 	andeq	r0, sp, lr, lsl #24
 85c:	0000000c 	andeq	r0, r0, ip
 860:	0000084c 	andeq	r0, r0, ip, asr #16
 864:	00009c40 	andeq	r9, r0, r0, asr #24
 868:	00000020 	andeq	r0, r0, r0, lsr #32
 86c:	0000000c 	andeq	r0, r0, ip
 870:	ffffffff 			; <UNDEFINED> instruction: 0xffffffff
 874:	7c020001 	stcvc	0, cr0, [r2], {1}
 878:	000d0c0e 	andeq	r0, sp, lr, lsl #24
 87c:	0000000c 	andeq	r0, r0, ip
 880:	0000086c 	andeq	r0, r0, ip, ror #16
 884:	00009c60 	andeq	r9, r0, r0, ror #24
 888:	0000002c 	andeq	r0, r0, ip, lsr #32
 88c:	0000000c 	andeq	r0, r0, ip
 890:	ffffffff 			; <UNDEFINED> instruction: 0xffffffff
 894:	7c020001 	stcvc	0, cr0, [r2], {1}
 898:	000d0c0e 	andeq	r0, sp, lr, lsl #24
 89c:	0000000c 	andeq	r0, r0, ip
 8a0:	0000088c 	andeq	r0, r0, ip, lsl #17
 8a4:	00009c8c 	andeq	r9, r0, ip, lsl #25
 8a8:	00000004 	andeq	r0, r0, r4
 8ac:	0000000c 	andeq	r0, r0, ip
 8b0:	ffffffff 			; <UNDEFINED> instruction: 0xffffffff
 8b4:	7c020001 	stcvc	0, cr0, [r2], {1}
 8b8:	000d0c0e 	andeq	r0, sp, lr, lsl #24
 8bc:	00000018 	andeq	r0, r0, r8, lsl r0
 8c0:	000008ac 	andeq	r0, r0, ip, lsr #17
 8c4:	00009ca8 	andeq	r9, r0, r8, lsr #25
 8c8:	00000064 	andeq	r0, r0, r4, rrx
 8cc:	84100e46 	ldrhi	r0, [r0], #-3654	; 0xfffff1ba
 8d0:	86038504 	strhi	r8, [r3], -r4, lsl #10
 8d4:	00018e02 	andeq	r8, r1, r2, lsl #28
 8d8:	00000014 	andeq	r0, r0, r4, lsl r0
 8dc:	000008ac 	andeq	r0, r0, ip, lsr #17
 8e0:	00009d0c 	andeq	r9, r0, ip, lsl #26
 8e4:	00000010 	andeq	r0, r0, r0, lsl r0
 8e8:	84080e42 	strhi	r0, [r8], #-3650	; 0xfffff1be
 8ec:	00018e02 	andeq	r8, r1, r2, lsl #28
 8f0:	00000014 	andeq	r0, r0, r4, lsl r0
 8f4:	000008ac 	andeq	r0, r0, ip, lsr #17
 8f8:	00009d1c 	andeq	r9, r0, ip, lsl sp
 8fc:	00000024 	andeq	r0, r0, r4, lsr #32
 900:	84080e46 	strhi	r0, [r8], #-3654	; 0xfffff1ba
 904:	00018e02 	andeq	r8, r1, r2, lsl #28
 908:	00000014 	andeq	r0, r0, r4, lsl r0
 90c:	000008ac 	andeq	r0, r0, ip, lsr #17
 910:	00009d40 	andeq	r9, r0, r0, asr #26
 914:	00000024 	andeq	r0, r0, r4, lsr #32
 918:	84080e46 	strhi	r0, [r8], #-3654	; 0xfffff1ba
 91c:	00018e02 	andeq	r8, r1, r2, lsl #28
 920:	00000014 	andeq	r0, r0, r4, lsl r0
 924:	000008ac 	andeq	r0, r0, ip, lsr #17
 928:	00009d64 	andeq	r9, r0, r4, ror #26
 92c:	00000010 	andeq	r0, r0, r0, lsl r0
 930:	84080e42 	strhi	r0, [r8], #-3650	; 0xfffff1be
 934:	00018e02 	andeq	r8, r1, r2, lsl #28
 938:	00000014 	andeq	r0, r0, r4, lsl r0
 93c:	000008ac 	andeq	r0, r0, ip, lsr #17
 940:	00009d74 	andeq	r9, r0, r4, ror sp
 944:	0000001c 	andeq	r0, r0, ip, lsl r0
 948:	84080e42 	strhi	r0, [r8], #-3650	; 0xfffff1be
 94c:	00018e02 	andeq	r8, r1, r2, lsl #28
 950:	00000018 	andeq	r0, r0, r8, lsl r0
 954:	000008ac 	andeq	r0, r0, ip, lsr #17
 958:	00009d90 	muleq	r0, r0, sp
 95c:	00000034 	andeq	r0, r0, r4, lsr r0
 960:	84080e46 	strhi	r0, [r8], #-3654	; 0xfffff1ba
 964:	4e018e02 	cdpmi	14, 0, cr8, cr1, cr2, {0}
 968:	cec4000e 	cdpgt	0, 12, cr0, cr4, cr14, {0}

Disassembly of section .debug_ranges:

00000000 <.debug_ranges>:
   0:	00000010 	andeq	r0, r0, r0, lsl r0
   4:	00000028 	andeq	r0, r0, r8, lsr #32
   8:	00000040 	andeq	r0, r0, r0, asr #32
   c:	00000074 	andeq	r0, r0, r4, ror r0
	...
  18:	00000148 	andeq	r0, r0, r8, asr #2
  1c:	0000017c 	andeq	r0, r0, ip, ror r1
  20:	00000184 	andeq	r0, r0, r4, lsl #3
  24:	00000190 	muleq	r0, r0, r1
	...
  30:	0000019c 	muleq	r0, ip, r1
  34:	000001c4 	andeq	r0, r0, r4, asr #3
  38:	000001c8 	andeq	r0, r0, r8, asr #3
  3c:	000001cc 	andeq	r0, r0, ip, asr #3
  40:	000001d4 	ldrdeq	r0, [r0], -r4
  44:	000001d8 	ldrdeq	r0, [r0], -r8
	...
  50:	00000250 	andeq	r0, r0, r0, asr r2
  54:	00000254 	andeq	r0, r0, r4, asr r2
  58:	000002b4 			; <UNDEFINED> instruction: 0x000002b4
  5c:	00000338 	andeq	r0, r0, r8, lsr r3
	...
  68:	000002b4 			; <UNDEFINED> instruction: 0x000002b4
  6c:	000002d0 	ldrdeq	r0, [r0], -r0	; <UNPREDICTABLE>
  70:	000002dc 	ldrdeq	r0, [r0], -ip
  74:	00000338 	andeq	r0, r0, r8, lsr r3
	...
  80:	000002b4 			; <UNDEFINED> instruction: 0x000002b4
  84:	000002d0 	ldrdeq	r0, [r0], -r0	; <UNPREDICTABLE>
  88:	000002fc 	strdeq	r0, [r0], -ip
  8c:	00000338 	andeq	r0, r0, r8, lsr r3
	...
  98:	00009500 	andeq	r9, r0, r0, lsl #10
  9c:	00009580 	andeq	r9, r0, r0, lsl #11
	...
  a8:	00000134 	andeq	r0, r0, r4, lsr r1
  ac:	00000134 	andeq	r0, r0, r4, lsr r1
  b0:	00000134 	andeq	r0, r0, r4, lsr r1
  b4:	0000013c 	andeq	r0, r0, ip, lsr r1
	...
  c0:	0000024c 	andeq	r0, r0, ip, asr #4
  c4:	00000264 	andeq	r0, r0, r4, ror #4
  c8:	000002c8 	andeq	r0, r0, r8, asr #5
  cc:	000002e8 	andeq	r0, r0, r8, ror #5
	...
  d8:	00009c60 	andeq	r9, r0, r0, ror #24
  dc:	00009c8c 	andeq	r9, r0, ip, lsl #25
	...
